; Listing generated by Microsoft (R) Optimizing Compiler Version 14.00.50727.762 

	TITLE	C:\Users\cc\source\repos\Singularity-OS\base\Boot\SingLdrPc\blkdcom.cpp
	.686P
	.XMM
	include listing.inc
	.model	flat

INCLUDELIB LIBCMT
INCLUDELIB OLDNAMES

PUBLIC	?BlKdStaticPacket@@3U<unnamed-tag>@@A		; BlKdStaticPacket
PUBLIC	?BlKdComPort@@3EA				; BlKdComPort
_BSS	SEGMENT
?BlKdStaticPacket@@3U<unnamed-tag>@@A DB 01000H DUP (?)	; BlKdStaticPacket
?BlKdComPort@@3EA DB 01H DUP (?)			; BlKdComPort
_BSS	ENDS
PUBLIC	?BlKdComReceiveByte@@YIEPAE@Z			; BlKdComReceiveByte
EXTRN	?BlComReceiveByte@@YIEE@Z:PROC			; BlComReceiveByte
EXTRN	?BlComDataAvailable@@YIEE@Z:PROC		; BlComDataAvailable
; Function compile flags: /Odsp
; File c:\users\cc\source\repos\singularity-os\base\boot\singldrpc\blkdcom.cpp
;	COMDAT ?BlKdComReceiveByte@@YIEPAE@Z
_TEXT	SEGMENT
_Byte$ = -8						; size = 4
_Count$ = -4						; size = 4
?BlKdComReceiveByte@@YIEPAE@Z PROC			; BlKdComReceiveByte, COMDAT
; _Byte$ = ecx

; 53   : {

  00000	55		 push	 ebp
  00001	8b ec		 mov	 ebp, esp
  00003	51		 push	 ecx
  00004	51		 push	 ecx
  00005	89 4d f8	 mov	 DWORD PTR _Byte$[ebp], ecx

; 54   :     volatile UINT32 Count;
; 55   : 
; 56   :     if (BlKdComPort != 0) {

  00008	0f b6 05 00 00
	00 00		 movzx	 eax, BYTE PTR ?BlKdComPort@@3EA ; BlKdComPort
  0000f	85 c0		 test	 eax, eax
  00011	74 40		 je	 SHORT $LN4@BlKdComRec

; 57   : 
; 58   :         Count = KD_DELAY_LOOP;

  00013	c7 45 fc 00 00
	01 00		 mov	 DWORD PTR _Count$[ebp], 65536 ; 00010000H
$LN3@BlKdComRec:

; 59   : 
; 60   :         while (Count > 0) {

  0001a	83 7d fc 00	 cmp	 DWORD PTR _Count$[ebp], 0
  0001e	76 2f		 jbe	 SHORT $LN2@BlKdComRec

; 61   : 
; 62   :             if (BlComDataAvailable(BlKdComPort) != FALSE) {

  00020	8a 0d 00 00 00
	00		 mov	 cl, BYTE PTR ?BlKdComPort@@3EA ; BlKdComPort
  00026	e8 00 00 00 00	 call	 ?BlComDataAvailable@@YIEE@Z ; BlComDataAvailable
  0002b	0f b6 c0	 movzx	 eax, al
  0002e	85 c0		 test	 eax, eax
  00030	74 14		 je	 SHORT $LN1@BlKdComRec

; 63   : 
; 64   :                 *Byte = BlComReceiveByte(BlKdComPort);

  00032	8a 0d 00 00 00
	00		 mov	 cl, BYTE PTR ?BlKdComPort@@3EA ; BlKdComPort
  00038	e8 00 00 00 00	 call	 ?BlComReceiveByte@@YIEE@Z ; BlComReceiveByte
  0003d	8b 4d f8	 mov	 ecx, DWORD PTR _Byte$[ebp]
  00040	88 01		 mov	 BYTE PTR [ecx], al

; 65   : 
; 66   :                 return TRUE;

  00042	b0 01		 mov	 al, 1
  00044	eb 0f		 jmp	 SHORT $LN5@BlKdComRec
$LN1@BlKdComRec:

; 67   :             }
; 68   : 
; 69   :             Count -= 1;

  00046	8b 45 fc	 mov	 eax, DWORD PTR _Count$[ebp]
  00049	48		 dec	 eax
  0004a	89 45 fc	 mov	 DWORD PTR _Count$[ebp], eax

; 70   :         }

  0004d	eb cb		 jmp	 SHORT $LN3@BlKdComRec
$LN2@BlKdComRec:

; 71   : 
; 72   : #if KD_VERBOSE
; 73   : 
; 74   :         BlVideoPrintf("KD: Receive timeout!\n");
; 75   : 
; 76   : #endif
; 77   : 
; 78   :         return FALSE;

  0004f	32 c0		 xor	 al, al
  00051	eb 02		 jmp	 SHORT $LN5@BlKdComRec
$LN4@BlKdComRec:

; 79   :     }
; 80   : 
; 81   :     return FALSE;

  00053	32 c0		 xor	 al, al
$LN5@BlKdComRec:

; 82   : }

  00055	c9		 leave
  00056	c3		 ret	 0
?BlKdComReceiveByte@@YIEPAE@Z ENDP			; BlKdComReceiveByte
_TEXT	ENDS
PUBLIC	?BlKdComSendData@@YIEPBXK@Z			; BlKdComSendData
EXTRN	?BlComSendByte@@YIEEE@Z:PROC			; BlComSendByte
; Function compile flags: /Odsp
;	COMDAT ?BlKdComSendData@@YIEPBXK@Z
_TEXT	SEGMENT
_Length$ = -12						; size = 4
_Buffer$ = -8						; size = 4
_Index$ = -4						; size = 4
?BlKdComSendData@@YIEPBXK@Z PROC			; BlKdComSendData, COMDAT
; _Buffer$ = ecx
; _Length$ = edx

; 109  : {

  00000	55		 push	 ebp
  00001	8b ec		 mov	 ebp, esp
  00003	83 ec 0c	 sub	 esp, 12			; 0000000cH
  00006	89 55 f4	 mov	 DWORD PTR _Length$[ebp], edx
  00009	89 4d f8	 mov	 DWORD PTR _Buffer$[ebp], ecx

; 110  :     UINT32 Index;
; 111  : 
; 112  :     for (Index = 0; Index < Length; Index += 1) {

  0000c	83 65 fc 00	 and	 DWORD PTR _Index$[ebp], 0
  00010	eb 07		 jmp	 SHORT $LN4@BlKdComSen
$LN3@BlKdComSen:
  00012	8b 45 fc	 mov	 eax, DWORD PTR _Index$[ebp]
  00015	40		 inc	 eax
  00016	89 45 fc	 mov	 DWORD PTR _Index$[ebp], eax
$LN4@BlKdComSen:
  00019	8b 45 fc	 mov	 eax, DWORD PTR _Index$[ebp]
  0001c	3b 45 f4	 cmp	 eax, DWORD PTR _Length$[ebp]
  0001f	73 20		 jae	 SHORT $LN2@BlKdComSen

; 113  : 
; 114  :         if (BlComSendByte(BlKdComPort, ((PUINT8) Buffer)[Index]) == FALSE) {

  00021	8b 45 f8	 mov	 eax, DWORD PTR _Buffer$[ebp]
  00024	03 45 fc	 add	 eax, DWORD PTR _Index$[ebp]
  00027	8a 10		 mov	 dl, BYTE PTR [eax]
  00029	8a 0d 00 00 00
	00		 mov	 cl, BYTE PTR ?BlKdComPort@@3EA ; BlKdComPort
  0002f	e8 00 00 00 00	 call	 ?BlComSendByte@@YIEEE@Z	; BlComSendByte
  00034	0f b6 c0	 movzx	 eax, al
  00037	85 c0		 test	 eax, eax
  00039	75 04		 jne	 SHORT $LN1@BlKdComSen

; 115  : 
; 116  :             return FALSE;

  0003b	32 c0		 xor	 al, al
  0003d	eb 04		 jmp	 SHORT $LN5@BlKdComSen
$LN1@BlKdComSen:

; 117  :         }
; 118  :     }

  0003f	eb d1		 jmp	 SHORT $LN3@BlKdComSen
$LN2@BlKdComSen:

; 119  : 
; 120  :     return TRUE;

  00041	b0 01		 mov	 al, 1
$LN5@BlKdComSen:

; 121  : }

  00043	c9		 leave
  00044	c3		 ret	 0
?BlKdComSendData@@YIEPBXK@Z ENDP			; BlKdComSendData
_TEXT	ENDS
PUBLIC	?BlKdComReceiveData@@YIEPAXK@Z			; BlKdComReceiveData
; Function compile flags: /Odsp
;	COMDAT ?BlKdComReceiveData@@YIEPAXK@Z
_TEXT	SEGMENT
_Length$ = -12						; size = 4
_Buffer$ = -8						; size = 4
_Index$ = -4						; size = 4
?BlKdComReceiveData@@YIEPAXK@Z PROC			; BlKdComReceiveData, COMDAT
; _Buffer$ = ecx
; _Length$ = edx

; 148  : {

  00000	55		 push	 ebp
  00001	8b ec		 mov	 ebp, esp
  00003	83 ec 0c	 sub	 esp, 12			; 0000000cH
  00006	89 55 f4	 mov	 DWORD PTR _Length$[ebp], edx
  00009	89 4d f8	 mov	 DWORD PTR _Buffer$[ebp], ecx

; 149  :     UINT32 Index;
; 150  : 
; 151  :     for (Index = 0; Index < Length; Index += 1) {

  0000c	83 65 fc 00	 and	 DWORD PTR _Index$[ebp], 0
  00010	eb 07		 jmp	 SHORT $LN4@BlKdComRec@2
$LN3@BlKdComRec@2:
  00012	8b 45 fc	 mov	 eax, DWORD PTR _Index$[ebp]
  00015	40		 inc	 eax
  00016	89 45 fc	 mov	 DWORD PTR _Index$[ebp], eax
$LN4@BlKdComRec@2:
  00019	8b 45 fc	 mov	 eax, DWORD PTR _Index$[ebp]
  0001c	3b 45 f4	 cmp	 eax, DWORD PTR _Length$[ebp]
  0001f	73 18		 jae	 SHORT $LN2@BlKdComRec@2

; 152  : 
; 153  :         if (BlKdComReceiveByte(&(((PUINT8) Buffer)[Index])) == FALSE) {

  00021	8b 4d f8	 mov	 ecx, DWORD PTR _Buffer$[ebp]
  00024	03 4d fc	 add	 ecx, DWORD PTR _Index$[ebp]
  00027	e8 00 00 00 00	 call	 ?BlKdComReceiveByte@@YIEPAE@Z ; BlKdComReceiveByte
  0002c	0f b6 c0	 movzx	 eax, al
  0002f	85 c0		 test	 eax, eax
  00031	75 04		 jne	 SHORT $LN1@BlKdComRec@2

; 154  : 
; 155  :             return FALSE;

  00033	32 c0		 xor	 al, al
  00035	eb 04		 jmp	 SHORT $LN5@BlKdComRec@2
$LN1@BlKdComRec@2:

; 156  :         }
; 157  :     }

  00037	eb d9		 jmp	 SHORT $LN3@BlKdComRec@2
$LN2@BlKdComRec@2:

; 158  : 
; 159  :     return TRUE;

  00039	b0 01		 mov	 al, 1
$LN5@BlKdComRec@2:

; 160  : }

  0003b	c9		 leave
  0003c	c3		 ret	 0
?BlKdComReceiveData@@YIEPAXK@Z ENDP			; BlKdComReceiveData
_TEXT	ENDS
PUBLIC	?BlKdComSendControlPacket@@YIEGK@Z		; BlKdComSendControlPacket
EXTRN	?BlRtlZeroMemory@@YIXPAXK@Z:PROC		; BlRtlZeroMemory
; Function compile flags: /Odsp
;	COMDAT ?BlKdComSendControlPacket@@YIEGK@Z
_TEXT	SEGMENT
_PacketId$ = -24					; size = 4
_PacketType$ = -20					; size = 2
_Header$ = -16						; size = 16
?BlKdComSendControlPacket@@YIEGK@Z PROC			; BlKdComSendControlPacket, COMDAT
; _PacketType$ = cx
; _PacketId$ = edx

; 187  : {

  00000	55		 push	 ebp
  00001	8b ec		 mov	 ebp, esp
  00003	83 ec 18	 sub	 esp, 24			; 00000018H
  00006	89 55 e8	 mov	 DWORD PTR _PacketId$[ebp], edx
  00009	66 89 4d ec	 mov	 WORD PTR _PacketType$[ebp], cx

; 188  :     KD_PACKET Header;
; 189  : 
; 190  :     BlRtlZeroMemory(&Header, sizeof(Header));

  0000d	6a 10		 push	 16			; 00000010H
  0000f	5a		 pop	 edx
  00010	8d 4d f0	 lea	 ecx, DWORD PTR _Header$[ebp]
  00013	e8 00 00 00 00	 call	 ?BlRtlZeroMemory@@YIXPAXK@Z ; BlRtlZeroMemory

; 191  : 
; 192  :     Header.PacketLeader = KD_CONTROL_PACKET_LEADER;

  00018	c7 45 f0 69 69
	69 69		 mov	 DWORD PTR _Header$[ebp], 1768515945 ; 69696969H

; 193  :     Header.PacketType = PacketType;

  0001f	66 8b 45 ec	 mov	 ax, WORD PTR _PacketType$[ebp]
  00023	66 89 45 f4	 mov	 WORD PTR _Header$[ebp+4], ax

; 194  :     Header.PacketId = PacketId;

  00027	8b 45 e8	 mov	 eax, DWORD PTR _PacketId$[ebp]
  0002a	89 45 f8	 mov	 DWORD PTR _Header$[ebp+8], eax

; 195  : 
; 196  :     if (BlKdComSendData(&Header, sizeof(Header)) == FALSE) {

  0002d	6a 10		 push	 16			; 00000010H
  0002f	5a		 pop	 edx
  00030	8d 4d f0	 lea	 ecx, DWORD PTR _Header$[ebp]
  00033	e8 00 00 00 00	 call	 ?BlKdComSendData@@YIEPBXK@Z ; BlKdComSendData
  00038	0f b6 c0	 movzx	 eax, al
  0003b	85 c0		 test	 eax, eax
  0003d	75 04		 jne	 SHORT $LN1@BlKdComSen@2

; 197  : 
; 198  :         return FALSE;

  0003f	32 c0		 xor	 al, al
  00041	eb 02		 jmp	 SHORT $LN2@BlKdComSen@2
$LN1@BlKdComSen@2:

; 199  :     }
; 200  : 
; 201  : #if KD_VERBOSE
; 202  : 
; 203  :     BlVideoPrintf("KD: Sent type %u control packet.\n", PacketType);
; 204  : 
; 205  : #endif
; 206  : 
; 207  :     return TRUE;

  00043	b0 01		 mov	 al, 1
$LN2@BlKdComSen@2:

; 208  : }

  00045	c9		 leave
  00046	c3		 ret	 0
?BlKdComSendControlPacket@@YIEGK@Z ENDP			; BlKdComSendControlPacket
_TEXT	ENDS
PUBLIC	?BlKdComReceivePacket@@YIEXZ			; BlKdComReceivePacket
; Function compile flags: /Odsp
;	COMDAT ?BlKdComReceivePacket@@YIEXZ
_TEXT	SEGMENT
_Header$ = -8						; size = 4
_TrailingByte$ = -1					; size = 1
?BlKdComReceivePacket@@YIEXZ PROC			; BlKdComReceivePacket, COMDAT

; 228  : {

  00000	55		 push	 ebp
  00001	8b ec		 mov	 ebp, esp
  00003	51		 push	 ecx
  00004	51		 push	 ecx

; 229  :     PKD_PACKET Header;
; 230  :     UINT8 TrailingByte;
; 231  : 
; 232  :     Header = &BlKdStaticPacket.Header;

  00005	c7 45 f8 00 00
	00 00		 mov	 DWORD PTR _Header$[ebp], OFFSET ?BlKdStaticPacket@@3U<unnamed-tag>@@A ; BlKdStaticPacket
$Retry$3323:

; 233  : 
; 234  : Retry:
; 235  : 
; 236  :     for (;;) {
; 237  : 
; 238  :         if (BlKdComReceiveData(&Header->PacketLeader, sizeof(Header->PacketLeader)) == FALSE) {

  0000c	6a 04		 push	 4
  0000e	5a		 pop	 edx
  0000f	8b 4d f8	 mov	 ecx, DWORD PTR _Header$[ebp]
  00012	e8 00 00 00 00	 call	 ?BlKdComReceiveData@@YIEPAXK@Z ; BlKdComReceiveData
  00017	0f b6 c0	 movzx	 eax, al
  0001a	85 c0		 test	 eax, eax
  0001c	75 07		 jne	 SHORT $LN12@BlKdComRec@3

; 239  : 
; 240  :             return FALSE;

  0001e	32 c0		 xor	 al, al
  00020	e9 e5 00 00 00	 jmp	 $LN15@BlKdComRec@3
$LN12@BlKdComRec@3:

; 241  :         }
; 242  : 
; 243  :         if (Header->PacketLeader == KD_PACKET_LEADER) {

  00025	8b 45 f8	 mov	 eax, DWORD PTR _Header$[ebp]
  00028	81 38 30 30 30
	30		 cmp	 DWORD PTR [eax], 808464432 ; 30303030H
  0002e	75 02		 jne	 SHORT $LN11@BlKdComRec@3

; 244  : 
; 245  :             break;

  00030	eb 0f		 jmp	 SHORT $LN13@BlKdComRec@3
$LN11@BlKdComRec@3:

; 246  :         }
; 247  : 
; 248  :         if (Header->PacketLeader == KD_CONTROL_PACKET_LEADER) {

  00032	8b 45 f8	 mov	 eax, DWORD PTR _Header$[ebp]
  00035	81 38 69 69 69
	69		 cmp	 DWORD PTR [eax], 1768515945 ; 69696969H
  0003b	75 02		 jne	 SHORT $LN10@BlKdComRec@3

; 249  : 
; 250  :             break;

  0003d	eb 02		 jmp	 SHORT $LN13@BlKdComRec@3
$LN10@BlKdComRec@3:

; 251  :         }
; 252  :     }

  0003f	eb cb		 jmp	 SHORT $Retry$3323
$LN13@BlKdComRec@3:

; 253  : 
; 254  :     if (BlKdComReceiveData(&Header->PacketType, sizeof(Header->PacketType)) == FALSE) {

  00041	8b 4d f8	 mov	 ecx, DWORD PTR _Header$[ebp]
  00044	83 c1 04	 add	 ecx, 4
  00047	6a 02		 push	 2
  00049	5a		 pop	 edx
  0004a	e8 00 00 00 00	 call	 ?BlKdComReceiveData@@YIEPAXK@Z ; BlKdComReceiveData
  0004f	0f b6 c0	 movzx	 eax, al
  00052	85 c0		 test	 eax, eax
  00054	75 07		 jne	 SHORT $LN9@BlKdComRec@3

; 255  : 
; 256  :         return FALSE;

  00056	32 c0		 xor	 al, al
  00058	e9 ad 00 00 00	 jmp	 $LN15@BlKdComRec@3
$LN9@BlKdComRec@3:

; 257  :     }
; 258  : 
; 259  :     if (BlKdComReceiveData(&Header->ByteCount, sizeof(Header->ByteCount)) == FALSE) {

  0005d	8b 4d f8	 mov	 ecx, DWORD PTR _Header$[ebp]
  00060	83 c1 06	 add	 ecx, 6
  00063	6a 02		 push	 2
  00065	5a		 pop	 edx
  00066	e8 00 00 00 00	 call	 ?BlKdComReceiveData@@YIEPAXK@Z ; BlKdComReceiveData
  0006b	0f b6 c0	 movzx	 eax, al
  0006e	85 c0		 test	 eax, eax
  00070	75 07		 jne	 SHORT $LN8@BlKdComRec@3

; 260  : 
; 261  :         return FALSE;

  00072	32 c0		 xor	 al, al
  00074	e9 91 00 00 00	 jmp	 $LN15@BlKdComRec@3
$LN8@BlKdComRec@3:

; 262  :     }
; 263  : 
; 264  :     if (BlKdComReceiveData(&Header->PacketId, sizeof(Header->PacketId)) == FALSE) {

  00079	8b 4d f8	 mov	 ecx, DWORD PTR _Header$[ebp]
  0007c	83 c1 08	 add	 ecx, 8
  0007f	6a 04		 push	 4
  00081	5a		 pop	 edx
  00082	e8 00 00 00 00	 call	 ?BlKdComReceiveData@@YIEPAXK@Z ; BlKdComReceiveData
  00087	0f b6 c0	 movzx	 eax, al
  0008a	85 c0		 test	 eax, eax
  0008c	75 04		 jne	 SHORT $LN7@BlKdComRec@3

; 265  : 
; 266  :         return FALSE;

  0008e	32 c0		 xor	 al, al
  00090	eb 78		 jmp	 SHORT $LN15@BlKdComRec@3
$LN7@BlKdComRec@3:

; 267  :     }
; 268  : 
; 269  :     if (BlKdComReceiveData(&Header->Checksum, sizeof(Header->Checksum)) == FALSE) {

  00092	8b 4d f8	 mov	 ecx, DWORD PTR _Header$[ebp]
  00095	83 c1 0c	 add	 ecx, 12			; 0000000cH
  00098	6a 04		 push	 4
  0009a	5a		 pop	 edx
  0009b	e8 00 00 00 00	 call	 ?BlKdComReceiveData@@YIEPAXK@Z ; BlKdComReceiveData
  000a0	0f b6 c0	 movzx	 eax, al
  000a3	85 c0		 test	 eax, eax
  000a5	75 04		 jne	 SHORT $LN6@BlKdComRec@3

; 270  : 
; 271  :         return FALSE;

  000a7	32 c0		 xor	 al, al
  000a9	eb 5f		 jmp	 SHORT $LN15@BlKdComRec@3
$LN6@BlKdComRec@3:

; 272  :     }
; 273  : 
; 274  :     if (Header->ByteCount > sizeof(BlKdStaticPacket.Data)) {

  000ab	8b 45 f8	 mov	 eax, DWORD PTR _Header$[ebp]
  000ae	0f b7 40 06	 movzx	 eax, WORD PTR [eax+6]
  000b2	3d f0 0f 00 00	 cmp	 eax, 4080		; 00000ff0H
  000b7	76 05		 jbe	 SHORT $LN5@BlKdComRec@3

; 275  : 
; 276  :         goto Retry;

  000b9	e9 4e ff ff ff	 jmp	 $Retry$3323
$LN5@BlKdComRec@3:

; 277  :     }
; 278  : 
; 279  :     if (Header->ByteCount > 0) {

  000be	8b 45 f8	 mov	 eax, DWORD PTR _Header$[ebp]
  000c1	0f b7 40 06	 movzx	 eax, WORD PTR [eax+6]
  000c5	85 c0		 test	 eax, eax
  000c7	7e 3f		 jle	 SHORT $LN4@BlKdComRec@3

; 280  : 
; 281  :         if (BlKdComReceiveData(BlKdStaticPacket.Data, Header->ByteCount) == FALSE) {

  000c9	8b 45 f8	 mov	 eax, DWORD PTR _Header$[ebp]
  000cc	0f b7 50 06	 movzx	 edx, WORD PTR [eax+6]
  000d0	b9 10 00 00 00	 mov	 ecx, OFFSET ?BlKdStaticPacket@@3U<unnamed-tag>@@A+16
  000d5	e8 00 00 00 00	 call	 ?BlKdComReceiveData@@YIEPAXK@Z ; BlKdComReceiveData
  000da	0f b6 c0	 movzx	 eax, al
  000dd	85 c0		 test	 eax, eax
  000df	75 04		 jne	 SHORT $LN3@BlKdComRec@3

; 282  : 
; 283  :             return FALSE;

  000e1	32 c0		 xor	 al, al
  000e3	eb 25		 jmp	 SHORT $LN15@BlKdComRec@3
$LN3@BlKdComRec@3:

; 284  :         }
; 285  : 
; 286  :         if (BlKdComReceiveByte(&TrailingByte) == FALSE) {

  000e5	8d 4d ff	 lea	 ecx, DWORD PTR _TrailingByte$[ebp]
  000e8	e8 00 00 00 00	 call	 ?BlKdComReceiveByte@@YIEPAE@Z ; BlKdComReceiveByte
  000ed	0f b6 c0	 movzx	 eax, al
  000f0	85 c0		 test	 eax, eax
  000f2	75 04		 jne	 SHORT $LN2@BlKdComRec@3

; 287  : 
; 288  :             return FALSE;

  000f4	32 c0		 xor	 al, al
  000f6	eb 12		 jmp	 SHORT $LN15@BlKdComRec@3
$LN2@BlKdComRec@3:

; 289  :         }
; 290  : 
; 291  :         if (TrailingByte != KD_PACKET_TRAILING_BYTE) {

  000f8	0f b6 45 ff	 movzx	 eax, BYTE PTR _TrailingByte$[ebp]
  000fc	3d aa 00 00 00	 cmp	 eax, 170		; 000000aaH
  00101	74 05		 je	 SHORT $LN4@BlKdComRec@3

; 292  : 
; 293  :             goto Retry;

  00103	e9 04 ff ff ff	 jmp	 $Retry$3323
$LN4@BlKdComRec@3:

; 294  :         }
; 295  :     }
; 296  : 
; 297  : #if KD_VERBOSE
; 298  : 
; 299  :     BlVideoPrintf("KD: Received type %u packet.\n", Header->PacketType);
; 300  : 
; 301  : #endif
; 302  : 
; 303  :     return TRUE;

  00108	b0 01		 mov	 al, 1
$LN15@BlKdComRec@3:

; 304  : }

  0010a	c9		 leave
  0010b	c3		 ret	 0
?BlKdComReceivePacket@@YIEXZ ENDP			; BlKdComReceivePacket
_TEXT	ENDS
PUBLIC	??_C@_0M@IJFJLPCJ@blkdcom?4cpp?$AA@		; `string'
PUBLIC	?BlKdComSendPacket@@YIEGPBXG0G@Z		; BlKdComSendPacket
EXTRN	?BlKdNextPacketId@@3KA:DWORD			; BlKdNextPacketId
EXTRN	?BlKdComputeChecksum@@YIKPBXK@Z:PROC		; BlKdComputeChecksum
EXTRN	?BlRtlAssertFailed@@YIXPBDK@Z:PROC		; BlRtlAssertFailed
;	COMDAT ??_C@_0M@IJFJLPCJ@blkdcom?4cpp?$AA@
CONST	SEGMENT
??_C@_0M@IJFJLPCJ@blkdcom?4cpp?$AA@ DB 'blkdcom.cpp', 00H ; `string'
; Function compile flags: /Odsp
CONST	ENDS
;	COMDAT ?BlKdComSendPacket@@YIEGPBXG0G@Z
_TEXT	SEGMENT
tv147 = -36						; size = 4
_Header$ = -32						; size = 4
_PacketType$ = -28					; size = 2
_Packet$ = -24						; size = 16
_Checksum$ = -8						; size = 4
_ByteCount$ = -4					; size = 2
_HeaderSize$ = 8					; size = 2
_Data$ = 12						; size = 4
_DataSize$ = 16						; size = 2
?BlKdComSendPacket@@YIEGPBXG0G@Z PROC			; BlKdComSendPacket, COMDAT
; _PacketType$ = cx
; _Header$ = edx

; 340  : {

  00000	55		 push	 ebp
  00001	8b ec		 mov	 ebp, esp
  00003	83 ec 24	 sub	 esp, 36			; 00000024H
  00006	89 55 e0	 mov	 DWORD PTR _Header$[ebp], edx
  00009	66 89 4d e4	 mov	 WORD PTR _PacketType$[ebp], cx

; 341  :     UINT16 ByteCount;
; 342  :     UINT32 Checksum;
; 343  :     KD_PACKET Packet;
; 344  : 
; 345  :     BLASSERT(HeaderSize > 0);

  0000d	0f b7 45 08	 movzx	 eax, WORD PTR _HeaderSize$[ebp]
  00011	85 c0		 test	 eax, eax
  00013	7f 0f		 jg	 SHORT $Resend$3351
  00015	ba 59 01 00 00	 mov	 edx, 345		; 00000159H
  0001a	b9 00 00 00 00	 mov	 ecx, OFFSET ??_C@_0M@IJFJLPCJ@blkdcom?4cpp?$AA@
  0001f	e8 00 00 00 00	 call	 ?BlRtlAssertFailed@@YIXPBDK@Z ; BlRtlAssertFailed
$Resend$3351:

; 346  : 
; 347  : Resend:
; 348  : 
; 349  :     //
; 350  :     // Calculate byte count and checksum.
; 351  :     //
; 352  : 
; 353  :     ByteCount = HeaderSize;

  00024	66 8b 45 08	 mov	 ax, WORD PTR _HeaderSize$[ebp]
  00028	66 89 45 fc	 mov	 WORD PTR _ByteCount$[ebp], ax

; 354  :     Checksum = BlKdComputeChecksum(Header, HeaderSize);

  0002c	0f b7 55 08	 movzx	 edx, WORD PTR _HeaderSize$[ebp]
  00030	8b 4d e0	 mov	 ecx, DWORD PTR _Header$[ebp]
  00033	e8 00 00 00 00	 call	 ?BlKdComputeChecksum@@YIKPBXK@Z ; BlKdComputeChecksum
  00038	89 45 f8	 mov	 DWORD PTR _Checksum$[ebp], eax

; 355  : 
; 356  :     if (Data != NULL) {

  0003b	83 7d 0c 00	 cmp	 DWORD PTR _Data$[ebp], 0
  0003f	74 37		 je	 SHORT $LN12@BlKdComSen@3

; 357  : 
; 358  :         BLASSERT(DataSize > 0);

  00041	0f b7 45 10	 movzx	 eax, WORD PTR _DataSize$[ebp]
  00045	85 c0		 test	 eax, eax
  00047	7f 0f		 jg	 SHORT $LN11@BlKdComSen@3
  00049	ba 66 01 00 00	 mov	 edx, 358		; 00000166H
  0004e	b9 00 00 00 00	 mov	 ecx, OFFSET ??_C@_0M@IJFJLPCJ@blkdcom?4cpp?$AA@
  00053	e8 00 00 00 00	 call	 ?BlRtlAssertFailed@@YIXPBDK@Z ; BlRtlAssertFailed
$LN11@BlKdComSen@3:

; 359  : 
; 360  :         ByteCount = ByteCount + DataSize;

  00058	0f b7 45 fc	 movzx	 eax, WORD PTR _ByteCount$[ebp]
  0005c	0f b7 4d 10	 movzx	 ecx, WORD PTR _DataSize$[ebp]
  00060	03 c1		 add	 eax, ecx
  00062	66 89 45 fc	 mov	 WORD PTR _ByteCount$[ebp], ax

; 361  :         Checksum += BlKdComputeChecksum(Data, DataSize);

  00066	0f b7 55 10	 movzx	 edx, WORD PTR _DataSize$[ebp]
  0006a	8b 4d 0c	 mov	 ecx, DWORD PTR _Data$[ebp]
  0006d	e8 00 00 00 00	 call	 ?BlKdComputeChecksum@@YIKPBXK@Z ; BlKdComputeChecksum
  00072	03 45 f8	 add	 eax, DWORD PTR _Checksum$[ebp]
  00075	89 45 f8	 mov	 DWORD PTR _Checksum$[ebp], eax
$LN12@BlKdComSen@3:

; 362  :     }
; 363  : 
; 364  :     //
; 365  :     // Send packet.
; 366  :     //
; 367  : 
; 368  :     Packet.PacketLeader = KD_PACKET_LEADER;

  00078	c7 45 e8 30 30
	30 30		 mov	 DWORD PTR _Packet$[ebp], 808464432 ; 30303030H

; 369  :     Packet.PacketId = BlKdNextPacketId;

  0007f	a1 00 00 00 00	 mov	 eax, DWORD PTR ?BlKdNextPacketId@@3KA ; BlKdNextPacketId
  00084	89 45 f0	 mov	 DWORD PTR _Packet$[ebp+8], eax

; 370  :     Packet.PacketType = PacketType;

  00087	66 8b 45 e4	 mov	 ax, WORD PTR _PacketType$[ebp]
  0008b	66 89 45 ec	 mov	 WORD PTR _Packet$[ebp+4], ax

; 371  :     Packet.ByteCount = ByteCount;

  0008f	66 8b 45 fc	 mov	 ax, WORD PTR _ByteCount$[ebp]
  00093	66 89 45 ee	 mov	 WORD PTR _Packet$[ebp+6], ax

; 372  :     Packet.Checksum = Checksum;

  00097	8b 45 f8	 mov	 eax, DWORD PTR _Checksum$[ebp]
  0009a	89 45 f4	 mov	 DWORD PTR _Packet$[ebp+12], eax

; 373  : 
; 374  :     if (BlKdComSendData(&Packet, sizeof(Packet)) == FALSE) {

  0009d	6a 10		 push	 16			; 00000010H
  0009f	5a		 pop	 edx
  000a0	8d 4d e8	 lea	 ecx, DWORD PTR _Packet$[ebp]
  000a3	e8 00 00 00 00	 call	 ?BlKdComSendData@@YIEPBXK@Z ; BlKdComSendData
  000a8	0f b6 c0	 movzx	 eax, al
  000ab	85 c0		 test	 eax, eax
  000ad	75 07		 jne	 SHORT $LN10@BlKdComSen@3

; 375  : 
; 376  :         return FALSE;

  000af	32 c0		 xor	 al, al
  000b1	e9 a6 00 00 00	 jmp	 $LN14@BlKdComSen@3
$LN10@BlKdComSen@3:

; 377  :     }
; 378  : 
; 379  :     if (BlKdComSendData(Header, HeaderSize) == FALSE) {

  000b6	0f b7 55 08	 movzx	 edx, WORD PTR _HeaderSize$[ebp]
  000ba	8b 4d e0	 mov	 ecx, DWORD PTR _Header$[ebp]
  000bd	e8 00 00 00 00	 call	 ?BlKdComSendData@@YIEPBXK@Z ; BlKdComSendData
  000c2	0f b6 c0	 movzx	 eax, al
  000c5	85 c0		 test	 eax, eax
  000c7	75 07		 jne	 SHORT $LN9@BlKdComSen@3

; 380  : 
; 381  :         return FALSE;

  000c9	32 c0		 xor	 al, al
  000cb	e9 8c 00 00 00	 jmp	 $LN14@BlKdComSen@3
$LN9@BlKdComSen@3:

; 382  :     }
; 383  : 
; 384  :     if (Data != NULL) {

  000d0	83 7d 0c 00	 cmp	 DWORD PTR _Data$[ebp], 0
  000d4	74 17		 je	 SHORT $LN8@BlKdComSen@3

; 385  : 
; 386  :         if (BlKdComSendData(Data, DataSize) == FALSE) {

  000d6	0f b7 55 10	 movzx	 edx, WORD PTR _DataSize$[ebp]
  000da	8b 4d 0c	 mov	 ecx, DWORD PTR _Data$[ebp]
  000dd	e8 00 00 00 00	 call	 ?BlKdComSendData@@YIEPBXK@Z ; BlKdComSendData
  000e2	0f b6 c0	 movzx	 eax, al
  000e5	85 c0		 test	 eax, eax
  000e7	75 04		 jne	 SHORT $LN8@BlKdComSen@3

; 387  : 
; 388  :             return FALSE;

  000e9	32 c0		 xor	 al, al
  000eb	eb 6f		 jmp	 SHORT $LN14@BlKdComSen@3
$LN8@BlKdComSen@3:

; 389  :         }
; 390  :     }
; 391  : 
; 392  :     if (BlComSendByte(BlKdComPort, KD_PACKET_TRAILING_BYTE) == FALSE) {

  000ed	b2 aa		 mov	 dl, 170			; 000000aaH
  000ef	8a 0d 00 00 00
	00		 mov	 cl, BYTE PTR ?BlKdComPort@@3EA ; BlKdComPort
  000f5	e8 00 00 00 00	 call	 ?BlComSendByte@@YIEEE@Z	; BlComSendByte
  000fa	0f b6 c0	 movzx	 eax, al
  000fd	85 c0		 test	 eax, eax
  000ff	75 04		 jne	 SHORT $LN6@BlKdComSen@3

; 393  : 
; 394  :         return FALSE;

  00101	32 c0		 xor	 al, al
  00103	eb 57		 jmp	 SHORT $LN14@BlKdComSen@3
$LN6@BlKdComSen@3:

; 395  :     }
; 396  : 
; 397  : #if KD_VERBOSE
; 398  : 
; 399  :     BlVideoPrintf("KD: Sent type %u packet.\n", Packet.PacketType);
; 400  : 
; 401  : #endif
; 402  : 
; 403  :     //
; 404  :     // Update packet ID.
; 405  :     //
; 406  : 
; 407  :     BlKdNextPacketId &= (~KD_SYNC_PACKET_ID);

  00105	a1 00 00 00 00	 mov	 eax, DWORD PTR ?BlKdNextPacketId@@3KA ; BlKdNextPacketId
  0010a	25 ff f7 ff ff	 and	 eax, -2049		; fffff7ffH
  0010f	a3 00 00 00 00	 mov	 DWORD PTR ?BlKdNextPacketId@@3KA, eax ; BlKdNextPacketId

; 408  :     BlKdNextPacketId ^= 1;

  00114	a1 00 00 00 00	 mov	 eax, DWORD PTR ?BlKdNextPacketId@@3KA ; BlKdNextPacketId
  00119	83 f0 01	 xor	 eax, 1
  0011c	a3 00 00 00 00	 mov	 DWORD PTR ?BlKdNextPacketId@@3KA, eax ; BlKdNextPacketId

; 409  : 
; 410  :     if (BlKdComReceivePacket() != FALSE) {

  00121	e8 00 00 00 00	 call	 ?BlKdComReceivePacket@@YIEXZ ; BlKdComReceivePacket
  00126	0f b6 c0	 movzx	 eax, al
  00129	85 c0		 test	 eax, eax
  0012b	74 2d		 je	 SHORT $LN5@BlKdComSen@3

; 411  : 
; 412  :         switch (BlKdStaticPacket.Header.PacketType) {

  0012d	0f b7 05 04 00
	00 00		 movzx	 eax, WORD PTR ?BlKdStaticPacket@@3U<unnamed-tag>@@A+4
  00134	89 45 dc	 mov	 DWORD PTR tv147[ebp], eax
  00137	83 7d dc 05	 cmp	 DWORD PTR tv147[ebp], 5
  0013b	74 18		 je	 SHORT $LN1@BlKdComSen@3
  0013d	83 7d dc 06	 cmp	 DWORD PTR tv147[ebp], 6
  00141	74 02		 je	 SHORT $LN2@BlKdComSen@3
  00143	eb 15		 jmp	 SHORT $LN5@BlKdComSen@3
$LN2@BlKdComSen@3:

; 413  : 
; 414  :             case KD_PACKET_TYPE_KD_RESET: {
; 415  : 
; 416  : #if KD_VERBOSE
; 417  : 
; 418  :                 BlVideoPrintf("KD: Received RESET after send.\n");
; 419  : 
; 420  : #endif
; 421  : 
; 422  :                 BlKdComSendControlPacket(KD_PACKET_TYPE_KD_RESET, 0);

  00145	33 d2		 xor	 edx, edx
  00147	66 b9 06 00	 mov	 cx, 6
  0014b	e8 00 00 00 00	 call	 ?BlKdComSendControlPacket@@YIEGK@Z ; BlKdComSendControlPacket

; 423  : 
; 424  :                 goto Resend;

  00150	e9 cf fe ff ff	 jmp	 $Resend$3351
$LN1@BlKdComSen@3:

; 425  :             }
; 426  : 
; 427  :             case KD_PACKET_TYPE_KD_RESEND: {
; 428  : 
; 429  : #if KD_VERBOSE
; 430  : 
; 431  :                 BlVideoPrintf("KD: Received RESEND after send.\n");
; 432  : 
; 433  : #endif
; 434  : 
; 435  :                 goto Resend;

  00155	e9 ca fe ff ff	 jmp	 $Resend$3351
$LN5@BlKdComSen@3:

; 436  :             }
; 437  :         }
; 438  :     }
; 439  : 
; 440  :     return TRUE;

  0015a	b0 01		 mov	 al, 1
$LN14@BlKdComSen@3:

; 441  : }

  0015c	c9		 leave
  0015d	c2 0c 00	 ret	 12			; 0000000cH
?BlKdComSendPacket@@YIEGPBXG0G@Z ENDP			; BlKdComSendPacket
_TEXT	ENDS
PUBLIC	?BlKdComConnect@@YIEXZ				; BlKdComConnect
EXTRN	?BlComInitialize@@YIEEK@Z:PROC			; BlComInitialize
; Function compile flags: /Odsp
;	COMDAT ?BlKdComConnect@@YIEXZ
_TEXT	SEGMENT
_Retry$ = -16						; size = 4
_Present$ = -12						; size = 5
_Index$ = -1						; size = 1
?BlKdComConnect@@YIEXZ PROC				; BlKdComConnect, COMDAT

; 461  : {

  00000	55		 push	 ebp
  00001	8b ec		 mov	 ebp, esp
  00003	83 ec 10	 sub	 esp, 16			; 00000010H

; 462  :     UINT8 Index;
; 463  :     BOOLEAN Present[COM_MAX_PORT + 1];
; 464  :     UINT32 Retry;
; 465  : 
; 466  : 
; 467  :     //
; 468  :     // Find all COM ports on the system.
; 469  :     //
; 470  : 
; 471  :     for (Index = 1; Index <= COM_MAX_PORT; Index += 1) {

  00006	c6 45 ff 01	 mov	 BYTE PTR _Index$[ebp], 1
  0000a	eb 08		 jmp	 SHORT $LN11@BlKdComCon
$LN10@BlKdComCon:
  0000c	0f b6 45 ff	 movzx	 eax, BYTE PTR _Index$[ebp]
  00010	40		 inc	 eax
  00011	88 45 ff	 mov	 BYTE PTR _Index$[ebp], al
$LN11@BlKdComCon:
  00014	0f b6 45 ff	 movzx	 eax, BYTE PTR _Index$[ebp]
  00018	83 f8 04	 cmp	 eax, 4
  0001b	7f 17		 jg	 SHORT $LN9@BlKdComCon

; 472  : 
; 473  :         Present[Index] = BlComInitialize(Index, 115200);

  0001d	ba 00 c2 01 00	 mov	 edx, 115200		; 0001c200H
  00022	8a 4d ff	 mov	 cl, BYTE PTR _Index$[ebp]
  00025	e8 00 00 00 00	 call	 ?BlComInitialize@@YIEEK@Z ; BlComInitialize
  0002a	0f b6 4d ff	 movzx	 ecx, BYTE PTR _Index$[ebp]
  0002e	88 44 0d f4	 mov	 BYTE PTR _Present$[ebp+ecx], al

; 474  : 
; 475  : #if KD_VERBOSE
; 476  : 
; 477  :         BlVideoPrintf("KD: COM%u %s\n",
; 478  :                       Index,
; 479  :                       Present[Index] ? "found." : "not found.");
; 480  : 
; 481  : #endif
; 482  : 
; 483  :     }

  00032	eb d8		 jmp	 SHORT $LN10@BlKdComCon
$LN9@BlKdComCon:

; 484  : 
; 485  :     //
; 486  :     // Set initial packet ID.
; 487  :     //
; 488  : 
; 489  :     BlKdNextPacketId = KD_INITIAL_PACKET_ID | KD_SYNC_PACKET_ID;

  00034	c7 05 00 00 00
	00 00 08 80 80	 mov	 DWORD PTR ?BlKdNextPacketId@@3KA, -2139092992 ; BlKdNextPacketId, 80800800H

; 490  : 
; 491  :     for (Retry = 0; Retry < KD_RETRY_COUNT; Retry += 1) {

  0003e	83 65 f0 00	 and	 DWORD PTR _Retry$[ebp], 0
  00042	eb 07		 jmp	 SHORT $LN8@BlKdComCon
$LN7@BlKdComCon:
  00044	8b 45 f0	 mov	 eax, DWORD PTR _Retry$[ebp]
  00047	40		 inc	 eax
  00048	89 45 f0	 mov	 DWORD PTR _Retry$[ebp], eax
$LN8@BlKdComCon:
  0004b	83 7d f0 10	 cmp	 DWORD PTR _Retry$[ebp], 16 ; 00000010H
  0004f	73 4b		 jae	 SHORT $LN6@BlKdComCon

; 492  : 
; 493  :         for (Index = 1; Index <= COM_MAX_PORT; Index += 1) {

  00051	c6 45 ff 01	 mov	 BYTE PTR _Index$[ebp], 1
  00055	eb 08		 jmp	 SHORT $LN5@BlKdComCon
$LN4@BlKdComCon:
  00057	0f b6 45 ff	 movzx	 eax, BYTE PTR _Index$[ebp]
  0005b	40		 inc	 eax
  0005c	88 45 ff	 mov	 BYTE PTR _Index$[ebp], al
$LN5@BlKdComCon:
  0005f	0f b6 45 ff	 movzx	 eax, BYTE PTR _Index$[ebp]
  00063	83 f8 04	 cmp	 eax, 4
  00066	7f 32		 jg	 SHORT $LN3@BlKdComCon

; 494  : 
; 495  :             if (Present[Index] != FALSE) {

  00068	0f b6 45 ff	 movzx	 eax, BYTE PTR _Index$[ebp]
  0006c	0f b6 44 05 f4	 movzx	 eax, BYTE PTR _Present$[ebp+eax]
  00071	85 c0		 test	 eax, eax
  00073	74 23		 je	 SHORT $LN2@BlKdComCon

; 496  : 
; 497  : #if KD_VERBOSE
; 498  : 
; 499  :                 BlVideoPrintf("KD: Trying COM%u ...\n", Index);
; 500  : 
; 501  : #endif
; 502  : 
; 503  :                 BlKdComPort = Index;

  00075	8a 45 ff	 mov	 al, BYTE PTR _Index$[ebp]
  00078	a2 00 00 00 00	 mov	 BYTE PTR ?BlKdComPort@@3EA, al ; BlKdComPort

; 504  : 
; 505  :                 BlKdComSendControlPacket(KD_PACKET_TYPE_KD_RESET, 0);

  0007d	33 d2		 xor	 edx, edx
  0007f	66 b9 06 00	 mov	 cx, 6
  00083	e8 00 00 00 00	 call	 ?BlKdComSendControlPacket@@YIEGK@Z ; BlKdComSendControlPacket

; 506  : 
; 507  :                 if (BlKdComReceivePacket() != FALSE) {

  00088	e8 00 00 00 00	 call	 ?BlKdComReceivePacket@@YIEXZ ; BlKdComReceivePacket
  0008d	0f b6 c0	 movzx	 eax, al
  00090	85 c0		 test	 eax, eax
  00092	74 04		 je	 SHORT $LN2@BlKdComCon

; 508  : 
; 509  :                     return TRUE;

  00094	b0 01		 mov	 al, 1
  00096	eb 0d		 jmp	 SHORT $LN12@BlKdComCon
$LN2@BlKdComCon:

; 510  :                 }
; 511  :             }
; 512  :         }

  00098	eb bd		 jmp	 SHORT $LN4@BlKdComCon
$LN3@BlKdComCon:

; 513  :     }

  0009a	eb a8		 jmp	 SHORT $LN7@BlKdComCon
$LN6@BlKdComCon:

; 514  : 
; 515  :     BlKdComPort = 0;

  0009c	c6 05 00 00 00
	00 00		 mov	 BYTE PTR ?BlKdComPort@@3EA, 0 ; BlKdComPort

; 516  : 
; 517  :     return FALSE;

  000a3	32 c0		 xor	 al, al
$LN12@BlKdComCon:

; 518  : }

  000a5	c9		 leave
  000a6	c3		 ret	 0
?BlKdComConnect@@YIEXZ ENDP				; BlKdComConnect
_TEXT	ENDS
END
