 DiskDrive

 Timestamp is 6216720f (Wed Feb 23 18:42:39 2022)

 Preferred load address is 02000000

 Start         Length     Name                   Class
 0001:00000000 0008b3f4H .text                   CODE
 0002:00000000 00000178H .idata$5                DATA
 0002:00000180 00014d29H .rdata                  DATA
 0002:00014eac 00000014H .idata$2                DATA
 0002:00014ec0 00000014H .idata$3                DATA
 0002:00014ed4 00000178H .idata$4                DATA
 0002:0001504c 00002372H .idata$6                DATA
 0002:000173be 00000000H .edata                  DATA
 0002:000173c0 0000007eH .rdata$debug            DATA
 0003:00000000 00031ab0H .data                   DATA
 0003:00031ab0 00000070H .bss                    DATA
 0004:00000000 00000004H .CRT$XCA                DATA
 0004:00000004 00000004H .CRT$XCZ                DATA
 0004:00000008 00000004H .CRT$XIA                DATA
 0004:0000000c 00000004H .CRT$XIZ                DATA
 0004:00000010 00000004H .CRT$XPA                DATA
 0004:00000014 00000004H .CRT$XPZ                DATA
 0004:00000018 00000004H .CRT$XTA                DATA
 0004:0000001c 00000004H .CRT$XTZ                DATA

  Address         Publics by Value              Rva+Base       Lib:Object

 0000:00000000       ___safe_se_handler_table   00000000     <absolute>
 0000:00000000       ___safe_se_handler_count   00000000     <absolute>
 0001:00000000       ?m_StructCopy@Struct_System_UpdateEnlistmentLog_Location@@SIXPAU1@0@Z 02001000 f   DiskDrive.obj
 0001:00000000       C:\Users\cc\source\repos\Singularity-OS\base.obj\AppNativeObj\Debug.x86.MarkSweep\DiskDrive_CodeBase 02001000     DiskDrive.obj
 0001:00000034       ?m_StructCopy@Struct_System_UpdateEnlistmentLog_Location@@SIXPAU1@PAU1@@Z 02001034 f   DiskDrive.obj
 0001:000000d0       ?m_Equals@Struct_System_UpdateEnlistmentLog_Location@@SI_NPAU1@PAUClass_System_Object@@@Z 020010d0 f   DiskDrive.obj
 0001:00000130       ?m_Equals@Struct_System_UpdateEnlistmentLog_Location@@SI_NPAUClass_System_UpdateEnlistmentLog_Location@@PAUClass_System_Object@@@Z 02001130 f   DiskDrive.obj
 0001:0000015c       ?m__ctor@Struct_System_UpdateEnlistmentLog_Location@@SIXPAU1@PAUClass_System_UpdateEnlistmentLog_LogChunk@@H@Z 0200115c f   DiskDrive.obj
 0001:0000018c       ?g_Main@Class__DiskDrive_DriverEntry@@SIHPAUClassVector_Class_System_String@@@Z 0200118c f   DiskDrive.obj
 0001:000005a4       ?m_StructCopy@Struct_Microsoft_Singularity_Isal_SpillContext@@SIXPAU1@0@Z 020015a4 f   DiskDrive.obj
 0001:00000680       ?m_StructCopy@Struct_Microsoft_Singularity_Isal_SpillContext@@SIXPAU1@PAU1@@Z 02001680 f   DiskDrive.obj
 0001:00000914       ?m_Equals@Struct_Microsoft_Singularity_Isal_SpillContext@@SI_NPAU1@PAUClass_System_Object@@@Z 02001914 f   DiskDrive.obj
 0001:00000ac4       ?m_Equals@Struct_Microsoft_Singularity_Isal_SpillContext@@SI_NPAUClass_Microsoft_Singularity_Isal_SpillContext@@PAUClass_System_Object@@@Z 02001ac4 f   DiskDrive.obj
 0001:00000af0       ?m_StructCopy@Struct_Microsoft_Singularity_V1_Threads_MutexHandle@@SIXPAU1@0@Z 02001af0 f   DiskDrive.obj
 0001:00000b18       ?m_StructCopy@Struct_Microsoft_Singularity_V1_Threads_MutexHandle@@SIXPAU1@PAU1@@Z 02001b18 f   DiskDrive.obj
 0001:00000b90       ?m_Equals@Struct_Microsoft_Singularity_V1_Threads_MutexHandle@@SI_NPAU1@PAUClass_System_Object@@@Z 02001b90 f   DiskDrive.obj
 0001:00000bd8       ?m_Equals@Struct_Microsoft_Singularity_V1_Threads_MutexHandle@@SI_NPAUClass_Microsoft_Singularity_V1_Threads_MutexHandle@@PAUClass_System_Object@@@Z 02001bd8 f   DiskDrive.obj
 0001:00000c04       ?g_Create@Struct_Microsoft_Singularity_V1_Threads_MutexHandle@@SI_N_NPAU1@@Z 02001c04 f   DiskDrive.obj
 0001:00000c50       ?m_HeadMatches@Class_SurrogateMicrosoft_Singularity_Io_VolumeManagerContract_Imp@@SI_NPAU1@HPA_NPAPAUClass_System_Object@@@Z 02001c50 f   DiskDrive.obj
 0001:00000c84       ?m_GetWaitHandle@Class_SurrogateMicrosoft_Singularity_Io_VolumeManagerContract_Imp@@SI?AUStruct_Microsoft_Singularity_V1_Threads_SyncHandle@@PAU1@@Z 02001c84 f   DiskDrive.obj
 0001:00000ca8       ?g__ctor@Class_SurrogateMicrosoft_Singularity_Io_VolumeManagerContract_Imp@@SIXPAU1@PAUStruct_Microsoft_Singularity_Io_VolumeManagerContract_Imp@@@Z 02001ca8 f   DiskDrive.obj
 0001:00000cd0       ?m_StructCopy@Struct_System_GCs_OverflowFrameDescriptor@@SIXPAU1@0@Z 02001cd0 f   DiskDrive.obj
 0001:00000d04       ?m_StructCopy@Struct_System_GCs_OverflowFrameDescriptor@@SIXPAU1@PAU1@@Z 02001d04 f   DiskDrive.obj
 0001:00000da0       ?m_Equals@Struct_System_GCs_OverflowFrameDescriptor@@SI_NPAU1@PAUClass_System_Object@@@Z 02001da0 f   DiskDrive.obj
 0001:00000dfc       ?m_Equals@Struct_System_GCs_OverflowFrameDescriptor@@SI_NPAUClass_System_GCs_OverflowFrameDescriptor@@PAUClass_System_Object@@@Z 02001dfc f   DiskDrive.obj
 0001:00000e28       ?m__ctor@Class_System_Reflection_Module@@SIXPAU1@@Z 02001e28 f   DiskDrive.obj
 0001:00000e44       ?g_StructSize@Class_System_Runtime_InteropServices_Marshal@@SIHPAUClass_System_Type@@@Z 02001e44 f   DiskDrive.obj
 0001:00000f04       ?m__ctor@Class_System_Runtime_InteropServices_Marshal@@SIXPAU1@@Z 02001f04 f   DiskDrive.obj
 0001:00000f1c       ?g_WordsToString@Class_Microsoft_Singularity_Drivers_IDE_ATA6@@SIPAUClass_System_String@@PAUClassVector_uint16@@HH@Z 02001f1c f   DiskDrive.obj
 0001:000010d8       ?g_ParseIdentifyInformation@Class_Microsoft_Singularity_Drivers_IDE_ATA6@@SI?AUStruct_Microsoft_Singularity_Drivers_IDE_IdentifyDeviceInformation@@PAUClassVector_uint16@@@Z 020020d8 f   DiskDrive.obj
 0001:00003108       ?g_HighestBitSet@Class_Microsoft_Singularity_Drivers_IDE_ATA6@@SIEG@Z 02004108 f   DiskDrive.obj
 0001:000031a8       ?g_GetDeviceIdentification@Class_Microsoft_Singularity_Drivers_IDE_ATA6@@SI?AUStruct_Microsoft_Singularity_Drivers_IDE_IdentifyDeviceInformation@@PAUClass_Microsoft_Singularity_Drivers_IDE_IdeController@@H_N@Z 020041a8 f   DiskDrive.obj
 0001:000045c8       ?g_DebugQueryStatus@Class_Microsoft_Singularity_Drivers_IDE_ATA6@@SIXPAUClass_Microsoft_Singularity_Drivers_IDE_IdeController@@@Z 020055c8 f   DiskDrive.obj
 0001:000048e0       ?m__ctor@Class_Microsoft_Singularity_Drivers_IDE_ATA6@@SIXPAU1@@Z 020058e0 f   DiskDrive.obj
 0001:000048f8       ?m_StructCopy@Struct_System_TryAll@@SIXPAU1@0@Z 020058f8 f   DiskDrive.obj
 0001:00004974       ?m_StructCopy@Struct_System_TryAll@@SIXPAU1@PAU1@@Z 02005974 f   DiskDrive.obj
 0001:00004ae8       ?m_Equals@Struct_System_TryAll@@SI_NPAU1@PAUClass_System_Object@@@Z 02005ae8 f   DiskDrive.obj
 0001:00004ddc       ?m_Equals@Struct_System_TryAll@@SI_NPAUClass_System_TryAll@@PAUClass_System_Object@@@Z 02005ddc f   DiskDrive.obj
 0001:00004e08       ?m__ctor@Class_System_Threading_ThreadQueue@@SIXPAU1@@Z 02005e08 f   DiskDrive.obj
 0001:00004e20       ?m_Visit@Class_System_GCs_GCProfiler_ObjectVisitor@@SIPAUuintPtr@@PAU1@PAUClass_System_Object@@@Z 02005e20 f   DiskDrive.obj
 0001:00004ed8       ?m__ctor@Class_System_GCs_GCProfiler_ObjectVisitor@@SIXPAU1@PAUClass_System_GCs_GCProfiler@@@Z 02005ed8 f   DiskDrive.obj
 0001:00004f34       ?m_UnRegisterStorage@Class_Microsoft_Singularity_Eventing_LocalController@@SIXPAU1@PAUClass_Microsoft_Singularity_Eventing_EventingStorage@@@Z 02005f34 f   DiskDrive.obj
 0001:00004f94       ?m_UnRegisterSource@Class_Microsoft_Singularity_Eventing_LocalController@@SIXPAU1@PAUClass_Microsoft_Singularity_Eventing_EventSource@@@Z 02005f94 f   DiskDrive.obj
 0001:0000502c       ?m_RegisterStorage@Class_Microsoft_Singularity_Eventing_LocalController@@SI_NPAU1@PAUClass_Microsoft_Singularity_Eventing_EventingStorage@@@Z 0200602c f   DiskDrive.obj
 0001:00005098       ?m_RegisterSource@Class_Microsoft_Singularity_Eventing_LocalController@@SI_NPAU1@PAUClass_Microsoft_Singularity_Eventing_EventSource@@@Z 02006098 f   DiskDrive.obj
 0001:00005300       ?m_Initialize@Class_Microsoft_Singularity_Eventing_LocalController@@SIXPAU1@@Z 02006300 f   DiskDrive.obj
 0001:00005738       ?m_GetNativeSourceName@Class_Microsoft_Singularity_Eventing_LocalController@@SI_NPAU1@PAUuintPtr@@PAPAU2@PAPAUClass_System_String@@@Z 02006738 f   DiskDrive.obj
 0001:00005880       ?m__ctor@Class_Microsoft_Singularity_Eventing_LocalController@@SIXPAU1@@Z 02006880 f   DiskDrive.obj
 0001:000058a4       ?g__cctor@Class_Microsoft_Singularity_Eventing_LocalController@@SIXXZ 020068a4 f   DiskDrive.obj
 0001:000058cc       ?m_StructCopy@Struct_Microsoft_Singularity_V1_Services_SharedHeapService_Allocation@@SIXPAU1@0@Z 020068cc f   DiskDrive.obj
 0001:00005930       ?m_StructCopy@Struct_Microsoft_Singularity_V1_Services_SharedHeapService_Allocation@@SIXPAU1@PAU1@@Z 02006930 f   DiskDrive.obj
 0001:00005a5c       ?m_Equals@Struct_Microsoft_Singularity_V1_Services_SharedHeapService_Allocation@@SI_NPAU1@PAUClass_System_Object@@@Z 02006a5c f   DiskDrive.obj
 0001:00005aec       ?m_Equals@Struct_Microsoft_Singularity_V1_Services_SharedHeapService_Allocation@@SI_NPAUClass_Microsoft_Singularity_V1_Services_SharedHeapService_Allocation@@PAUClass_System_Object@@@Z 02006aec f   DiskDrive.obj
 0001:00005b18       ?m__ctor@Class_System_IndexOutOfRangeException@@SIXPAU1@@Z 02006b18 f   DiskDrive.obj
 0001:00005b40       ?m__ctor@Class_System_IndexOutOfRangeException@@SIXPAU1@PAUClass_System_String@@@Z 02006b40 f   DiskDrive.obj
 0001:00005b68       ?m__ctor@Class_System_IndexOutOfRangeException@@SIXPAU1@PAUClass_System_String@@PAUClass_System_Exception@@@Z 02006b68 f   DiskDrive.obj
 0001:00005b98       ?m_Visit@Class_System_GCs_MemoryAccounting_StaticPtrAccounting@@SIXPAU1@PAPAUuintPtr@@@Z 02006b98 f   DiskDrive.obj
 0001:00005bb4       ?m_Initialize@Class_System_GCs_MemoryAccounting_StaticPtrAccounting@@SIXPAU1@@Z 02006bb4 f   DiskDrive.obj
 0001:00005bcc       ?m__ctor@Class_System_GCs_MemoryAccounting_StaticPtrAccounting@@SIXPAU1@@Z 02006bcc f   DiskDrive.obj
 0001:00005be4       ?m__ctor@Class_System_Runtime_CompilerServices_NoBarriersAttribute@@SIXPAU1@@Z 02006be4 f   DiskDrive.obj
 0001:00005c08       ?m__ctor@Class_System_RankException@@SIXPAU1@@Z 02006c08 f   DiskDrive.obj
 0001:00005c30       ?m__ctor@Class_System_RankException@@SIXPAU1@PAUClass_System_String@@@Z 02006c30 f   DiskDrive.obj
 0001:00005c58       ?m_Update@Class_Microsoft_Singularity_Crypto_MD5@@SIXPAU1@PAUClassVector_uint8@@@Z 02006c58 f   DiskDrive.obj
 0001:00006188       ?m_RotL@Class_Microsoft_Singularity_Crypto_MD5@@SIIPAU1@IE@Z 02007188 f   DiskDrive.obj
 0001:000061f8       ?m_Reset@Class_Microsoft_Singularity_Crypto_MD5@@SIXPAU1@@Z 020071f8 f   DiskDrive.obj
 0001:000062cc       ?m_ProcessBlock@Class_Microsoft_Singularity_Crypto_MD5@@SIXPAU1@@Z 020072cc f   DiskDrive.obj
 0001:00006d40       ?m_Hash@Class_Microsoft_Singularity_Crypto_MD5@@SIPAUClassVector_uint8@@PAU1@PAU2@@Z 02007d40 f   DiskDrive.obj
 0001:00006d78       ?m_Finish@Class_Microsoft_Singularity_Crypto_MD5@@SIPAUClassVector_uint8@@PAU1@@Z 02007d78 f   DiskDrive.obj
 0001:00006fbc       ?m__ctor@Class_Microsoft_Singularity_Crypto_MD5@@SIXPAU1@@Z 02007fbc f   DiskDrive.obj
 0001:00007014       ?g__cctor@Class_Microsoft_Singularity_Crypto_MD5@@SIXXZ 02008014 f   DiskDrive.obj
 0001:00007028       ?m_InvokeStaticStub@Class_System_TryAllManager_GCHookMethod@@SIXPAU1@@Z 02008028 f   DiskDrive.obj
 0001:00007050       ?m_Invoke@Class_System_TryAllManager_GCHookMethod@@SIXPAU1@@Z 02008050 f   DiskDrive.obj
 0001:000070a4       ?m_EndInvoke@Class_System_TryAllManager_GCHookMethod@@SIXPAU1@PAUClass_System_IAsyncResult@@@Z 020080a4 f   DiskDrive.obj
 0001:000070c0       ?m_BeginInvoke@Class_System_TryAllManager_GCHookMethod@@SIPAUClass_System_IAsyncResult@@PAU1@PAUClass_System_AsyncCallback@@PAUClass_System_Object@@@Z 020080c0 f   DiskDrive.obj
 0001:000070e0       ?m__ctor@Class_System_TryAllManager_GCHookMethod@@SIXPAU1@PAUClass_System_Object@@PAUintPtr@@@Z 020080e0 f   DiskDrive.obj
 0001:00007120       ?m_StructCopy@Struct_Microsoft_Singularity_Io_VolumeManagerContract_AckConnect@@SIXPAU1@0@Z 02008120 f   DiskDrive.obj
 0001:0000713c       ?m_StructCopy@Struct_Microsoft_Singularity_Io_VolumeManagerContract_AckConnect@@SIXPAU1@PAU1@@Z 0200813c f   DiskDrive.obj
 0001:00007190       ?m_MarshallContent@Struct_Microsoft_Singularity_Io_VolumeManagerContract_AckConnect@@SIXPAU1@PAEPAUStruct_Microsoft_Singularity_Channels_Endpoint@@1PAH@Z 02008190 f   DiskDrive.obj
 0001:000071b0       ?m_MarshallAll@Struct_Microsoft_Singularity_Io_VolumeManagerContract_AckConnect@@SIXPAU1@PAEPAUStruct_Microsoft_Singularity_Channels_Endpoint@@PAH@Z 020081b0 f   DiskDrive.obj
 0001:00007208       ?m_Equals@Struct_Microsoft_Singularity_Io_VolumeManagerContract_AckConnect@@SI_NPAU1@PAUClass_System_Object@@@Z 02008208 f   DiskDrive.obj
 0001:00007240       ?m_Equals@Struct_Microsoft_Singularity_Io_VolumeManagerContract_AckConnect@@SI_NPAUClass_Microsoft_Singularity_Io_VolumeManagerContract_AckConnect@@PAUClass_System_Object@@@Z 02008240 f   DiskDrive.obj
 0001:0000726c       ?m__ctor@Class_Microsoft_Singularity_Eventing_DataType@@SIXPAU1@@Z 0200826c f   DiskDrive.obj
 0001:00007288       ?m_StructCopy@Struct_Microsoft_Singularity_Io_DiskDeviceContract_NakWrite@@SIXPAU1@0@Z 02008288 f   DiskDrive.obj
 0001:000072a4       ?m_StructCopy@Struct_Microsoft_Singularity_Io_DiskDeviceContract_NakWrite@@SIXPAU1@PAU1@@Z 020082a4 f   DiskDrive.obj
 0001:000072f8       ?m_MarshallContent@Struct_Microsoft_Singularity_Io_DiskDeviceContract_NakWrite@@SIXPAU1@PAEPAUStruct_Microsoft_Singularity_Channels_Endpoint@@1PAH@Z 020082f8 f   DiskDrive.obj
 0001:00007318       ?m_MarshallAll@Struct_Microsoft_Singularity_Io_DiskDeviceContract_NakWrite@@SIXPAU1@PAEPAUStruct_Microsoft_Singularity_Channels_Endpoint@@PAH@Z 02008318 f   DiskDrive.obj
 0001:00007370       ?m_Equals@Struct_Microsoft_Singularity_Io_DiskDeviceContract_NakWrite@@SI_NPAU1@PAUClass_System_Object@@@Z 02008370 f   DiskDrive.obj
 0001:000073a8       ?m_Equals@Struct_Microsoft_Singularity_Io_DiskDeviceContract_NakWrite@@SI_NPAUClass_Microsoft_Singularity_Io_DiskDeviceContract_NakWrite@@PAUClass_System_Object@@@Z 020083a8 f   DiskDrive.obj
 0001:000073d4       ?g_ScanStaticPointerData@Class_System_GCs_StaticData@@SIIPAUClass_System_GCs_NonNullReferenceVisitor@@@Z 020083d4 f   DiskDrive.obj
 0001:000075bc       ?g_ScanStaticData@Class_System_GCs_StaticData@@SIXPAUClass_System_GCs_DirectReferenceVisitor@@@Z 020085bc f   DiskDrive.obj
 0001:00007764       ?g_Initialize@Class_System_GCs_StaticData@@SIXXZ 02008764 f   DiskDrive.obj
 0001:000079d8       ?m__ctor@Class_System_GCs_StaticData@@SIXPAU1@@Z 020089d8 f   DiskDrive.obj
 0001:000079f0       ?m_ToString@Struct_System_DateTime@@SIPAUClass_System_String@@PAU1@@Z 020089f0 f   DiskDrive.obj
 0001:00007a18       ?m_ToString@Struct_System_DateTime@@SIPAUClass_System_String@@PAU1@PAU2@@Z 02008a18 f   DiskDrive.obj
 0001:00007d4c       ?m_ToString@Struct_System_DateTime@@SIPAUClass_System_String@@PAUClass_System_DateTime@@@Z 02008d4c f   DiskDrive.obj
 0001:00007d94       ?m_ToString@Struct_System_DateTime@@SIPAUClass_System_String@@PAUClass_System_DateTime@@PAU2@@Z 02008d94 f   DiskDrive.obj
 0001:00007de0       ?m_StructCopy@Struct_System_DateTime@@SIXPAU1@0@Z 02008de0 f   DiskDrive.obj
 0001:00007e14       ?m_StructCopy@Struct_System_DateTime@@SIXPAU1@PAU1@@Z 02008e14 f   DiskDrive.obj
 0001:00007eb0       ?m_GetShortWeekday@Struct_System_DateTime@@SIPAUClass_System_String@@PAU1@@Z 02008eb0 f   DiskDrive.obj
 0001:00007f14       ?m_GetShortMonth@Struct_System_DateTime@@SIPAUClass_System_String@@PAU1@@Z 02008f14 f   DiskDrive.obj
 0001:00007fa0       ?m_GetHashCode@Struct_System_DateTime@@SIHPAU1@@Z 02008fa0 f   DiskDrive.obj
 0001:00007fcc       ?m_GetHashCode@Struct_System_DateTime@@SIHPAUClass_System_DateTime@@@Z 02008fcc f   DiskDrive.obj
 0001:00008014       ?m_GetDatePart@Struct_System_DateTime@@SIHPAU1@H@Z 02009014 f   DiskDrive.obj
 0001:0000826c       ?m_get$_Year@Struct_System_DateTime@@SIHPAU1@@Z 0200926c f   DiskDrive.obj
 0001:00008294       ?m_get$_Second@Struct_System_DateTime@@SIHPAU1@@Z 02009294 f   DiskDrive.obj
 0001:000082d4       ?m_get$_Month@Struct_System_DateTime@@SIHPAU1@@Z 020092d4 f   DiskDrive.obj
 0001:000082fc       ?m_get$_Minute@Struct_System_DateTime@@SIHPAU1@@Z 020092fc f   DiskDrive.obj
 0001:0000833c       ?m_get$_Hour@Struct_System_DateTime@@SIHPAU1@@Z 0200933c f   DiskDrive.obj
 0001:0000837c       ?m_get$_DayOfWeek@Struct_System_DateTime@@SI?AUStruct_System_DayOfWeek@@PAU1@@Z 0200937c f   DiskDrive.obj
 0001:000083c8       ?m_get$_Day@Struct_System_DateTime@@SIHPAU1@@Z 020093c8 f   DiskDrive.obj
 0001:000083f0       ?m_Equals@Struct_System_DateTime@@SI_NPAU1@PAUClass_System_Object@@@Z 020093f0 f   DiskDrive.obj
 0001:00008468       ?m_Equals@Struct_System_DateTime@@SI_NPAUClass_System_DateTime@@PAUClass_System_Object@@@Z 02009468 f   DiskDrive.obj
 0001:000084b4       ?m__ctor@Struct_System_DateTime@@SIXPAU1@_J@Z 020094b4 f   DiskDrive.obj
 0001:00008550       ?g__cctor@Struct_System_DateTime@@SIXXZ 02009550 f   DiskDrive.obj
 0001:000085cc       ?m__ctor@Class_Microsoft_Contracts_AssertException@@SIXPAU1@@Z 020095cc f   DiskDrive.obj
 0001:000085f0       ?m__ctor@Class_System_Runtime_CompilerServices_AssertDevirtualizeAttribute@@SIXPAU1@@Z 020095f0 f   DiskDrive.obj
 0001:00008614       ?m_StructCopy@Struct_Microsoft_Singularity_Io_DiskDeviceContract_AckGetDeviceName@@SIXPAU1@0@Z 02009614 f   DiskDrive.obj
 0001:0000863c       ?m_StructCopy@Struct_Microsoft_Singularity_Io_DiskDeviceContract_AckGetDeviceName@@SIXPAU1@PAU1@@Z 0200963c f   DiskDrive.obj
 0001:000086b4       ?m_MarshallContent@Struct_Microsoft_Singularity_Io_DiskDeviceContract_AckGetDeviceName@@SIXPAU1@PAEPAUStruct_Microsoft_Singularity_Channels_Endpoint@@1PAH@Z 020096b4 f   DiskDrive.obj
 0001:00008774       ?m_MarshallAll@Struct_Microsoft_Singularity_Io_DiskDeviceContract_AckGetDeviceName@@SIXPAU1@PAEPAUStruct_Microsoft_Singularity_Channels_Endpoint@@PAH@Z 02009774 f   DiskDrive.obj
 0001:000087cc       ?m_Equals@Struct_Microsoft_Singularity_Io_DiskDeviceContract_AckGetDeviceName@@SI_NPAU1@PAUClass_System_Object@@@Z 020097cc f   DiskDrive.obj
 0001:00008814       ?m_Equals@Struct_Microsoft_Singularity_Io_DiskDeviceContract_AckGetDeviceName@@SI_NPAUClass_Microsoft_Singularity_Io_DiskDeviceContract_AckGetDeviceName@@PAUClass_System_Object@@@Z 02009814 f   DiskDrive.obj
 0001:00008840       ?m_ToString@int8@@SIPAUClass_System_String@@PAC@Z 02009840 f   DiskDrive.obj
 0001:00008868       ?m_ToString@int8@@SIPAUClass_System_String@@PACPAU2@@Z 02009868 f   DiskDrive.obj
 0001:00008960       ?m_ToString@int8@@SIPAUClass_System_String@@PAUClass_System_SByte@@@Z 02009960 f   DiskDrive.obj
 0001:00008988       ?m_ToString@int8@@SIPAUClass_System_String@@PAUClass_System_SByte@@PAU2@@Z 02009988 f   DiskDrive.obj
 0001:000089b4       ?m_GetHashCode@int8@@SIHPAC@Z 020099b4 f   DiskDrive.obj
 0001:000089e4       ?m_GetHashCode@int8@@SIHPAUClass_System_SByte@@@Z 020099e4 f   DiskDrive.obj
 0001:00008a0c       ?m_Equals@int8@@SI_NPACPAUClass_System_Object@@@Z 02009a0c f   DiskDrive.obj
 0001:00008a6c       ?m_Equals@int8@@SI_NPAUClass_System_SByte@@PAUClass_System_Object@@@Z 02009a6c f   DiskDrive.obj
 0001:00008a98       ?m_StructCopy@Struct_System_ReadEnlistmentLogWriter@@SIXPAU1@0@Z 02009a98 f   DiskDrive.obj
 0001:00008acc       ?m_StructCopy@Struct_System_ReadEnlistmentLogWriter@@SIXPAU1@PAU1@@Z 02009acc f   DiskDrive.obj
 0001:00008b68       ?m_Equals@Struct_System_ReadEnlistmentLogWriter@@SI_NPAU1@PAUClass_System_Object@@@Z 02009b68 f   DiskDrive.obj
 0001:00008bc4       ?m_Equals@Struct_System_ReadEnlistmentLogWriter@@SI_NPAUClass_System_ReadEnlistmentLogWriter@@PAUClass_System_Object@@@Z 02009bc4 f   DiskDrive.obj
 0001:00008bf0       ?m_StructCopy@Struct_Microsoft_Singularity_Io_DiskDeviceContract_GetSystemId@@SIXPAU1@0@Z 02009bf0 f   DiskDrive.obj
 0001:00008c0c       ?m_StructCopy@Struct_Microsoft_Singularity_Io_DiskDeviceContract_GetSystemId@@SIXPAU1@PAU1@@Z 02009c0c f   DiskDrive.obj
 0001:00008c60       ?m_Equals@Struct_Microsoft_Singularity_Io_DiskDeviceContract_GetSystemId@@SI_NPAU1@PAUClass_System_Object@@@Z 02009c60 f   DiskDrive.obj
 0001:00008c98       ?m_Equals@Struct_Microsoft_Singularity_Io_DiskDeviceContract_GetSystemId@@SI_NPAUClass_Microsoft_Singularity_Io_DiskDeviceContract_GetSystemId@@PAUClass_System_Object@@@Z 02009c98 f   DiskDrive.obj
 0001:00008cc4       ?m_StructCopy@Struct_System_Collections_Hashtable_bucket@@SIXPAU1@0@Z 02009cc4 f   DiskDrive.obj
 0001:00008d04       ?m_StructCopy@Struct_System_Collections_Hashtable_bucket@@SIXPAU1@PAU1@@Z 02009d04 f   DiskDrive.obj
 0001:00008dc4       ?m_Equals@Struct_System_Collections_Hashtable_bucket@@SI_NPAU1@PAUClass_System_Object@@@Z 02009dc4 f   DiskDrive.obj
 0001:00008e38       ?m_Equals@Struct_System_Collections_Hashtable_bucket@@SI_NPAUClass_System_Collections_Hashtable_bucket@@PAUClass_System_Object@@@Z 02009e38 f   DiskDrive.obj
 0001:00008e64       ?g_Summary@Class_System_GCs_CollectorStatistics@@SIXXZ 02009e64 f   DiskDrive.obj
 0001:00008e78       ?g_Initialize@Class_System_GCs_CollectorStatistics@@SIXXZ 02009e78 f   DiskDrive.obj
 0001:00008e8c       ?g_Event@Class_System_GCs_CollectorStatistics@@SIXUStruct_System_GCs_GCEvent@@@Z 02009e8c f   DiskDrive.obj
 0001:00008ea8       ?g_Event@Class_System_GCs_CollectorStatistics@@SIXUStruct_System_GCs_GCEvent@@_J@Z 02009ea8 f   DiskDrive.obj
 0001:00008ec4       ?m__ctor@Class_System_GCs_CollectorStatistics@@SIXPAU1@@Z 02009ec4 f   DiskDrive.obj
 0001:00008edc       ?m_StructCopy@Struct_System_RuntimeTypeHandle@@SIXPAU1@0@Z 02009edc f   DiskDrive.obj
 0001:00008f04       ?m_StructCopy@Struct_System_RuntimeTypeHandle@@SIXPAU1@PAU1@@Z 02009f04 f   DiskDrive.obj
 0001:00008f7c       ?m_get$_Value@Struct_System_RuntimeTypeHandle@@SIPAUintPtr@@PAU1@@Z 02009f7c f   DiskDrive.obj
 0001:00008f9c       ?m_Equals@Struct_System_RuntimeTypeHandle@@SI_NPAU1@PAUClass_System_Object@@@Z 02009f9c f   DiskDrive.obj
 0001:00008fe4       ?m_Equals@Struct_System_RuntimeTypeHandle@@SI_NPAUClass_System_RuntimeTypeHandle@@PAUClass_System_Object@@@Z 02009fe4 f   DiskDrive.obj
 0001:00009010       ?m__ctor@Struct_System_RuntimeTypeHandle@@SIXPAU1@PAUClass_System_RuntimeType@@@Z 0200a010 f   DiskDrive.obj
 0001:00009038       ?g_Create@Class_Microsoft_Singularity_GCProfilerLogger_GCEventSource@@SIPAU1@PAUClass_System_String@@I_K@Z 0200a038 f   DiskDrive.obj
 0001:0000910c       ?m__ctor@Class_Microsoft_Singularity_GCProfilerLogger_GCEventSource@@SIXPAU1@PAUClass_System_String@@PAUClass_Microsoft_Singularity_Eventing_EventingStorage@@I@Z 0200a10c f   DiskDrive.obj
 0001:00009140       ?m_StructCopy@Struct_Microsoft_Singularity_Directory_ServiceProviderContract_AckConnect@@SIXPAU1@0@Z 0200a140 f   DiskDrive.obj
 0001:0000915c       ?m_StructCopy@Struct_Microsoft_Singularity_Directory_ServiceProviderContract_AckConnect@@SIXPAU1@PAU1@@Z 0200a15c f   DiskDrive.obj
 0001:000091b0       ?m_MarshallContent@Struct_Microsoft_Singularity_Directory_ServiceProviderContract_AckConnect@@SIXPAU1@PAEPAUStruct_Microsoft_Singularity_Channels_Endpoint@@1PAH@Z 0200a1b0 f   DiskDrive.obj
 0001:000091d0       ?m_MarshallAll@Struct_Microsoft_Singularity_Directory_ServiceProviderContract_AckConnect@@SIXPAU1@PAEPAUStruct_Microsoft_Singularity_Channels_Endpoint@@PAH@Z 0200a1d0 f   DiskDrive.obj
 0001:00009228       ?m_Equals@Struct_Microsoft_Singularity_Directory_ServiceProviderContract_AckConnect@@SI_NPAU1@PAUClass_System_Object@@@Z 0200a228 f   DiskDrive.obj
 0001:00009260       ?m_Equals@Struct_Microsoft_Singularity_Directory_ServiceProviderContract_AckConnect@@SI_NPAUClass_Microsoft_Singularity_Directory_ServiceProviderContract_AckConnect@@PAUClass_System_Object@@@Z 0200a260 f   DiskDrive.obj
 0001:0000928c       ?m_StructCopy@Struct_System_UpdateEnlistmentLog_Entry@@SIXPAU1@0@Z 0200a28c f   DiskDrive.obj
 0001:00009310       ?m_StructCopy@Struct_System_UpdateEnlistmentLog_Entry@@SIXPAU1@PAU1@@Z 0200a310 f   DiskDrive.obj
 0001:0000949c       ?m_Equals@Struct_System_UpdateEnlistmentLog_Entry@@SI_NPAU1@PAUClass_System_Object@@@Z 0200a49c f   DiskDrive.obj
 0001:00009614       ?m_Equals@Struct_System_UpdateEnlistmentLog_Entry@@SI_NPAUClass_System_UpdateEnlistmentLog_Entry@@PAUClass_System_Object@@@Z 0200a614 f   DiskDrive.obj
 0001:00009640       ?m_WaitOne@Class_System_Threading_ManualResetEvent@@SI_NPAU1@@Z 0200a640 f   DiskDrive.obj
 0001:000096b4       ?m_WaitOne@Class_System_Threading_ManualResetEvent@@SI_NPAU1@UStruct_System_SchedulerTime@@@Z 0200a6b4 f   DiskDrive.obj
 0001:0000973c       ?m_Set@Class_System_Threading_ManualResetEvent@@SI_NPAU1@@Z 0200a73c f   DiskDrive.obj
 0001:00009788       ?m_Reset@Class_System_Threading_ManualResetEvent@@SIXPAU1@@Z 0200a788 f   DiskDrive.obj
 0001:000097c0       ?m_Finalize@Class_System_Threading_ManualResetEvent@@SIXPAU1@@Z 0200a7c0 f   DiskDrive.obj
 0001:00009824       ?m_Dispose@Class_System_Threading_ManualResetEvent@@SIXPAU1@_N@Z 0200a824 f   DiskDrive.obj
 0001:00009870       ?m__ctor@Class_System_Threading_ManualResetEvent@@SIXPAU1@_N@Z 0200a870 f   DiskDrive.obj
 0001:000098dc       ?g_AssertNotNull@Class_Microsoft_Contracts_NonNullType@@SIXPAUuintPtr@@@Z 0200a8dc f   DiskDrive.obj
 0001:00009934       ?g_AssertNotNull@Class_Microsoft_Contracts_NonNullType@@SIXPAUClass_System_Object@@@Z 0200a934 f   DiskDrive.obj
 0001:00009984       ?m__ctor@Class_Microsoft_Contracts_NonNullType@@SIXPAU1@@Z 0200a984 f   DiskDrive.obj
 0001:0000999c       ?m__ctor@Class_System_NullReferenceException@@SIXPAU1@@Z 0200a99c f   DiskDrive.obj
 0001:000099c4       ?m__ctor@Class_System_NullReferenceException@@SIXPAU1@PAUClass_System_String@@@Z 0200a9c4 f   DiskDrive.obj
 0001:000099ec       ?m__ctor@Class_System_NullReferenceException@@SIXPAU1@PAUClass_System_String@@PAUClass_System_Exception@@@Z 0200a9ec f   DiskDrive.obj
 0001:00009a1c       ?m_StructCopy@Struct_Microsoft_Singularity_V1_Threads_ManualResetEventHandle@@SIXPAU1@0@Z 0200aa1c f   DiskDrive.obj
 0001:00009a44       ?m_StructCopy@Struct_Microsoft_Singularity_V1_Threads_ManualResetEventHandle@@SIXPAU1@PAU1@@Z 0200aa44 f   DiskDrive.obj
 0001:00009abc       ?m_Equals@Struct_Microsoft_Singularity_V1_Threads_ManualResetEventHandle@@SI_NPAU1@PAUClass_System_Object@@@Z 0200aabc f   DiskDrive.obj
 0001:00009b04       ?m_Equals@Struct_Microsoft_Singularity_V1_Threads_ManualResetEventHandle@@SI_NPAUClass_Microsoft_Singularity_V1_Threads_ManualResetEventHandle@@PAUClass_System_Object@@@Z 0200ab04 f   DiskDrive.obj
 0001:00009b30       ?g_Create@Struct_Microsoft_Singularity_V1_Threads_ManualResetEventHandle@@SI_N_NPAU1@@Z 0200ab30 f   DiskDrive.obj
 0001:00009b7c       ?m_RecvEmpty@Class_Microsoft_Singularity_Drivers_IDE_IdeDisk_Microsoft_Singularity_Channels_EMap$_3$LMicrosoft_Singularity_Io_DiskDeviceContract_Exp_Microsoft_Singularity_Io_DiskDeviceContract_Ready_optional_Microsoft_Contracts_NonNullType__Microsoft_Singularity_Drivers_IDE_IdeDisk_DiskConnectionState$G@@SIXPAU1@@Z 0200ab7c f   DiskDrive.obj
 0001:00009b98       ?m_HeadMatches@Class_Microsoft_Singularity_Drivers_IDE_IdeDisk_Microsoft_Singularity_Channels_EMap$_3$LMicrosoft_Singularity_Io_DiskDeviceContract_Exp_Microsoft_Singularity_Io_DiskDeviceContract_Ready_optional_Microsoft_Contracts_NonNullType__Microsoft_Singularity_Drivers_IDE_IdeDisk_DiskConnectionState$G@@SI_NPAU1@HPA_NPAPAUClass_System_Object@@@Z 0200ab98 f   DiskDrive.obj
 0001:00009d10       ?m_GetWaitHandle@Class_Microsoft_Singularity_Drivers_IDE_IdeDisk_Microsoft_Singularity_Channels_EMap$_3$LMicrosoft_Singularity_Io_DiskDeviceContract_Exp_Microsoft_Singularity_Io_DiskDeviceContract_Ready_optional_Microsoft_Contracts_NonNullType__Microsoft_Singularity_Drivers_IDE_IdeDisk_DiskConnectionState$G@@SI?AUStruct_Microsoft_Singularity_V1_Threads_SyncHandle@@PAU1@@Z 0200ad10 f   DiskDrive.obj
 0001:00009d7c       ?m_GetFreshNode@Class_Microsoft_Singularity_Drivers_IDE_IdeDisk_Microsoft_Singularity_Channels_EMap$_3$LMicrosoft_Singularity_Io_DiskDeviceContract_Exp_Microsoft_Singularity_Io_DiskDeviceContract_Ready_optional_Microsoft_Contracts_NonNullType__Microsoft_Singularity_Drivers_IDE_IdeDisk_DiskConnectionState$G@@SIPAUClass_Microsoft_Singularity_Drivers_IDE_IdeDisk_Microsoft_Singularity_Channels_EMap$_3$LMicrosoft_Singularity_Io_DiskDeviceContract_Exp_Microsoft_Singularity_Io_DiskDeviceContract_Ready_optional_Microsoft_Contracts_NonNullType__Microsoft_Singularity_Drivers_IDE_IdeDisk_DiskConnectionState$G_Node@@PAU1@PAUStruct_Microsoft_Singularity_Io_DiskDeviceContract_Exp@@PAUClass_Microsoft_Singularity_Drivers_IDE_IdeDisk_DiskConnectionState@@0@Z 0200ad7c f   DiskDrive.obj
 0001:00009e24       ?m_get$_NextScanStart@Class_Microsoft_Singularity_Drivers_IDE_IdeDisk_Microsoft_Singularity_Channels_EMap$_3$LMicrosoft_Singularity_Io_DiskDeviceContract_Exp_Microsoft_Singularity_Io_DiskDeviceContract_Ready_optional_Microsoft_Contracts_NonNullType__Microsoft_Singularity_Drivers_IDE_IdeDisk_DiskConnectionState$G@@SIPAUClass_Microsoft_Singularity_Drivers_IDE_IdeDisk_Microsoft_Singularity_Channels_EMap$_3$LMicrosoft_Singularity_Io_DiskDeviceContract_Exp_Microsoft_Singularity_Io_DiskDeviceContract_Ready_optional_Microsoft_Contracts_NonNullType__Microsoft_Singularity_Drivers_IDE_IdeDisk_DiskConnectionState$G_Node@@PAU1@@Z 0200ae24 f   DiskDrive.obj
 0001:00009e8c       ?m_Extract@Class_Microsoft_Singularity_Drivers_IDE_IdeDisk_Microsoft_Singularity_Channels_EMap$_3$LMicrosoft_Singularity_Io_DiskDeviceContract_Exp_Microsoft_Singularity_Io_DiskDeviceContract_Ready_optional_Microsoft_Contracts_NonNullType__Microsoft_Singularity_Drivers_IDE_IdeDisk_DiskConnectionState$G@@SIPAUStruct_Microsoft_Singularity_Io_DiskDeviceContract_Exp@@PAU1@PAUClass_System_Object@@PAPAUClass_Microsoft_Singularity_Drivers_IDE_IdeDisk_DiskConnectionState@@@Z 0200ae8c f   DiskDrive.obj
 0001:00009f4c       ?m_Dispose@Class_Microsoft_Singularity_Drivers_IDE_IdeDisk_Microsoft_Singularity_Channels_EMap$_3$LMicrosoft_Singularity_Io_DiskDeviceContract_Exp_Microsoft_Singularity_Io_DiskDeviceContract_Ready_optional_Microsoft_Contracts_NonNullType__Microsoft_Singularity_Drivers_IDE_IdeDisk_DiskConnectionState$G@@SIXPAU1@@Z 0200af4c f   DiskDrive.obj
 0001:0000a064       ?m_Add@Class_Microsoft_Singularity_Drivers_IDE_IdeDisk_Microsoft_Singularity_Channels_EMap$_3$LMicrosoft_Singularity_Io_DiskDeviceContract_Exp_Microsoft_Singularity_Io_DiskDeviceContract_Ready_optional_Microsoft_Contracts_NonNullType__Microsoft_Singularity_Drivers_IDE_IdeDisk_DiskConnectionState$G@@SIXPAU1@PAUStruct_Microsoft_Singularity_Io_DiskDeviceContract_Exp@@PAUClass_Microsoft_Singularity_Drivers_IDE_IdeDisk_DiskConnectionState@@@Z 0200b064 f   DiskDrive.obj
 0001:0000a098       ?m__ctor@Class_Microsoft_Singularity_Drivers_IDE_IdeDisk_Microsoft_Singularity_Channels_EMap$_3$LMicrosoft_Singularity_Io_DiskDeviceContract_Exp_Microsoft_Singularity_Io_DiskDeviceContract_Ready_optional_Microsoft_Contracts_NonNullType__Microsoft_Singularity_Drivers_IDE_IdeDisk_DiskConnectionState$G@@SIXPAU1@@Z 0200b098 f   DiskDrive.obj
 0001:0000a124       ?m__ctor@Class_Microsoft_Singularity_Tracing@@SIXPAU1@@Z 0200b124 f   DiskDrive.obj
 0001:0000a140       ?m_ToString@Class_Microsoft_Singularity_Io_IoDmaRange@@SIPAUClass_System_String@@PAU1@@Z 0200b140 f   DiskDrive.obj
 0001:0000a1bc       ?m__ctor@Class_Microsoft_Singularity_Io_IoDmaRange@@SIXPAU1@HH@Z 0200b1bc f   DiskDrive.obj
 0001:0000a1f4       ?m__ctor@Class_System_OutOfMemoryException@@SIXPAU1@@Z 0200b1f4 f   DiskDrive.obj
 0001:0000a21c       ?m__ctor@Class_System_OutOfMemoryException@@SIXPAU1@PAUClass_System_String@@@Z 0200b21c f   DiskDrive.obj
 0001:0000a244       ?m__ctor@Class_System_OutOfMemoryException@@SIXPAU1@PAUClass_System_String@@PAUClass_System_Exception@@@Z 0200b244 f   DiskDrive.obj
 0001:0000a274       ?m_Set@Class_Microsoft_Singularity_Drivers_IDE_IdeRequest@@SIXPAU1@_KPAEPAUuintPtr@@3UStruct_Microsoft_Singularity_Drivers_IDE_IdeCmdType@@@Z 0200b274 f   DiskDrive.obj
 0001:0000a300       ?m__ctor@Class_Microsoft_Singularity_Drivers_IDE_IdeRequest@@SIXPAU1@@Z 0200b300 f   DiskDrive.obj
 0001:0000a31c       ?m_ZeroIfMustBeQuiescent@Struct_System_MultiUseWord_STMSnapshot@@SIIPAU1@@Z 0200b31c f   DiskDrive.obj
 0001:0000a344       ?m_Visit@Struct_System_MultiUseWord_STMSnapshot@@SIXPAU1@PAUClass_System_GCs_DirectReferenceVisitor@@@Z 0200b344 f   DiskDrive.obj
 0001:0000a500       ?m_StructCopy@Struct_System_MultiUseWord_STMSnapshot@@SIXPAU1@0@Z 0200b500 f   DiskDrive.obj
 0001:0000a528       ?m_StructCopy@Struct_System_MultiUseWord_STMSnapshot@@SIXPAU1@PAU1@@Z 0200b528 f   DiskDrive.obj
 0001:0000a5a0       ?m_GetSTMWord@Struct_System_MultiUseWord_STMSnapshot@@SI?AUStruct_System_STMWord@@PAU1@@Z 0200b5a0 f   DiskDrive.obj
 0001:0000a64c       ?m_Equals@Struct_System_MultiUseWord_STMSnapshot@@SI_NPAU1@PAUClass_System_Object@@@Z 0200b64c f   DiskDrive.obj
 0001:0000a694       ?m_Equals@Struct_System_MultiUseWord_STMSnapshot@@SI_NPAUClass_System_MultiUseWord_STMSnapshot@@PAUClass_System_Object@@@Z 0200b694 f   DiskDrive.obj
 0001:0000a6c0       ?m_Eq@Struct_System_MultiUseWord_STMSnapshot@@SI_NPAU1@U1@@Z 0200b6c0 f   DiskDrive.obj
 0001:0000a6ec       ?m__ctor@Struct_System_MultiUseWord_STMSnapshot@@SIXPAU1@UStruct_System_MultiUseWord@@@Z 0200b6ec f   DiskDrive.obj
 0001:0000a714       ?m_StructCopy@Struct_Microsoft_Singularity_Io_DiskDeviceContract_NakRead@@SIXPAU1@0@Z 0200b714 f   DiskDrive.obj
 0001:0000a730       ?m_StructCopy@Struct_Microsoft_Singularity_Io_DiskDeviceContract_NakRead@@SIXPAU1@PAU1@@Z 0200b730 f   DiskDrive.obj
 0001:0000a784       ?m_MarshallContent@Struct_Microsoft_Singularity_Io_DiskDeviceContract_NakRead@@SIXPAU1@PAEPAUStruct_Microsoft_Singularity_Channels_Endpoint@@1PAH@Z 0200b784 f   DiskDrive.obj
 0001:0000a7a4       ?m_MarshallAll@Struct_Microsoft_Singularity_Io_DiskDeviceContract_NakRead@@SIXPAU1@PAEPAUStruct_Microsoft_Singularity_Channels_Endpoint@@PAH@Z 0200b7a4 f   DiskDrive.obj
 0001:0000a7fc       ?m_Equals@Struct_Microsoft_Singularity_Io_DiskDeviceContract_NakRead@@SI_NPAU1@PAUClass_System_Object@@@Z 0200b7fc f   DiskDrive.obj
 0001:0000a834       ?m_Equals@Struct_Microsoft_Singularity_Io_DiskDeviceContract_NakRead@@SI_NPAUClass_Microsoft_Singularity_Io_DiskDeviceContract_NakRead@@PAUClass_System_Object@@@Z 0200b834 f   DiskDrive.obj
 0001:0000a860       ?m_StructCopy@Struct_Microsoft_Singularity_Isal_IX_EVectors@@SIXPAU1@0@Z 0200b860 f   DiskDrive.obj
 0001:0000a87c       ?m_StructCopy@Struct_Microsoft_Singularity_Isal_IX_EVectors@@SIXPAU1@PAU1@@Z 0200b87c f   DiskDrive.obj
 0001:0000a8d0       ?m_Equals@Struct_Microsoft_Singularity_Isal_IX_EVectors@@SI_NPAU1@PAUClass_System_Object@@@Z 0200b8d0 f   DiskDrive.obj
 0001:0000a908       ?m_Equals@Struct_Microsoft_Singularity_Isal_IX_EVectors@@SI_NPAUClass_Microsoft_Singularity_Isal_IX_EVectors@@PAUClass_System_Object@@@Z 0200b908 f   DiskDrive.obj
 0001:0000a934       ?m_StructCopy@Struct_Microsoft_Singularity_Io_VolumeManagerContract_NakRegisterDisk@@SIXPAU1@0@Z 0200b934 f   DiskDrive.obj
 0001:0000a950       ?m_StructCopy@Struct_Microsoft_Singularity_Io_VolumeManagerContract_NakRegisterDisk@@SIXPAU1@PAU1@@Z 0200b950 f   DiskDrive.obj
 0001:0000a9a4       ?m_Equals@Struct_Microsoft_Singularity_Io_VolumeManagerContract_NakRegisterDisk@@SI_NPAU1@PAUClass_System_Object@@@Z 0200b9a4 f   DiskDrive.obj
 0001:0000a9dc       ?m_Equals@Struct_Microsoft_Singularity_Io_VolumeManagerContract_NakRegisterDisk@@SI_NPAUClass_Microsoft_Singularity_Io_VolumeManagerContract_NakRegisterDisk@@PAUClass_System_Object@@@Z 0200b9dc f   DiskDrive.obj
 0001:0000aa08       ?g_StableState@Class_Microsoft_Singularity_Extending_ExtensionContract@@SIHPAUStruct_Microsoft_Singularity_Channels_StateStack@@@Z 0200ba08 f   DiskDrive.obj
 0001:0000aaa8       ?m__ctor@Class_Microsoft_Singularity_Extending_ExtensionContract@@SIXPAU1@@Z 0200baa8 f   DiskDrive.obj
 0001:0000aac0       ?m_StructCopy@Struct_Microsoft_Bartok_Runtime_PreHeader@@SIXPAU1@0@Z 0200bac0 f   DiskDrive.obj
 0001:0000aaec       ?m_StructCopy@Struct_Microsoft_Bartok_Runtime_PreHeader@@SIXPAU1@PAU1@@Z 0200baec f   DiskDrive.obj
 0001:0000ab70       ?m_Equals@Struct_Microsoft_Bartok_Runtime_PreHeader@@SI_NPAU1@PAUClass_System_Object@@@Z 0200bb70 f   DiskDrive.obj
 0001:0000ac1c       ?m_Equals@Struct_Microsoft_Bartok_Runtime_PreHeader@@SI_NPAUClass_Microsoft_Bartok_Runtime_PreHeader@@PAUClass_System_Object@@@Z 0200bc1c f   DiskDrive.obj
 0001:0000ac48       ?m_ToString@Class_System_Text_StringBuilder@@SIPAUClass_System_String@@PAU1@@Z 0200bc48 f   DiskDrive.obj
 0001:0000acf4       ?m_ReplaceString@Class_System_Text_StringBuilder@@SIXPAU1@HPAUClass_System_String@@@Z 0200bcf4 f   DiskDrive.obj
 0001:0000ad38       ?m_NeedsAllocation@Class_System_Text_StringBuilder@@SI_NPAU1@PAUClass_System_String@@H@Z 0200bd38 f   DiskDrive.obj
 0001:0000ad6c       ?g_InternalGetCurrentThread@Class_System_Text_StringBuilder@@SIHXZ 0200bd6c f   DiskDrive.obj
 0001:0000ad90       ?m_GetThreadSafeString@Class_System_Text_StringBuilder@@SIPAUClass_System_String@@PAU1@PAH@Z 0200bd90 f   DiskDrive.obj
 0001:0000adf4       ?m_GetNewString@Class_System_Text_StringBuilder@@SIPAUClass_System_String@@PAU1@PAU2@H@Z 0200bdf4 f   DiskDrive.obj
 0001:0000aee8       ?g_FormatError@Class_System_Text_StringBuilder@@SIXXZ 0200bee8 f   DiskDrive.obj
 0001:0000af24       ?m_AppendFormat@Class_System_Text_StringBuilder@@SIPAU1@PAU1@PAUClass_System_String@@PAUClassVector_Class_System_Object@@@Z 0200bf24 f   DiskDrive.obj
 0001:0000b7bc       ?m_Append@Class_System_Text_StringBuilder@@SIPAU1@PAU1@PAUClassVector_bartok_char@@HH@Z 0200c7bc f   DiskDrive.obj
 0001:0000b9e4       ?m_Append@Class_System_Text_StringBuilder@@SIPAU1@PAU1@H@Z 0200c9e4 f   DiskDrive.obj
 0001:0000ba14       ?m_Append@Class_System_Text_StringBuilder@@SIPAU1@PAU1@PAUClass_System_String@@@Z 0200ca14 f   DiskDrive.obj
 0001:0000bb44       ?m_Append@Class_System_Text_StringBuilder@@SIPAU1@PAU1@PAUClass_System_Object@@@Z 0200cb44 f   DiskDrive.obj
 0001:0000bb84       ?m_Append@Class_System_Text_StringBuilder@@SIPAU1@PAU1@_W@Z 0200cb84 f   DiskDrive.obj
 0001:0000bc88       ?m_Append@Class_System_Text_StringBuilder@@SIPAU1@PAU1@_WH@Z 0200cc88 f   DiskDrive.obj
 0001:0000bdec       ?m__ctor@Class_System_Text_StringBuilder@@SIXPAU1@@Z 0200cdec f   DiskDrive.obj
 0001:0000be14       ?m__ctor@Class_System_Text_StringBuilder@@SIXPAU1@H@Z 0200ce14 f   DiskDrive.obj
 0001:0000beb4       ?g_wcslen@Class_System_Number@@SIHPAUClassVector_bartok_char@@H@Z 0200ceb4 f   DiskDrive.obj
 0001:0000bf28       ?g_UInt64ToDecString@Class_System_Number@@SIPAUClass_System_String@@_KH@Z 0200cf28 f   DiskDrive.obj
 0001:0000c028       ?g_UInt32ToDecString@Class_System_Number@@SIPAUClass_System_String@@IH@Z 0200d028 f   DiskDrive.obj
 0001:0000c0bc       ?m_ToStringFormat@Class_System_Number@@SIPAUClass_System_String@@PAU1@PAU2@@Z 0200d0bc f   DiskDrive.obj
 0001:0000d7a0       ?m_ToString@Class_System_Number@@SIPAUClass_System_String@@PAU1@_WH@Z 0200e7a0 f   DiskDrive.obj
 0001:0000e0e0       ?m_RoundNumber@Class_System_Number@@SIXPAU1@H@Z 0200f0e0 f   DiskDrive.obj
 0001:0000e2ec       ?g_ParseFormatSpecifier@Class_System_Number@@SI_WPAUClass_System_String@@PAH@Z 0200f2ec f   DiskDrive.obj
 0001:0000e490       ?g_NumberToDouble@Class_System_Number@@SIXPAU1@PAN@Z 0200f490 f   DiskDrive.obj
 0001:0000e744       ?g_LO32@Class_System_Number@@SII_K@Z 0200f744 f   DiskDrive.obj
 0001:0000e75c       ?g_Int64ToHexString@Class_System_Number@@SIPAUClass_System_String@@_K_WH@Z 0200f75c f   DiskDrive.obj
 0001:0000e7ec       ?g_Int64ToHexChars@Class_System_Number@@SIHPAUClassVector_bartok_char@@H_K_WH@Z 0200f7ec f   DiskDrive.obj
 0001:0000e8b0       ?g_Int64ToDecString@Class_System_Number@@SIPAUClass_System_String@@_JHPAU2@@Z 0200f8b0 f   DiskDrive.obj
 0001:0000eaa0       ?g_Int64ToDecChars@Class_System_Number@@SIXPAUClassVector_bartok_char@@PAH_KH@Z 0200faa0 f   DiskDrive.obj
 0001:0000eb50       ?g_Int64DivMod1E9@Class_System_Number@@SI_K_KPAI@Z 0200fb50 f   DiskDrive.obj
 0001:0000ebac       ?g_Int32ToHexString@Class_System_Number@@SIPAUClass_System_String@@I_WH@Z 0200fbac f   DiskDrive.obj
 0001:0000ec38       ?g_Int32ToHexChars@Class_System_Number@@SIHPAUClassVector_bartok_char@@HI_WH@Z 0200fc38 f   DiskDrive.obj
 0001:0000ecd8       ?g_Int32ToDecString@Class_System_Number@@SIPAUClass_System_String@@HHPAU2@@Z 0200fcd8 f   DiskDrive.obj
 0001:0000ee34       ?g_Int32ToDecChars@Class_System_Number@@SIXPAUClassVector_bartok_char@@PAHIH@Z 0200fe34 f   DiskDrive.obj
 0001:0000eec8       ?g_HI32@Class_System_Number@@SII_K@Z 0200fec8 f   DiskDrive.obj
 0001:0000eeec       ?g_Get@Class_System_Number@@SI_WPAUClass_System_String@@H@Z 0200feec f   DiskDrive.obj
 0001:0000ef34       ?g_FPNumberToString@Class_System_Number@@SIPAUClass_System_String@@PAU1@PAU2@@Z 0200ff34 f   DiskDrive.obj
 0001:0000f024       ?g_FormatUInt64@Class_System_Number@@SIPAUClass_System_String@@_KPAU2@@Z 02010024 f   DiskDrive.obj
 0001:0000f138       ?g_FormatUInt32@Class_System_Number@@SIPAUClass_System_String@@IPAU2@@Z 02010138 f   DiskDrive.obj
 0001:0000f23c       ?g_FormatSingle@Class_System_Number@@SIPAUClass_System_String@@MPAU2@@Z 0201023c f   DiskDrive.obj
 0001:0000f4c8       ?m_FormatScientific@Class_System_Number@@SIHPAU1@PAUClassVector_bartok_char@@HH_W@Z 020104c8 f   DiskDrive.obj
 0001:0000f690       ?m_FormatPercent@Class_System_Number@@SIHPAU1@PAUClassVector_bartok_char@@HH@Z 02010690 f   DiskDrive.obj
 0001:0000f85c       ?m_FormatNumber@Class_System_Number@@SIHPAU1@PAUClassVector_bartok_char@@HH@Z 0201085c f   DiskDrive.obj
 0001:0000f9f0       ?g_FormatInt64@Class_System_Number@@SIPAUClass_System_String@@_JPAU2@@Z 020109f0 f   DiskDrive.obj
 0001:0000fb28       ?g_FormatInt32@Class_System_Number@@SIPAUClass_System_String@@HPAU2@@Z 02010b28 f   DiskDrive.obj
 0001:0000fc50       ?m_FormatGeneral@Class_System_Number@@SIHPAU1@PAUClassVector_bartok_char@@HH_W@Z 02010c50 f   DiskDrive.obj
 0001:0000fef8       ?m_FormatFixed@Class_System_Number@@SIHPAU1@PAUClassVector_bartok_char@@HHPAUClassVector_int32@@PAUClass_System_String@@3@Z 02010ef8 f   DiskDrive.obj
 0001:00010478       ?m_FormatExponent@Class_System_Number@@SIHPAU1@PAUClassVector_bartok_char@@HH_WPAUClass_System_String@@3H@Z 02011478 f   DiskDrive.obj
 0001:000105d0       ?g_FormatDouble@Class_System_Number@@SIPAUClass_System_String@@NPAU2@@Z 020115d0 f   DiskDrive.obj
 0001:0001080c       ?g_FormatDecimal@Class_System_Number@@SIPAUClass_System_String@@UStruct_System_Decimal@@PAU2@@Z 0201180c f   DiskDrive.obj
 0001:000108a4       ?g_FindSection@Class_System_Number@@SIHPAUClass_System_String@@H@Z 020118a4 f   DiskDrive.obj
 0001:000109f8       ?m_DecDivMod1E9@Class_System_Number@@SIIPAU1@PAUStruct_System_Decimal@@@Z 020119f8 f   DiskDrive.obj
 0001:00010ad0       ?m_D32DivMod1E9@Class_System_Number@@SIIPAU1@IIPAI@Z 02011ad0 f   DiskDrive.obj
 0001:00010b4c       ?g_AddStringRef@Class_System_Number@@SIHPAUClassVector_bartok_char@@HPAUClass_System_String@@@Z 02011b4c f   DiskDrive.obj
 0001:00010be4       ?m__ctor@Class_System_Number@@SIXPAU1@@Z 02011be4 f   DiskDrive.obj
 0001:00010c14       ?m__ctor@Class_System_Number@@SIXPAU1@_K@Z 02011c14 f   DiskDrive.obj
 0001:00010d24       ?m__ctor@Class_System_Number@@SIXPAU1@I@Z 02011d24 f   DiskDrive.obj
 0001:00010e30       ?m__ctor@Class_System_Number@@SIXPAU1@PAUStruct_System_Decimal@@@Z 02011e30 f   DiskDrive.obj
 0001:00010fc0       ?m__ctor@Class_System_Number@@SIXPAU1@_J@Z 02011fc0 f   DiskDrive.obj
 0001:00011120       ?m__ctor@Class_System_Number@@SIXPAU1@H@Z 02012120 f   DiskDrive.obj
 0001:0001124c       ?m__ctor@Class_System_Number@@SIXPAU1@NH@Z 0201224c f   DiskDrive.obj
 0001:000112b0       ?g__cctor@Class_System_Number@@SIXXZ 020122b0 f   DiskDrive.obj
 0001:000113ec       ?m__ctor@Class_Microsoft_Singularity_Memory_Stacks@@SIXPAU1@@Z 020123ec f   DiskDrive.obj
 0001:00011408       ?m_StructCopy@Struct_Microsoft_Singularity_Io_DiskDeviceContract_NoOp@@SIXPAU1@0@Z 02012408 f   DiskDrive.obj
 0001:00011424       ?m_StructCopy@Struct_Microsoft_Singularity_Io_DiskDeviceContract_NoOp@@SIXPAU1@PAU1@@Z 02012424 f   DiskDrive.obj
 0001:00011478       ?m_Equals@Struct_Microsoft_Singularity_Io_DiskDeviceContract_NoOp@@SI_NPAU1@PAUClass_System_Object@@@Z 02012478 f   DiskDrive.obj
 0001:000114b0       ?m_Equals@Struct_Microsoft_Singularity_Io_DiskDeviceContract_NoOp@@SI_NPAUClass_Microsoft_Singularity_Io_DiskDeviceContract_NoOp@@PAUClass_System_Object@@@Z 020124b0 f   DiskDrive.obj
 0001:000114dc       ?m_StructCopy@Struct_Microsoft_Singularity_Directory_ServiceProviderContract_Connect@@SIXPAU1@0@Z 020124dc f   DiskDrive.obj
 0001:00011504       ?m_StructCopy@Struct_Microsoft_Singularity_Directory_ServiceProviderContract_Connect@@SIXPAU1@PAU1@@Z 02012504 f   DiskDrive.obj
 0001:0001157c       ?m_Equals@Struct_Microsoft_Singularity_Directory_ServiceProviderContract_Connect@@SI_NPAU1@PAUClass_System_Object@@@Z 0201257c f   DiskDrive.obj
 0001:000115c4       ?m_Equals@Struct_Microsoft_Singularity_Directory_ServiceProviderContract_Connect@@SI_NPAUClass_Microsoft_Singularity_Directory_ServiceProviderContract_Connect@@PAUClass_System_Object@@@Z 020125c4 f   DiskDrive.obj
 0001:000115f0       ?m_StructCopy@Struct_Microsoft_Singularity_V1_Services_SharedHeapService@@SIXPAU1@0@Z 020125f0 f   DiskDrive.obj
 0001:0001160c       ?m_StructCopy@Struct_Microsoft_Singularity_V1_Services_SharedHeapService@@SIXPAU1@PAU1@@Z 0201260c f   DiskDrive.obj
 0001:00011660       ?g_GetSize@Struct_Microsoft_Singularity_V1_Services_SharedHeapService@@SIPAUuintPtr@@PAUStruct_Microsoft_Singularity_V1_Services_SharedHeapService_Allocation@@@Z 02012660 f   DiskDrive.obj
 0001:00011680       ?g_GetData@Struct_Microsoft_Singularity_V1_Services_SharedHeapService@@SIPAUuintPtr@@PAUStruct_Microsoft_Singularity_V1_Services_SharedHeapService_Allocation@@@Z 02012680 f   DiskDrive.obj
 0001:000116a0       ?m_Equals@Struct_Microsoft_Singularity_V1_Services_SharedHeapService@@SI_NPAU1@PAUClass_System_Object@@@Z 020126a0 f   DiskDrive.obj
 0001:000116d8       ?m_Equals@Struct_Microsoft_Singularity_V1_Services_SharedHeapService@@SI_NPAUClass_Microsoft_Singularity_V1_Services_SharedHeapService@@PAUClass_System_Object@@@Z 020126d8 f   DiskDrive.obj
 0001:00011704       ?m_TryEnter@Class_System_Threading_Monitor@@SI_NPAU1@@Z 02012704 f   DiskDrive.obj
 0001:00011774       ?m_TryEnter@Class_System_Threading_Monitor@@SI_NPAU1@UStruct_System_SchedulerTime@@@Z 02012774 f   DiskDrive.obj
 0001:000117f0       ?g_TryEnter@Class_System_Threading_Monitor@@SI_NPAUClass_System_Object@@@Z 020127f0 f   DiskDrive.obj
 0001:0001182c       ?m_IsInUse@Class_System_Threading_Monitor@@SI_NPAU1@@Z 0201282c f   DiskDrive.obj
 0001:00011848       ?g_GetMonitorFromObject@Class_System_Threading_Monitor@@SIPAU1@PAUClass_System_Object@@@Z 02012848 f   DiskDrive.obj
 0001:000118c4       ?g_FromAddress@Class_System_Threading_Monitor@@SIPAU1@PAUuintPtr@@@Z 020128c4 f   DiskDrive.obj
 0001:000118e0       ?g_ExitImpl@Class_System_Threading_Monitor@@SIXPAUClass_System_Object@@@Z 020128e0 f   DiskDrive.obj
 0001:0001191c       ?m_Exit@Class_System_Threading_Monitor@@SIXPAU1@@Z 0201291c f   DiskDrive.obj
 0001:00011994       ?g_EnterImpl@Class_System_Threading_Monitor@@SIXPAUClass_System_Object@@@Z 02012994 f   DiskDrive.obj
 0001:000119d0       ?m_Enter@Class_System_Threading_Monitor@@SIXPAU1@@Z 020129d0 f   DiskDrive.obj
 0001:00011a30       ?m__ctor@Class_System_Threading_Monitor@@SIXPAU1@@Z 02012a30 f   DiskDrive.obj
 0001:00011a84       ?m__ctor@Class_System_ReadEnlistmentLog_LogChunk@@SIXPAU1@PAUClassVector_Struct_System_ReadEnlistmentLog_Entry@@0@Z 02012a84 f   DiskDrive.obj
 0001:00011ab8       ?m_StructCopy@Struct_Microsoft_Singularity_Io_DiskDeviceContract_GetStartSector@@SIXPAU1@0@Z 02012ab8 f   DiskDrive.obj
 0001:00011ad4       ?m_StructCopy@Struct_Microsoft_Singularity_Io_DiskDeviceContract_GetStartSector@@SIXPAU1@PAU1@@Z 02012ad4 f   DiskDrive.obj
 0001:00011b28       ?m_Equals@Struct_Microsoft_Singularity_Io_DiskDeviceContract_GetStartSector@@SI_NPAU1@PAUClass_System_Object@@@Z 02012b28 f   DiskDrive.obj
 0001:00011b60       ?m_Equals@Struct_Microsoft_Singularity_Io_DiskDeviceContract_GetStartSector@@SI_NPAUClass_Microsoft_Singularity_Io_DiskDeviceContract_GetStartSector@@PAUClass_System_Object@@@Z 02012b60 f   DiskDrive.obj
 0001:00011b8c       ?m_ToString@bool@@SIPAUClass_System_String@@PA_N@Z 02012b8c f   DiskDrive.obj
 0001:00011bbc       ?m_ToString@bool@@SIPAUClass_System_String@@PAUClass_System_Boolean@@@Z 02012bbc f   DiskDrive.obj
 0001:00011c04       ?m_GetHashCode@bool@@SIHPA_N@Z 02012c04 f   DiskDrive.obj
 0001:00011c38       ?m_GetHashCode@bool@@SIHPAUClass_System_Boolean@@@Z 02012c38 f   DiskDrive.obj
 0001:00011c80       ?m_Equals@bool@@SI_NPA_NPAUClass_System_Object@@@Z 02012c80 f   DiskDrive.obj
 0001:00011ce0       ?m_Equals@bool@@SI_NPAUClass_System_Boolean@@PAUClass_System_Object@@@Z 02012ce0 f   DiskDrive.obj
 0001:00011d2c       ?g__cctor@bool@@SIXXZ      02012d2c f   DiskDrive.obj
 0001:00011d40       ?m_StructCopy@Struct_Microsoft_Singularity_V1_Services_ProcessService@@SIXPAU1@0@Z 02012d40 f   DiskDrive.obj
 0001:00011d5c       ?m_StructCopy@Struct_Microsoft_Singularity_V1_Services_ProcessService@@SIXPAU1@PAU1@@Z 02012d5c f   DiskDrive.obj
 0001:00011db0       ?g_GetSharedSourceHandles@Struct_Microsoft_Singularity_V1_Services_ProcessService@@SI_NIPAPAUuintPtr@@00@Z 02012db0 f   DiskDrive.obj
 0001:00011e34       ?m_Equals@Struct_Microsoft_Singularity_V1_Services_ProcessService@@SI_NPAU1@PAUClass_System_Object@@@Z 02012e34 f   DiskDrive.obj
 0001:00011e6c       ?m_Equals@Struct_Microsoft_Singularity_V1_Services_ProcessService@@SI_NPAUClass_Microsoft_Singularity_V1_Services_ProcessService@@PAUClass_System_Object@@@Z 02012e6c f   DiskDrive.obj
 0001:00011e98       ?m_Visit@Struct_System_MultiUseWord_STMHandle@@SI_NPAU1@PAUClass_System_GCs_DirectReferenceVisitor@@@Z 02012e98 f   DiskDrive.obj
 0001:00011eec       ?m_StructCopy@Struct_System_MultiUseWord_STMHandle@@SIXPAU1@0@Z 02012eec f   DiskDrive.obj
 0001:00011f14       ?m_StructCopy@Struct_System_MultiUseWord_STMHandle@@SIXPAU1@PAU1@@Z 02012f14 f   DiskDrive.obj
 0001:00011f8c       ?m_SetSTMWordAtGC@Struct_System_MultiUseWord_STMHandle@@SIXPAU1@PAUClass_System_GCs_DirectReferenceVisitor@@UStruct_System_STMWord@@@Z 02012f8c f   DiskDrive.obj
 0001:00012084       ?m_SetMark@Struct_System_MultiUseWord_STMHandle@@SIXPAU1@_N@Z 02013084 f   DiskDrive.obj
 0001:00012118       ?m_IsMarked@Struct_System_MultiUseWord_STMHandle@@SI_NPAU1@@Z 02013118 f   DiskDrive.obj
 0001:0001215c       ?m_GetSTMSnapshot@Struct_System_MultiUseWord_STMHandle@@SI?AUStruct_System_MultiUseWord_STMSnapshot@@PAU1@@Z 0201315c f   DiskDrive.obj
 0001:000121a8       ?m_Equals@Struct_System_MultiUseWord_STMHandle@@SI_NPAU1@PAUClass_System_Object@@@Z 020131a8 f   DiskDrive.obj
 0001:000121f0       ?m_Equals@Struct_System_MultiUseWord_STMHandle@@SI_NPAUClass_System_MultiUseWord_STMHandle@@PAUClass_System_Object@@@Z 020131f0 f   DiskDrive.obj
 0001:0001221c       ?m_Visit@Class_System_GCs_MemoryAccounting_ManagedPtrAccounting@@SIXPAU1@PAPAUuintPtr@@@Z 0201321c f   DiskDrive.obj
 0001:00012238       ?m_Initialize@Class_System_GCs_MemoryAccounting_ManagedPtrAccounting@@SIXPAU1@@Z 02013238 f   DiskDrive.obj
 0001:00012250       ?m__ctor@Class_System_GCs_MemoryAccounting_ManagedPtrAccounting@@SIXPAU1@@Z 02013250 f   DiskDrive.obj
 0001:00012268       ?m_ToString@Class_System_Version@@SIPAUClass_System_String@@PAU1@@Z 02013268 f   DiskDrive.obj
 0001:000122c4       ?m_ToString@Class_System_Version@@SIPAUClass_System_String@@PAU1@H@Z 020132c4 f   DiskDrive.obj
 0001:00012644       ?m_GetHashCode@Class_System_Version@@SIHPAU1@@Z 02013644 f   DiskDrive.obj
 0001:000126c8       ?m_get$_Major@Class_System_Version@@SIHPAU1@@Z 020136c8 f   DiskDrive.obj
 0001:000126e8       ?m_Equals@Class_System_Version@@SI_NPAU1@PAUClass_System_Object@@@Z 020136e8 f   DiskDrive.obj
 0001:000127a8       ?m__ctor@Class_System_Version@@SIXPAU1@@Z 020137a8 f   DiskDrive.obj
 0001:000127ec       ?m_StructCopy@Struct_Microsoft_Singularity_Drivers_IDE_IdentifyDeviceInformation@@SIXPAU1@0@Z 020137ec f   DiskDrive.obj
 0001:00012f18       ?m_StructCopy@Struct_Microsoft_Singularity_Drivers_IDE_IdentifyDeviceInformation@@SIXPAU1@PAU1@@Z 02013f18 f   DiskDrive.obj
 0001:0001449c       ?m_Equals@Struct_Microsoft_Singularity_Drivers_IDE_IdentifyDeviceInformation@@SI_NPAU1@PAUClass_System_Object@@@Z 0201549c f   DiskDrive.obj
 0001:00014e88       ?m_Equals@Struct_Microsoft_Singularity_Drivers_IDE_IdentifyDeviceInformation@@SI_NPAUClass_Microsoft_Singularity_Drivers_IDE_IdentifyDeviceInformation@@PAUClass_System_Object@@@Z 02015e88 f   DiskDrive.obj
 0001:00014eb4       ?m__ctor@Class_System_Runtime_CompilerServices_InlineAttribute@@SIXPAU1@@Z 02015eb4 f   DiskDrive.obj
 0001:00014ed8       ?g_InitializeQuerySystem@Class_Microsoft_Singularity_Eventing_QuerySession@@SI_NXZ 02015ed8 f   DiskDrive.obj
 0001:00014f78       ?m__ctor@Class_Microsoft_Singularity_Eventing_QuerySession@@SIXPAU1@@Z 02015f78 f   DiskDrive.obj
 0001:00014fa8       ?g__cctor@Class_Microsoft_Singularity_Eventing_QuerySession@@SIXXZ 02015fa8 f   DiskDrive.obj
 0001:00014fbc       ?m__ctor@Class_System_Runtime_CompilerServices_CalledRarelyAttribute@@SIXPAU1@@Z 02015fbc f   DiskDrive.obj
 0001:00014fe0       ?m_StructCopy@Struct_Microsoft_Singularity_Io_DiskDeviceContract_ReadPerf@@SIXPAU1@0@Z 02015fe0 f   DiskDrive.obj
 0001:00015014       ?m_StructCopy@Struct_Microsoft_Singularity_Io_DiskDeviceContract_ReadPerf@@SIXPAU1@PAU1@@Z 02016014 f   DiskDrive.obj
 0001:000150b0       ?m_Equals@Struct_Microsoft_Singularity_Io_DiskDeviceContract_ReadPerf@@SI_NPAU1@PAUClass_System_Object@@@Z 020160b0 f   DiskDrive.obj
 0001:0001510c       ?m_Equals@Struct_Microsoft_Singularity_Io_DiskDeviceContract_ReadPerf@@SI_NPAUClass_Microsoft_Singularity_Io_DiskDeviceContract_ReadPerf@@PAUClass_System_Object@@@Z 0201610c f   DiskDrive.obj
 0001:00015138       ?g_VerifyPages@Class_System_GCs_Verifier@@SIXPAUClass_System_GCs_ObjectLayout_ObjectVisitor@@@Z 02016138 f   DiskDrive.obj
 0001:0001555c       ?m_VerifyHeap@Class_System_GCs_Verifier@@SIXPAU1@@Z 0201655c f   DiskDrive.obj
 0001:00015804       ?g_VerifyAllThreadsGCControlled@Class_System_GCs_Verifier@@SIXPAUClass_System_Threading_Thread@@@Z 02016804 f   DiskDrive.obj
 0001:0001588c       ?m__ctor@Class_System_GCs_Verifier@@SIXPAU1@PAUClass_System_GCs_NonNullReferenceVisitor@@1PAUClass_System_GCs_ObjectLayout_ObjectVisitor@@PAUClass_System_GCs_Verifier_StackVerifier@@@Z 0201688c f   DiskDrive.obj
 0001:000158d0       ?g__cctor@Class_System_GCs_Verifier@@SIXXZ 020168d0 f   DiskDrive.obj
 0001:000159f4       ?m_StructCopy@Struct_System_UpdateLogWriter@@SIXPAU1@0@Z 020169f4 f   DiskDrive.obj
 0001:00015a28       ?m_StructCopy@Struct_System_UpdateLogWriter@@SIXPAU1@PAU1@@Z 02016a28 f   DiskDrive.obj
 0001:00015ac4       ?m_Equals@Struct_System_UpdateLogWriter@@SI_NPAU1@PAUClass_System_Object@@@Z 02016ac4 f   DiskDrive.obj
 0001:00015b20       ?m_Equals@Struct_System_UpdateLogWriter@@SI_NPAUClass_System_UpdateLogWriter@@PAUClass_System_Object@@@Z 02016b20 f   DiskDrive.obj
 0001:00015b4c       ?m_ToString@uint8@@SIPAUClass_System_String@@PAE@Z 02016b4c f   DiskDrive.obj
 0001:00015b98       ?m_ToString@uint8@@SIPAUClass_System_String@@PAEPAU2@@Z 02016b98 f   DiskDrive.obj
 0001:00015be4       ?m_ToString@uint8@@SIPAUClass_System_String@@PAUClass_System_Byte@@@Z 02016be4 f   DiskDrive.obj
 0001:00015c0c       ?m_ToString@uint8@@SIPAUClass_System_String@@PAUClass_System_Byte@@PAU2@@Z 02016c0c f   DiskDrive.obj
 0001:00015c38       ?m_GetHashCode@uint8@@SIHPAE@Z 02016c38 f   DiskDrive.obj
 0001:00015c5c       ?m_GetHashCode@uint8@@SIHPAUClass_System_Byte@@@Z 02016c5c f   DiskDrive.obj
 0001:00015c84       ?m_Equals@uint8@@SI_NPAEPAUClass_System_Object@@@Z 02016c84 f   DiskDrive.obj
 0001:00015ce4       ?m_Equals@uint8@@SI_NPAUClass_System_Byte@@PAUClass_System_Object@@@Z 02016ce4 f   DiskDrive.obj
 0001:00015d10       ?g_WaitForPending@Struct_System_Finalizer@@SIXXZ 02016d10 f   DiskDrive.obj
 0001:00015d40       ?g_VisitBootstrapData@Struct_System_Finalizer@@SIXPAUClass_System_GCs_DirectReferenceVisitor@@@Z 02016d40 f   DiskDrive.obj
 0001:00015da8       ?g_VisitAllRunFinalizer@Struct_System_Finalizer@@SIXPAUClass_System_GCs_DirectReferenceVisitor@@_N1@Z 02016da8 f   DiskDrive.obj
 0001:00015f20       ?g_ThreadLoop@Struct_System_Finalizer@@SIXXZ 02016f20 f   DiskDrive.obj
 0001:00015fbc       ?g_SuppressCandidate@Struct_System_Finalizer@@SIXPAUClass_System_Object@@@Z 02016fbc f   DiskDrive.obj
 0001:00016198       ?m_StructCopy@Struct_System_Finalizer@@SIXPAU1@0@Z 02017198 f   DiskDrive.obj
 0001:000161b4       ?m_StructCopy@Struct_System_Finalizer@@SIXPAU1@PAU1@@Z 020171b4 f   DiskDrive.obj
 0001:00016208       ?g_StartFinalizerThread@Struct_System_Finalizer@@SIXXZ 02017208 f   DiskDrive.obj
 0001:000162e8       ?g_Shutdown@Struct_System_Finalizer@@SIXXZ 020172e8 f   DiskDrive.obj
 0001:0001645c       ?g_ResurrectCandidates@Struct_System_Finalizer@@SIXPAUClass_System_GCs_DirectReferenceVisitor@@0_N@Z 0201745c f   DiskDrive.obj
 0001:000169fc       ?g_ReleaseCollectFinalizers@Struct_System_Finalizer@@SIXXZ 020179fc f   DiskDrive.obj
 0001:00016a44       ?g_RegisterCandidate@Struct_System_Finalizer@@SIXPAUClass_System_Object@@@Z 02017a44 f   DiskDrive.obj
 0001:00016e08       ?g_PrepareCollectFinalizers@Struct_System_Finalizer@@SIXXZ 02017e08 f   DiskDrive.obj
 0001:00016ef4       ?g_LinkToIndex@Struct_System_Finalizer@@SIHH@Z 02017ef4 f   DiskDrive.obj
 0001:00016f24       ?g_IsLink@Struct_System_Finalizer@@SI_NH@Z 02017f24 f   DiskDrive.obj
 0001:00016f4c       ?g_IndexToLink@Struct_System_Finalizer@@SIHH@Z 02017f4c f   DiskDrive.obj
 0001:00016f70       ?g_GetObjectFromRun@Struct_System_Finalizer@@SIPAUClass_System_Object@@XZ 02017f70 f   DiskDrive.obj
 0001:0001710c       ?m_Equals@Struct_System_Finalizer@@SI_NPAU1@PAUClass_System_Object@@@Z 0201810c f   DiskDrive.obj
 0001:00017144       ?m_Equals@Struct_System_Finalizer@@SI_NPAUClass_System_Finalizer@@PAUClass_System_Object@@@Z 02018144 f   DiskDrive.obj
 0001:00017170       ?g_CompactTables@Struct_System_Finalizer@@SIXXZ 02018170 f   DiskDrive.obj
 0001:00017184       ?g__cctor@Struct_System_Finalizer@@SIXXZ 02018184 f   DiskDrive.obj
 0001:00017318       ?m_StructCopy@Struct_Microsoft_Bartok_Runtime_PostHeader@@SIXPAU1@0@Z 02018318 f   DiskDrive.obj
 0001:00017340       ?m_StructCopy@Struct_Microsoft_Bartok_Runtime_PostHeader@@SIXPAU1@PAU1@@Z 02018340 f   DiskDrive.obj
 0001:000173b8       ?m_Equals@Struct_Microsoft_Bartok_Runtime_PostHeader@@SI_NPAU1@PAUClass_System_Object@@@Z 020183b8 f   DiskDrive.obj
 0001:00017404       ?m_Equals@Struct_Microsoft_Bartok_Runtime_PostHeader@@SI_NPAUClass_Microsoft_Bartok_Runtime_PostHeader@@PAUClass_System_Object@@@Z 02018404 f   DiskDrive.obj
 0001:00017430       ?m_StructCopy@Struct_System_ArgIterator@@SIXPAU1@0@Z 02018430 f   DiskDrive.obj
 0001:00017464       ?m_StructCopy@Struct_System_ArgIterator@@SIXPAU1@PAU1@@Z 02018464 f   DiskDrive.obj
 0001:00017500       ?m_GetArg@Struct_System_ArgIterator@@SIPAUClass_System_RuntimeType@@PAU1@HPAPAUintPtr@@@Z 02018500 f   DiskDrive.obj
 0001:00017584       ?m_get$_Length@Struct_System_ArgIterator@@SIHPAU1@@Z 02018584 f   DiskDrive.obj
 0001:000175a4       ?m_Equals@Struct_System_ArgIterator@@SI_NPAU1@PAUClass_System_Object@@@Z 020185a4 f   DiskDrive.obj
 0001:00017600       ?m_Equals@Struct_System_ArgIterator@@SI_NPAUClass_System_ArgIterator@@PAUClass_System_Object@@@Z 02018600 f   DiskDrive.obj
 0001:0001762c       ?m__ctor@Struct_System_ArgIterator@@SIXPAU1@UStruct_System_RuntimeArgumentHandle@@@Z 0201862c f   DiskDrive.obj
 0001:00017674       ?m_StructCopy@Struct_Microsoft_Singularity_Extending_ExtensionContract_NakShutdown@@SIXPAU1@0@Z 02018674 f   DiskDrive.obj
 0001:00017690       ?m_StructCopy@Struct_Microsoft_Singularity_Extending_ExtensionContract_NakShutdown@@SIXPAU1@PAU1@@Z 02018690 f   DiskDrive.obj
 0001:000176e4       ?m_Equals@Struct_Microsoft_Singularity_Extending_ExtensionContract_NakShutdown@@SI_NPAU1@PAUClass_System_Object@@@Z 020186e4 f   DiskDrive.obj
 0001:0001771c       ?m_Equals@Struct_Microsoft_Singularity_Extending_ExtensionContract_NakShutdown@@SI_NPAUClass_Microsoft_Singularity_Extending_ExtensionContract_NakShutdown@@PAUClass_System_Object@@@Z 0201871c f   DiskDrive.obj
 0001:00017748       ?g_UnderGCControl@Class_System_GCs_Transitions@@SI_NH@Z 02018748 f   DiskDrive.obj
 0001:000177fc       ?g_TransferMutatorControl@Class_System_GCs_Transitions@@SIXPAUStruct_Microsoft_Singularity_ThreadContext@@@Z 020187fc f   DiskDrive.obj
 0001:0001793c       ?g_TransferMutatorControl@Class_System_GCs_Transitions@@SIXPAHH@Z 0201893c f   DiskDrive.obj
 0001:00017a50       ?g_ThreadStart@Class_System_GCs_Transitions@@SIXXZ 02018a50 f   DiskDrive.obj
 0001:00017c38       ?g_ThreadEnd@Class_System_GCs_Transitions@@SIXH@Z 02018c38 f   DiskDrive.obj
 0001:00017e64       ?g_TakeMutatorControlSlowNoGC@Class_System_GCs_Transitions@@SIXPAHH@Z 02018e64 f   DiskDrive.obj
 0001:00017e90       ?g_TakeMutatorControlSlow@Class_System_GCs_Transitions@@SIXPAHH@Z 02018e90 f   DiskDrive.obj
 0001:00017ebc       ?g_TakeMutatorControlSlow@Class_System_GCs_Transitions@@SIXPAHH_N1@Z 02018ebc f   DiskDrive.obj
 0001:00018088       ?g_TakeMutatorControlNoGC@Class_System_GCs_Transitions@@SIXPAUStruct_Microsoft_Singularity_ThreadContext@@@Z 02019088 f   DiskDrive.obj
 0001:000181ec       ?g_TakeMutatorControlNoGC@Class_System_GCs_Transitions@@SIXPAHH@Z 020191ec f   DiskDrive.obj
 0001:00018328       ?g_TakeMutatorControlNoGC@Class_System_GCs_Transitions@@SIXH@Z 02019328 f   DiskDrive.obj
 0001:00018518       ?g_TakeMutatorControl@Class_System_GCs_Transitions@@SIXPAUStruct_Microsoft_Singularity_ThreadContext@@@Z 02019518 f   DiskDrive.obj
 0001:0001867c       ?g_TakeMutatorControl@Class_System_GCs_Transitions@@SIXPAHH@Z 0201967c f   DiskDrive.obj
 0001:000187b8       ?g_TakeMutatorControl@Class_System_GCs_Transitions@@SIXH@Z 020197b8 f   DiskDrive.obj
 0001:000189a8       ?g_TakeGCControl@Class_System_GCs_Transitions@@SI_NPAH@Z 020199a8 f   DiskDrive.obj
 0001:00018a6c       ?g_TakeGCControl@Class_System_GCs_Transitions@@SI_NH@Z 02019a6c f   DiskDrive.obj
 0001:00018be8       ?g_TakeDormantControlNoGC@Class_System_GCs_Transitions@@SIXPAH@Z 02019be8 f   DiskDrive.obj
 0001:00018c94       ?g_TakeDormantControlNoGC@Class_System_GCs_Transitions@@SIXH@Z 02019c94 f   DiskDrive.obj
 0001:00018de8       ?g_TakeDormantControl@Class_System_GCs_Transitions@@SIXPAUStruct_Microsoft_Singularity_ThreadContext@@@Z 02019de8 f   DiskDrive.obj
 0001:00018ef4       ?g_TakeDormantControl@Class_System_GCs_Transitions@@SIXPAHH@Z 02019ef4 f   DiskDrive.obj
 0001:00018fc8       ?g_TakeDormantControl@Class_System_GCs_Transitions@@SIXH@Z 02019fc8 f   DiskDrive.obj
 0001:00019130       ?g_SwitchToMutatorStateWithGCRequest@Class_System_GCs_Transitions@@SI_NPAH@Z 0201a130 f   DiskDrive.obj
 0001:0001919c       ?g_SwitchToMutatorState@Class_System_GCs_Transitions@@SI_NPAH@Z 0201a19c f   DiskDrive.obj
 0001:0001924c       ?g_RuntimeInitialized@Class_System_GCs_Transitions@@SIXXZ 0201a24c f   DiskDrive.obj
 0001:00019268       ?g_ReturnToManagedSpace@Class_System_GCs_Transitions@@SIXPAUStruct_Microsoft_Singularity_ThreadContext@@@Z 0201a268 f   DiskDrive.obj
 0001:00019448       ?g_ReturnFromManagedSpaceNoCallerTransition@Class_System_GCs_Transitions@@SIXXZ 0201a448 f   DiskDrive.obj
 0001:0001955c       ?g_ReturnFromManagedSpace@Class_System_GCs_Transitions@@SIXXZ 0201a55c f   DiskDrive.obj
 0001:000196a4       ?g_RestoreMutatorControlIfNeeded@Class_System_GCs_Transitions@@SIXXZ 0201a6a4 f   DiskDrive.obj
 0001:000197dc       ?g_ReleaseGCControl@Class_System_GCs_Transitions@@SIXPAHH@Z 0201a7dc f   DiskDrive.obj
 0001:000198a0       ?g_ReleaseGCControl@Class_System_GCs_Transitions@@SIXH@Z 0201a8a0 f   DiskDrive.obj
 0001:00019a00       ?g_NewThreadNotification@Class_System_GCs_Transitions@@SIXH_N@Z 0201aa00 f   DiskDrive.obj
 0001:00019ba0       ?g_MakeGCRequests@Class_System_GCs_Transitions@@SIXH@Z 0201aba0 f   DiskDrive.obj
 0001:00019cc8       ?g_MakeGCRequest@Class_System_GCs_Transitions@@SIXPAHH@Z 0201acc8 f   DiskDrive.obj
 0001:00019d2c       ?g_MakeGCRequest@Class_System_GCs_Transitions@@SIXH@Z 0201ad2c f   DiskDrive.obj
 0001:00019dd0       ?g_LeaveManagedSpace@Class_System_GCs_Transitions@@SIXPAUStruct_Microsoft_Singularity_ThreadContext@@@Z 0201add0 f   DiskDrive.obj
 0001:00019f10       ?g_LeaveLoadFunctionStub@Class_System_GCs_Transitions@@SIXXZ 0201af10 f   DiskDrive.obj
 0001:0001a07c       ?g_InMutatorState@Class_System_GCs_Transitions@@SI_NPAUStruct_Microsoft_Singularity_ThreadContext@@@Z 0201b07c f   DiskDrive.obj
 0001:0001a0cc       ?g_InMutatorState@Class_System_GCs_Transitions@@SI_NH@Z 0201b0cc f   DiskDrive.obj
 0001:0001a188       ?g_Initialize@Class_System_GCs_Transitions@@SIXXZ 0201b188 f   DiskDrive.obj
 0001:0001a19c       ?g_InDormantState@Class_System_GCs_Transitions@@SI_NH@Z 0201b19c f   DiskDrive.obj
 0001:0001a24c       ?g_HasGCRequest@Class_System_GCs_Transitions@@SI_NH@Z 0201b24c f   DiskDrive.obj
 0001:0001a2fc       ?g_GetThreadContext@Class_System_GCs_Transitions@@SIPAUStruct_Microsoft_Singularity_ThreadContext@@H@Z 0201b2fc f   DiskDrive.obj
 0001:0001a34c       ?g_GetCurrentThreadContext@Class_System_GCs_Transitions@@SIPAUStruct_Microsoft_Singularity_ThreadContext@@H@Z 0201b34c f   DiskDrive.obj
 0001:0001a3d4       ?g_fUnderGCControl@Class_System_GCs_Transitions@@SI_NH@Z 0201b3d4 f   DiskDrive.obj
 0001:0001a3fc       ?g_fInMutatorState@Class_System_GCs_Transitions@@SI_NH@Z 0201b3fc f   DiskDrive.obj
 0001:0001a424       ?g_fInDormantState@Class_System_GCs_Transitions@@SI_NH@Z 0201b424 f   DiskDrive.obj
 0001:0001a44c       ?g_fHasGCRequest@Class_System_GCs_Transitions@@SI_NH@Z 0201b44c f   DiskDrive.obj
 0001:0001a474       ?g_EntryIntoManagedSpace@Class_System_GCs_Transitions@@SIXXZ 0201b474 f   DiskDrive.obj
 0001:0001a65c       ?g_EnterLoadFunctionStub@Class_System_GCs_Transitions@@SIXXZ 0201b65c f   DiskDrive.obj
 0001:0001a854       ?g_EnsureMutatorControlNoGC@Class_System_GCs_Transitions@@SIXPAUStruct_Microsoft_Singularity_ThreadContext@@@Z 0201b854 f   DiskDrive.obj
 0001:0001aa34       ?g_EnsureMutatorControlNoGC@Class_System_GCs_Transitions@@SIXPAHH@Z 0201ba34 f   DiskDrive.obj
 0001:0001abec       ?g_EnsureMutatorControl@Class_System_GCs_Transitions@@SIXPAUStruct_Microsoft_Singularity_ThreadContext@@@Z 0201bbec f   DiskDrive.obj
 0001:0001adcc       ?g_EnsureMutatorControl@Class_System_GCs_Transitions@@SIXPAHH@Z 0201bdcc f   DiskDrive.obj
 0001:0001af84       ?g_DeadThreadNotification@Class_System_GCs_Transitions@@SIXH@Z 0201bf84 f   DiskDrive.obj
 0001:0001b134       ?g_CompareAndSwap@Class_System_GCs_Transitions@@SI_NPAHHH@Z 0201c134 f   DiskDrive.obj
 0001:0001b168       ?g_ClearGCRequest@Class_System_GCs_Transitions@@SIXPAHH@Z 0201c168 f   DiskDrive.obj
 0001:0001b214       ?g_ClearGCRequest@Class_System_GCs_Transitions@@SIXH@Z 0201c214 f   DiskDrive.obj
 0001:0001b2b8       ?m__ctor@Class_System_GCs_Transitions@@SIXPAU1@@Z 0201c2b8 f   DiskDrive.obj
 0001:0001b2d4       ?m_Write32@Class_Microsoft_Singularity_Io_PciPort@@SIXPAU1@HI@Z 0201c2d4 f   DiskDrive.obj
 0001:0001b31c       ?m_Read8Impl@Class_Microsoft_Singularity_Io_PciPort@@SIEPAU1@H@Z 0201c31c f   DiskDrive.obj
 0001:0001b370       ?m_Read8@Class_Microsoft_Singularity_Io_PciPort@@SIEPAU1@H@Z 0201c370 f   DiskDrive.obj
 0001:0001b398       ?m_Read32Impl@Class_Microsoft_Singularity_Io_PciPort@@SIIPAU1@H@Z 0201c398 f   DiskDrive.obj
 0001:0001b3f0       ?m_Read32@Class_Microsoft_Singularity_Io_PciPort@@SIIPAU1@H@Z 0201c3f0 f   DiskDrive.obj
 0001:0001b418       ?m_Finalize@Class_Microsoft_Singularity_Io_PciPort@@SIXPAU1@@Z 0201c418 f   DiskDrive.obj
 0001:0001b440       ?m__ctor@Class_Microsoft_Singularity_Io_PciPort@@SIXPAU1@UStruct_Microsoft_Singularity_V1_Services_PciPortHandle@@@Z 0201c440 f   DiskDrive.obj
 0001:0001b46c       ?m_Visit@Class_System_GCs_Verifier_GenericObjectVisitor@@SIPAUuintPtr@@PAU1@PAUClass_System_Object@@@Z 0201c46c f   DiskDrive.obj
 0001:0001b498       ?m__ctor@Class_System_GCs_Verifier_GenericObjectVisitor@@SIXPAU1@PAUClass_System_GCs_NonNullReferenceVisitor@@@Z 0201c498 f   DiskDrive.obj
 0001:0001b4c8       ?m_ToString@int64@@SIPAUClass_System_String@@PA_J@Z 0201c4c8 f   DiskDrive.obj
 0001:0001b4f0       ?m_ToString@int64@@SIPAUClass_System_String@@PA_JPAU2@@Z 0201c4f0 f   DiskDrive.obj
 0001:0001b544       ?m_ToString@int64@@SIPAUClass_System_String@@PAUClass_System_Int64@@@Z 0201c544 f   DiskDrive.obj
 0001:0001b56c       ?m_ToString@int64@@SIPAUClass_System_String@@PAUClass_System_Int64@@PAU2@@Z 0201c56c f   DiskDrive.obj
 0001:0001b598       ?m_GetHashCode@int64@@SIHPA_J@Z 0201c598 f   DiskDrive.obj
 0001:0001b5cc       ?m_GetHashCode@int64@@SIHPAUClass_System_Int64@@@Z 0201c5cc f   DiskDrive.obj
 0001:0001b5f4       ?m_Equals@int64@@SI_NPA_JPAUClass_System_Object@@@Z 0201c5f4 f   DiskDrive.obj
 0001:0001b664       ?m_Equals@int64@@SI_NPAUClass_System_Int64@@PAUClass_System_Object@@@Z 0201c664 f   DiskDrive.obj
 0001:0001b690       ?m_StructCopy@Struct_Microsoft_Singularity_Isal_IX_PE@@SIXPAU1@0@Z 0201c690 f   DiskDrive.obj
 0001:0001b6ac       ?m_StructCopy@Struct_Microsoft_Singularity_Isal_IX_PE@@SIXPAU1@PAU1@@Z 0201c6ac f   DiskDrive.obj
 0001:0001b700       ?m_Equals@Struct_Microsoft_Singularity_Isal_IX_PE@@SI_NPAU1@PAUClass_System_Object@@@Z 0201c700 f   DiskDrive.obj
 0001:0001b738       ?m_Equals@Struct_Microsoft_Singularity_Isal_IX_PE@@SI_NPAUClass_Microsoft_Singularity_Isal_IX_PE@@PAUClass_System_Object@@@Z 0201c738 f   DiskDrive.obj
 0001:0001b764       ?g_NewRegisteredCounters@Class_System_TryAllCounters@@SIPAU1@XZ 0201c764 f   DiskDrive.obj
 0001:0001b7f0       ?m_MergeCounters@Class_System_TryAllCounters@@SIXPAU1@0@Z 0201c7f0 f   DiskDrive.obj
 0001:0001bfb0       ?m_IncrementWeakRefsClearedInUpdateLog@Class_System_TryAllCounters@@SIXPAU1@@Z 0201cfb0 f   DiskDrive.obj
 0001:0001bfe0       ?m_IncrementWeakRefsClearedInUpdateEnlistmentLog@Class_System_TryAllCounters@@SIXPAU1@@Z 0201cfe0 f   DiskDrive.obj
 0001:0001c010       ?m_IncrementWeakRefsClearedInReadEnlistmentLog@Class_System_TryAllCounters@@SIXPAU1@@Z 0201d010 f   DiskDrive.obj
 0001:0001c040       ?m_IncrementUpdatesInReadEnlistmentsAtGC@Class_System_TryAllCounters@@SIXPAU1@@Z 0201d040 f   DiskDrive.obj
 0001:0001c070       ?m_IncrementReadDuplicatesRemoved@Class_System_TryAllCounters@@SIXPAU1@@Z 0201d070 f   DiskDrive.obj
 0001:0001c0a0       ?m_IncrementInvalidOutsideGC@Class_System_TryAllCounters@@SIXPAU1@@Z 0201d0a0 f   DiskDrive.obj
 0001:0001c0d0       ?m_IncrementInvalidDuringGC@Class_System_TryAllCounters@@SIXPAU1@@Z 0201d0d0 f   DiskDrive.obj
 0001:0001c0f8       ?m_IncrementInvalidConflict@Class_System_TryAllCounters@@SIXPAU1@@Z 0201d0f8 f   DiskDrive.obj
 0001:0001c120       ?m_IncrementInflationSeen@Class_System_TryAllCounters@@SIXPAU1@@Z 0201d120 f   DiskDrive.obj
 0001:0001c148       ?m_IncrementEnlistmentOverflow@Class_System_TryAllCounters@@SIXPAU1@@Z 0201d148 f   DiskDrive.obj
 0001:0001c170       ?m_IncrementCachesCreated@Class_System_TryAllCounters@@SIXPAU1@@Z 0201d170 f   DiskDrive.obj
 0001:0001c198       ?m_DumpStats@Class_System_TryAllCounters@@SIXPAU1@@Z 0201d198 f   DiskDrive.obj
 0001:0001e6c8       ?g_DumpRegisteredCounters@Class_System_TryAllCounters@@SIXXZ 0201f6c8 f   DiskDrive.obj
 0001:0001e758       ?m__ctor@Class_System_TryAllCounters@@SIXPAU1@@Z 0201f758 f   DiskDrive.obj
 0001:0001e774       ?g__cctor@Class_System_TryAllCounters@@SIXXZ 0201f774 f   DiskDrive.obj
 0001:0001e7a4       ?m_StructCopy@Struct_Microsoft_Singularity_Io_DiskDeviceContract_GetSectorCount@@SIXPAU1@0@Z 0201f7a4 f   DiskDrive.obj
 0001:0001e7c0       ?m_StructCopy@Struct_Microsoft_Singularity_Io_DiskDeviceContract_GetSectorCount@@SIXPAU1@PAU1@@Z 0201f7c0 f   DiskDrive.obj
 0001:0001e814       ?m_Equals@Struct_Microsoft_Singularity_Io_DiskDeviceContract_GetSectorCount@@SI_NPAU1@PAUClass_System_Object@@@Z 0201f814 f   DiskDrive.obj
 0001:0001e84c       ?m_Equals@Struct_Microsoft_Singularity_Io_DiskDeviceContract_GetSectorCount@@SI_NPAUClass_Microsoft_Singularity_Io_DiskDeviceContract_GetSectorCount@@PAUClass_System_Object@@@Z 0201f84c f   DiskDrive.obj
 0001:0001e878       ?m_ToString@Class_Microsoft_Singularity_Io_IoIrqRange@@SIPAUClass_System_String@@PAU1@@Z 0201f878 f   DiskDrive.obj
 0001:0001e8f4       ?m_IrqAtOffset@Class_Microsoft_Singularity_Io_IoIrqRange@@SIPAUClass_Microsoft_Singularity_Io_IoIrq@@PAU1@E@Z 0201f8f4 f   DiskDrive.obj
 0001:0001e988       ?m_get$_Irq@Class_Microsoft_Singularity_Io_IoIrqRange@@SIEPAU1@@Z 0201f988 f   DiskDrive.obj
 0001:0001e9a8       ?m__ctor@Class_Microsoft_Singularity_Io_IoIrqRange@@SIXPAU1@EE@Z 0201f9a8 f   DiskDrive.obj
 0001:0001e9e0       ?m_StructCopy@Struct_Microsoft_Singularity_Io_VolumeManagerContract_Success@@SIXPAU1@0@Z 0201f9e0 f   DiskDrive.obj
 0001:0001e9fc       ?m_StructCopy@Struct_Microsoft_Singularity_Io_VolumeManagerContract_Success@@SIXPAU1@PAU1@@Z 0201f9fc f   DiskDrive.obj
 0001:0001ea50       ?m_Equals@Struct_Microsoft_Singularity_Io_VolumeManagerContract_Success@@SI_NPAU1@PAUClass_System_Object@@@Z 0201fa50 f   DiskDrive.obj
 0001:0001ea88       ?m_Equals@Struct_Microsoft_Singularity_Io_VolumeManagerContract_Success@@SI_NPAUClass_Microsoft_Singularity_Io_VolumeManagerContract_Success@@PAUClass_System_Object@@@Z 0201fa88 f   DiskDrive.obj
 0001:0001eab4       ?m_StructCopy@Struct_Microsoft_Singularity_V1_Services_PageTableService@@SIXPAU1@0@Z 0201fab4 f   DiskDrive.obj
 0001:0001ead0       ?m_StructCopy@Struct_Microsoft_Singularity_V1_Services_PageTableService@@SIXPAU1@PAU1@@Z 0201fad0 f   DiskDrive.obj
 0001:0001eb24       ?g_Query@Struct_Microsoft_Singularity_V1_Services_PageTableService@@SI_NPAUuintPtr@@PAPAU2@1@Z 0201fb24 f   DiskDrive.obj
 0001:0001eb8c       ?m_Equals@Struct_Microsoft_Singularity_V1_Services_PageTableService@@SI_NPAU1@PAUClass_System_Object@@@Z 0201fb8c f   DiskDrive.obj
 0001:0001ebc4       ?m_Equals@Struct_Microsoft_Singularity_V1_Services_PageTableService@@SI_NPAUClass_Microsoft_Singularity_V1_Services_PageTableService@@PAUClass_System_Object@@@Z 0201fbc4 f   DiskDrive.obj
 0001:0001ebf0       ?m_StructCopy@Struct_Microsoft_Singularity_ThreadContext@@SIXPAU1@0@Z 0201fbf0 f   DiskDrive.obj
 0001:0001eda0       ?m_StructCopy@Struct_Microsoft_Singularity_ThreadContext@@SIXPAU1@PAU1@@Z 0201fda0 f   DiskDrive.obj
 0001:0001f2b0       ?m_SetProcessMode@Struct_Microsoft_Singularity_ThreadContext@@SIXPAU1@@Z 020202b0 f   DiskDrive.obj
 0001:0001f2ec       ?m_SetKernelMode@Struct_Microsoft_Singularity_ThreadContext@@SIXPAU1@@Z 020202ec f   DiskDrive.obj
 0001:0001f32c       ?g_ParentModeMarker@Struct_Microsoft_Singularity_ThreadContext@@SIPAUStruct_System_GCs_CallStack_TransitionRecord@@PAU2@@Z 0202032c f   DiskDrive.obj
 0001:0001f380       ?m_IsInKernelMode@Struct_Microsoft_Singularity_ThreadContext@@SI_NPAU1@@Z 02020380 f   DiskDrive.obj
 0001:0001f3dc       ?m_get$_thread@Struct_Microsoft_Singularity_ThreadContext@@SIPAUClass_System_Threading_Thread@@PAU1@@Z 020203dc f   DiskDrive.obj
 0001:0001f400       ?m_Equals@Struct_Microsoft_Singularity_ThreadContext@@SI_NPAU1@PAUClass_System_Object@@@Z 02020400 f   DiskDrive.obj
 0001:0001f6a0       ?m_Equals@Struct_Microsoft_Singularity_ThreadContext@@SI_NPAUClass_Microsoft_Singularity_ThreadContext@@PAUClass_System_Object@@@Z 020206a0 f   DiskDrive.obj
 0001:0001f6cc       ?g_Truncate@Class_System_GCs_BootstrapMemory@@SIXXZ 020206cc f   DiskDrive.obj
 0001:0001f830       ?g_Initialize@Class_System_GCs_BootstrapMemory@@SIXPAUuintPtr@@@Z 02020830 f   DiskDrive.obj
 0001:0001f874       ?g_AllocateBlock@Class_System_GCs_BootstrapMemory@@SIPAUuintPtr@@PAU2@I@Z 02020874 f   DiskDrive.obj
 0001:0001f9a4       ?g_Allocate@Class_System_GCs_BootstrapMemory@@SIPAUClass_System_Object@@PAUClass_System_VTable@@@Z 020209a4 f   DiskDrive.obj
 0001:0001fa5c       ?g_Allocate@Class_System_GCs_BootstrapMemory@@SIPAUClass_System_Object@@PAUClass_System_VTable@@I@Z 02020a5c f   DiskDrive.obj
 0001:0001fad4       ?g_Allocate@Class_System_GCs_BootstrapMemory@@SIPAUClass_System_Object@@PAUClass_System_Type@@@Z 02020ad4 f   DiskDrive.obj
 0001:0001faf8       ?g_Allocate@Class_System_GCs_BootstrapMemory@@SIPAUClass_System_Object@@PAUClass_System_Type@@I@Z 02020af8 f   DiskDrive.obj
 0001:0001fb24       ?g_Allocate@Class_System_GCs_BootstrapMemory@@SIPAUClass_System_Object@@PAUClass_System_RuntimeType@@@Z 02020b24 f   DiskDrive.obj
 0001:0001fb48       ?g_Allocate@Class_System_GCs_BootstrapMemory@@SIPAUClass_System_Object@@PAUClass_System_RuntimeType@@I@Z 02020b48 f   DiskDrive.obj
 0001:0001fb74       ?m__ctor@Class_System_GCs_BootstrapMemory@@SIXPAU1@@Z 02020b74 f   DiskDrive.obj
 0001:0001fb8c       ?g_StableState@Class_Microsoft_Singularity_Io_DiskDeviceContract@@SIHPAUStruct_Microsoft_Singularity_Channels_StateStack@@@Z 02020b8c f   DiskDrive.obj
 0001:0001fc08       ?g_CanonicalState@Class_Microsoft_Singularity_Io_DiskDeviceContract@@SIHH@Z 02020c08 f   DiskDrive.obj
 0001:0001fc60       ?m__ctor@Class_Microsoft_Singularity_Io_DiskDeviceContract@@SIXPAU1@@Z 02020c60 f   DiskDrive.obj
 0001:0001fc78       ?m_StructCopy@Struct_Microsoft_Singularity_Isal_IX_DescriptorTable_Gdt@@SIXPAU1@0@Z 02020c78 f   DiskDrive.obj
 0001:0001fd70       ?m_StructCopy@Struct_Microsoft_Singularity_Isal_IX_DescriptorTable_Gdt@@SIXPAU1@PAU1@@Z 02020d70 f   DiskDrive.obj
 0001:00020058       ?m_Equals@Struct_Microsoft_Singularity_Isal_IX_DescriptorTable_Gdt@@SI_NPAU1@PAUClass_System_Object@@@Z 02021058 f   DiskDrive.obj
 0001:0002066c       ?m_Equals@Struct_Microsoft_Singularity_Isal_IX_DescriptorTable_Gdt@@SI_NPAUClass_Microsoft_Singularity_Isal_IX_DescriptorTable_Gdt@@PAUClass_System_Object@@@Z 0202166c f   DiskDrive.obj
 0001:00020698       ?m_Unlink@Class_Microsoft_Singularity_Channels_ESet$_2$LMicrosoft_Singularity_Io_VolumeManagerContract_Imp_Microsoft_Singularity_Io_VolumeManagerContract_RegisterAck$G_Node@@SIPAUStruct_Microsoft_Singularity_Io_VolumeManagerContract_Imp@@PAU1@PAUClass_Microsoft_Singularity_Channels_ESet$_2$LMicrosoft_Singularity_Io_VolumeManagerContract_Imp_Microsoft_Singularity_Io_VolumeManagerContract_RegisterAck$G@@@Z 02021698 f   DiskDrive.obj
 0001:000207ac       ?m_LinkAsNext@Class_Microsoft_Singularity_Channels_ESet$_2$LMicrosoft_Singularity_Io_VolumeManagerContract_Imp_Microsoft_Singularity_Io_VolumeManagerContract_RegisterAck$G_Node@@SIXPAU1@PAUStruct_Microsoft_Singularity_Io_VolumeManagerContract_Imp@@PAUClass_Microsoft_Singularity_Channels_ESet$_2$LMicrosoft_Singularity_Io_VolumeManagerContract_Imp_Microsoft_Singularity_Io_VolumeManagerContract_RegisterAck$G@@@Z 020217ac f   DiskDrive.obj
 0001:00020828       ?m_Init@Class_Microsoft_Singularity_Channels_ESet$_2$LMicrosoft_Singularity_Io_VolumeManagerContract_Imp_Microsoft_Singularity_Io_VolumeManagerContract_RegisterAck$G_Node@@SIXPAU1@PAUStruct_Microsoft_Singularity_Io_VolumeManagerContract_Imp@@PAUClass_Microsoft_Singularity_Channels_ESet$_2$LMicrosoft_Singularity_Io_VolumeManagerContract_Imp_Microsoft_Singularity_Io_VolumeManagerContract_RegisterAck$G@@@Z 02021828 f   DiskDrive.obj
 0001:00020858       ?m__ctor@Class_Microsoft_Singularity_Channels_ESet$_2$LMicrosoft_Singularity_Io_VolumeManagerContract_Imp_Microsoft_Singularity_Io_VolumeManagerContract_RegisterAck$G_Node@@SIXPAU1@PAUStruct_Microsoft_Singularity_Io_VolumeManagerContract_Imp@@PAUClass_Microsoft_Singularity_Channels_ESet$_2$LMicrosoft_Singularity_Io_VolumeManagerContract_Imp_Microsoft_Singularity_Io_VolumeManagerContract_RegisterAck$G@@@Z 02021858 f   DiskDrive.obj
 0001:0002089c       ?m__ctor@Class_Microsoft_Singularity_Channels_ESet$_2$LMicrosoft_Singularity_Io_VolumeManagerContract_Imp_Microsoft_Singularity_Io_VolumeManagerContract_RegisterAck$G_Node@@SIXPAU1@PAUClass_Microsoft_Singularity_Channels_ESet$_2$LMicrosoft_Singularity_Io_VolumeManagerContract_Imp_Microsoft_Singularity_Io_VolumeManagerContract_RegisterAck$G@@@Z 0202189c f   DiskDrive.obj
 0001:000208d0       ?m_Visit@Class_System_GCs_MarkSweepCollector_UpdateReferenceVisitor@@SIXPAU1@PAPAUuintPtr@@@Z 020218d0 f   DiskDrive.obj
 0001:00020b78       ?m__ctor@Class_System_GCs_MarkSweepCollector_UpdateReferenceVisitor@@SIXPAU1@@Z 02021b78 f   DiskDrive.obj
 0001:00020b9c       ?m_set$_Value@Class_System_MutableInt32@@SIXPAU1@H@Z 02021b9c f   DiskDrive.obj
 0001:00020bc4       ?m_get$_Value@Class_System_MutableInt32@@SIHPAU1@@Z 02021bc4 f   DiskDrive.obj
 0001:00020be4       ?m__ctor@Class_System_MutableInt32@@SIXPAU1@H@Z 02021be4 f   DiskDrive.obj
 0001:00020c0c       ?m_StructCopy@Struct_Microsoft_Singularity_Isal_IX_Gdtp@@SIXPAU1@0@Z 02021c0c f   DiskDrive.obj
 0001:00020c50       ?m_StructCopy@Struct_Microsoft_Singularity_Isal_IX_Gdtp@@SIXPAU1@PAU1@@Z 02021c50 f   DiskDrive.obj
 0001:00020d1c       ?m_Equals@Struct_Microsoft_Singularity_Isal_IX_Gdtp@@SI_NPAU1@PAUClass_System_Object@@@Z 02021d1c f   DiskDrive.obj
 0001:00020d8c       ?m_Equals@Struct_Microsoft_Singularity_Isal_IX_Gdtp@@SI_NPAUClass_Microsoft_Singularity_Isal_IX_Gdtp@@PAUClass_System_Object@@@Z 02021d8c f   DiskDrive.obj
 0001:00020db8       ?m__ctor@Class_System_Threading_ThreadStateException@@SIXPAU1@@Z 02021db8 f   DiskDrive.obj
 0001:00020de0       ?m__ctor@Class_System_Threading_ThreadStateException@@SIXPAU1@PAUClass_System_String@@@Z 02021de0 f   DiskDrive.obj
 0001:00020e08       ?g_WaitForPendingFinalizers@Class_System_GC@@SIXXZ 02021e08 f   DiskDrive.obj
 0001:00020e20       ?g_ThreadStartNotification@Class_System_GC@@SIXH@Z 02021e20 f   DiskDrive.obj
 0001:00020e4c       ?g_ThreadDormantGCNotification@Class_System_GC@@SIXH@Z 02021e4c f   DiskDrive.obj
 0001:00020e78       ?g_SuppressFinalize@Class_System_GC@@SIXPAUClass_System_Object@@@Z 02021e78 f   DiskDrive.obj
 0001:00020ee0       ?g_Shutdown@Class_System_GC@@SIXXZ 02021ee0 f   DiskDrive.obj
 0001:00020f08       ?g_SetProfiler@Class_System_GC@@SIXPAUClass_System_GCs_GCProfiler@@@Z 02021f08 f   DiskDrive.obj
 0001:00020f3c       ?g_NewThreadNotification@Class_System_GC@@SIXPAUClass_System_Threading_Thread@@_N@Z 02021f3c f   DiskDrive.obj
 0001:00020f78       ?g_nativeSuppressFinalize@Class_System_GC@@SIXPAUClass_System_Object@@@Z 02021f78 f   DiskDrive.obj
 0001:00020f9c       ?g_KeepAlive@Class_System_GC@@SIXPAUClass_System_Object@@@Z 02021f9c f   DiskDrive.obj
 0001:00020fc8       ?g_InvokeCollection@Class_System_GC@@SIXPAUClass_System_Threading_Thread@@@Z 02021fc8 f   DiskDrive.obj
 0001:00020ff4       ?g_Initialize@Class_System_GC@@SIXXZ 02021ff4 f   DiskDrive.obj
 0001:0002102c       ?g_GetTotalMemory@Class_System_GC@@SI_J_N@Z 0202202c f   DiskDrive.obj
 0001:0002119c       ?g_get$_MaxGeneration@Class_System_GC@@SIHXZ 0202219c f   DiskDrive.obj
 0001:000211c0       ?g_get$_IsProfiling@Class_System_GC@@SI_NXZ 020221c0 f   DiskDrive.obj
 0001:000211d8       ?g_FinishInitializeThread@Class_System_GC@@SIXXZ 020221d8 f   DiskDrive.obj
 0001:000211f0       ?g_EnableHeap@Class_System_GC@@SIXXZ 020221f0 f   DiskDrive.obj
 0001:00021238       ?g_DestructHeap@Class_System_GC@@SIXXZ 02022238 f   DiskDrive.obj
 0001:00021260       ?g_DeadThreadNotification@Class_System_GC@@SIXPAUClass_System_Threading_Thread@@@Z 02022260 f   DiskDrive.obj
 0001:0002128c       ?g_ConstructHeap@Class_System_GC@@SIXXZ 0202228c f   DiskDrive.obj
 0001:0002132c       ?g_CollectTransition@Class_System_GC@@SIXPAUClass_System_Threading_Thread@@H@Z 0202232c f   DiskDrive.obj
 0001:00021354       ?g_CollectBody@Class_System_GC@@SIPAUClass_System_Threading_Thread@@PAU2@H@Z 02022354 f   DiskDrive.obj
 0001:000213b8       ?g_Collect@Class_System_GC@@SIXXZ 020223b8 f   DiskDrive.obj
 0001:000213fc       ?g_CheckForNeededGCWork@Class_System_GC@@SIXPAUClass_System_Threading_Thread@@@Z 020223fc f   DiskDrive.obj
 0001:00021424       ?g_AllocateVector@Class_System_GC@@SIPAUClass_System_Array@@PAUClass_System_VTable@@H@Z 02022424 f   DiskDrive.obj
 0001:00021528       ?g_AllocateVector@Class_System_GC@@SIPAUClass_System_Array@@PAUClass_System_VTable@@HPAUClass_System_Threading_Thread@@@Z 02022528 f   DiskDrive.obj
 0001:00021618       ?g_AllocateString@Class_System_GC@@SIPAUClass_System_String@@H@Z 02022618 f   DiskDrive.obj
 0001:0002170c       ?g_AllocateString@Class_System_GC@@SIPAUClass_System_String@@HPAUClass_System_Threading_Thread@@@Z 0202270c f   DiskDrive.obj
 0001:000217f8       ?g_AllocateObjectNoInline@Class_System_GC@@SIPAUClass_System_Object@@PAUClass_System_VTable@@@Z 020227f8 f   DiskDrive.obj
 0001:000218fc       ?g_AllocateObjectNoInline@Class_System_GC@@SIPAUClass_System_Object@@PAUClass_System_VTable@@PAUClass_System_Threading_Thread@@@Z 020228fc f   DiskDrive.obj
 0001:000219f4       ?g_AllocateObject@Class_System_GC@@SIPAUClass_System_Object@@PAUClass_System_VTable@@@Z 020229f4 f   DiskDrive.obj
 0001:00021ae8       ?g_AllocateObject@Class_System_GC@@SIPAUClass_System_Object@@PAUClass_System_VTable@@PAUuintPtr@@IPAUClass_System_Threading_Thread@@@Z 02022ae8 f   DiskDrive.obj
 0001:00021bd8       ?g_AllocateObject@Class_System_GC@@SIPAUClass_System_Object@@PAUClass_System_VTable@@PAUClass_System_Threading_Thread@@@Z 02022bd8 f   DiskDrive.obj
 0001:00021cc4       ?m__ctor@Class_System_GC@@SIXPAU1@@Z 02022cc4 f   DiskDrive.obj
 0001:00021ce0       ?g__cctor@Class_System_GC@@SIXXZ 02022ce0 f   DiskDrive.obj
 0001:00021d30       ?m_ToPrint@Class_Microsoft_Singularity_Io_PciDeviceConfig@@SIPAUClass_System_String@@PAU1@@Z 02022d30 f   DiskDrive.obj
 0001:00021ec4       ?m_Read@Class_Microsoft_Singularity_Io_PciDeviceConfig@@SIXPAU1@@Z 02022ec4 f   DiskDrive.obj
 0001:00022038       ?m_get$_Capabilities@Class_Microsoft_Singularity_Io_PciDeviceConfig@@SIEPAU1@@Z 02023038 f   DiskDrive.obj
 0001:00022058       ?m__ctor@Class_Microsoft_Singularity_Io_PciDeviceConfig@@SIXPAU1@PAUClass_Microsoft_Singularity_Io_PciPort@@@Z 02023058 f   DiskDrive.obj
 0001:0002208c       ?m_StructCopy@Struct_System_ReadEnlistmentLog_Entry@@SIXPAU1@0@Z 0202308c f   DiskDrive.obj
 0001:000220c8       ?m_StructCopy@Struct_System_ReadEnlistmentLog_Entry@@SIXPAU1@PAU1@@Z 020230c8 f   DiskDrive.obj
 0001:0002217c       ?m_Equals@Struct_System_ReadEnlistmentLog_Entry@@SI_NPAU1@PAUClass_System_Object@@@Z 0202317c f   DiskDrive.obj
 0001:00022294       ?m_Equals@Struct_System_ReadEnlistmentLog_Entry@@SI_NPAUClass_System_ReadEnlistmentLog_Entry@@PAUClass_System_Object@@@Z 02023294 f   DiskDrive.obj
 0001:000222c0       ?m_StructCopy@Struct_Microsoft_Singularity_Io_VolumeManagerContract_Connect@@SIXPAU1@0@Z 020232c0 f   DiskDrive.obj
 0001:00022324       ?m_StructCopy@Struct_Microsoft_Singularity_Io_VolumeManagerContract_Connect@@SIXPAU1@PAU1@@Z 02023324 f   DiskDrive.obj
 0001:00022450       ?m_Equals@Struct_Microsoft_Singularity_Io_VolumeManagerContract_Connect@@SI_NPAU1@PAUClass_System_Object@@@Z 02023450 f   DiskDrive.obj
 0001:00022500       ?m_Equals@Struct_Microsoft_Singularity_Io_VolumeManagerContract_Connect@@SI_NPAUClass_Microsoft_Singularity_Io_VolumeManagerContract_Connect@@PAUClass_System_Object@@@Z 02023500 f   DiskDrive.obj
 0001:0002252c       ?m_StructCopy@Struct_System_Threading_SpinLock@@SIXPAU1@0@Z 0202352c f   DiskDrive.obj
 0001:00022558       ?m_StructCopy@Struct_System_Threading_SpinLock@@SIXPAU1@PAU1@@Z 02023558 f   DiskDrive.obj
 0001:000225dc       ?m_ReleaseInternal@Struct_System_Threading_SpinLock@@SIXPAU1@PAUClass_System_Threading_Thread@@H@Z 020235dc f   DiskDrive.obj
 0001:00022658       ?m_Release@Struct_System_Threading_SpinLock@@SIXPAU1@@Z 02023658 f   DiskDrive.obj
 0001:0002269c       ?m_Release@Struct_System_Threading_SpinLock@@SIXPAU1@PAUClass_System_Threading_Thread@@@Z 0202369c f   DiskDrive.obj
 0001:000226d4       ?m_Equals@Struct_System_Threading_SpinLock@@SI_NPAU1@PAUClass_System_Object@@@Z 020236d4 f   DiskDrive.obj
 0001:00022798       ?m_Equals@Struct_System_Threading_SpinLock@@SI_NPAUClass_System_Threading_SpinLock@@PAUClass_System_Object@@@Z 02023798 f   DiskDrive.obj
 0001:000227c4       ?m_AcquireInternal@Struct_System_Threading_SpinLock@@SIXPAU1@PAUClass_System_Threading_Thread@@H@Z 020237c4 f   DiskDrive.obj
 0001:0002288c       ?m_Acquire@Struct_System_Threading_SpinLock@@SIXPAU1@@Z 0202388c f   DiskDrive.obj
 0001:000228d0       ?m_Acquire@Struct_System_Threading_SpinLock@@SIXPAU1@PAUClass_System_Threading_Thread@@@Z 020238d0 f   DiskDrive.obj
 0001:00022908       ?m_InvokeStaticStub@Class_System_TryAllManager_VisitMethod@@SIXPAU1@PAUClass_System_GCs_DirectReferenceVisitor@@@Z 02023908 f   DiskDrive.obj
 0001:00022938       ?m_Invoke@Class_System_TryAllManager_VisitMethod@@SIXPAU1@PAUClass_System_GCs_DirectReferenceVisitor@@@Z 02023938 f   DiskDrive.obj
 0001:00022994       ?m_EndInvoke@Class_System_TryAllManager_VisitMethod@@SIXPAU1@PAUClass_System_IAsyncResult@@@Z 02023994 f   DiskDrive.obj
 0001:000229b0       ?m_BeginInvoke@Class_System_TryAllManager_VisitMethod@@SIPAUClass_System_IAsyncResult@@PAU1@PAUClass_System_GCs_DirectReferenceVisitor@@PAUClass_System_AsyncCallback@@PAUClass_System_Object@@@Z 020239b0 f   DiskDrive.obj
 0001:000229d0       ?m__ctor@Class_System_TryAllManager_VisitMethod@@SIXPAU1@PAUClass_System_Object@@PAUintPtr@@@Z 020239d0 f   DiskDrive.obj
 0001:00022a10       ?m_InvokeStaticStub@Class_System_AsyncCallback@@SIXPAU1@PAUClass_System_IAsyncResult@@@Z 02023a10 f   DiskDrive.obj
 0001:00022a40       ?m_Invoke@Class_System_AsyncCallback@@SIXPAU1@PAUClass_System_IAsyncResult@@@Z 02023a40 f   DiskDrive.obj
 0001:00022a9c       ?m_EndInvoke@Class_System_AsyncCallback@@SIXPAU1@PAUClass_System_IAsyncResult@@@Z 02023a9c f   DiskDrive.obj
 0001:00022ab8       ?m_BeginInvoke@Class_System_AsyncCallback@@SIPAUClass_System_IAsyncResult@@PAU1@PAU2@0PAUClass_System_Object@@@Z 02023ab8 f   DiskDrive.obj
 0001:00022ad8       ?m__ctor@Class_System_AsyncCallback@@SIXPAU1@PAUClass_System_Object@@PAUintPtr@@@Z 02023ad8 f   DiskDrive.obj
 0001:00022b3c       ?m_ToString@Class_Microsoft_Singularity_Io_IoMemoryRange@@SIPAUClass_System_String@@PAU1@@Z 02023b3c f   DiskDrive.obj
 0001:00022c38       ?m__ctor@Class_Microsoft_Singularity_Io_IoMemoryRange@@SIXPAU1@PAUuintPtr@@1UStruct_Microsoft_Singularity_Io_Access@@@Z 02023c38 f   DiskDrive.obj
 0001:00022c94       ?m__ctor@Class_Microsoft_Singularity_Io_IoMemoryRange@@SIXPAU1@PAUuintPtr@@1_N2@Z 02023c94 f   DiskDrive.obj
 0001:00022ce0       ?m_VisitSmall@Class_System_GCs_SegregatedFreeList_ObjectVisitorWrapper@@SIXPAU1@PAUClass_System_Object@@PAUuintPtr@@@Z 02023ce0 f   DiskDrive.obj
 0001:00022d0c       ?m_VisitLarge@Class_System_GCs_SegregatedFreeList_ObjectVisitorWrapper@@SIPAUuintPtr@@PAU1@PAUClass_System_Object@@@Z 02023d0c f   DiskDrive.obj
 0001:00022d38       ?m__ctor@Class_System_GCs_SegregatedFreeList_ObjectVisitorWrapper@@SIXPAU1@PAUClass_System_GCs_ObjectLayout_ObjectVisitor@@@Z 02023d38 f   DiskDrive.obj
 0001:00022d68       ?m_StructCopy@Struct_System_GCs_CompressedFrameDescriptor@@SIXPAU1@0@Z 02023d68 f   DiskDrive.obj
 0001:00022d90       ?m_StructCopy@Struct_System_GCs_CompressedFrameDescriptor@@SIXPAU1@PAU1@@Z 02023d90 f   DiskDrive.obj
 0001:00022e08       ?m_StackArgSize@Struct_System_GCs_CompressedFrameDescriptor@@SIIPAU1@@Z 02023e08 f   DiskDrive.obj
 0001:00022e2c       ?m_OverflowDescriptor@Struct_System_GCs_CompressedFrameDescriptor@@SIPAUStruct_System_GCs_OverflowFrameDescriptor@@PAU1@@Z 02023e2c f   DiskDrive.obj
 0001:00022e4c       ?m_IsFramePointerOmitted@Struct_System_GCs_CompressedFrameDescriptor@@SI_NPAU1@@Z 02023e4c f   DiskDrive.obj
 0001:00022e74       ?m_IsFramePointerOmitted@Struct_System_GCs_CompressedFrameDescriptor@@SI_NPAU1@PAUStruct_System_GCs_OverflowFrameDescriptor@@@Z 02023e74 f   DiskDrive.obj
 0001:00022ea0       ?m_IsCompressed@Struct_System_GCs_CompressedFrameDescriptor@@SI_NPAU1@@Z 02023ea0 f   DiskDrive.obj
 0001:00022ec8       ?m_InBetweenSlotsBelowWithFP@Struct_System_GCs_CompressedFrameDescriptor@@SIHPAU1@@Z 02023ec8 f   DiskDrive.obj
 0001:00022ee8       ?m_InBetweenSlotsBelowNoFP@Struct_System_GCs_CompressedFrameDescriptor@@SIHPAU1@@Z 02023ee8 f   DiskDrive.obj
 0001:00022f08       ?m_InBetweenSlotsAboveWithFP@Struct_System_GCs_CompressedFrameDescriptor@@SIHPAU1@@Z 02023f08 f   DiskDrive.obj
 0001:00022f28       ?m_InBetweenSlotsAboveNoFP@Struct_System_GCs_CompressedFrameDescriptor@@SIHPAU1@@Z 02023f28 f   DiskDrive.obj
 0001:00022f48       ?m_HasTransitionRecord@Struct_System_GCs_CompressedFrameDescriptor@@SI_NPAU1@@Z 02023f48 f   DiskDrive.obj
 0001:00022f70       ?m_HasTransitionRecord@Struct_System_GCs_CompressedFrameDescriptor@@SI_NPAU1@PAUStruct_System_GCs_OverflowFrameDescriptor@@@Z 02023f70 f   DiskDrive.obj
 0001:00022f9c       ?m_HasPinnedPointersWithFP@Struct_System_GCs_CompressedFrameDescriptor@@SI_NPAU1@PAUStruct_System_GCs_OverflowFrameDescriptor@@@Z 02023f9c f   DiskDrive.obj
 0001:00022fc8       ?m_HasPinnedPointersNoFP@Struct_System_GCs_CompressedFrameDescriptor@@SI_NPAU1@PAUStruct_System_GCs_OverflowFrameDescriptor@@@Z 02023fc8 f   DiskDrive.obj
 0001:00022ff4       ?m_FrameSizeNoFP@Struct_System_GCs_CompressedFrameDescriptor@@SIHPAU1@@Z 02023ff4 f   DiskDrive.obj
 0001:00023018       ?m_FrameSizeNoFP@Struct_System_GCs_CompressedFrameDescriptor@@SIHPAU1@PAUStruct_System_GCs_OverflowFrameDescriptor@@@Z 02024018 f   DiskDrive.obj
 0001:0002303c       ?m_Equals@Struct_System_GCs_CompressedFrameDescriptor@@SI_NPAU1@PAUClass_System_Object@@@Z 0202403c f   DiskDrive.obj
 0001:00023084       ?m_Equals@Struct_System_GCs_CompressedFrameDescriptor@@SI_NPAUClass_System_GCs_CompressedFrameDescriptor@@PAUClass_System_Object@@@Z 02024084 f   DiskDrive.obj
 0001:000230b0       ?m_EntrySizeWithFP@Struct_System_GCs_CompressedFrameDescriptor@@SIIPAU1@PAUStruct_System_GCs_OverflowFrameDescriptor@@@Z 020240b0 f   DiskDrive.obj
 0001:000230d8       ?m_EntrySizeNoFP@Struct_System_GCs_CompressedFrameDescriptor@@SIIPAU1@PAUStruct_System_GCs_OverflowFrameDescriptor@@@Z 020240d8 f   DiskDrive.obj
 0001:00023100       ?m_CalleeSaveValueMaskWithFP@Struct_System_GCs_CompressedFrameDescriptor@@SIPAUuintPtr@@PAU1@@Z 02024100 f   DiskDrive.obj
 0001:00023124       ?m_CalleeSaveValueMaskWithFP@Struct_System_GCs_CompressedFrameDescriptor@@SIPAUuintPtr@@PAU1@PAUStruct_System_GCs_OverflowFrameDescriptor@@@Z 02024124 f   DiskDrive.obj
 0001:0002314c       ?m_CalleeSaveValueMaskNoFP@Struct_System_GCs_CompressedFrameDescriptor@@SIPAUuintPtr@@PAU1@@Z 0202414c f   DiskDrive.obj
 0001:00023174       ?m_CalleeSaveValueMaskNoFP@Struct_System_GCs_CompressedFrameDescriptor@@SIPAUuintPtr@@PAU1@PAUStruct_System_GCs_OverflowFrameDescriptor@@@Z 02024174 f   DiskDrive.obj
 0001:000231a0       ?m_CalleeSaveMaskWithFP@Struct_System_GCs_CompressedFrameDescriptor@@SIPAUuintPtr@@PAU1@@Z 020241a0 f   DiskDrive.obj
 0001:000231c4       ?m_CalleeSaveMaskWithFP@Struct_System_GCs_CompressedFrameDescriptor@@SIPAUuintPtr@@PAU1@PAUStruct_System_GCs_OverflowFrameDescriptor@@@Z 020241c4 f   DiskDrive.obj
 0001:000231ec       ?m_CalleeSaveMaskNoFP@Struct_System_GCs_CompressedFrameDescriptor@@SIPAUuintPtr@@PAU1@@Z 020241ec f   DiskDrive.obj
 0001:00023210       ?m_CalleeSaveMaskNoFP@Struct_System_GCs_CompressedFrameDescriptor@@SIPAUuintPtr@@PAU1@PAUStruct_System_GCs_OverflowFrameDescriptor@@@Z 02024210 f   DiskDrive.obj
 0001:00023238       ?m_ArgumentMaskWithFP@Struct_System_GCs_CompressedFrameDescriptor@@SIPAUuintPtr@@PAU1@@Z 02024238 f   DiskDrive.obj
 0001:0002325c       ?m_ArgumentMaskNoFP@Struct_System_GCs_CompressedFrameDescriptor@@SIPAUuintPtr@@PAU1@@Z 0202425c f   DiskDrive.obj
 0001:00023280       ?m_Write@Struct_System_GCs_UIntPtrStack@@SIXPAU1@PAUuintPtr@@@Z 02024280 f   DiskDrive.obj
 0001:000232d0       ?m_StructCopy@Struct_System_GCs_UIntPtrStack@@SIXPAU1@0@Z 020242d0 f   DiskDrive.obj
 0001:0002332c       ?m_StructCopy@Struct_System_GCs_UIntPtrStack@@SIXPAU1@PAU1@@Z 0202432c f   DiskDrive.obj
 0001:00023440       ?m_RetractPage@Struct_System_GCs_UIntPtrStack@@SIXPAU1@@Z 02024440 f   DiskDrive.obj
 0001:000234a8       ?m_Read@Struct_System_GCs_UIntPtrStack@@SIPAUuintPtr@@PAU1@@Z 020244a8 f   DiskDrive.obj
 0001:000234ec       ?m_get$_IsEmpty@Struct_System_GCs_UIntPtrStack@@SI_NPAU1@@Z 020244ec f   DiskDrive.obj
 0001:00023544       ?m_Equals@Struct_System_GCs_UIntPtrStack@@SI_NPAU1@PAUClass_System_Object@@@Z 02024544 f   DiskDrive.obj
 0001:00023648       ?m_Equals@Struct_System_GCs_UIntPtrStack@@SI_NPAUClass_System_GCs_UIntPtrStack@@PAUClass_System_Object@@@Z 02024648 f   DiskDrive.obj
 0001:00023674       ?m_Cleanup@Struct_System_GCs_UIntPtrStack@@SIXPAU1@_N@Z 02024674 f   DiskDrive.obj
 0001:00023748       ?m_AdvancePage@Struct_System_GCs_UIntPtrStack@@SIXPAU1@@Z 02024748 f   DiskDrive.obj
 0001:00023828       ?m_ToPrint@Class_Microsoft_Singularity_Io_PciCardbusConfig@@SIPAUClass_System_String@@PAU1@@Z 02024828 f   DiskDrive.obj
 0001:0002384c       ?m_Read@Class_Microsoft_Singularity_Io_PciCardbusConfig@@SIXPAU1@@Z 0202484c f   DiskDrive.obj
 0001:00023870       ?m__ctor@Class_Microsoft_Singularity_Io_PciCardbusConfig@@SIXPAU1@PAUClass_Microsoft_Singularity_Io_PciPort@@@Z 02024870 f   DiskDrive.obj
 0001:000238b8       ?g_RestoreLocalPreemption@Class_Microsoft_Singularity_Processor@@SIX_N@Z 020248b8 f   DiskDrive.obj
 0001:000238d4       ?g_GetCycleCount@Class_Microsoft_Singularity_Processor@@SI_KXZ 020248d4 f   DiskDrive.obj
 0001:000238ec       ?g_GetCurrentThreadContext@Class_Microsoft_Singularity_Processor@@SIPAUStruct_Microsoft_Singularity_ThreadContext@@XZ 020248ec f   DiskDrive.obj
 0001:00023904       ?g_GetCurrentThread@Class_Microsoft_Singularity_Processor@@SIPAUClass_System_Threading_Thread@@XZ 02024904 f   DiskDrive.obj
 0001:00023924       ?g_GetCurrentProcessorContext@Class_Microsoft_Singularity_Processor@@SIPAUStruct_Microsoft_Singularity_ProcessorContext@@XZ 02024924 f   DiskDrive.obj
 0001:0002393c       ?g_get$_CyclesPerSecond@Class_Microsoft_Singularity_Processor@@SI_JXZ 0202493c f   DiskDrive.obj
 0001:00023964       ?g_get$_CycleCount@Class_Microsoft_Singularity_Processor@@SI_KXZ 02024964 f   DiskDrive.obj
 0001:0002397c       ?g_DisableLocalPreemption@Class_Microsoft_Singularity_Processor@@SI_NXZ 0202497c f   DiskDrive.obj
 0001:00023994       ?m__ctor@Class_Microsoft_Singularity_Processor@@SIXPAU1@@Z 02024994 f   DiskDrive.obj
 0001:000239b0       ?m_StructCopy@Struct_Microsoft_Singularity_Directory_ServiceContract_ContractNotSupported@@SIXPAU1@0@Z 020249b0 f   DiskDrive.obj
 0001:000239cc       ?m_StructCopy@Struct_Microsoft_Singularity_Directory_ServiceContract_ContractNotSupported@@SIXPAU1@PAU1@@Z 020249cc f   DiskDrive.obj
 0001:00023a20       ?m_Equals@Struct_Microsoft_Singularity_Directory_ServiceContract_ContractNotSupported@@SI_NPAU1@PAUClass_System_Object@@@Z 02024a20 f   DiskDrive.obj
 0001:00023a58       ?m_Equals@Struct_Microsoft_Singularity_Directory_ServiceContract_ContractNotSupported@@SI_NPAUClass_Microsoft_Singularity_Directory_ServiceContract_ContractNotSupported@@PAUClass_System_Object@@@Z 02024a58 f   DiskDrive.obj
 0001:00023a84       ?m_RecvEmpty@Class_Microsoft_Singularity_Channels_ESet$_2$LMicrosoft_Singularity_Extending_ExtensionContract_Exp_Microsoft_Singularity_Extending_ExtensionContract_Ready$G@@SIXPAU1@@Z 02024a84 f   DiskDrive.obj
 0001:00023aa0       ?m_HeadMatches@Class_Microsoft_Singularity_Channels_ESet$_2$LMicrosoft_Singularity_Extending_ExtensionContract_Exp_Microsoft_Singularity_Extending_ExtensionContract_Ready$G@@SI_NPAU1@HPA_NPAPAUClass_System_Object@@@Z 02024aa0 f   DiskDrive.obj
 0001:00023c18       ?m_GetWaitHandle@Class_Microsoft_Singularity_Channels_ESet$_2$LMicrosoft_Singularity_Extending_ExtensionContract_Exp_Microsoft_Singularity_Extending_ExtensionContract_Ready$G@@SI?AUStruct_Microsoft_Singularity_V1_Threads_SyncHandle@@PAU1@@Z 02024c18 f   DiskDrive.obj
 0001:00023c84       ?m_GetFreshNode@Class_Microsoft_Singularity_Channels_ESet$_2$LMicrosoft_Singularity_Extending_ExtensionContract_Exp_Microsoft_Singularity_Extending_ExtensionContract_Ready$G@@SIPAUClass_Microsoft_Singularity_Channels_ESet$_2$LMicrosoft_Singularity_Extending_ExtensionContract_Exp_Microsoft_Singularity_Extending_ExtensionContract_Ready$G_Node@@PAU1@PAUStruct_Microsoft_Singularity_Extending_ExtensionContract_Exp@@0@Z 02024c84 f   DiskDrive.obj
 0001:00023d28       ?m_get$_NextScanStart@Class_Microsoft_Singularity_Channels_ESet$_2$LMicrosoft_Singularity_Extending_ExtensionContract_Exp_Microsoft_Singularity_Extending_ExtensionContract_Ready$G@@SIPAUClass_Microsoft_Singularity_Channels_ESet$_2$LMicrosoft_Singularity_Extending_ExtensionContract_Exp_Microsoft_Singularity_Extending_ExtensionContract_Ready$G_Node@@PAU1@@Z 02024d28 f   DiskDrive.obj
 0001:00023d90       ?m_Extract@Class_Microsoft_Singularity_Channels_ESet$_2$LMicrosoft_Singularity_Extending_ExtensionContract_Exp_Microsoft_Singularity_Extending_ExtensionContract_Ready$G@@SIPAUStruct_Microsoft_Singularity_Extending_ExtensionContract_Exp@@PAU1@PAUClass_System_Object@@@Z 02024d90 f   DiskDrive.obj
 0001:00023e48       ?m_Dispose@Class_Microsoft_Singularity_Channels_ESet$_2$LMicrosoft_Singularity_Extending_ExtensionContract_Exp_Microsoft_Singularity_Extending_ExtensionContract_Ready$G@@SIXPAU1@@Z 02024e48 f   DiskDrive.obj
 0001:00023f34       ?m_Add@Class_Microsoft_Singularity_Channels_ESet$_2$LMicrosoft_Singularity_Extending_ExtensionContract_Exp_Microsoft_Singularity_Extending_ExtensionContract_Ready$G@@SIXPAU1@PAUStruct_Microsoft_Singularity_Extending_ExtensionContract_Exp@@@Z 02024f34 f   DiskDrive.obj
 0001:00023f64       ?m__ctor@Class_Microsoft_Singularity_Channels_ESet$_2$LMicrosoft_Singularity_Extending_ExtensionContract_Exp_Microsoft_Singularity_Extending_ExtensionContract_Ready$G@@SIXPAU1@@Z 02024f64 f   DiskDrive.obj
 0001:00023ff0       ?m_RecvEmpty@Class_Microsoft_Singularity_Channels_ESet$_2$LMicrosoft_Singularity_Io_VolumeManagerContract_Imp_Microsoft_Singularity_Io_VolumeManagerContract_Accept$G@@SIXPAU1@@Z 02024ff0 f   DiskDrive.obj
 0001:0002400c       ?m_HeadMatches@Class_Microsoft_Singularity_Channels_ESet$_2$LMicrosoft_Singularity_Io_VolumeManagerContract_Imp_Microsoft_Singularity_Io_VolumeManagerContract_Accept$G@@SI_NPAU1@HPA_NPAPAUClass_System_Object@@@Z 0202500c f   DiskDrive.obj
 0001:00024184       ?m_GetWaitHandle@Class_Microsoft_Singularity_Channels_ESet$_2$LMicrosoft_Singularity_Io_VolumeManagerContract_Imp_Microsoft_Singularity_Io_VolumeManagerContract_Accept$G@@SI?AUStruct_Microsoft_Singularity_V1_Threads_SyncHandle@@PAU1@@Z 02025184 f   DiskDrive.obj
 0001:000241f0       ?m_GetFreshNode@Class_Microsoft_Singularity_Channels_ESet$_2$LMicrosoft_Singularity_Io_VolumeManagerContract_Imp_Microsoft_Singularity_Io_VolumeManagerContract_Accept$G@@SIPAUClass_Microsoft_Singularity_Channels_ESet$_2$LMicrosoft_Singularity_Io_VolumeManagerContract_Imp_Microsoft_Singularity_Io_VolumeManagerContract_Accept$G_Node@@PAU1@PAUStruct_Microsoft_Singularity_Io_VolumeManagerContract_Imp@@0@Z 020251f0 f   DiskDrive.obj
 0001:00024294       ?m_get$_NextScanStart@Class_Microsoft_Singularity_Channels_ESet$_2$LMicrosoft_Singularity_Io_VolumeManagerContract_Imp_Microsoft_Singularity_Io_VolumeManagerContract_Accept$G@@SIPAUClass_Microsoft_Singularity_Channels_ESet$_2$LMicrosoft_Singularity_Io_VolumeManagerContract_Imp_Microsoft_Singularity_Io_VolumeManagerContract_Accept$G_Node@@PAU1@@Z 02025294 f   DiskDrive.obj
 0001:000242fc       ?m_Extract@Class_Microsoft_Singularity_Channels_ESet$_2$LMicrosoft_Singularity_Io_VolumeManagerContract_Imp_Microsoft_Singularity_Io_VolumeManagerContract_Accept$G@@SIPAUStruct_Microsoft_Singularity_Io_VolumeManagerContract_Imp@@PAU1@PAUClass_System_Object@@@Z 020252fc f   DiskDrive.obj
 0001:000243b4       ?m_Dispose@Class_Microsoft_Singularity_Channels_ESet$_2$LMicrosoft_Singularity_Io_VolumeManagerContract_Imp_Microsoft_Singularity_Io_VolumeManagerContract_Accept$G@@SIXPAU1@@Z 020253b4 f   DiskDrive.obj
 0001:000244a0       ?m_Add@Class_Microsoft_Singularity_Channels_ESet$_2$LMicrosoft_Singularity_Io_VolumeManagerContract_Imp_Microsoft_Singularity_Io_VolumeManagerContract_Accept$G@@SIXPAU1@PAUStruct_Microsoft_Singularity_Io_VolumeManagerContract_Imp@@@Z 020254a0 f   DiskDrive.obj
 0001:000244d0       ?m__ctor@Class_Microsoft_Singularity_Channels_ESet$_2$LMicrosoft_Singularity_Io_VolumeManagerContract_Imp_Microsoft_Singularity_Io_VolumeManagerContract_Accept$G@@SIXPAU1@@Z 020254d0 f   DiskDrive.obj
 0001:0002455c       ?m_ToString@uint32@@SIPAUClass_System_String@@PAI@Z 0202555c f   DiskDrive.obj
 0001:00024584       ?m_ToString@uint32@@SIPAUClass_System_String@@PAIPAU2@@Z 02025584 f   DiskDrive.obj
 0001:000245cc       ?m_ToString@uint32@@SIPAUClass_System_String@@PAUClass_System_UInt32@@@Z 020255cc f   DiskDrive.obj
 0001:000245f4       ?m_ToString@uint32@@SIPAUClass_System_String@@PAUClass_System_UInt32@@PAU2@@Z 020255f4 f   DiskDrive.obj
 0001:00024620       ?m_GetHashCode@uint32@@SIHPAI@Z 02025620 f   DiskDrive.obj
 0001:00024640       ?m_GetHashCode@uint32@@SIHPAUClass_System_UInt32@@@Z 02025640 f   DiskDrive.obj
 0001:00024668       ?m_Equals@uint32@@SI_NPAIPAUClass_System_Object@@@Z 02025668 f   DiskDrive.obj
 0001:000246c4       ?m_Equals@uint32@@SI_NPAUClass_System_UInt32@@PAUClass_System_Object@@@Z 020256c4 f   DiskDrive.obj
 0001:000246f0       ?g_ConvertToLong@Class_System_RuntimeTypeHash@@SI_JPAUClassVector_uint8@@H@Z 020256f0 f   DiskDrive.obj
 0001:000247c4       ?g_ComputeHashAndReturnName@Class_System_RuntimeTypeHash@@SIPAUClassVector_uint8@@PAUClass_System_String@@PA_J1@Z 020257c4 f   DiskDrive.obj
 0001:00024834       ?g_ComputeHash@Class_System_RuntimeTypeHash@@SIXPAUClassVector_uint8@@PA_J1@Z 02025834 f   DiskDrive.obj
 0001:000248d4       ?m__ctor@Class_System_RuntimeTypeHash@@SIXPAU1@@Z 020258d4 f   DiskDrive.obj
 0001:000248ec       ?g_WriterIsValid@Class_System_ReadEnlistmentLog@@SI_NUStruct_System_ReadEnlistmentLogWriter@@@Z 020258ec f   DiskDrive.obj
 0001:0002490c       ?m_VisitWeakRefs@Class_System_ReadEnlistmentLog@@SIXPAU1@PAUClass_System_TryAllManager@@PAUClass_System_GCs_DirectReferenceVisitor@@@Z 0202590c f   DiskDrive.obj
 0001:00024e80       ?m_ValidateAndRemoveDuplicates@Class_System_ReadEnlistmentLog@@SIXPAU1@PAUClass_System_TryAllManager@@@Z 02025e80 f   DiskDrive.obj
 0001:00025960       ?m_Validate@Class_System_ReadEnlistmentLog@@SIXPAU1@PAUClass_System_TryAllManager@@_N@Z 02026960 f   DiskDrive.obj
 0001:00025ff0       ?g_SyncFromWriter@Class_System_ReadEnlistmentLog@@SIXPAUClass_System_TryAllManager@@@Z 02026ff0 f   DiskDrive.obj
 0001:00026074       ?g_InitWriter@Class_System_ReadEnlistmentLog@@SIXPAUClass_System_TryAllManager@@@Z 02027074 f   DiskDrive.obj
 0001:000260f0       ?m_get$_CurrentLocation@Class_System_ReadEnlistmentLog@@SI?AUStruct_System_ReadEnlistmentLog_Location@@PAU1@@Z 020270f0 f   DiskDrive.obj
 0001:00026184       ?m_AddrToIndex@Class_System_ReadEnlistmentLog@@SIIPAU1@PAUStruct_System_ReadEnlistmentLog_Entry@@@Z 02027184 f   DiskDrive.obj
 0001:00026214       ?m_AddrOfEntry@Class_System_ReadEnlistmentLog@@SIPAUStruct_System_ReadEnlistmentLog_Entry@@PAU1@H@Z 02027214 f   DiskDrive.obj
 0001:000262b4       ?m__ctor@Class_System_ReadEnlistmentLog@@SIXPAU1@@Z 020272b4 f   DiskDrive.obj
 0001:00026318       ?m_StructCopy@Struct_System_GCs_CalleeSaveLocations@@SIXPAU1@0@Z 02027318 f   DiskDrive.obj
 0001:00026388       ?m_StructCopy@Struct_System_GCs_CalleeSaveLocations@@SIXPAU1@PAU1@@Z 02027388 f   DiskDrive.obj
 0001:000264d8       ?m_SetCalleeSaves@Struct_System_GCs_CalleeSaveLocations@@SIXPAU1@PAUStruct_System_GCs_CalleeSaveRegisters@@@Z 020274d8 f   DiskDrive.obj
 0001:00026574       ?m_ScanLiveRegs@Struct_System_GCs_CalleeSaveLocations@@SIXPAU1@PAUuintPtr@@PAUClass_System_GCs_NonNullReferenceVisitor@@@Z 02027574 f   DiskDrive.obj
 0001:00026600       ?m_PopFrame@Struct_System_GCs_CalleeSaveLocations@@SIXPAU1@PAPAUuintPtr@@PAU2@_N3@Z 02027600 f   DiskDrive.obj
 0001:00026728       ?m_GetFramePointer@Struct_System_GCs_CalleeSaveLocations@@SIPAUuintPtr@@PAU1@@Z 02027728 f   DiskDrive.obj
 0001:00026750       ?m_Equals@Struct_System_GCs_CalleeSaveLocations@@SI_NPAU1@PAUClass_System_Object@@@Z 02027750 f   DiskDrive.obj
 0001:00026a80       ?m_Equals@Struct_System_GCs_CalleeSaveLocations@@SI_NPAUClass_System_GCs_CalleeSaveLocations@@PAUClass_System_Object@@@Z 02027a80 f   DiskDrive.obj
 0001:00026aac       ?m_ClearFrame@Struct_System_GCs_CalleeSaveLocations@@SIXPAU1@PAUuintPtr@@_N@Z 02027aac f   DiskDrive.obj
 0001:00026b70       ?m_ClearCalleeSaves@Struct_System_GCs_CalleeSaveLocations@@SIXPAU1@@Z 02027b70 f   DiskDrive.obj
 0001:00026bbc       ?m_Unlink@Class_Microsoft_Singularity_Channels_ESet$_2$LMicrosoft_Singularity_Directory_ServiceProviderContract_Exp_Microsoft_Singularity_Directory_ServiceProviderContract_Start$G_Node@@SIPAUStruct_Microsoft_Singularity_Directory_ServiceProviderContract_Exp@@PAU1@PAUClass_Microsoft_Singularity_Channels_ESet$_2$LMicrosoft_Singularity_Directory_ServiceProviderContract_Exp_Microsoft_Singularity_Directory_ServiceProviderContract_Start$G@@@Z 02027bbc f   DiskDrive.obj
 0001:00026cd0       ?m_LinkAsNext@Class_Microsoft_Singularity_Channels_ESet$_2$LMicrosoft_Singularity_Directory_ServiceProviderContract_Exp_Microsoft_Singularity_Directory_ServiceProviderContract_Start$G_Node@@SIXPAU1@PAUStruct_Microsoft_Singularity_Directory_ServiceProviderContract_Exp@@PAUClass_Microsoft_Singularity_Channels_ESet$_2$LMicrosoft_Singularity_Directory_ServiceProviderContract_Exp_Microsoft_Singularity_Directory_ServiceProviderContract_Start$G@@@Z 02027cd0 f   DiskDrive.obj
 0001:00026d4c       ?m_Init@Class_Microsoft_Singularity_Channels_ESet$_2$LMicrosoft_Singularity_Directory_ServiceProviderContract_Exp_Microsoft_Singularity_Directory_ServiceProviderContract_Start$G_Node@@SIXPAU1@PAUStruct_Microsoft_Singularity_Directory_ServiceProviderContract_Exp@@PAUClass_Microsoft_Singularity_Channels_ESet$_2$LMicrosoft_Singularity_Directory_ServiceProviderContract_Exp_Microsoft_Singularity_Directory_ServiceProviderContract_Start$G@@@Z 02027d4c f   DiskDrive.obj
 0001:00026d7c       ?m__ctor@Class_Microsoft_Singularity_Channels_ESet$_2$LMicrosoft_Singularity_Directory_ServiceProviderContract_Exp_Microsoft_Singularity_Directory_ServiceProviderContract_Start$G_Node@@SIXPAU1@PAUStruct_Microsoft_Singularity_Directory_ServiceProviderContract_Exp@@PAUClass_Microsoft_Singularity_Channels_ESet$_2$LMicrosoft_Singularity_Directory_ServiceProviderContract_Exp_Microsoft_Singularity_Directory_ServiceProviderContract_Start$G@@@Z 02027d7c f   DiskDrive.obj
 0001:00026dc0       ?m__ctor@Class_Microsoft_Singularity_Channels_ESet$_2$LMicrosoft_Singularity_Directory_ServiceProviderContract_Exp_Microsoft_Singularity_Directory_ServiceProviderContract_Start$G_Node@@SIXPAU1@PAUClass_Microsoft_Singularity_Channels_ESet$_2$LMicrosoft_Singularity_Directory_ServiceProviderContract_Exp_Microsoft_Singularity_Directory_ServiceProviderContract_Start$G@@@Z 02027dc0 f   DiskDrive.obj
 0001:00026df4       ?m_Visit@Class_System_GCs_Verifier_GenericThreadReferenceVisitor@@SIXPAU1@PAPAUuintPtr@@@Z 02027df4 f   DiskDrive.obj
 0001:000270f8       ?m__ctor@Class_System_GCs_Verifier_GenericThreadReferenceVisitor@@SIXPAU1@@Z 020280f8 f   DiskDrive.obj
 0001:0002711c       ?m_ToString@int16@@SIPAUClass_System_String@@PAF@Z 0202811c f   DiskDrive.obj
 0001:00027144       ?m_ToString@int16@@SIPAUClass_System_String@@PAFPAU2@@Z 02028144 f   DiskDrive.obj
 0001:00027240       ?m_ToString@int16@@SIPAUClass_System_String@@PAUClass_System_Int16@@@Z 02028240 f   DiskDrive.obj
 0001:00027268       ?m_ToString@int16@@SIPAUClass_System_String@@PAUClass_System_Int16@@PAU2@@Z 02028268 f   DiskDrive.obj
 0001:00027294       ?m_GetHashCode@int16@@SIHPAF@Z 02028294 f   DiskDrive.obj
 0001:000272c8       ?m_GetHashCode@int16@@SIHPAUClass_System_Int16@@@Z 020282c8 f   DiskDrive.obj
 0001:000272f0       ?m_Equals@int16@@SI_NPAFPAUClass_System_Object@@@Z 020282f0 f   DiskDrive.obj
 0001:00027354       ?m_Equals@int16@@SI_NPAUClass_System_Int16@@PAUClass_System_Object@@@Z 02028354 f   DiskDrive.obj
 0001:00027380       ?m_StructCopy@Struct_Microsoft_Singularity_Io_DiskDeviceContract_AckGetStartSector@@SIXPAU1@0@Z 02028380 f   DiskDrive.obj
 0001:000273b4       ?m_StructCopy@Struct_Microsoft_Singularity_Io_DiskDeviceContract_AckGetStartSector@@SIXPAU1@PAU1@@Z 020283b4 f   DiskDrive.obj
 0001:00027450       ?m_MarshallContent@Struct_Microsoft_Singularity_Io_DiskDeviceContract_AckGetStartSector@@SIXPAU1@PAEPAUStruct_Microsoft_Singularity_Channels_Endpoint@@1PAH@Z 02028450 f   DiskDrive.obj
 0001:00027470       ?m_MarshallAll@Struct_Microsoft_Singularity_Io_DiskDeviceContract_AckGetStartSector@@SIXPAU1@PAEPAUStruct_Microsoft_Singularity_Channels_Endpoint@@PAH@Z 02028470 f   DiskDrive.obj
 0001:000274c8       ?m_Equals@Struct_Microsoft_Singularity_Io_DiskDeviceContract_AckGetStartSector@@SI_NPAU1@PAUClass_System_Object@@@Z 020284c8 f   DiskDrive.obj
 0001:00027534       ?m_Equals@Struct_Microsoft_Singularity_Io_DiskDeviceContract_AckGetStartSector@@SI_NPAUClass_Microsoft_Singularity_Io_DiskDeviceContract_AckGetStartSector@@PAUClass_System_Object@@@Z 02028534 f   DiskDrive.obj
 0001:00027560       ?m_GetSize@Class_Microsoft_Singularity_Eventing_UnmanagedMemoryBuffer@@SI_KPAU1@@Z 02028560 f   DiskDrive.obj
 0001:00027588       ?m_GetBuffer@Class_Microsoft_Singularity_Eventing_UnmanagedMemoryBuffer@@SIPAEPAU1@@Z 02028588 f   DiskDrive.obj
 0001:000275a8       ?m_Finalize@Class_Microsoft_Singularity_Eventing_UnmanagedMemoryBuffer@@SIXPAU1@@Z 020285a8 f   DiskDrive.obj
 0001:0002762c       ?m_AllocateBuffer@Class_Microsoft_Singularity_Eventing_UnmanagedMemoryBuffer@@SI_NPAU1@_K@Z 0202862c f   DiskDrive.obj
 0001:000276bc       ?m__ctor@Class_Microsoft_Singularity_Eventing_UnmanagedMemoryBuffer@@SIXPAU1@@Z 020286bc f   DiskDrive.obj
 0001:000276e0       ?g_TransferOwnership@Struct_Microsoft_Singularity_Io_DiskDeviceContract_Exp@@SIXPAUStruct_Microsoft_Singularity_Channels_Endpoint@@PAU1@@Z 020286e0 f   DiskDrive.obj
 0001:00027724       ?m_TransferContentsOwnership@Struct_Microsoft_Singularity_Io_DiskDeviceContract_Exp@@SIXPAU1@PAUStruct_Microsoft_Singularity_Channels_Endpoint@@@Z 02028724 f   DiskDrive.obj
 0001:00027750       ?m_StructCopy@Struct_Microsoft_Singularity_Io_DiskDeviceContract_Exp@@SIXPAU1@0@Z 02028750 f   DiskDrive.obj
 0001:000278c0       ?m_StructCopy@Struct_Microsoft_Singularity_Io_DiskDeviceContract_Exp@@SIXPAU1@PAU1@@Z 020288c0 f   DiskDrive.obj
 0001:00027d10       ?m_SendSystemId@Struct_Microsoft_Singularity_Io_DiskDeviceContract_Exp@@SIXPAU1@E@Z 02028d10 f   DiskDrive.obj
 0001:00027e0c       ?m_SendSuccess@Struct_Microsoft_Singularity_Io_DiskDeviceContract_Exp@@SIXPAU1@@Z 02028e0c f   DiskDrive.obj
 0001:00027f00       ?m_SendNoSystemId@Struct_Microsoft_Singularity_Io_DiskDeviceContract_Exp@@SIXPAU1@@Z 02028f00 f   DiskDrive.obj
 0001:00027ff4       ?m_SendNakWrite@Struct_Microsoft_Singularity_Io_DiskDeviceContract_Exp@@SIXPAU1@@Z 02028ff4 f   DiskDrive.obj
 0001:000280e8       ?m_SendNakRead@Struct_Microsoft_Singularity_Io_DiskDeviceContract_Exp@@SIXPAU1@@Z 020290e8 f   DiskDrive.obj
 0001:000281dc       ?m_SendAckWrite@Struct_Microsoft_Singularity_Io_DiskDeviceContract_Exp@@SIXPAU1@PAE@Z 020291dc f   DiskDrive.obj
 0001:000282f0       ?m_SendAckReadPerf@Struct_Microsoft_Singularity_Io_DiskDeviceContract_Exp@@SIXPAU1@_J1@Z 020292f0 f   DiskDrive.obj
 0001:00028400       ?m_SendAckRead@Struct_Microsoft_Singularity_Io_DiskDeviceContract_Exp@@SIXPAU1@PAE@Z 02029400 f   DiskDrive.obj
 0001:00028514       ?m_SendAckNoOp@Struct_Microsoft_Singularity_Io_DiskDeviceContract_Exp@@SIXPAU1@@Z 02029514 f   DiskDrive.obj
 0001:00028608       ?m_SendAckGetStartSector@Struct_Microsoft_Singularity_Io_DiskDeviceContract_Exp@@SIXPAU1@_K@Z 02029608 f   DiskDrive.obj
 0001:0002870c       ?m_SendAckGetSectorCount@Struct_Microsoft_Singularity_Io_DiskDeviceContract_Exp@@SIXPAU1@_K@Z 0202970c f   DiskDrive.obj
 0001:00028810       ?m_SendAckGetDiskAttributes@Struct_Microsoft_Singularity_Io_DiskDeviceContract_Exp@@SIXPAU1@UStruct_Microsoft_Singularity_Io_DiskAttributes@@@Z 02029810 f   DiskDrive.obj
 0001:0002890c       ?m_SendAckGetDeviceName@Struct_Microsoft_Singularity_Io_DiskDeviceContract_Exp@@SIXPAU1@PA_W@Z 0202990c f   DiskDrive.obj
 0001:00028a2c       ?m_RecvWrite@Struct_Microsoft_Singularity_Io_DiskDeviceContract_Exp@@SIXPAU1@PAPAEPA_K22@Z 02029a2c f   DiskDrive.obj
 0001:00028c18       ?m_RecvReadPerf@Struct_Microsoft_Singularity_Io_DiskDeviceContract_Exp@@SIXPAU1@PAH1@Z 02029c18 f   DiskDrive.obj
 0001:00028db4       ?m_RecvRead@Struct_Microsoft_Singularity_Io_DiskDeviceContract_Exp@@SIXPAU1@PAPAEPA_K22@Z 02029db4 f   DiskDrive.obj
 0001:00028fa0       ?m_RecvNoOp@Struct_Microsoft_Singularity_Io_DiskDeviceContract_Exp@@SIXPAU1@@Z 02029fa0 f   DiskDrive.obj
 0001:00029118       ?m_RecvGetSystemId@Struct_Microsoft_Singularity_Io_DiskDeviceContract_Exp@@SIXPAU1@@Z 0202a118 f   DiskDrive.obj
 0001:00029290       ?m_RecvGetStartSector@Struct_Microsoft_Singularity_Io_DiskDeviceContract_Exp@@SIXPAU1@@Z 0202a290 f   DiskDrive.obj
 0001:00029408       ?m_RecvGetSectorCount@Struct_Microsoft_Singularity_Io_DiskDeviceContract_Exp@@SIXPAU1@@Z 0202a408 f   DiskDrive.obj
 0001:00029580       ?m_RecvGetDiskAttributes@Struct_Microsoft_Singularity_Io_DiskDeviceContract_Exp@@SIXPAU1@@Z 0202a580 f   DiskDrive.obj
 0001:000296f8       ?m_RecvGetDeviceName@Struct_Microsoft_Singularity_Io_DiskDeviceContract_Exp@@SIXPAU1@@Z 0202a6f8 f   DiskDrive.obj
 0001:00029870       ?m_Peek@Struct_Microsoft_Singularity_Io_DiskDeviceContract_Exp@@SIHPAU1@@Z 0202a870 f   DiskDrive.obj
 0001:00029dc0       ?m_MarshallContent@Struct_Microsoft_Singularity_Io_DiskDeviceContract_Exp@@SIXPAU1@PAEPAUStruct_Microsoft_Singularity_Channels_Endpoint@@1@Z 0202adc0 f   DiskDrive.obj
 0001:00029de0       ?m_InState@Struct_Microsoft_Singularity_Io_DiskDeviceContract_Exp@@SI_NPAU1@H@Z 0202ade0 f   DiskDrive.obj
 0001:00029e70       ?m_HeadMatches@Struct_Microsoft_Singularity_Io_DiskDeviceContract_Exp@@SI_NPAU1@HPA_NPAPAUClass_System_Object@@@Z 0202ae70 f   DiskDrive.obj
 0001:00029f30       ?m_HeadMatches@Struct_Microsoft_Singularity_Io_DiskDeviceContract_Exp@@SI_NPAUClass_Microsoft_Singularity_Io_DiskDeviceContract_Exp@@HPA_NPAPAUClass_System_Object@@@Z 0202af30 f   DiskDrive.obj
 0001:00029f68       ?m_Equals@Struct_Microsoft_Singularity_Io_DiskDeviceContract_Exp@@SI_NPAU1@PAUClass_System_Object@@@Z 0202af68 f   DiskDrive.obj
 0001:0002a5ac       ?m_Equals@Struct_Microsoft_Singularity_Io_DiskDeviceContract_Exp@@SI_NPAUClass_Microsoft_Singularity_Io_DiskDeviceContract_Exp@@PAUClass_System_Object@@@Z 0202b5ac f   DiskDrive.obj
 0001:0002a5d8       ?m_Dispose@Struct_Microsoft_Singularity_Io_DiskDeviceContract_Exp@@SIXPAU1@@Z 0202b5d8 f   DiskDrive.obj
 0001:0002a5fc       ?m_CurrentState@Struct_Microsoft_Singularity_Io_DiskDeviceContract_Exp@@SIPAUClass_System_String@@PAU1@@Z 0202b5fc f   DiskDrive.obj
 0001:0002a740       ?g_Create@Class_Microsoft_Singularity_GCProfilerLogger_GCTypeSource@@SIPAU1@PAUClass_System_String@@I_K@Z 0202b740 f   DiskDrive.obj
 0001:0002a814       ?m__ctor@Class_Microsoft_Singularity_GCProfilerLogger_GCTypeSource@@SIXPAU1@PAUClass_System_String@@PAUClass_Microsoft_Singularity_Eventing_EventingStorage@@I@Z 0202b814 f   DiskDrive.obj
 0001:0002a848       ?m_MoveNext@Class_System_Collections_Hashtable_HashtableEnumerator@@SI_NPAU1@@Z 0202b848 f   DiskDrive.obj
 0001:0002a918       ?m_get$_Current@Class_System_Collections_Hashtable_HashtableEnumerator@@SIPAUClass_System_Object@@PAU1@@Z 0202b918 f   DiskDrive.obj
 0001:0002a9e0       ?m__ctor@Class_System_Collections_Hashtable_HashtableEnumerator@@SIXPAU1@PAUClass_System_Collections_Hashtable@@H@Z 0202b9e0 f   DiskDrive.obj
 0001:0002aa34       ?m__ctor@Class_System_TypeInitializationException@@SIXPAU1@@Z 0202ba34 f   DiskDrive.obj
 0001:0002aa5c       ?m__ctor@Class_System_TypeInitializationException@@SIXPAU1@PAUClass_System_String@@PAUClass_System_Exception@@@Z 0202ba5c f   DiskDrive.obj
 0001:0002aaa0       ?m_ToPrint@Class_Microsoft_Singularity_Io_PciBridgeConfig@@SIPAUClass_System_String@@PAU1@@Z 0202baa0 f   DiskDrive.obj
 0001:0002ac3c       ?m_Read@Class_Microsoft_Singularity_Io_PciBridgeConfig@@SIXPAU1@@Z 0202bc3c f   DiskDrive.obj
 0001:0002ae74       ?m__ctor@Class_Microsoft_Singularity_Io_PciBridgeConfig@@SIXPAU1@PAUClass_Microsoft_Singularity_Io_PciPort@@@Z 0202be74 f   DiskDrive.obj
 0001:0002aea8       ?m_Write64@Class_Microsoft_Singularity_Io_PciConfig@@SIXPAU1@H_K@Z 0202bea8 f   DiskDrive.obj
 0001:0002aef8       ?m_Write32@Class_Microsoft_Singularity_Io_PciConfig@@SIXPAU1@HI@Z 0202bef8 f   DiskDrive.obj
 0001:0002af2c       ?g_UInt16ToHex@Class_Microsoft_Singularity_Io_PciConfig@@SIPAUClass_System_String@@G@Z 0202bf2c f   DiskDrive.obj
 0001:0002b010       ?m_ToString@Class_Microsoft_Singularity_Io_PciConfig@@SIPAUClass_System_String@@PAU1@@Z 0202c010 f   DiskDrive.obj
 0001:0002b170       ?m_ToPrint@Class_Microsoft_Singularity_Io_PciConfig@@SIPAUClass_System_String@@PAU1@@Z 0202c170 f   DiskDrive.obj
 0001:0002b398       ?m_ReadBaseAddresses@Class_Microsoft_Singularity_Io_PciConfig@@SIXPAU1@H@Z 0202c398 f   DiskDrive.obj
 0001:0002b9ac       ?m_Read8@Class_Microsoft_Singularity_Io_PciConfig@@SIEPAU1@H@Z 0202c9ac f   DiskDrive.obj
 0001:0002b9dc       ?m_Read64@Class_Microsoft_Singularity_Io_PciConfig@@SI_KPAU1@H@Z 0202c9dc f   DiskDrive.obj
 0001:0002ba4c       ?m_Read32@Class_Microsoft_Singularity_Io_PciConfig@@SIIPAU1@H@Z 0202ca4c f   DiskDrive.obj
 0001:0002ba7c       ?m_Read@Class_Microsoft_Singularity_Io_PciConfig@@SIXPAU1@@Z 0202ca7c f   DiskDrive.obj
 0001:0002bb94       ?m_ProbeMemoryRange64@Class_Microsoft_Singularity_Io_PciConfig@@SIXPAU1@HPA_K1@Z 0202cb94 f   DiskDrive.obj
 0001:0002bcf8       ?m_ProbeMemoryRange32@Class_Microsoft_Singularity_Io_PciConfig@@SIXPAU1@HPAI1@Z 0202ccf8 f   DiskDrive.obj
 0001:0002bdb8       ?m_ProbeIoRange@Class_Microsoft_Singularity_Io_PciConfig@@SIXPAU1@HPAG1@Z 0202cdb8 f   DiskDrive.obj
 0001:0002bea8       ?m_PrintAddresses@Class_Microsoft_Singularity_Io_PciConfig@@SIPAUClass_System_String@@PAU1@@Z 0202cea8 f   DiskDrive.obj
 0001:0002c124       ?m_GetIds@Class_Microsoft_Singularity_Io_PciConfig@@SIPAUClassVector_Class_System_String@@PAU1@@Z 0202d124 f   DiskDrive.obj
 0001:0002c484       ?m_get$_Vendor@Class_Microsoft_Singularity_Io_PciConfig@@SIPAUClass_System_String@@PAU1@@Z 0202d484 f   DiskDrive.obj
 0001:0002c534       ?m_get$_InterruptLine@Class_Microsoft_Singularity_Io_PciConfig@@SIEPAU1@@Z 0202d534 f   DiskDrive.obj
 0001:0002c55c       ?m_get$_Device@Class_Microsoft_Singularity_Io_PciConfig@@SIPAUClass_System_String@@PAU1@@Z 0202d55c f   DiskDrive.obj
 0001:0002c6d8       ?m_get$_Class@Class_Microsoft_Singularity_Io_PciConfig@@SIPAUClass_System_String@@PAU1@@Z 0202d6d8 f   DiskDrive.obj
 0001:0002cf54       ?m_get$_Base@Class_Microsoft_Singularity_Io_PciConfig@@SIPAUClass_System_String@@PAU1@@Z 0202df54 f   DiskDrive.obj
 0001:0002d044       ?g_Create@Class_Microsoft_Singularity_Io_PciConfig@@SIPAU1@PAUClassVector_Class_System_String@@PAUClass_Microsoft_Singularity_Io_PciPort@@PAUClassVector_Class_Microsoft_Singularity_Io_IoRange@@@Z 0202e044 f   DiskDrive.obj
 0001:0002d178       ?g_ByteToHex@Class_Microsoft_Singularity_Io_PciConfig@@SIPAUClass_System_String@@E@Z 0202e178 f   DiskDrive.obj
 0001:0002d218       ?m__ctor@Class_Microsoft_Singularity_Io_PciConfig@@SIXPAU1@PAUClass_Microsoft_Singularity_Io_PciPort@@@Z 0202e218 f   DiskDrive.obj
 0001:0002d248       ?m_VisitPage@Class_System_GCs_SegregatedFreeList_NullPartialFreePageVisitor@@SI?AUStruct_System_GCs_SegregatedFreeList_PartialPageAction@@PAU1@PAUuintPtr@@PAUStruct_System_GCs_SegregatedFreeList_PageHeader@@H@Z 0202e248 f   DiskDrive.obj
 0001:0002d26c       ?m_ObserveEmptyPage@Class_System_GCs_SegregatedFreeList_NullPartialFreePageVisitor@@SIXPAU1@@Z 0202e26c f   DiskDrive.obj
 0001:0002d288       ?m__ctor@Class_System_GCs_SegregatedFreeList_NullPartialFreePageVisitor@@SIXPAU1@@Z 0202e288 f   DiskDrive.obj
 0001:0002d2ac       ?m_StructCopy@Struct_Microsoft_Singularity_V1_Threads_ThreadHandle@@SIXPAU1@0@Z 0202e2ac f   DiskDrive.obj
 0001:0002d2d4       ?m_StructCopy@Struct_Microsoft_Singularity_V1_Threads_ThreadHandle@@SIXPAU1@PAU1@@Z 0202e2d4 f   DiskDrive.obj
 0001:0002d34c       ?m_Equals@Struct_Microsoft_Singularity_V1_Threads_ThreadHandle@@SI_NPAU1@PAUClass_System_Object@@@Z 0202e34c f   DiskDrive.obj
 0001:0002d394       ?m_Equals@Struct_Microsoft_Singularity_V1_Threads_ThreadHandle@@SI_NPAUClass_Microsoft_Singularity_V1_Threads_ThreadHandle@@PAUClass_System_Object@@@Z 0202e394 f   DiskDrive.obj
 0001:0002d3c0       ?g_Create@Struct_Microsoft_Singularity_V1_Threads_ThreadHandle@@SI_NHUStruct_Microsoft_Singularity_V1_Threads_ContainerHandle@@PAU1@PAPAUuintPtr@@@Z 0202e3c0 f   DiskDrive.obj
 0001:0002d42c       ?g_UIntPtrPad@Class_System_GCs_Util@@SIPAUuintPtr@@PAU2@@Z 0202e42c f   DiskDrive.obj
 0001:0002d45c       ?g_PrintPageContents@Class_System_GCs_Util@@SIXPAUuintPtr@@@Z 0202e45c f   DiskDrive.obj
 0001:0002d4e8       ?g_PrintMemoryContents@Class_System_GCs_Util@@SIXPAUuintPtr@@0@Z 0202e4e8 f   DiskDrive.obj
 0001:0002d8d4       ?g_Pad@Class_System_GCs_Util@@SIPAUuintPtr@@PAU2@0@Z 0202e8d4 f   DiskDrive.obj
 0001:0002d904       ?g_MemCopy@Class_System_GCs_Util@@SIXPAUuintPtr@@00@Z 0202e904 f   DiskDrive.obj
 0001:0002d934       ?g_MemClear@Class_System_GCs_Util@@SIXPAUuintPtr@@0@Z 0202e934 f   DiskDrive.obj
 0001:0002d960       ?g_IsAligned@Class_System_GCs_Util@@SI_NII@Z 0202e960 f   DiskDrive.obj
 0001:0002d990       ?g_Align@Class_System_GCs_Util@@SIPAUuintPtr@@PAU2@0@Z 0202e990 f   DiskDrive.obj
 0001:0002d9bc       ?m__ctor@Class_System_GCs_Util@@SIXPAU1@@Z 0202e9bc f   DiskDrive.obj
 0001:0002d9d4       ?m__ctor@Class_Microsoft_Contracts_ContractMarkerException@@SIXPAU1@@Z 0202e9d4 f   DiskDrive.obj
 0001:0002d9f8       ?m_StructCopy@Struct_System_RuntimeArgumentHandle@@SIXPAU1@0@Z 0202e9f8 f   DiskDrive.obj
 0001:0002da20       ?m_StructCopy@Struct_System_RuntimeArgumentHandle@@SIXPAU1@PAU1@@Z 0202ea20 f   DiskDrive.obj
 0001:0002da98       ?m_get$_Pointer@Struct_System_RuntimeArgumentHandle@@SIPAUintPtr@@PAU1@@Z 0202ea98 f   DiskDrive.obj
 0001:0002dab8       ?m_Equals@Struct_System_RuntimeArgumentHandle@@SI_NPAU1@PAUClass_System_Object@@@Z 0202eab8 f   DiskDrive.obj
 0001:0002db00       ?m_Equals@Struct_System_RuntimeArgumentHandle@@SI_NPAUClass_System_RuntimeArgumentHandle@@PAUClass_System_Object@@@Z 0202eb00 f   DiskDrive.obj
 0001:0002db2c       ?g_Arglist@Struct_System_RuntimeArgumentHandle@@SI?AU1@PAUStruct_System_VarargList@@@Z 0202eb2c f   DiskDrive.obj
 0001:0002db78       ?m_StructCopy@Struct_Microsoft_Singularity_Io_DiskDeviceContract_Success@@SIXPAU1@0@Z 0202eb78 f   DiskDrive.obj
 0001:0002db94       ?m_StructCopy@Struct_Microsoft_Singularity_Io_DiskDeviceContract_Success@@SIXPAU1@PAU1@@Z 0202eb94 f   DiskDrive.obj
 0001:0002dbe8       ?m_MarshallContent@Struct_Microsoft_Singularity_Io_DiskDeviceContract_Success@@SIXPAU1@PAEPAUStruct_Microsoft_Singularity_Channels_Endpoint@@1PAH@Z 0202ebe8 f   DiskDrive.obj
 0001:0002dc08       ?m_MarshallAll@Struct_Microsoft_Singularity_Io_DiskDeviceContract_Success@@SIXPAU1@PAEPAUStruct_Microsoft_Singularity_Channels_Endpoint@@PAH@Z 0202ec08 f   DiskDrive.obj
 0001:0002dc60       ?m_Equals@Struct_Microsoft_Singularity_Io_DiskDeviceContract_Success@@SI_NPAU1@PAUClass_System_Object@@@Z 0202ec60 f   DiskDrive.obj
 0001:0002dc98       ?m_Equals@Struct_Microsoft_Singularity_Io_DiskDeviceContract_Success@@SI_NPAUClass_Microsoft_Singularity_Io_DiskDeviceContract_Success@@PAUClass_System_Object@@@Z 0202ec98 f   DiskDrive.obj
 0001:0002dcc4       ?m_StructCopy@Struct_Microsoft_Singularity_Isal_IX_TSS@@SIXPAU1@0@Z 0202ecc4 f   DiskDrive.obj
 0001:0002ded8       ?m_StructCopy@Struct_Microsoft_Singularity_Isal_IX_TSS@@SIXPAU1@PAU1@@Z 0202eed8 f   DiskDrive.obj
 0001:0002e514       ?m_Equals@Struct_Microsoft_Singularity_Isal_IX_TSS@@SI_NPAU1@PAUClass_System_Object@@@Z 0202f514 f   DiskDrive.obj
 0001:0002e804       ?m_Equals@Struct_Microsoft_Singularity_Isal_IX_TSS@@SI_NPAUClass_Microsoft_Singularity_Isal_IX_TSS@@PAUClass_System_Object@@@Z 0202f804 f   DiskDrive.obj
 0001:0002e830       ?m_StructCopy@Struct_System_ReadEnlistmentLog_Location@@SIXPAU1@0@Z 0202f830 f   DiskDrive.obj
 0001:0002e864       ?m_StructCopy@Struct_System_ReadEnlistmentLog_Location@@SIXPAU1@PAU1@@Z 0202f864 f   DiskDrive.obj
 0001:0002e900       ?m_Equals@Struct_System_ReadEnlistmentLog_Location@@SI_NPAU1@PAUClass_System_Object@@@Z 0202f900 f   DiskDrive.obj
 0001:0002e960       ?m_Equals@Struct_System_ReadEnlistmentLog_Location@@SI_NPAUClass_System_ReadEnlistmentLog_Location@@PAUClass_System_Object@@@Z 0202f960 f   DiskDrive.obj
 0001:0002e98c       ?m__ctor@Struct_System_ReadEnlistmentLog_Location@@SIXPAU1@PAUClass_System_ReadEnlistmentLog_LogChunk@@H@Z 0202f98c f   DiskDrive.obj
 0001:0002e9bc       ?m_ToString@uintPtr@@SIPAUClass_System_String@@PAPAU1@@Z 0202f9bc f   DiskDrive.obj
 0001:0002e9f0       ?m_ToString@uintPtr@@SIPAUClass_System_String@@PAPAU1@PAU2@@Z 0202f9f0 f   DiskDrive.obj
 0001:0002ea28       ?m_ToString@uintPtr@@SIPAUClass_System_String@@PAUClass_System_UIntPtr@@@Z 0202fa28 f   DiskDrive.obj
 0001:0002ea7c       ?m_ToString@uintPtr@@SIPAUClass_System_String@@PAUClass_System_UIntPtr@@PAU2@@Z 0202fa7c f   DiskDrive.obj
 0001:0002ead4       ?m_GetHashCode@uintPtr@@SIHPAPAU1@@Z 0202fad4 f   DiskDrive.obj
 0001:0002eaf8       ?m_GetHashCode@uintPtr@@SIHPAUClass_System_UIntPtr@@@Z 0202faf8 f   DiskDrive.obj
 0001:0002eb34       ?m_Equals@uintPtr@@SI_NPAPAU1@PAUClass_System_Object@@@Z 0202fb34 f   DiskDrive.obj
 0001:0002eb90       ?m_Equals@uintPtr@@SI_NPAUClass_System_UIntPtr@@PAUClass_System_Object@@@Z 0202fb90 f   DiskDrive.obj
 0001:0002ec18       ?m_StructCopy@Struct_System_GCs_CallStack_TransitionRecord@@SIXPAU1@0@Z 0202fc18 f   DiskDrive.obj
 0001:0002ec68       ?m_StructCopy@Struct_System_GCs_CallStack_TransitionRecord@@SIXPAU1@PAU1@@Z 0202fc68 f   DiskDrive.obj
 0001:0002ed58       ?m_Equals@Struct_System_GCs_CallStack_TransitionRecord@@SI_NPAU1@PAUClass_System_Object@@@Z 0202fd58 f   DiskDrive.obj
 0001:0002ee74       ?m_Equals@Struct_System_GCs_CallStack_TransitionRecord@@SI_NPAUClass_System_GCs_CallStack_TransitionRecord@@PAUClass_System_Object@@@Z 0202fe74 f   DiskDrive.obj
 0001:0002eea0       ?m_StructCopy@Struct_Microsoft_Singularity_Extending_ExtensionContract_AckShutdown@@SIXPAU1@0@Z 0202fea0 f   DiskDrive.obj
 0001:0002eebc       ?m_StructCopy@Struct_Microsoft_Singularity_Extending_ExtensionContract_AckShutdown@@SIXPAU1@PAU1@@Z 0202febc f   DiskDrive.obj
 0001:0002ef10       ?m_MarshallContent@Struct_Microsoft_Singularity_Extending_ExtensionContract_AckShutdown@@SIXPAU1@PAEPAUStruct_Microsoft_Singularity_Channels_Endpoint@@1PAH@Z 0202ff10 f   DiskDrive.obj
 0001:0002ef30       ?m_MarshallAll@Struct_Microsoft_Singularity_Extending_ExtensionContract_AckShutdown@@SIXPAU1@PAEPAUStruct_Microsoft_Singularity_Channels_Endpoint@@PAH@Z 0202ff30 f   DiskDrive.obj
 0001:0002ef88       ?m_Equals@Struct_Microsoft_Singularity_Extending_ExtensionContract_AckShutdown@@SI_NPAU1@PAUClass_System_Object@@@Z 0202ff88 f   DiskDrive.obj
 0001:0002efc0       ?m_Equals@Struct_Microsoft_Singularity_Extending_ExtensionContract_AckShutdown@@SI_NPAUClass_Microsoft_Singularity_Extending_ExtensionContract_AckShutdown@@PAUClass_System_Object@@@Z 0202ffc0 f   DiskDrive.obj
 0001:0002efec       ?g_get$_RangeMessage@Class_System_ArgumentOutOfRangeException@@SIPAUClass_System_String@@XZ 0202ffec f   DiskDrive.obj
 0001:0002f018       ?m_get$_Message@Class_System_ArgumentOutOfRangeException@@SIPAUClass_System_String@@PAU1@@Z 02030018 f   DiskDrive.obj
 0001:0002f090       ?m__ctor@Class_System_ArgumentOutOfRangeException@@SIXPAU1@@Z 02030090 f   DiskDrive.obj
 0001:0002f0b8       ?m__ctor@Class_System_ArgumentOutOfRangeException@@SIXPAU1@PAUClass_System_String@@@Z 020300b8 f   DiskDrive.obj
 0001:0002f0e8       ?m__ctor@Class_System_ArgumentOutOfRangeException@@SIXPAU1@PAUClass_System_String@@1@Z 020300e8 f   DiskDrive.obj
 0001:0002f118       ?m__ctor@Class_System_ArgumentOutOfRangeException@@SIXPAU1@PAUClass_System_String@@PAUClass_System_Object@@1@Z 02030118 f   DiskDrive.obj
 0001:0002f150       ?m_StructCopy@Struct_Microsoft_Singularity_Isal_ThreadRecord@@SIXPAU1@0@Z 02030150 f   DiskDrive.obj
 0001:0002f190       ?m_StructCopy@Struct_Microsoft_Singularity_Isal_ThreadRecord@@SIXPAU1@PAU1@@Z 02030190 f   DiskDrive.obj
 0001:0002f250       ?m_Equals@Struct_Microsoft_Singularity_Isal_ThreadRecord@@SI_NPAU1@PAUClass_System_Object@@@Z 02030250 f   DiskDrive.obj
 0001:0002f320       ?m_Equals@Struct_Microsoft_Singularity_Isal_ThreadRecord@@SI_NPAUClass_Microsoft_Singularity_Isal_ThreadRecord@@PAUClass_System_Object@@@Z 02030320 f   DiskDrive.obj
 0001:0002f34c       ?m_GetController@Class_Microsoft_Singularity_Eventing_GlobalStorage@@SIPAUClass_Microsoft_Singularity_Eventing_Controller@@PAU1@@Z 0203034c f   DiskDrive.obj
 0001:0002f380       ?m_Finalize@Class_Microsoft_Singularity_Eventing_GlobalStorage@@SIXPAU1@@Z 02030380 f   DiskDrive.obj
 0001:0002f3c4       ?m_Destroy@Class_Microsoft_Singularity_Eventing_GlobalStorage@@SIXPAU1@@Z 020303c4 f   DiskDrive.obj
 0001:0002f3f8       ?m_StructCopy@Struct_Microsoft_Singularity_Io_VolumeManagerContract_NakConnect@@SIXPAU1@0@Z 020303f8 f   DiskDrive.obj
 0001:0002f420       ?m_StructCopy@Struct_Microsoft_Singularity_Io_VolumeManagerContract_NakConnect@@SIXPAU1@PAU1@@Z 02030420 f   DiskDrive.obj
 0001:0002f498       ?m_MarshallContent@Struct_Microsoft_Singularity_Io_VolumeManagerContract_NakConnect@@SIXPAU1@PAEPAUStruct_Microsoft_Singularity_Channels_Endpoint@@1PAH@Z 02030498 f   DiskDrive.obj
 0001:0002f51c       ?m_MarshallAll@Struct_Microsoft_Singularity_Io_VolumeManagerContract_NakConnect@@SIXPAU1@PAEPAUStruct_Microsoft_Singularity_Channels_Endpoint@@PAH@Z 0203051c f   DiskDrive.obj
 0001:0002f574       ?m_Equals@Struct_Microsoft_Singularity_Io_VolumeManagerContract_NakConnect@@SI_NPAU1@PAUClass_System_Object@@@Z 02030574 f   DiskDrive.obj
 0001:0002f5bc       ?m_Equals@Struct_Microsoft_Singularity_Io_VolumeManagerContract_NakConnect@@SI_NPAUClass_Microsoft_Singularity_Io_VolumeManagerContract_NakConnect@@PAUClass_System_Object@@@Z 020305bc f   DiskDrive.obj
 0001:0002f5e8       ?m_FieldOffset@Class_System_GCs_Barrier_SlowCopyFieldsVisitor@@SIXPAU1@PAUuintPtr@@PAUStruct_System_GCs_ReferenceVisitor_ObjectDescriptor@@@Z 020305e8 f   DiskDrive.obj
 0001:0002f748       ?m__ctor@Class_System_GCs_Barrier_SlowCopyFieldsVisitor@@SIXPAU1@@Z 02030748 f   DiskDrive.obj
 0001:0002f76c       ?m_ToString@Struct_System_Decimal@@SIPAUClass_System_String@@PAU1@@Z 0203076c f   DiskDrive.obj
 0001:0002f794       ?m_ToString@Struct_System_Decimal@@SIPAUClass_System_String@@PAU1@PAU2@@Z 02030794 f   DiskDrive.obj
 0001:0002f818       ?m_ToString@Struct_System_Decimal@@SIPAUClass_System_String@@PAUClass_System_Decimal@@@Z 02030818 f   DiskDrive.obj
 0001:0002f860       ?m_ToString@Struct_System_Decimal@@SIPAUClass_System_String@@PAUClass_System_Decimal@@PAU2@@Z 02030860 f   DiskDrive.obj
 0001:0002f8ac       ?m_StructCopy@Struct_System_Decimal@@SIXPAU1@0@Z 020308ac f   DiskDrive.obj
 0001:0002f8f8       ?m_StructCopy@Struct_System_Decimal@@SIXPAU1@PAU1@@Z 020308f8 f   DiskDrive.obj
 0001:0002f9dc       ?m_set$_mid32@Struct_System_Decimal@@SIXPAU1@I@Z 020309dc f   DiskDrive.obj
 0001:0002fa04       ?m_set$_lo32@Struct_System_Decimal@@SIXPAU1@I@Z 02030a04 f   DiskDrive.obj
 0001:0002fa2c       ?m_set$_hi32@Struct_System_Decimal@@SIXPAU1@I@Z 02030a2c f   DiskDrive.obj
 0001:0002fa54       ?m_GetHashCode@Struct_System_Decimal@@SIHPAU1@@Z 02030a54 f   DiskDrive.obj
 0001:0002fab4       ?m_GetHashCode@Struct_System_Decimal@@SIHPAUClass_System_Decimal@@@Z 02030ab4 f   DiskDrive.obj
 0001:0002fafc       ?m_get$_scale@Struct_System_Decimal@@SIEPAU1@@Z 02030afc f   DiskDrive.obj
 0001:0002fb20       ?m_get$_negative@Struct_System_Decimal@@SI_NPAU1@@Z 02030b20 f   DiskDrive.obj
 0001:0002fb44       ?m_get$_mid32@Struct_System_Decimal@@SIIPAU1@@Z 02030b44 f   DiskDrive.obj
 0001:0002fb64       ?m_get$_lo32@Struct_System_Decimal@@SIIPAU1@@Z 02030b64 f   DiskDrive.obj
 0001:0002fb84       ?m_get$_hi32@Struct_System_Decimal@@SIIPAU1@@Z 02030b84 f   DiskDrive.obj
 0001:0002fba4       ?m_Equals@Struct_System_Decimal@@SI_NPAU1@PAUClass_System_Object@@@Z 02030ba4 f   DiskDrive.obj
 0001:0002fc78       ?m_Equals@Struct_System_Decimal@@SI_NPAUClass_System_Decimal@@PAUClass_System_Object@@@Z 02030c78 f   DiskDrive.obj
 0001:0002fcc4       ?g_Compare@Struct_System_Decimal@@SIHU1@0@Z 02030cc4 f   DiskDrive.obj
 0001:0002fce8       ?m__ctor@Struct_System_Decimal@@SIXPAU1@H@Z 02030ce8 f   DiskDrive.obj
 0001:0002fd48       ?m__ctor@Struct_System_Decimal@@SIXPAU1@HHH_NE@Z 02030d48 f   DiskDrive.obj
 0001:0002fdd8       ?g__cctor@Struct_System_Decimal@@SIXXZ 02030dd8 f   DiskDrive.obj
 0001:0002ff68       ?m_ToString@Struct_System_TimeSpan@@SIPAUClass_System_String@@PAU1@@Z 02030f68 f   DiskDrive.obj
 0001:00030198       ?m_ToString@Struct_System_TimeSpan@@SIPAUClass_System_String@@PAUClass_System_TimeSpan@@@Z 02031198 f   DiskDrive.obj
 0001:000301e0       ?m_Subtract@Struct_System_TimeSpan@@SI?AU1@PAU1@U1@@Z 020311e0 f   DiskDrive.obj
 0001:000302fc       ?m_StructCopy@Struct_System_TimeSpan@@SIXPAU1@0@Z 020312fc f   DiskDrive.obj
 0001:00030330       ?m_StructCopy@Struct_System_TimeSpan@@SIXPAU1@PAU1@@Z 02031330 f   DiskDrive.obj
 0001:000303cc       ?g_op$_Subtraction@Struct_System_TimeSpan@@SI?AU1@U1@0@Z 020313cc f   DiskDrive.obj
 0001:00030428       ?m_IntToString@Struct_System_TimeSpan@@SIPAUClass_System_String@@PAU1@HH@Z 02031428 f   DiskDrive.obj
 0001:00030474       ?g_Interval@Struct_System_TimeSpan@@SI?AU1@_JH@Z 02031474 f   DiskDrive.obj
 0001:00030588       ?m_GetHashCode@Struct_System_TimeSpan@@SIHPAU1@@Z 02031588 f   DiskDrive.obj
 0001:000305b4       ?m_GetHashCode@Struct_System_TimeSpan@@SIHPAUClass_System_TimeSpan@@@Z 020315b4 f   DiskDrive.obj
 0001:000305fc       ?m_get$_Ticks@Struct_System_TimeSpan@@SI_JPAU1@@Z 020315fc f   DiskDrive.obj
 0001:00030620       ?m_get$_Milliseconds@Struct_System_TimeSpan@@SIHPAU1@@Z 02031620 f   DiskDrive.obj
 0001:00030660       ?g_FromMilliseconds@Struct_System_TimeSpan@@SI?AU1@_J@Z 02031660 f   DiskDrive.obj
 0001:000306ac       ?m_Equals@Struct_System_TimeSpan@@SI_NPAU1@PAUClass_System_Object@@@Z 020316ac f   DiskDrive.obj
 0001:00030724       ?m_Equals@Struct_System_TimeSpan@@SI_NPAUClass_System_TimeSpan@@PAUClass_System_Object@@@Z 02031724 f   DiskDrive.obj
 0001:00030770       ?m__ctor@Struct_System_TimeSpan@@SIXPAU1@_J@Z 02031770 f   DiskDrive.obj
 0001:0003079c       ?g__cctor@Struct_System_TimeSpan@@SIXXZ 0203179c f   DiskDrive.obj
 0001:0003087c       ?m_StructCopy@Struct_System_GCs_SegregatedFreeList_PageHeader@@SIXPAU1@0@Z 0203187c f   DiskDrive.obj
 0001:000308d8       ?m_StructCopy@Struct_System_GCs_SegregatedFreeList_PageHeader@@SIXPAU1@PAU1@@Z 020318d8 f   DiskDrive.obj
 0001:000309ec       ?g_get$_Size@Struct_System_GCs_SegregatedFreeList_PageHeader@@SIHXZ 020319ec f   DiskDrive.obj
 0001:00030a04       ?m_Equals@Struct_System_GCs_SegregatedFreeList_PageHeader@@SI_NPAU1@PAUClass_System_Object@@@Z 02031a04 f   DiskDrive.obj
 0001:00030a8c       ?m_Equals@Struct_System_GCs_SegregatedFreeList_PageHeader@@SI_NPAUClass_System_GCs_SegregatedFreeList_PageHeader@@PAUClass_System_Object@@@Z 02031a8c f   DiskDrive.obj
 0001:00030ab8       ?m_StructCopy@Struct_System_TypedReference@@SIXPAU1@0@Z 02031ab8 f   DiskDrive.obj
 0001:00030aec       ?m_StructCopy@Struct_System_TypedReference@@SIXPAU1@PAU1@@Z 02031aec f   DiskDrive.obj
 0001:00030b88       ?g_RefAnyType@Struct_System_TypedReference@@SI?AUStruct_System_RuntimeTypeHandle@@U1@@Z 02031b88 f   DiskDrive.obj
 0001:00030bc0       ?g_MakeRefAny@Struct_System_TypedReference@@SI?AU1@PAUvoid@@PAUClass_System_RuntimeType@@@Z 02031bc0 f   DiskDrive.obj
 0001:00030c60       ?m_GetHashCode@Struct_System_TypedReference@@SIHPAU1@@Z 02031c60 f   DiskDrive.obj
 0001:00030cd4       ?m_GetHashCode@Struct_System_TypedReference@@SIHPAUClass_System_TypedReference@@@Z 02031cd4 f   DiskDrive.obj
 0001:00030cfc       ?m_Equals@Struct_System_TypedReference@@SI_NPAU1@PAUClass_System_Object@@@Z 02031cfc f   DiskDrive.obj
 0001:00030d3c       ?m_Equals@Struct_System_TypedReference@@SI_NPAUClass_System_TypedReference@@PAUClass_System_Object@@@Z 02031d3c f   DiskDrive.obj
 0001:00030d68       ?m__ctor@Struct_System_TypedReference@@SIXPAU1@PAUvoid@@PAUClass_System_RuntimeType@@@Z 02031d68 f   DiskDrive.obj
 0001:00030d98       ?m_StructCopy@Struct_System_LogEntryUndoAction@@SIXPAU1@0@Z 02031d98 f   DiskDrive.obj
 0001:00030dd0       ?m_StructCopy@Struct_System_LogEntryUndoAction@@SIXPAU1@PAU1@@Z 02031dd0 f   DiskDrive.obj
 0001:00030e78       ?m_Equals@Struct_System_LogEntryUndoAction@@SI_NPAU1@PAUClass_System_Object@@@Z 02031e78 f   DiskDrive.obj
 0001:00030f74       ?m_Equals@Struct_System_LogEntryUndoAction@@SI_NPAUClass_System_LogEntryUndoAction@@PAUClass_System_Object@@@Z 02031f74 f   DiskDrive.obj
 0001:00030fa0       ?g_WriteHelperShort@Class_System_Buffer@@SIXPAFF_N@Z 02031fa0 f   DiskDrive.obj
 0001:00030fe4       ?g_WriteHelperInt@Class_System_Buffer@@SIXPAHH_N@Z 02031fe4 f   DiskDrive.obj
 0001:00031020       ?g_WriteHelperByte@Class_System_Buffer@@SIXPAEE_N@Z 02032020 f   DiskDrive.obj
 0001:0003105c       ?g_ReadHelperShort@Class_System_Buffer@@SIFPAF_N@Z 0203205c f   DiskDrive.obj
 0001:00031094       ?g_ReadHelperInt@Class_System_Buffer@@SIHPAH_N@Z 02032094 f   DiskDrive.obj
 0001:000310c8       ?g_ReadHelperByte@Class_System_Buffer@@SIEPAE_N@Z 020320c8 f   DiskDrive.obj
 0001:000310fc       ?g_MoveMemoryVolatile@Class_System_Buffer@@SIXPAE0H@Z 020320fc f   DiskDrive.obj
 0001:000319e0       ?g_MoveMemoryImpl@Class_System_Buffer@@SIXPAE0H_N@Z 020329e0 f   DiskDrive.obj
 0001:00032728       ?g_MoveMemory@Class_System_Buffer@@SIXPAE0PAUuintPtr@@@Z 02033728 f   DiskDrive.obj
 0001:00032758       ?g_InitMemoryVolatile@Class_System_Buffer@@SIXPAEEH@Z 02033758 f   DiskDrive.obj
 0001:000329b8       ?g_InitMemoryImpl@Class_System_Buffer@@SIXPAEEH_N@Z 020339b8 f   DiskDrive.obj
 0001:00032c48       ?g_InitMemory@Class_System_Buffer@@SIXPAEEH@Z 02033c48 f   DiskDrive.obj
 0001:00032ea8       ?m__ctor@Class_System_Buffer@@SIXPAU1@@Z 02033ea8 f   DiskDrive.obj
 0001:00032ec4       ?m_StructCopy@Struct_Microsoft_Singularity_ProcessorContext@@SIXPAU1@0@Z 02033ec4 f   DiskDrive.obj
 0001:00032f5c       ?m_StructCopy@Struct_Microsoft_Singularity_ProcessorContext@@SIXPAU1@PAU1@@Z 02033f5c f   DiskDrive.obj
 0001:00033124       ?m_Equals@Struct_Microsoft_Singularity_ProcessorContext@@SI_NPAU1@PAUClass_System_Object@@@Z 02034124 f   DiskDrive.obj
 0001:00033268       ?m_Equals@Struct_Microsoft_Singularity_ProcessorContext@@SI_NPAUClass_Microsoft_Singularity_ProcessorContext@@PAUClass_System_Object@@@Z 02034268 f   DiskDrive.obj
 0001:00033294       ?m_StructCopy@Struct_Microsoft_Singularity_Io_VolumeManagerContract_Imp@@SIXPAU1@0@Z 02034294 f   DiskDrive.obj
 0001:000333c0       ?m_StructCopy@Struct_Microsoft_Singularity_Io_VolumeManagerContract_Imp@@SIXPAU1@PAU1@@Z 020343c0 f   DiskDrive.obj
 0001:00033744       ?m_SendRegisterDisk@Struct_Microsoft_Singularity_Io_VolumeManagerContract_Imp@@SIXPAU1@PA_W@Z 02034744 f   DiskDrive.obj
 0001:00033858       ?m_SendNakConnect@Struct_Microsoft_Singularity_Io_VolumeManagerContract_Imp@@SIXPAU1@PAUStruct_Microsoft_Singularity_Io_DiskDeviceContract_Exp@@@Z 02034858 f   DiskDrive.obj
 0001:000339d8       ?m_SendAckConnect@Struct_Microsoft_Singularity_Io_VolumeManagerContract_Imp@@SIXPAU1@@Z 020349d8 f   DiskDrive.obj
 0001:00033acc       ?m_Release@Struct_Microsoft_Singularity_Io_VolumeManagerContract_Imp@@SIXPAU1@@Z 02034acc f   DiskDrive.obj
 0001:00033ae8       ?m_RecvSuccess@Struct_Microsoft_Singularity_Io_VolumeManagerContract_Imp@@SIXPAU1@@Z 02034ae8 f   DiskDrive.obj
 0001:00033c60       ?m_RecvNakRegisterDisk@Struct_Microsoft_Singularity_Io_VolumeManagerContract_Imp@@SIXPAU1@@Z 02034c60 f   DiskDrive.obj
 0001:00033dd8       ?m_RecvContractNotSupported@Struct_Microsoft_Singularity_Io_VolumeManagerContract_Imp@@SIXPAU1@@Z 02034dd8 f   DiskDrive.obj
 0001:00033f50       ?m_RecvConnect@Struct_Microsoft_Singularity_Io_VolumeManagerContract_Imp@@SIXPAU1@PAPAUStruct_Microsoft_Singularity_Io_DiskDeviceContract_Exp@@PAEPA_K3@Z 02034f50 f   DiskDrive.obj
 0001:00034124       ?m_RecvAckRegisterDisk@Struct_Microsoft_Singularity_Io_VolumeManagerContract_Imp@@SIXPAU1@@Z 02035124 f   DiskDrive.obj
 0001:0003429c       ?m_Peek@Struct_Microsoft_Singularity_Io_VolumeManagerContract_Imp@@SIHPAU1@@Z 0203529c f   DiskDrive.obj
 0001:00034530       ?m_InState@Struct_Microsoft_Singularity_Io_VolumeManagerContract_Imp@@SI_NPAU1@H@Z 02035530 f   DiskDrive.obj
 0001:000345c0       ?m_HeadMatches@Struct_Microsoft_Singularity_Io_VolumeManagerContract_Imp@@SI_NPAU1@HPA_NPAPAUClass_System_Object@@@Z 020355c0 f   DiskDrive.obj
 0001:00034680       ?m_HeadMatches@Struct_Microsoft_Singularity_Io_VolumeManagerContract_Imp@@SI_NPAUClass_Microsoft_Singularity_Io_VolumeManagerContract_Imp@@HPA_NPAPAUClass_System_Object@@@Z 02035680 f   DiskDrive.obj
 0001:000346b8       ?m_Equals@Struct_Microsoft_Singularity_Io_VolumeManagerContract_Imp@@SI_NPAU1@PAUClass_System_Object@@@Z 020356b8 f   DiskDrive.obj
 0001:00034b3c       ?m_Equals@Struct_Microsoft_Singularity_Io_VolumeManagerContract_Imp@@SI_NPAUClass_Microsoft_Singularity_Io_VolumeManagerContract_Imp@@PAUClass_System_Object@@@Z 02035b3c f   DiskDrive.obj
 0001:00034b68       ?m_Dispose@Struct_Microsoft_Singularity_Io_VolumeManagerContract_Imp@@SIXPAU1@@Z 02035b68 f   DiskDrive.obj
 0001:00034b8c       ?m_CurrentState@Struct_Microsoft_Singularity_Io_VolumeManagerContract_Imp@@SIPAUClass_System_String@@PAU1@@Z 02035b8c f   DiskDrive.obj
 0001:00034c64       ?m_Acquire@Struct_Microsoft_Singularity_Io_VolumeManagerContract_Imp@@SIXPAU1@@Z 02035c64 f   DiskDrive.obj
 0001:00034c80       ?g_ToLower@Class_System_Globalization_TextInfo@@SIPAUClass_System_String@@PAU2@@Z 02035c80 f   DiskDrive.obj
 0001:00034d90       ?g_GetLowerUpperCase@Class_System_Globalization_TextInfo@@SI_WPAUClassVector_int16@@_W@Z 02035d90 f   DiskDrive.obj
 0001:00034e30       ?m__ctor@Class_System_Globalization_TextInfo@@SIXPAU1@@Z 02035e30 f   DiskDrive.obj
 0001:00034e48       ?g__cctor@Class_System_Globalization_TextInfo@@SIXXZ 02035e48 f   DiskDrive.obj
 0001:00034e5c       ?m_WaitOneNoGC@Class_System_Threading_AutoResetEvent@@SI_NPAU1@@Z 02035e5c f   DiskDrive.obj
 0001:00034ec4       ?m_WaitOne@Class_System_Threading_AutoResetEvent@@SI_NPAU1@@Z 02035ec4 f   DiskDrive.obj
 0001:00034f38       ?m_WaitOne@Class_System_Threading_AutoResetEvent@@SI_NPAU1@UStruct_System_TimeSpan@@@Z 02035f38 f   DiskDrive.obj
 0001:00034fc0       ?m_WaitOne@Class_System_Threading_AutoResetEvent@@SI_NPAU1@UStruct_System_SchedulerTime@@@Z 02035fc0 f   DiskDrive.obj
 0001:00035048       ?m_SetNoGC@Class_System_Threading_AutoResetEvent@@SIXPAU1@@Z 02036048 f   DiskDrive.obj
 0001:00035078       ?m_Set@Class_System_Threading_AutoResetEvent@@SIXPAU1@@Z 02036078 f   DiskDrive.obj
 0001:000350b0       ?m_Finalize@Class_System_Threading_AutoResetEvent@@SIXPAU1@@Z 020360b0 f   DiskDrive.obj
 0001:00035114       ?m_Dispose@Class_System_Threading_AutoResetEvent@@SIXPAU1@_N@Z 02036114 f   DiskDrive.obj
 0001:00035160       ?m__ctor@Class_System_Threading_AutoResetEvent@@SIXPAU1@_N@Z 02036160 f   DiskDrive.obj
 0001:000351cc       ?m_StructCopy@Struct_Microsoft_Singularity_Io_VolumeManagerContract_RegisterDisk@@SIXPAU1@0@Z 020361cc f   DiskDrive.obj
 0001:000351f4       ?m_StructCopy@Struct_Microsoft_Singularity_Io_VolumeManagerContract_RegisterDisk@@SIXPAU1@PAU1@@Z 020361f4 f   DiskDrive.obj
 0001:0003526c       ?m_MarshallContent@Struct_Microsoft_Singularity_Io_VolumeManagerContract_RegisterDisk@@SIXPAU1@PAEPAUStruct_Microsoft_Singularity_Channels_Endpoint@@1PAH@Z 0203626c f   DiskDrive.obj
 0001:0003532c       ?m_MarshallAll@Struct_Microsoft_Singularity_Io_VolumeManagerContract_RegisterDisk@@SIXPAU1@PAEPAUStruct_Microsoft_Singularity_Channels_Endpoint@@PAH@Z 0203632c f   DiskDrive.obj
 0001:00035384       ?m_Equals@Struct_Microsoft_Singularity_Io_VolumeManagerContract_RegisterDisk@@SI_NPAU1@PAUClass_System_Object@@@Z 02036384 f   DiskDrive.obj
 0001:000353cc       ?m_Equals@Struct_Microsoft_Singularity_Io_VolumeManagerContract_RegisterDisk@@SI_NPAUClass_Microsoft_Singularity_Io_VolumeManagerContract_RegisterDisk@@PAUClass_System_Object@@@Z 020363cc f   DiskDrive.obj
 0001:000353f8       ?m_InitializeFromExistingHandle@Class_Microsoft_Singularity_Eventing_MemoryStorage@@SI_NPAU1@@Z 020363f8 f   DiskDrive.obj
 0001:000354a0       ?m_Initialize@Class_Microsoft_Singularity_Eventing_MemoryStorage@@SI_NPAU1@_K@Z 020364a0 f   DiskDrive.obj
 0001:000355e4       ?m_Finalize@Class_Microsoft_Singularity_Eventing_MemoryStorage@@SIXPAU1@@Z 020365e4 f   DiskDrive.obj
 0001:00035628       ?m_Destroy@Class_Microsoft_Singularity_Eventing_MemoryStorage@@SIXPAU1@@Z 02036628 f   DiskDrive.obj
 0001:00035658       ?m_AddBuffer@Class_Microsoft_Singularity_Eventing_MemoryStorage@@SI_NPAU1@_K@Z 02036658 f   DiskDrive.obj
 0001:00035724       ?m__ctor@Class_Microsoft_Singularity_Eventing_MemoryStorage@@SIXPAU1@@Z 02036724 f   DiskDrive.obj
 0001:00035750       ?m_StructCopy@Struct_System_InterfaceInfo@@SIXPAU1@0@Z 02036750 f   DiskDrive.obj
 0001:00035784       ?m_StructCopy@Struct_System_InterfaceInfo@@SIXPAU1@PAU1@@Z 02036784 f   DiskDrive.obj
 0001:00035820       ?m_Equals@Struct_System_InterfaceInfo@@SI_NPAU1@PAUClass_System_Object@@@Z 02036820 f   DiskDrive.obj
 0001:00035880       ?m_Equals@Struct_System_InterfaceInfo@@SI_NPAUClass_System_InterfaceInfo@@PAUClass_System_Object@@@Z 02036880 f   DiskDrive.obj
 0001:000358ac       ?m_InvokeStaticStub@Class_System_Threading_Thread_StopServiceNotice@@SIXPAU1@@Z 020368ac f   DiskDrive.obj
 0001:000358d4       ?m_Invoke@Class_System_Threading_Thread_StopServiceNotice@@SIXPAU1@@Z 020368d4 f   DiskDrive.obj
 0001:00035928       ?m_EndInvoke@Class_System_Threading_Thread_StopServiceNotice@@SIXPAU1@PAUClass_System_IAsyncResult@@@Z 02036928 f   DiskDrive.obj
 0001:00035944       ?m_BeginInvoke@Class_System_Threading_Thread_StopServiceNotice@@SIPAUClass_System_IAsyncResult@@PAU1@PAUClass_System_AsyncCallback@@PAUClass_System_Object@@@Z 02036944 f   DiskDrive.obj
 0001:00035964       ?m__ctor@Class_System_Threading_Thread_StopServiceNotice@@SIXPAU1@PAUClass_System_Object@@PAUintPtr@@@Z 02036964 f   DiskDrive.obj
 0001:000359c8       ?m__ctor@Class_System_InvalidOperationException@@SIXPAU1@@Z 020369c8 f   DiskDrive.obj
 0001:000359f0       ?m__ctor@Class_System_InvalidOperationException@@SIXPAU1@PAUClass_System_String@@@Z 020369f0 f   DiskDrive.obj
 0001:00035a18       ?g_GetStartupEndpoint@Class_System_Process@@SIPAUStruct_Microsoft_Singularity_Channels_Endpoint@@H@Z 02036a18 f   DiskDrive.obj
 0001:00035a98       ?m_Finalize@Class_System_Process@@SIXPAU1@@Z 02036a98 f   DiskDrive.obj
 0001:00035ab0       ?m_Visit@Class_System_GCs_GCProfiler_RootVisitor@@SIXPAU1@PAPAUuintPtr@@@Z 02036ab0 f   DiskDrive.obj
 0001:00035adc       ?m__ctor@Class_System_GCs_GCProfiler_RootVisitor@@SIXPAU1@PAUClass_System_GCs_GCProfiler@@@Z 02036adc f   DiskDrive.obj
 0001:00035b0c       ?m_StructCopy@Struct_Microsoft_Singularity_V1_Types_SystemType@@SIXPAU1@0@Z 02036b0c f   DiskDrive.obj
 0001:00035b34       ?m_StructCopy@Struct_Microsoft_Singularity_V1_Types_SystemType@@SIXPAU1@PAU1@@Z 02036b34 f   DiskDrive.obj
 0001:00035bac       ?g_IsNull@Struct_Microsoft_Singularity_V1_Types_SystemType@@SI_NU1@@Z 02036bac f   DiskDrive.obj
 0001:00035bd0       ?m_get$_TypeId@Struct_Microsoft_Singularity_V1_Types_SystemType@@SIPAUuintPtr@@PAU1@@Z 02036bd0 f   DiskDrive.obj
 0001:00035bf0       ?m_Equals@Struct_Microsoft_Singularity_V1_Types_SystemType@@SI_NPAU1@PAUClass_System_Object@@@Z 02036bf0 f   DiskDrive.obj
 0001:00035c38       ?m_Equals@Struct_Microsoft_Singularity_V1_Types_SystemType@@SI_NPAUClass_Microsoft_Singularity_V1_Types_SystemType@@PAUClass_System_Object@@@Z 02036c38 f   DiskDrive.obj
 0001:00035c64       ?m_StructCopy@Struct_System_VarargList@@SIXPAU1@0@Z 02036c64 f   DiskDrive.obj
 0001:00035c8c       ?m_StructCopy@Struct_System_VarargList@@SIXPAU1@PAU1@@Z 02036c8c f   DiskDrive.obj
 0001:00035d04       ?m_Equals@Struct_System_VarargList@@SI_NPAU1@PAUClass_System_Object@@@Z 02036d04 f   DiskDrive.obj
 0001:00035d4c       ?m_Equals@Struct_System_VarargList@@SI_NPAUClass_System_VarargList@@PAUClass_System_Object@@@Z 02036d4c f   DiskDrive.obj
 0001:00035d78       ?g_Create@Struct_System_VarargList@@SI?AU1@H@Z 02036d78 f   DiskDrive.obj
 0001:00035da8       ?m_StartScanOneObject@Class_Microsoft_Singularity_GCProfilerLogger@@SIXPAU1@PAUuintPtr@@PAUClass_System_Type@@1@Z 02036da8 f   DiskDrive.obj
 0001:00035e68       ?g_StartProfiling@Class_Microsoft_Singularity_GCProfilerLogger@@SIXXZ 02036e68 f   DiskDrive.obj
 0001:00035f70       ?m_Shutdown@Class_Microsoft_Singularity_GCProfilerLogger@@SIXPAU1@@Z 02036f70 f   DiskDrive.obj
 0001:00035f9c       ?m_ScanOneRoot@Class_Microsoft_Singularity_GCProfilerLogger@@SIXPAU1@PAUuintPtr@@@Z 02036f9c f   DiskDrive.obj
 0001:0003604c       ?m_ScanOneObjectField@Class_Microsoft_Singularity_GCProfilerLogger@@SIXPAU1@PAUuintPtr@@@Z 0203704c f   DiskDrive.obj
 0001:000360c0       ?m_PreGC@Class_Microsoft_Singularity_GCProfilerLogger@@SIXPAU1@H@Z 020370c0 f   DiskDrive.obj
 0001:000361a0       ?m_PostGC@Class_Microsoft_Singularity_GCProfilerLogger@@SIXPAU1@@Z 020371a0 f   DiskDrive.obj
 0001:00036278       ?m_Initialize@Class_Microsoft_Singularity_GCProfilerLogger@@SIXPAU1@_K1@Z 02037278 f   DiskDrive.obj
 0001:00036468       ?m_GetTypeId@Class_Microsoft_Singularity_GCProfilerLogger@@SIIPAU1@PAUClass_System_Type@@@Z 02037468 f   DiskDrive.obj
 0001:00036530       ?m_GetStackId@Class_Microsoft_Singularity_GCProfilerLogger@@SIIPAU1@PAUClass_System_Type@@PAUuintPtr@@PAUClassVector_uintPtr@@I@Z 02037530 f   DiskDrive.obj
 0001:00036890       ?m_GetFunctionId@Class_Microsoft_Singularity_GCProfilerLogger@@SIIPAU1@PAUuintPtr@@@Z 02037890 f   DiskDrive.obj
 0001:0003698c       ?m_EndScanOneObject@Class_Microsoft_Singularity_GCProfilerLogger@@SIXPAU1@@Z 0203798c f   DiskDrive.obj
 0001:000369f0       ?m_Allocation@Class_Microsoft_Singularity_GCProfilerLogger@@SIXPAU1@PAUuintPtr@@PAUClass_System_Type@@1@Z 020379f0 f   DiskDrive.obj
 0001:00036b80       ?m__ctor@Class_Microsoft_Singularity_GCProfilerLogger@@SIXPAU1@@Z 02037b80 f   DiskDrive.obj
 0001:00036ba4       ?g__cctor@Class_Microsoft_Singularity_GCProfilerLogger@@SIXXZ 02037ba4 f   DiskDrive.obj
 0001:00036bb8       ?m_Write8@Class_Microsoft_Singularity_Io_IoMemory@@SIXPAU1@HE@Z 02037bb8 f   DiskDrive.obj
 0001:00036c28       ?m_Write32@Class_Microsoft_Singularity_Io_IoMemory@@SIXPAU1@HI@Z 02037c28 f   DiskDrive.obj
 0001:00036c98       ?m_Write16@Class_Microsoft_Singularity_Io_IoMemory@@SIXPAU1@HG@Z 02037c98 f   DiskDrive.obj
 0001:00036d0c       ?m_ToString@Class_Microsoft_Singularity_Io_IoMemory@@SIPAUClass_System_String@@PAU1@@Z 02037d0c f   DiskDrive.obj
 0001:00036de0       ?m_Read8@Class_Microsoft_Singularity_Io_IoMemory@@SIEPAU1@H@Z 02037de0 f   DiskDrive.obj
 0001:00036e4c       ?m_Read32@Class_Microsoft_Singularity_Io_IoMemory@@SIIPAU1@H@Z 02037e4c f   DiskDrive.obj
 0001:00036eb8       ?m_Read16@Class_Microsoft_Singularity_Io_IoMemory@@SIGPAU1@H@Z 02037eb8 f   DiskDrive.obj
 0001:00036f24       ?g_PagePad@Class_Microsoft_Singularity_Io_IoMemory@@SIPAUuintPtr@@PAU2@@Z 02037f24 f   DiskDrive.obj
 0001:00036f4c       ?m_get$_VirtualAddress@Class_Microsoft_Singularity_Io_IoMemory@@SIPAUuintPtr@@PAU1@@Z 02037f4c f   DiskDrive.obj
 0001:00036f6c       ?m_get$_PhysicalAddress@Class_Microsoft_Singularity_Io_IoMemory@@SI?AUStruct_Microsoft_Singularity_Memory_PhysicalAddress@@PAU1@@Z 02037f6c f   DiskDrive.obj
 0001:00036fb0       ?g_AllocatePhysical@Class_Microsoft_Singularity_Io_IoMemory@@SIPAU1@PAUuintPtr@@0@Z 02037fb0 f   DiskDrive.obj
 0001:00036fe0       ?g_AllocatePhysical@Class_Microsoft_Singularity_Io_IoMemory@@SIPAU1@PAUuintPtr@@00@Z 02037fe0 f   DiskDrive.obj
 0001:000370cc       ?m__ctor@Class_Microsoft_Singularity_Io_IoMemory@@SIXPAU1@UStruct_Microsoft_Singularity_Io_IoMemory_MemoryType@@UStruct_Microsoft_Singularity_Memory_PhysicalAddress@@PAUuintPtr@@H_N4@Z 020380cc f   DiskDrive.obj
 0001:00037178       ?m__ctor@Class_System_Runtime_CompilerServices_NoStackOverflowCheckAttribute@@SIXPAU1@@Z 02038178 f   DiskDrive.obj
 0001:0003719c       ?m_InvokeStaticStub@Class_System_GCs_ProfileObjectsDelegate@@SIXPAU1@PAUClass_System_GCs_SegregatedFreeList_ObjectVisitor@@@Z 0203819c f   DiskDrive.obj
 0001:000371cc       ?m_Invoke@Class_System_GCs_ProfileObjectsDelegate@@SIXPAU1@PAUClass_System_GCs_SegregatedFreeList_ObjectVisitor@@@Z 020381cc f   DiskDrive.obj
 0001:00037228       ?m_EndInvoke@Class_System_GCs_ProfileObjectsDelegate@@SIXPAU1@PAUClass_System_IAsyncResult@@@Z 02038228 f   DiskDrive.obj
 0001:00037244       ?m_BeginInvoke@Class_System_GCs_ProfileObjectsDelegate@@SIPAUClass_System_IAsyncResult@@PAU1@PAUClass_System_GCs_SegregatedFreeList_ObjectVisitor@@PAUClass_System_AsyncCallback@@PAUClass_System_Object@@@Z 02038244 f   DiskDrive.obj
 0001:00037264       ?m__ctor@Class_System_GCs_ProfileObjectsDelegate@@SIXPAU1@PAUClass_System_Object@@PAUintPtr@@@Z 02038264 f   DiskDrive.obj
 0001:000372c8       ?m_StructCopy@Struct_Microsoft_Singularity_V1_Processes_ProcessHandle@@SIXPAU1@0@Z 020382c8 f   DiskDrive.obj
 0001:000372f0       ?m_StructCopy@Struct_Microsoft_Singularity_V1_Processes_ProcessHandle@@SIXPAU1@PAU1@@Z 020382f0 f   DiskDrive.obj
 0001:00037368       ?m_Equals@Struct_Microsoft_Singularity_V1_Processes_ProcessHandle@@SI_NPAU1@PAUClass_System_Object@@@Z 02038368 f   DiskDrive.obj
 0001:000373b0       ?m_Equals@Struct_Microsoft_Singularity_V1_Processes_ProcessHandle@@SI_NPAUClass_Microsoft_Singularity_V1_Processes_ProcessHandle@@PAUClass_System_Object@@@Z 020383b0 f   DiskDrive.obj
 0001:000373dc       ?g_StableState@Class_Microsoft_Singularity_Directory_ServiceProviderContract@@SIHPAUStruct_Microsoft_Singularity_Channels_StateStack@@@Z 020383dc f   DiskDrive.obj
 0001:00037438       ?m__ctor@Class_Microsoft_Singularity_Directory_ServiceProviderContract@@SIXPAU1@@Z 02038438 f   DiskDrive.obj
 0001:00037450       ?g_WriterIsValid@Class_System_UpdateEnlistmentLog@@SI_NUStruct_System_UpdateEnlistmentLogWriter@@@Z 02038450 f   DiskDrive.obj
 0001:00037470       ?m_VisitWeakRefs@Class_System_UpdateEnlistmentLog@@SIXPAU1@PAUClass_System_TryAllManager@@PAUClass_System_GCs_DirectReferenceVisitor@@@Z 02038470 f   DiskDrive.obj
 0001:000379d4       ?g_SyncFromWriter@Class_System_UpdateEnlistmentLog@@SIXPAUClass_System_TryAllManager@@@Z 020389d4 f   DiskDrive.obj
 0001:00037a58       ?m_NotEmpty@Class_System_UpdateEnlistmentLog@@SI_NPAU1@@Z 02038a58 f   DiskDrive.obj
 0001:00037a94       ?g_InitWriter@Class_System_UpdateEnlistmentLog@@SIXPAUClass_System_TryAllManager@@@Z 02038a94 f   DiskDrive.obj
 0001:00037b10       ?m_get$_CurrentLocation@Class_System_UpdateEnlistmentLog@@SI?AUStruct_System_UpdateEnlistmentLog_Location@@PAU1@@Z 02038b10 f   DiskDrive.obj
 0001:00037ba4       ?m_AddrToIndex@Class_System_UpdateEnlistmentLog@@SIIPAU1@PAUStruct_System_UpdateEnlistmentLog_Entry@@@Z 02038ba4 f   DiskDrive.obj
 0001:00037c34       ?g_AddrOfEntry@Class_System_UpdateEnlistmentLog@@SIPAUStruct_System_UpdateEnlistmentLog_Entry@@PAUClassVector_Struct_System_UpdateEnlistmentLog_Entry@@H@Z 02038c34 f   DiskDrive.obj
 0001:00037cc0       ?m_AddrOfEntry@Class_System_UpdateEnlistmentLog@@SIPAUStruct_System_UpdateEnlistmentLog_Entry@@PAU1@H@Z 02038cc0 f   DiskDrive.obj
 0001:00037d0c       ?m_AddCapacity@Class_System_UpdateEnlistmentLog@@SIXPAU1@PAUClass_System_TryAllManager@@@Z 02038d0c f   DiskDrive.obj
 0001:00037df4       ?m__ctor@Class_System_UpdateEnlistmentLog@@SIXPAU1@PAUClass_System_TryAllManager@@@Z 02038df4 f   DiskDrive.obj
 0001:00037e1c       ?g_QuickScanLongerString@Class_System_Globalization_CompareInfo@@SIHPAUClass_System_String@@HHHHHHH@Z 02038e1c f   DiskDrive.obj
 0001:00037ee4       ?g_GetUnicode@Class_System_Globalization_CompareInfo@@SIG_W@Z 02038ee4 f   DiskDrive.obj
 0001:00037f8c       ?g_GetDiacritic@Class_System_Globalization_CompareInfo@@SIE_W@Z 02038f8c f   DiskDrive.obj
 0001:00038030       ?g_GetCase@Class_System_Globalization_CompareInfo@@SIE_W@Z 02039030 f   DiskDrive.obj
 0001:000380d4       ?g_GET$_SCRIPT$_MEMBER@Class_System_Globalization_CompareInfo@@SIEG@Z 020390d4 f   DiskDrive.obj
 0001:00038100       ?g_GET$_ALPHA$_NUMERIC@Class_System_Globalization_CompareInfo@@SIEG@Z 02039100 f   DiskDrive.obj
 0001:00038128       ?g_CompareString@Class_System_Globalization_CompareInfo@@SIHUStruct_System_Globalization_CompareOptions@@PAUClass_System_String@@HH1HH@Z 02039128 f   DiskDrive.obj
 0001:00038820       ?g_CompareOrdinal@Class_System_Globalization_CompareInfo@@SIHPAUClass_System_String@@HH0HH@Z 02039820 f   DiskDrive.obj
 0001:0003891c       ?g_Compare@Class_System_Globalization_CompareInfo@@SIHPAUClass_System_String@@0UStruct_System_Globalization_CompareOptions@@@Z 0203991c f   DiskDrive.obj
 0001:00038a4c       ?m__ctor@Class_System_Globalization_CompareInfo@@SIXPAU1@@Z 02039a4c f   DiskDrive.obj
 0001:00038a64       ?g__cctor@Class_System_Globalization_CompareInfo@@SIXXZ 02039a64 f   DiskDrive.obj
 0001:00038a78       ?m_TrimHelper@Class_System_String@@SIPAU1@PAU1@PAUClassVector_bartok_char@@H@Z 02039a78 f   DiskDrive.obj
 0001:00038b50       ?m_TrimHelper@Class_System_String@@SIXPAU1@PAUClassVector_bartok_char@@HPAH2@Z 02039b50 f   DiskDrive.obj
 0001:00038c80       ?m_Trim@Class_System_String@@SIPAU1@PAU1@PAUClassVector_bartok_char@@@Z 02039c80 f   DiskDrive.obj
 0001:00038cec       ?m_ToString@Class_System_String@@SIPAU1@PAU1@@Z 02039cec f   DiskDrive.obj
 0001:00038d0c       ?m_ToLower@Class_System_String@@SIPAU1@PAU1@@Z 02039d0c f   DiskDrive.obj
 0001:00038d44       ?m_ToCharArray@Class_System_String@@SIPAUClassVector_bartok_char@@PAU1@@Z 02039d44 f   DiskDrive.obj
 0001:00038d74       ?m_ToCharArray@Class_System_String@@SIPAUClassVector_bartok_char@@PAU1@HH@Z 02039d74 f   DiskDrive.obj
 0001:00038e5c       ?m_Substring@Class_System_String@@SIPAU1@PAU1@H@Z 02039e5c f   DiskDrive.obj
 0001:00038e94       ?m_Substring@Class_System_String@@SIPAU1@PAU1@HH@Z 02039e94 f   DiskDrive.obj
 0001:00038f94       ?g_StringCTOR@Class_System_String@@SIPAU1@PA_WHH@Z 02039f94 f   DiskDrive.obj
 0001:0003906c       ?g_StringCTOR@Class_System_String@@SIPAU1@PAUClassVector_bartok_char@@HH@Z 0203a06c f   DiskDrive.obj
 0001:00039168       ?m_SetLength@Class_System_String@@SIXPAU1@H@Z 0203a168 f   DiskDrive.obj
 0001:000391a8       ?m_Replace@Class_System_String@@SIPAU1@PAU1@_W1@Z 0203a1a8 f   DiskDrive.obj
 0001:000391fc       ?m_Replace@Class_System_String@@SIXPAU1@_W10@Z 0203a1fc f   DiskDrive.obj
 0001:000392f8       ?m_PadRight@Class_System_String@@SIPAU1@PAU1@H_W@Z 0203a2f8 f   DiskDrive.obj
 0001:0003932c       ?m_PadLeft@Class_System_String@@SIPAU1@PAU1@H_W@Z 0203a32c f   DiskDrive.obj
 0001:00039360       ?m_PadHelper@Class_System_String@@SIPAU1@PAU1@H_W_N@Z 0203a360 f   DiskDrive.obj
 0001:0003944c       ?g_op$_Inequality@Class_System_String@@SI_NPAU1@0@Z 0203a44c f   DiskDrive.obj
 0001:00039478       ?m_NullTerminate@Class_System_String@@SIXPAU1@@Z 0203a478 f   DiskDrive.obj
 0001:000394d0       ?g_LimitedFormatTo@Class_System_String@@SIHPAU1@UStruct_System_ArgIterator@@PA_WH@Z 0203a4d0 f   DiskDrive.obj
 0001:00039cac       ?m_LastIndexOf@Class_System_String@@SIHPAU1@_W@Z 0203acac f   DiskDrive.obj
 0001:00039cf4       ?m_LastIndexOf@Class_System_String@@SIHPAU1@_WHH@Z 0203acf4 f   DiskDrive.obj
 0001:00039e6c       ?m_InternalLength@Class_System_String@@SIHPAU1@@Z 0203ae6c f   DiskDrive.obj
 0001:00039e8c       ?m_InternalGetChar@Class_System_String@@SI_WPAU1@H@Z 0203ae8c f   DiskDrive.obj
 0001:00039f08       ?m_InternalCopyTo@Class_System_String@@SIXPAU1@HPAUClassVector_bartok_char@@HH@Z 0203af08 f   DiskDrive.obj
 0001:0003a02c       ?g_InternalCopy@Class_System_String@@SIPAU1@PAU1@@Z 0203b02c f   DiskDrive.obj
 0001:0003a08c       ?g_InternalCopy@Class_System_String@@SIXPAU1@PAUClassVector_uint8@@H@Z 0203b08c f   DiskDrive.obj
 0001:0003a154       ?m_InitializeStringLength@Class_System_String@@SIXPAU1@H@Z 0203b154 f   DiskDrive.obj
 0001:0003a188       ?g_GetStringForStringBuilder@Class_System_String@@SIPAU1@PAU1@H@Z 0203b188 f   DiskDrive.obj
 0001:0003a230       ?m_GetHashCode@Class_System_String@@SIHPAU1@@Z 0203b230 f   DiskDrive.obj
 0001:0003a32c       ?m_get$_Length@Class_System_String@@SIHPAU1@@Z 0203b32c f   DiskDrive.obj
 0001:0003a350       ?m_get$_Item@Class_System_String@@SI_WPAU1@H@Z 0203b350 f   DiskDrive.obj
 0001:0003a378       ?m_get$_Capacity@Class_System_String@@SIHPAU1@@Z 0203b378 f   DiskDrive.obj
 0001:0003a39c       ?m_get$_ArrayLength@Class_System_String@@SIHPAU1@@Z 0203b39c f   DiskDrive.obj
 0001:0003a3bc       ?g_Format@Class_System_String@@SIPAU1@PAU1@PAUClassVector_Class_System_Object@@@Z 0203b3bc f   DiskDrive.obj
 0001:0003a4b4       ?g_Format@Class_System_String@@SIPAU1@PAU1@PAUClass_System_Object@@@Z 0203b4b4 f   DiskDrive.obj
 0001:0003a50c       ?g_Format@Class_System_String@@SIPAU1@PAU1@PAUClass_System_Object@@1@Z 0203b50c f   DiskDrive.obj
 0001:0003a570       ?g_Format@Class_System_String@@SIPAU1@PAU1@PAUClass_System_Object@@11@Z 0203b570 f   DiskDrive.obj
 0001:0003a5e4       ?g_FillSubstring@Class_System_String@@SIXPAU1@H0HH@Z 0203b5e4 f   DiskDrive.obj
 0001:0003a648       ?g_FillStringEx@Class_System_String@@SIXPAU1@H0H@Z 0203b648 f   DiskDrive.obj
 0001:0003a6a4       ?g_FillStringChecked@Class_System_String@@SIXPAU1@H0@Z 0203b6a4 f   DiskDrive.obj
 0001:0003a744       ?g_FillStringCharPtr@Class_System_String@@SIXPAU1@HPA_WH@Z 0203b744 f   DiskDrive.obj
 0001:0003a7b8       ?g_FillStringChar@Class_System_String@@SIXPAU1@H_WH@Z 0203b7b8 f   DiskDrive.obj
 0001:0003a8d4       ?g_FillStringArray@Class_System_String@@SIXPAU1@HPAUClassVector_bartok_char@@HH@Z 0203b8d4 f   DiskDrive.obj
 0001:0003a940       ?g_FillString@Class_System_String@@SIXPAU1@H0@Z 0203b940 f   DiskDrive.obj
 0001:0003a9a0       ?g_FastAllocateString@Class_System_String@@SIPAU1@H@Z 0203b9a0 f   DiskDrive.obj
 0001:0003aaa4       ?g_Equals@Class_System_String@@SI_NPAU1@0@Z 0203baa4 f   DiskDrive.obj
 0001:0003ab04       ?m_Equals@Class_System_String@@SI_NPAU1@0@Z 0203bb04 f   DiskDrive.obj
 0001:0003ac04       ?m_Equals@Class_System_String@@SI_NPAU1@PAUClass_System_Object@@@Z 0203bc04 f   DiskDrive.obj
 0001:0003ac54       ?g_CreateStringFromASCII@Class_System_String@@SIPAU1@PAUClassVector_uint8@@HH@Z 0203bc54 f   DiskDrive.obj
 0001:0003adb4       ?g_CountDigits@Class_System_String@@SIH_KI@Z 0203bdb4 f   DiskDrive.obj
 0001:0003ae4c       ?g_ConcatArray@Class_System_String@@SIPAU1@PAUClassVector_Class_System_String@@H@Z 0203be4c f   DiskDrive.obj
 0001:0003af2c       ?g_Concat@Class_System_String@@SIPAU1@PAUClassVector_Class_System_String@@@Z 0203bf2c f   DiskDrive.obj
 0001:0003b078       ?g_Concat@Class_System_String@@SIPAU1@PAUClassVector_Class_System_Object@@@Z 0203c078 f   DiskDrive.obj
 0001:0003b1d0       ?g_Concat@Class_System_String@@SIPAU1@PAU1@0@Z 0203c1d0 f   DiskDrive.obj
 0001:0003b274       ?g_Concat@Class_System_String@@SIPAU1@PAU1@00@Z 0203c274 f   DiskDrive.obj
 0001:0003b3b4       ?g_Concat@Class_System_String@@SIPAU1@PAU1@000@Z 0203c3b4 f   DiskDrive.obj
 0001:0003b554       ?g_Concat@Class_System_String@@SIPAU1@PAUClass_System_Object@@@Z 0203c554 f   DiskDrive.obj
 0001:0003b588       ?g_Concat@Class_System_String@@SIPAU1@PAUClass_System_Object@@0@Z 0203c588 f   DiskDrive.obj
 0001:0003b5f0       ?g_Concat@Class_System_String@@SIPAU1@PAUClass_System_Object@@00@Z 0203c5f0 f   DiskDrive.obj
 0001:0003b67c       ?g_Compare@Class_System_String@@SIHPAU1@0_N@Z 0203c67c f   DiskDrive.obj
 0001:0003b6f0       ?m_ClearPostNullChar@Class_System_String@@SIXPAU1@@Z 0203c6f0 f   DiskDrive.obj
 0001:0003b768       ?g_ArrayContains@Class_System_String@@SIH_WPAUClassVector_bartok_char@@@Z 0203c768 f   DiskDrive.obj
 0001:0003b7f8       ?m_AppendInPlace@Class_System_String@@SIXPAU1@PAUClassVector_bartok_char@@HHH@Z 0203c7f8 f   DiskDrive.obj
 0001:0003b894       ?m_AppendInPlace@Class_System_String@@SIXPAU1@0H@Z 0203c894 f   DiskDrive.obj
 0001:0003b91c       ?m_AppendInPlace@Class_System_String@@SIXPAU1@_WH@Z 0203c91c f   DiskDrive.obj
 0001:0003b9b4       ?m_AppendInPlace@Class_System_String@@SIXPAU1@_WHH@Z 0203c9b4 f   DiskDrive.obj
 0001:0003ba80       ?g_AddString@Class_System_String@@SIPA_WPA_W00HH@Z 0203ca80 f   DiskDrive.obj
 0001:0003bb9c       ?g_AddString@Class_System_String@@SIPA_WPA_W0PAU1@H@Z 0203cb9c f   DiskDrive.obj
 0001:0003bbf8       ?g_AddNumber@Class_System_String@@SIPA_WPA_W0_KHI_W2@Z 0203cbf8 f   DiskDrive.obj
 0001:0003bea4       ?g_AddChar@Class_System_String@@SIPA_WPA_W0_WH@Z 0203cea4 f   DiskDrive.obj
 0001:0003bf94       ?g__cctor@Class_System_String@@SIXXZ 0203cf94 f   DiskDrive.obj
 0001:0003bfa8       ?m_WaitOne@Class_System_Threading_Mutex@@SI_NPAU1@@Z 0203cfa8 f   DiskDrive.obj
 0001:0003c01c       ?m_WaitOne@Class_System_Threading_Mutex@@SI_NPAU1@UStruct_System_SchedulerTime@@@Z 0203d01c f   DiskDrive.obj
 0001:0003c0a4       ?m_ReleaseMutex@Class_System_Threading_Mutex@@SIXPAU1@@Z 0203d0a4 f   DiskDrive.obj
 0001:0003c0dc       ?m_IsOwnedByCurrentThread@Class_System_Threading_Mutex@@SI_NPAU1@@Z 0203d0dc f   DiskDrive.obj
 0001:0003c128       ?m_Finalize@Class_System_Threading_Mutex@@SIXPAU1@@Z 0203d128 f   DiskDrive.obj
 0001:0003c18c       ?m_Dispose@Class_System_Threading_Mutex@@SIXPAU1@_N@Z 0203d18c f   DiskDrive.obj
 0001:0003c1d8       ?m_AcquireMutex@Class_System_Threading_Mutex@@SI_NPAU1@@Z 0203d1d8 f   DiskDrive.obj
 0001:0003c1fc       ?m_AcquireMutex@Class_System_Threading_Mutex@@SI_NPAU1@UStruct_System_SchedulerTime@@@Z 0203d1fc f   DiskDrive.obj
 0001:0003c23c       ?m__ctor@Class_System_Threading_Mutex@@SIXPAU1@@Z 0203d23c f   DiskDrive.obj
 0001:0003c2a4       ?m_System_IDisposable_Dispose@Class_System_Threading_WaitHandle@@SIXPAU1@@Z 0203d2a4 f   DiskDrive.obj
 0001:0003c2d4       ?m_Finalize@Class_System_Threading_WaitHandle@@SIXPAU1@@Z 0203d2d4 f   DiskDrive.obj
 0001:0003c31c       ?m__ctor@Class_System_Threading_WaitHandle@@SIXPAU1@@Z 0203d31c f   DiskDrive.obj
 0001:0003c338       ?g_Verify@Struct_System_GCs_PageManager_UnusedBlockHeader@@SIXPAU1@@Z 0203d338 f   DiskDrive.obj
 0001:0003c5e0       ?m_StructCopy@Struct_System_GCs_PageManager_UnusedBlockHeader@@SIXPAU1@0@Z 0203d5e0 f   DiskDrive.obj
 0001:0003c638       ?m_StructCopy@Struct_System_GCs_PageManager_UnusedBlockHeader@@SIXPAU1@PAU1@@Z 0203d638 f   DiskDrive.obj
 0001:0003c740       ?g_Remove@Struct_System_GCs_PageManager_UnusedBlockHeader@@SIPAUuintPtr@@PAU1@@Z 0203d740 f   DiskDrive.obj
 0001:0003c808       ?g_InsertNext@Struct_System_GCs_PageManager_UnusedBlockHeader@@SIXPAU1@0@Z 0203d808 f   DiskDrive.obj
 0001:0003c864       ?g_Initialize@Struct_System_GCs_PageManager_UnusedBlockHeader@@SIXPAU1@PAUuintPtr@@@Z 0203d864 f   DiskDrive.obj
 0001:0003c8e8       ?m_Equals@Struct_System_GCs_PageManager_UnusedBlockHeader@@SI_NPAU1@PAUClass_System_Object@@@Z 0203d8e8 f   DiskDrive.obj
 0001:0003c96c       ?m_Equals@Struct_System_GCs_PageManager_UnusedBlockHeader@@SI_NPAUClass_System_GCs_PageManager_UnusedBlockHeader@@PAUClass_System_Object@@@Z 0203d96c f   DiskDrive.obj
 0001:0003c998       ?m_Verify@Class_System_GCs_Verifier_GenericStackVerifier@@SIXPAU1@PAUClass_System_GCs_NonNullReferenceVisitor@@PAUClass_System_Threading_Thread@@@Z 0203d998 f   DiskDrive.obj
 0001:0003c9c8       ?m__ctor@Class_System_GCs_Verifier_GenericStackVerifier@@SIXPAU1@@Z 0203d9c8 f   DiskDrive.obj
 0001:0003c9ec       ?m__ctor@Class_System_GCs_Verifier_StackVerifier@@SIXPAU1@@Z 0203d9ec f   DiskDrive.obj
 0001:0003ca08       ?g_SetPageTableEntryImpl@Class_System_GCs_CentralPT@@SIXPAUuintPtr@@I@Z 0203da08 f   DiskDrive.obj
 0001:0003ca38       ?g_PageTableEntryImpl@Class_System_GCs_CentralPT@@SIIPAUuintPtr@@@Z 0203da38 f   DiskDrive.obj
 0001:0003ca64       ?m__ctor@Class_System_GCs_CentralPT@@SIXPAU1@@Z 0203da64 f   DiskDrive.obj
 0001:0003ca7c       ?g_WalkStackFrame@Class_System_GCs_CallStack@@SI_NPAPAPAUuintPtr@@0PAUStruct_System_GCs_CalleeSaveLocations@@PAPAU2@PAUClass_System_GCs_NonNullReferenceVisitor@@3UStruct_System_GCs_CompressedFrameDescriptor@@PAUStruct_System_GCs_CallStack_TransitionRecord@@PAUClass_System_Threading_Thread@@@Z 0203da7c f   DiskDrive.obj
 0001:0003d424       ?g_VisitIfNotContext@Class_System_GCs_CallStack@@SIXPAUClass_System_Threading_Thread@@PAUClass_System_GCs_NonNullReferenceVisitor@@PAPAUuintPtr@@@Z 0203e424 f   DiskDrive.obj
 0001:0003d480       ?g_SkipUnlinkStackFrame@Class_System_GCs_CallStack@@SIPAUuintPtr@@PAPAPAU2@0@Z 0203e480 f   DiskDrive.obj
 0001:0003d4b4       ?g_SkipLinkStackStubFrame@Class_System_GCs_CallStack@@SIPAUuintPtr@@PAPAPAU2@0@Z 0203e4b4 f   DiskDrive.obj
 0001:0003d4f4       ?g_SkipLinkStackFrame@Class_System_GCs_CallStack@@SIPAUuintPtr@@PAPAPAU2@0@Z 0203e4f4 f   DiskDrive.obj
 0001:0003d534       ?g_ScanStackSegment@Class_System_GCs_CallStack@@SIIPAUStruct_System_GCs_CalleeSaveLocations@@PAUuintPtr@@PAPAU3@2PAUStruct_System_GCs_CallStack_TransitionRecord@@PAUClass_System_GCs_NonNullReferenceVisitor@@4PAUClass_System_Threading_Thread@@@Z 0203e534 f   DiskDrive.obj
 0001:0003d79c       ?g_ScanStacks@Class_System_GCs_CallStack@@SIHPAUClass_System_GCs_NonNullReferenceVisitor@@0@Z 0203e79c f   DiskDrive.obj
 0001:0003d850       ?g_ScanStack@Class_System_GCs_CallStack@@SIIPAUClass_System_Threading_Thread@@PAUClass_System_GCs_NonNullReferenceVisitor@@1@Z 0203e850 f   DiskDrive.obj
 0001:0003da54       ?g_Initialize@Class_System_GCs_CallStack@@SIXXZ 0203ea54 f   DiskDrive.obj
 0001:0003dbc4       ?g_FrameContainsTransitionRecord@Class_System_GCs_CallStack@@SI_NPAPAUuintPtr@@0PAUStruct_System_GCs_CallStack_TransitionRecord@@@Z 0203ebc4 f   DiskDrive.obj
 0001:0003dc1c       ?g_CountBits@Class_System_GCs_CallStack@@SIHPAUuintPtr@@@Z 0203ec1c f   DiskDrive.obj
 0001:0003dc84       ?g_CallSiteTableNumber@Class_System_GCs_CallStack@@SIHPAUuintPtr@@@Z 0203ec84 f   DiskDrive.obj
 0001:0003dd8c       ?g_CallSiteSetNumber@Class_System_GCs_CallStack@@SIHPAUuintPtr@@H@Z 0203ed8c f   DiskDrive.obj
 0001:0003de98       ?m__ctor@Class_System_GCs_CallStack@@SIXPAU1@@Z 0203ee98 f   DiskDrive.obj
 0001:0003deb4       ?m__ctor@Class_System_UpdateLog_LogChunk@@SIXPAU1@PAUClassVector_Struct_System_UpdateLog_Entry@@0@Z 0203eeb4 f   DiskDrive.obj
 0001:0003defc       ?m_StructCopy@Struct_System_GCs_SegregatedFreeList_PageSeparation@@SIXPAU1@0@Z 0203eefc f   DiskDrive.obj
 0001:0003df4c       ?m_StructCopy@Struct_System_GCs_SegregatedFreeList_PageSeparation@@SIXPAU1@PAU1@@Z 0203ef4c f   DiskDrive.obj
 0001:0003e03c       ?m_Equals@Struct_System_GCs_SegregatedFreeList_PageSeparation@@SI_NPAU1@PAUClass_System_Object@@@Z 0203f03c f   DiskDrive.obj
 0001:0003e1fc       ?m_Equals@Struct_System_GCs_SegregatedFreeList_PageSeparation@@SI_NPAUClass_System_GCs_SegregatedFreeList_PageSeparation@@PAUClass_System_Object@@@Z 0203f1fc f   DiskDrive.obj
 0001:0003e228       ?m_StructCopy@Struct_Microsoft_Singularity_Extending_ExtensionContract_Success@@SIXPAU1@0@Z 0203f228 f   DiskDrive.obj
 0001:0003e244       ?m_StructCopy@Struct_Microsoft_Singularity_Extending_ExtensionContract_Success@@SIXPAU1@PAU1@@Z 0203f244 f   DiskDrive.obj
 0001:0003e298       ?m_MarshallContent@Struct_Microsoft_Singularity_Extending_ExtensionContract_Success@@SIXPAU1@PAEPAUStruct_Microsoft_Singularity_Channels_Endpoint@@1PAH@Z 0203f298 f   DiskDrive.obj
 0001:0003e2b8       ?m_MarshallAll@Struct_Microsoft_Singularity_Extending_ExtensionContract_Success@@SIXPAU1@PAEPAUStruct_Microsoft_Singularity_Channels_Endpoint@@PAH@Z 0203f2b8 f   DiskDrive.obj
 0001:0003e310       ?m_Equals@Struct_Microsoft_Singularity_Extending_ExtensionContract_Success@@SI_NPAU1@PAUClass_System_Object@@@Z 0203f310 f   DiskDrive.obj
 0001:0003e348       ?m_Equals@Struct_Microsoft_Singularity_Extending_ExtensionContract_Success@@SI_NPAUClass_Microsoft_Singularity_Extending_ExtensionContract_Success@@PAUClass_System_Object@@@Z 0203f348 f   DiskDrive.obj
 0001:0003e374       ?m_VisitReferenceFields@Class_System_GCs_MarkSweepCollector_MarkReferenceVisitor@@SIPAUuintPtr@@PAU1@PAU2@PAUClass_System_VTable@@@Z 0203f374 f   DiskDrive.obj
 0001:0003eb10       ?m_VisitReferenceFields@Class_System_GCs_MarkSweepCollector_MarkReferenceVisitor@@SIPAUuintPtr@@PAU1@PAUClass_System_Object@@@Z 0203fb10 f   DiskDrive.obj
 0001:0003eb78       ?m_Visit@Class_System_GCs_MarkSweepCollector_MarkReferenceVisitor@@SIXPAU1@PAPAUuintPtr@@@Z 0203fb78 f   DiskDrive.obj
 0001:0003ee74       ?m_ProcessScheduledObjects@Class_System_GCs_MarkSweepCollector_MarkReferenceVisitor@@SIXPAU1@@Z 0203fe74 f   DiskDrive.obj
 0001:0003ef20       ?m_Filter@Class_System_GCs_MarkSweepCollector_MarkReferenceVisitor@@SIXPAU1@PAPAUuintPtr@@PAUStruct_System_GCs_ReferenceVisitor_ObjectDescriptor@@@Z 0203ff20 f   DiskDrive.obj
 0001:0003ef58       ?m_Cleanup@Class_System_GCs_MarkSweepCollector_MarkReferenceVisitor@@SIXPAU1@@Z 0203ff58 f   DiskDrive.obj
 0001:0003ef90       ?m__ctor@Class_System_GCs_MarkSweepCollector_MarkReferenceVisitor@@SIXPAU1@@Z 0203ff90 f   DiskDrive.obj
 0001:0003efb4       ?m_StructCopy@Struct_System_GCs_BumpAllocator@@SIXPAU1@0@Z 0203ffb4 f   DiskDrive.obj
 0001:0003f00c       ?m_StructCopy@Struct_System_GCs_BumpAllocator@@SIXPAU1@PAU1@@Z 0204000c f   DiskDrive.obj
 0001:0003f114       ?m_Equals@Struct_System_GCs_BumpAllocator@@SI_NPAU1@PAUClass_System_Object@@@Z 02040114 f   DiskDrive.obj
 0001:0003f1ec       ?m_Equals@Struct_System_GCs_BumpAllocator@@SI_NPAUClass_System_GCs_BumpAllocator@@PAUClass_System_Object@@@Z 020401ec f   DiskDrive.obj
 0001:0003f218       ?m__ctor@Class_Microsoft_Bartok_Runtime_Constants@@SIXPAU1@@Z 02040218 f   DiskDrive.obj
 0001:0003f264       ?g__cctor@Class_Microsoft_Bartok_Runtime_Constants@@SIXXZ 02040264 f   DiskDrive.obj
 0001:0003f404       ?m_Unlink@Class_Microsoft_Singularity_Channels_ESet$_2$LMicrosoft_Singularity_Extending_ExtensionContract_Exp_Microsoft_Singularity_Extending_ExtensionContract_Ready$G_Node@@SIPAUStruct_Microsoft_Singularity_Extending_ExtensionContract_Exp@@PAU1@PAUClass_Microsoft_Singularity_Channels_ESet$_2$LMicrosoft_Singularity_Extending_ExtensionContract_Exp_Microsoft_Singularity_Extending_ExtensionContract_Ready$G@@@Z 02040404 f   DiskDrive.obj
 0001:0003f518       ?m_LinkAsNext@Class_Microsoft_Singularity_Channels_ESet$_2$LMicrosoft_Singularity_Extending_ExtensionContract_Exp_Microsoft_Singularity_Extending_ExtensionContract_Ready$G_Node@@SIXPAU1@PAUStruct_Microsoft_Singularity_Extending_ExtensionContract_Exp@@PAUClass_Microsoft_Singularity_Channels_ESet$_2$LMicrosoft_Singularity_Extending_ExtensionContract_Exp_Microsoft_Singularity_Extending_ExtensionContract_Ready$G@@@Z 02040518 f   DiskDrive.obj
 0001:0003f594       ?m_Init@Class_Microsoft_Singularity_Channels_ESet$_2$LMicrosoft_Singularity_Extending_ExtensionContract_Exp_Microsoft_Singularity_Extending_ExtensionContract_Ready$G_Node@@SIXPAU1@PAUStruct_Microsoft_Singularity_Extending_ExtensionContract_Exp@@PAUClass_Microsoft_Singularity_Channels_ESet$_2$LMicrosoft_Singularity_Extending_ExtensionContract_Exp_Microsoft_Singularity_Extending_ExtensionContract_Ready$G@@@Z 02040594 f   DiskDrive.obj
 0001:0003f5c4       ?m__ctor@Class_Microsoft_Singularity_Channels_ESet$_2$LMicrosoft_Singularity_Extending_ExtensionContract_Exp_Microsoft_Singularity_Extending_ExtensionContract_Ready$G_Node@@SIXPAU1@PAUStruct_Microsoft_Singularity_Extending_ExtensionContract_Exp@@PAUClass_Microsoft_Singularity_Channels_ESet$_2$LMicrosoft_Singularity_Extending_ExtensionContract_Exp_Microsoft_Singularity_Extending_ExtensionContract_Ready$G@@@Z 020405c4 f   DiskDrive.obj
 0001:0003f608       ?m__ctor@Class_Microsoft_Singularity_Channels_ESet$_2$LMicrosoft_Singularity_Extending_ExtensionContract_Exp_Microsoft_Singularity_Extending_ExtensionContract_Ready$G_Node@@SIXPAU1@PAUClass_Microsoft_Singularity_Channels_ESet$_2$LMicrosoft_Singularity_Extending_ExtensionContract_Exp_Microsoft_Singularity_Extending_ExtensionContract_Ready$G@@@Z 02040608 f   DiskDrive.obj
 0001:0003f63c       ?g_FromString2@Class_Microsoft_Singularity_Bitter@@SIPA_WPAUClass_System_String@@@Z 0204063c f   DiskDrive.obj
 0001:0003f688       ?g_FromString2@Class_Microsoft_Singularity_Bitter@@SIPA_WPAUClass_System_String@@HH@Z 02040688 f   DiskDrive.obj
 0001:0003f7b8       ?g_FromString@Class_Microsoft_Singularity_Bitter@@SIPA_WPAUClass_System_String@@@Z 020407b8 f   DiskDrive.obj
 0001:0003f808       ?m__ctor@Class_Microsoft_Singularity_Bitter@@SIXPAU1@@Z 02040808 f   DiskDrive.obj
 0001:0003f820       ?m_RecvEmpty@Class_Microsoft_Singularity_Channels_ESet$_2$LMicrosoft_Singularity_Io_VolumeManagerContract_Imp_Microsoft_Singularity_Io_VolumeManagerContract_RegisterAck$G@@SIXPAU1@@Z 02040820 f   DiskDrive.obj
 0001:0003f83c       ?m_HeadMatches@Class_Microsoft_Singularity_Channels_ESet$_2$LMicrosoft_Singularity_Io_VolumeManagerContract_Imp_Microsoft_Singularity_Io_VolumeManagerContract_RegisterAck$G@@SI_NPAU1@HPA_NPAPAUClass_System_Object@@@Z 0204083c f   DiskDrive.obj
 0001:0003f9b4       ?m_GetWaitHandle@Class_Microsoft_Singularity_Channels_ESet$_2$LMicrosoft_Singularity_Io_VolumeManagerContract_Imp_Microsoft_Singularity_Io_VolumeManagerContract_RegisterAck$G@@SI?AUStruct_Microsoft_Singularity_V1_Threads_SyncHandle@@PAU1@@Z 020409b4 f   DiskDrive.obj
 0001:0003fa20       ?m_GetFreshNode@Class_Microsoft_Singularity_Channels_ESet$_2$LMicrosoft_Singularity_Io_VolumeManagerContract_Imp_Microsoft_Singularity_Io_VolumeManagerContract_RegisterAck$G@@SIPAUClass_Microsoft_Singularity_Channels_ESet$_2$LMicrosoft_Singularity_Io_VolumeManagerContract_Imp_Microsoft_Singularity_Io_VolumeManagerContract_RegisterAck$G_Node@@PAU1@PAUStruct_Microsoft_Singularity_Io_VolumeManagerContract_Imp@@0@Z 02040a20 f   DiskDrive.obj
 0001:0003fac4       ?m_get$_NextScanStart@Class_Microsoft_Singularity_Channels_ESet$_2$LMicrosoft_Singularity_Io_VolumeManagerContract_Imp_Microsoft_Singularity_Io_VolumeManagerContract_RegisterAck$G@@SIPAUClass_Microsoft_Singularity_Channels_ESet$_2$LMicrosoft_Singularity_Io_VolumeManagerContract_Imp_Microsoft_Singularity_Io_VolumeManagerContract_RegisterAck$G_Node@@PAU1@@Z 02040ac4 f   DiskDrive.obj
 0001:0003fb2c       ?m_Extract@Class_Microsoft_Singularity_Channels_ESet$_2$LMicrosoft_Singularity_Io_VolumeManagerContract_Imp_Microsoft_Singularity_Io_VolumeManagerContract_RegisterAck$G@@SIPAUStruct_Microsoft_Singularity_Io_VolumeManagerContract_Imp@@PAU1@PAUClass_System_Object@@@Z 02040b2c f   DiskDrive.obj
 0001:0003fbe4       ?m_Dispose@Class_Microsoft_Singularity_Channels_ESet$_2$LMicrosoft_Singularity_Io_VolumeManagerContract_Imp_Microsoft_Singularity_Io_VolumeManagerContract_RegisterAck$G@@SIXPAU1@@Z 02040be4 f   DiskDrive.obj
 0001:0003fcd0       ?m_Add@Class_Microsoft_Singularity_Channels_ESet$_2$LMicrosoft_Singularity_Io_VolumeManagerContract_Imp_Microsoft_Singularity_Io_VolumeManagerContract_RegisterAck$G@@SIXPAU1@PAUStruct_Microsoft_Singularity_Io_VolumeManagerContract_Imp@@@Z 02040cd0 f   DiskDrive.obj
 0001:0003fd00       ?m__ctor@Class_Microsoft_Singularity_Channels_ESet$_2$LMicrosoft_Singularity_Io_VolumeManagerContract_Imp_Microsoft_Singularity_Io_VolumeManagerContract_RegisterAck$G@@SIXPAU1@@Z 02040d00 f   DiskDrive.obj
 0001:0003fd8c       ?g_StringSize@Class_System_GCs_ObjectLayout@@SIPAUuintPtr@@PAUClass_System_VTable@@I@Z 02040d8c f   DiskDrive.obj
 0001:0003fdfc       ?g_Sizeof@Class_System_GCs_ObjectLayout@@SIPAUuintPtr@@PAUClass_System_Object@@@Z 02040dfc f   DiskDrive.obj
 0001:0003fe38       ?g_ObjectSize@Class_System_GCs_ObjectLayout@@SIPAUuintPtr@@PAU2@PAUClass_System_VTable@@@Z 02040e38 f   DiskDrive.obj
 0001:0003fef4       ?g_ObjectSize@Class_System_GCs_ObjectLayout@@SIPAUuintPtr@@PAUClass_System_VTable@@@Z 02040ef4 f   DiskDrive.obj
 0001:0003ff60       ?g_ArraySize@Class_System_GCs_ObjectLayout@@SIPAUuintPtr@@PAUClass_System_VTable@@I@Z 02040f60 f   DiskDrive.obj
 0001:0003ffd8       ?m__ctor@Class_System_GCs_ObjectLayout@@SIXPAU1@@Z 02040fd8 f   DiskDrive.obj
 0001:0003fff0       ?m__ctor@Class_System_LocalDataStoreMgr@@SIXPAU1@@Z 02040ff0 f   DiskDrive.obj
 0001:00040080       ?m_StructCopy@Struct_Microsoft_Singularity_Io_DiskDeviceContract_AckGetDiskAttributes@@SIXPAU1@0@Z 02041080 f   DiskDrive.obj
 0001:000400a8       ?m_StructCopy@Struct_Microsoft_Singularity_Io_DiskDeviceContract_AckGetDiskAttributes@@SIXPAU1@PAU1@@Z 020410a8 f   DiskDrive.obj
 0001:00040120       ?m_MarshallContent@Struct_Microsoft_Singularity_Io_DiskDeviceContract_AckGetDiskAttributes@@SIXPAU1@PAEPAUStruct_Microsoft_Singularity_Channels_Endpoint@@1PAH@Z 02041120 f   DiskDrive.obj
 0001:00040140       ?m_MarshallAll@Struct_Microsoft_Singularity_Io_DiskDeviceContract_AckGetDiskAttributes@@SIXPAU1@PAEPAUStruct_Microsoft_Singularity_Channels_Endpoint@@PAH@Z 02041140 f   DiskDrive.obj
 0001:00040198       ?m_Equals@Struct_Microsoft_Singularity_Io_DiskDeviceContract_AckGetDiskAttributes@@SI_NPAU1@PAUClass_System_Object@@@Z 02041198 f   DiskDrive.obj
 0001:00040238       ?m_Equals@Struct_Microsoft_Singularity_Io_DiskDeviceContract_AckGetDiskAttributes@@SI_NPAUClass_Microsoft_Singularity_Io_DiskDeviceContract_AckGetDiskAttributes@@PAUClass_System_Object@@@Z 02041238 f   DiskDrive.obj
 0001:00040264       ?g_WriteLine@Class_Microsoft_Singularity_DebugStub@@SIXPAUClass_System_String@@@Z 02041264 f   DiskDrive.obj
 0001:000402c8       ?g_WriteLine@Class_Microsoft_Singularity_DebugStub@@SIXPAUClass_System_String@@UStruct_System_VarargList@@@Z 020412c8 f   DiskDrive.obj
 0001:00040330       ?g_WriteLine@Class_Microsoft_Singularity_DebugStub@@SIXPAUClass_System_String@@UStruct_System_ArgIterator@@@Z 02041330 f   DiskDrive.obj
 0001:00040528       ?g_Print@Class_Microsoft_Singularity_DebugStub@@SIXPAUClass_System_String@@@Z 02041528 f   DiskDrive.obj
 0001:0004058c       ?g_Print@Class_Microsoft_Singularity_DebugStub@@SIXPAUClass_System_String@@UStruct_System_VarargList@@@Z 0204158c f   DiskDrive.obj
 0001:000405f4       ?g_Print@Class_Microsoft_Singularity_DebugStub@@SIXPAUClass_System_String@@UStruct_System_ArgIterator@@@Z 020415f4 f   DiskDrive.obj
 0001:0004062c       ?g_InsertFormat@Class_Microsoft_Singularity_DebugStub@@SIXPA_WPAHHPAUClass_System_String@@UStruct_System_VarargList@@@Z 0204162c f   DiskDrive.obj
 0001:000406cc       ?g_failAssert@Class_Microsoft_Singularity_DebugStub@@SIXPAUClass_System_String@@@Z 020416cc f   DiskDrive.obj
 0001:000406f4       ?g_Assert@Class_Microsoft_Singularity_DebugStub@@SIX_N@Z 020416f4 f   DiskDrive.obj
 0001:00040724       ?g_AddToPerfCounter@Class_Microsoft_Singularity_DebugStub@@SI_NI_K@Z 02041724 f   DiskDrive.obj
 0001:0004075c       ?g_AddLineHeader@Class_Microsoft_Singularity_DebugStub@@SIXPA_WPAHH@Z 0204175c f   DiskDrive.obj
 0001:0004095c       ?m__ctor@Class_Microsoft_Singularity_DebugStub@@SIXPAU1@@Z 0204195c f   DiskDrive.obj
 0001:00040978       ?m_StructCopy@Struct_Microsoft_Singularity_Io_DiskDeviceContract_Write@@SIXPAU1@0@Z 02041978 f   DiskDrive.obj
 0001:000409e8       ?m_StructCopy@Struct_Microsoft_Singularity_Io_DiskDeviceContract_Write@@SIXPAU1@PAU1@@Z 020419e8 f   DiskDrive.obj
 0001:00040b38       ?m_Equals@Struct_Microsoft_Singularity_Io_DiskDeviceContract_Write@@SI_NPAU1@PAUClass_System_Object@@@Z 02041b38 f   DiskDrive.obj
 0001:00040bfc       ?m_Equals@Struct_Microsoft_Singularity_Io_DiskDeviceContract_Write@@SI_NPAUClass_Microsoft_Singularity_Io_DiskDeviceContract_Write@@PAUClass_System_Object@@@Z 02041bfc f   DiskDrive.obj
 0001:00040c28       ?m_StructCopy@Struct_System_GCs_ReferenceVisitor_ObjectDescriptor@@SIXPAU1@0@Z 02041c28 f   DiskDrive.obj
 0001:00040c8c       ?m_StructCopy@Struct_System_GCs_ReferenceVisitor_ObjectDescriptor@@SIXPAU1@PAU1@@Z 02041c8c f   DiskDrive.obj
 0001:00040db8       ?m_Equals@Struct_System_GCs_ReferenceVisitor_ObjectDescriptor@@SI_NPAU1@PAUClass_System_Object@@@Z 02041db8 f   DiskDrive.obj
 0001:00040e58       ?m_Equals@Struct_System_GCs_ReferenceVisitor_ObjectDescriptor@@SI_NPAUClass_System_GCs_ReferenceVisitor_ObjectDescriptor@@PAUClass_System_Object@@@Z 02041e58 f   DiskDrive.obj
 0001:00040e84       ?m__ctor@Struct_System_GCs_ReferenceVisitor_ObjectDescriptor@@SIXPAU1@PAUClass_System_VTable@@PAUuintPtr@@@Z 02041e84 f   DiskDrive.obj
 0001:00040efc       ?m__ctor@Struct_System_GCs_ReferenceVisitor_ObjectDescriptor@@SIXPAU1@PAUClass_System_VTable@@PAUuintPtr@@2@Z 02041efc f   DiskDrive.obj
 0001:00040f74       ?m__ctor@Struct_System_GCs_ReferenceVisitor_ObjectDescriptor@@SIXPAU1@PAUClass_System_VTable@@PAUuintPtr@@22@Z 02041f74 f   DiskDrive.obj
 0001:00040fec       ?m__ctor@Struct_System_GCs_ReferenceVisitor_ObjectDescriptor@@SIXPAU1@PAUClass_System_VTable@@PAUuintPtr@@22PAUClass_System_Object@@3@Z 02041fec f   DiskDrive.obj
 0001:00041044       ?m__ctor@Class_System_DivideByZeroException@@SIXPAU1@@Z 02042044 f   DiskDrive.obj
 0001:0004106c       ?m__ctor@Class_System_DivideByZeroException@@SIXPAU1@PAUClass_System_String@@@Z 0204206c f   DiskDrive.obj
 0001:00041094       ?m__ctor@Class_System_DivideByZeroException@@SIXPAU1@PAUClass_System_String@@PAUClass_System_Exception@@@Z 02042094 f   DiskDrive.obj
 0001:000410c4       ?m__ctor@Class_System_StackOverflowException@@SIXPAU1@@Z 020420c4 f   DiskDrive.obj
 0001:000410ec       ?m__ctor@Class_System_StackOverflowException@@SIXPAU1@PAUClass_System_String@@@Z 020420ec f   DiskDrive.obj
 0001:00041114       ?m__ctor@Class_System_StackOverflowException@@SIXPAU1@PAUClass_System_String@@PAUClass_System_Exception@@@Z 02042114 f   DiskDrive.obj
 0001:00041144       ?m_StructCopy@Struct_System_Collections_DictionaryEntry@@SIXPAU1@0@Z 02042144 f   DiskDrive.obj
 0001:00041178       ?m_StructCopy@Struct_System_Collections_DictionaryEntry@@SIXPAU1@PAU1@@Z 02042178 f   DiskDrive.obj
 0001:00041214       ?m_get$_Value@Struct_System_Collections_DictionaryEntry@@SIPAUClass_System_Object@@PAU1@@Z 02042214 f   DiskDrive.obj
 0001:00041234       ?m_get$_Key@Struct_System_Collections_DictionaryEntry@@SIPAUClass_System_Object@@PAU1@@Z 02042234 f   DiskDrive.obj
 0001:00041254       ?m_Equals@Struct_System_Collections_DictionaryEntry@@SI_NPAU1@PAUClass_System_Object@@@Z 02042254 f   DiskDrive.obj
 0001:000412bc       ?m_Equals@Struct_System_Collections_DictionaryEntry@@SI_NPAUClass_System_Collections_DictionaryEntry@@PAUClass_System_Object@@@Z 020422bc f   DiskDrive.obj
 0001:000412e8       ?m__ctor@Struct_System_Collections_DictionaryEntry@@SIXPAU1@PAUClass_System_Object@@1@Z 020422e8 f   DiskDrive.obj
 0001:0004135c       ?m__ctor@Class_System_GCs_StopTheWorldGCData@@SIXPAU1@@Z 0204235c f   DiskDrive.obj
 0001:00041374       ?m__ctor@Class_Microsoft_Singularity_Drivers_IDE_IdeConfig@@SIXPAU1@PAUClass_Microsoft_Singularity_Io_IoIrqRange@@PAUClass_Microsoft_Singularity_Io_IoPortRange@@2_N2PAUClass_Microsoft_Singularity_Drivers_IDE_IdeController@@@Z 02042374 f   DiskDrive.obj
 0001:00041420       ?m_StructCopy@Struct_Microsoft_Singularity_Io_DiskDeviceContract_GetDiskAttributes@@SIXPAU1@0@Z 02042420 f   DiskDrive.obj
 0001:0004143c       ?m_StructCopy@Struct_Microsoft_Singularity_Io_DiskDeviceContract_GetDiskAttributes@@SIXPAU1@PAU1@@Z 0204243c f   DiskDrive.obj
 0001:00041490       ?m_Equals@Struct_Microsoft_Singularity_Io_DiskDeviceContract_GetDiskAttributes@@SI_NPAU1@PAUClass_System_Object@@@Z 02042490 f   DiskDrive.obj
 0001:000414c8       ?m_Equals@Struct_Microsoft_Singularity_Io_DiskDeviceContract_GetDiskAttributes@@SI_NPAUClass_Microsoft_Singularity_Io_DiskDeviceContract_GetDiskAttributes@@PAUClass_System_Object@@@Z 020424c8 f   DiskDrive.obj
 0001:000414f4       ?m__ctor@Class_System_AtomicIsInvalidException@@SIXPAU1@@Z 020424f4 f   DiskDrive.obj
 0001:00041518       ?m__ctor@Class_System_AtomicException@@SIXPAU1@@Z 02042518 f   DiskDrive.obj
 0001:0004153c       ?m__ctor@Class_Microsoft_Contracts_RequiresException@@SIXPAU1@@Z 0204253c f   DiskDrive.obj
 0001:00041560       ?m__ctor@Class_Microsoft_Contracts_RequiresException@@SIXPAU1@PAUClass_System_String@@@Z 02042560 f   DiskDrive.obj
 0001:00041588       ?m_Visit@Class_System_GCs_Verifier_GenericReferenceVisitor@@SIXPAU1@PAPAUuintPtr@@@Z 02042588 f   DiskDrive.obj
 0001:0004188c       ?m__ctor@Class_System_GCs_Verifier_GenericReferenceVisitor@@SIXPAU1@@Z 0204288c f   DiskDrive.obj
 0001:000418b0       ?m_ToString@intPtr@@SIPAUClass_System_String@@PAPAU1@@Z 020428b0 f   DiskDrive.obj
 0001:000418e4       ?m_ToString@intPtr@@SIPAUClass_System_String@@PAUClass_System_IntPtr@@@Z 020428e4 f   DiskDrive.obj
 0001:00041938       ?m_GetHashCode@intPtr@@SIHPAPAU1@@Z 02042938 f   DiskDrive.obj
 0001:00041958       ?m_GetHashCode@intPtr@@SIHPAUClass_System_IntPtr@@@Z 02042958 f   DiskDrive.obj
 0001:00041980       ?m_Equals@intPtr@@SI_NPAPAU1@PAUClass_System_Object@@@Z 02042980 f   DiskDrive.obj
 0001:000419dc       ?m_Equals@intPtr@@SI_NPAUClass_System_IntPtr@@PAUClass_System_Object@@@Z 020429dc f   DiskDrive.obj
 0001:00041a08       ?m__ctor@Class_System_GCs_SegregatedFreeList_PartialFreePageVisitor@@SIXPAU1@@Z 02042a08 f   DiskDrive.obj
 0001:00041a24       ?m__ctor@Class_Microsoft_Contracts_AssumeException@@SIXPAU1@@Z 02042a24 f   DiskDrive.obj
 0001:00041a48       ?m_StructCopy@Struct_Microsoft_Singularity_Directory_ServiceProviderContract_Imp@@SIXPAU1@0@Z 02042a48 f   DiskDrive.obj
 0001:00041b34       ?m_StructCopy@Struct_Microsoft_Singularity_Directory_ServiceProviderContract_Imp@@SIXPAU1@PAU1@@Z 02042b34 f   DiskDrive.obj
 0001:00041df8       ?m_Peek@Struct_Microsoft_Singularity_Directory_ServiceProviderContract_Imp@@SIHPAU1@@Z 02042df8 f   DiskDrive.obj
 0001:00041f2c       ?m_MarshallDeliverNackConnect0@Struct_Microsoft_Singularity_Directory_ServiceProviderContract_Imp@@SIXPAU1@PAUStruct_Microsoft_Singularity_Directory_ServiceContract_Exp@@PAUStruct_Microsoft_Singularity_Channels_Endpoint@@@Z 02042f2c f   DiskDrive.obj
 0001:00041f7c       ?m_MarshallDeliverAckConnect0@Struct_Microsoft_Singularity_Directory_ServiceProviderContract_Imp@@SIXPAU1@PAUStruct_Microsoft_Singularity_Channels_Endpoint@@@Z 02042f7c f   DiskDrive.obj
 0001:00041fc8       ?m_HeadMatches@Struct_Microsoft_Singularity_Directory_ServiceProviderContract_Imp@@SI_NPAU1@HPA_NPAPAUClass_System_Object@@@Z 02042fc8 f   DiskDrive.obj
 0001:00042088       ?m_HeadMatches@Struct_Microsoft_Singularity_Directory_ServiceProviderContract_Imp@@SI_NPAUClass_Microsoft_Singularity_Directory_ServiceProviderContract_Imp@@HPA_NPAPAUClass_System_Object@@@Z 02043088 f   DiskDrive.obj
 0001:000420c0       ?m_Equals@Struct_Microsoft_Singularity_Directory_ServiceProviderContract_Imp@@SI_NPAU1@PAUClass_System_Object@@@Z 020430c0 f   DiskDrive.obj
 0001:000423f8       ?m_Equals@Struct_Microsoft_Singularity_Directory_ServiceProviderContract_Imp@@SI_NPAUClass_Microsoft_Singularity_Directory_ServiceProviderContract_Imp@@PAUClass_System_Object@@@Z 020433f8 f   DiskDrive.obj
 0001:00042424       ?m_DeliverNackConnect0@Struct_Microsoft_Singularity_Directory_ServiceProviderContract_Imp@@SIXPAU1@PAUStruct_Microsoft_Singularity_Directory_ServiceContract_Exp@@@Z 02043424 f   DiskDrive.obj
 0001:0004246c       ?m_DeliverAckConnect0@Struct_Microsoft_Singularity_Directory_ServiceProviderContract_Imp@@SIXPAU1@@Z 0204346c f   DiskDrive.obj
 0001:000424a0       ?m_ToArray@Class_System_Collections_ArrayList@@SIPAUClass_System_Array@@PAU1@PAUClass_System_Type@@@Z 020434a0 f   DiskDrive.obj
 0001:0004253c       ?m_set$_Capacity@Class_System_Collections_ArrayList@@SIXPAU1@H@Z 0204353c f   DiskDrive.obj
 0001:00042604       ?m_EnsureCapacity@Class_System_Collections_ArrayList@@SIXPAU1@H@Z 02043604 f   DiskDrive.obj
 0001:00042670       ?m_Add@Class_System_Collections_ArrayList@@SIHPAU1@PAUClass_System_Object@@@Z 02043670 f   DiskDrive.obj
 0001:00042700       ?m__ctor@Class_System_Collections_ArrayList@@SIXPAU1@@Z 02043700 f   DiskDrive.obj
 0001:00042730       ?m_StructCopy@Struct_Microsoft_Singularity_V1_Services_DiagnosisService@@SIXPAU1@0@Z 02043730 f   DiskDrive.obj
 0001:0004274c       ?m_StructCopy@Struct_Microsoft_Singularity_V1_Services_DiagnosisService@@SIXPAU1@PAU1@@Z 0204374c f   DiskDrive.obj
 0001:000427a0       ?g_GCProfileSettingsImpl@Struct_Microsoft_Singularity_V1_Services_DiagnosisService@@SIHPA_K0@Z 020437a0 f   DiskDrive.obj
 0001:00042824       ?m_Equals@Struct_Microsoft_Singularity_V1_Services_DiagnosisService@@SI_NPAU1@PAUClass_System_Object@@@Z 02043824 f   DiskDrive.obj
 0001:0004285c       ?m_Equals@Struct_Microsoft_Singularity_V1_Services_DiagnosisService@@SI_NPAUClass_Microsoft_Singularity_V1_Services_DiagnosisService@@PAUClass_System_Object@@@Z 0204385c f   DiskDrive.obj
 0001:00042888       ?m_StructCopy@Struct_System_GCs_SegregatedFreeList_TempList@@SIXPAU1@0@Z 02043888 f   DiskDrive.obj
 0001:000428b0       ?m_StructCopy@Struct_System_GCs_SegregatedFreeList_TempList@@SIXPAU1@PAU1@@Z 020438b0 f   DiskDrive.obj
 0001:00042928       ?m_GetList@Struct_System_GCs_SegregatedFreeList_TempList@@SIPAUuintPtr@@PAU1@@Z 02043928 f   DiskDrive.obj
 0001:0004295c       ?m_Equals@Struct_System_GCs_SegregatedFreeList_TempList@@SI_NPAU1@PAUClass_System_Object@@@Z 0204395c f   DiskDrive.obj
 0001:000429a4       ?m_Equals@Struct_System_GCs_SegregatedFreeList_TempList@@SI_NPAUClass_System_GCs_SegregatedFreeList_TempList@@PAUClass_System_Object@@@Z 020439a4 f   DiskDrive.obj
 0001:000429d0       ?m_Add@Struct_System_GCs_SegregatedFreeList_TempList@@SIXPAU1@PAUuintPtr@@@Z 020439d0 f   DiskDrive.obj
 0001:00042a00       ?g_VerifyUnusedRegion@Class_System_GCs_PageManager@@SIXPAUuintPtr@@0@Z 02043a00 f   DiskDrive.obj
 0001:0004308c       ?g_VerifyUnusedPage@Class_System_GCs_PageManager@@SIXPAUuintPtr@@_N@Z 0204408c f   DiskDrive.obj
 0001:00043240       ?g_UnlinkUnusedPages@Class_System_GCs_PageManager@@SIPAUuintPtr@@PAU2@@Z 02044240 f   DiskDrive.obj
 0001:000434ec       ?g_SlotFromCount@Class_System_GCs_PageManager@@SIHPAUuintPtr@@@Z 020444ec f   DiskDrive.obj
 0001:00043538       ?g_SetStaticDataPages@Class_System_GCs_PageManager@@SIXPAUuintPtr@@0@Z 02044538 f   DiskDrive.obj
 0001:00043758       ?g_SetPageTypeClean@Class_System_GCs_PageManager@@SIXPAUuintPtr@@0UStruct_System_GCs_PageType@@@Z 02044758 f   DiskDrive.obj
 0001:00043ce8       ?g_ReleaseUnusedPages@Class_System_GCs_PageManager@@SIXPAUuintPtr@@0_N@Z 02044ce8 f   DiskDrive.obj
 0001:00044510       ?g_MarkUnusedPages@Class_System_GCs_PageManager@@SIXPAUClass_System_Threading_Thread@@PAUuintPtr@@1_N@Z 02045510 f   DiskDrive.obj
 0001:00044b00       ?g_LinkUnusedPages@Class_System_GCs_PageManager@@SIXPAUuintPtr@@0_N@Z 02045b00 f   DiskDrive.obj
 0001:00045038       ?g_LeaveMutex@Class_System_GCs_PageManager@@SIXPAUClass_System_Threading_Thread@@_N@Z 02046038 f   DiskDrive.obj
 0001:00045088       ?g_Initialize@Class_System_GCs_PageManager@@SIXPAUuintPtr@@0@Z 02046088 f   DiskDrive.obj
 0001:0004517c       ?g_get$_SlowDebug@Class_System_GCs_PageManager@@SI_NXZ 0204617c f   DiskDrive.obj
 0001:00045194       ?g_get$_AggressiveMemReset@Class_System_GCs_PageManager@@SI_NXZ 02046194 f   DiskDrive.obj
 0001:000451ac       ?g_FoundOnlyCleanPages@Class_System_GCs_PageManager@@SI_NPAUuintPtr@@@Z 020461ac f   DiskDrive.obj
 0001:00045298       ?g_FinishInitializeThread@Class_System_GCs_PageManager@@SIXXZ 02046298 f   DiskDrive.obj
 0001:000452e8       ?g_FindUnusedPages@Class_System_GCs_PageManager@@SIPAUuintPtr@@PAUClass_System_Threading_Thread@@PAU2@UStruct_System_GCs_PageType@@@Z 020462e8 f   DiskDrive.obj
 0001:000454d0       ?g_EnterMutex@Class_System_GCs_PageManager@@SI_NPAUClass_System_Threading_Thread@@@Z 020464d0 f   DiskDrive.obj
 0001:0004552c       ?g_EnsurePages@Class_System_GCs_PageManager@@SIPAUuintPtr@@PAUClass_System_Threading_Thread@@PAU2@UStruct_System_GCs_PageType@@PA_N@Z 0204652c f   DiskDrive.obj
 0001:000459f0       ?g_CleanFoundPages@Class_System_GCs_PageManager@@SIXPAUuintPtr@@@Z 020469f0 f   DiskDrive.obj
 0001:00045aec       ?m__ctor@Class_System_GCs_PageManager@@SIXPAU1@@Z 02046aec f   DiskDrive.obj
 0001:00045b04       ?m__ctor@Class_System_Runtime_CompilerServices_ForceInlineAttribute@@SIXPAU1@@Z 02046b04 f   DiskDrive.obj
 0001:00045b28       ?m_ToString@bartok_char@@SIPAUClass_System_String@@PA_W@Z 02046b28 f   DiskDrive.obj
 0001:00045b4c       ?m_ToString@bartok_char@@SIPAUClass_System_String@@PAUClass_System_Char@@@Z 02046b4c f   DiskDrive.obj
 0001:00045b74       ?g_ToString@bartok_char@@SIPAUClass_System_String@@_W@Z 02046b74 f   DiskDrive.obj
 0001:00045bac       ?m_GetHashCode@bartok_char@@SIHPA_W@Z 02046bac f   DiskDrive.obj
 0001:00045be0       ?m_GetHashCode@bartok_char@@SIHPAUClass_System_Char@@@Z 02046be0 f   DiskDrive.obj
 0001:00045c08       ?m_Equals@bartok_char@@SI_NPA_WPAUClass_System_Object@@@Z 02046c08 f   DiskDrive.obj
 0001:00045c6c       ?m_Equals@bartok_char@@SI_NPAUClass_System_Char@@PAUClass_System_Object@@@Z 02046c6c f   DiskDrive.obj
 0001:00045c98       ?g_Assert@Class_System_Diagnostics_Debug@@SIX_N@Z 02046c98 f   DiskDrive.obj
 0001:00045cbc       ?g_Assert@Class_System_Diagnostics_Debug@@SIX_NPAUClass_System_String@@@Z 02046cbc f   DiskDrive.obj
 0001:00045ce4       ?m__ctor@Class_System_Diagnostics_Debug@@SIXPAU1@@Z 02046ce4 f   DiskDrive.obj
 0001:00045cfc       ?m_GetHandle@Class_Microsoft_Singularity_Eventing_EventingStorage@@SIPAUuintPtr@@PAU1@@Z 02046cfc f   DiskDrive.obj
 0001:00045d1c       ?m_GetController@Class_Microsoft_Singularity_Eventing_EventingStorage@@SIPAUClass_Microsoft_Singularity_Eventing_Controller@@PAU1@@Z 02046d1c f   DiskDrive.obj
 0001:00045d50       ?g_CreateStorageFromHandle@Class_Microsoft_Singularity_Eventing_EventingStorage@@SIPAU1@PAUuintPtr@@@Z 02046d50 f   DiskDrive.obj
 0001:00045dc8       ?g_CreateLocalStorage@Class_Microsoft_Singularity_Eventing_EventingStorage@@SIPAU1@II@Z 02046dc8 f   DiskDrive.obj
 0001:00045e48       ?m_AddBuffer@Class_Microsoft_Singularity_Eventing_EventingStorage@@SI_NPAU1@_K@Z 02046e48 f   DiskDrive.obj
 0001:00045e68       ?m__ctor@Class_Microsoft_Singularity_Eventing_EventingStorage@@SIXPAU1@@Z 02046e68 f   DiskDrive.obj
 0001:00045e84       ?m_StructCopy@Struct_System_UpdateEnlistmentLogWriter@@SIXPAU1@0@Z 02046e84 f   DiskDrive.obj
 0001:00045eb8       ?m_StructCopy@Struct_System_UpdateEnlistmentLogWriter@@SIXPAU1@PAU1@@Z 02046eb8 f   DiskDrive.obj
 0001:00045f54       ?m_Equals@Struct_System_UpdateEnlistmentLogWriter@@SI_NPAU1@PAUClass_System_Object@@@Z 02046f54 f   DiskDrive.obj
 0001:00045fb0       ?m_Equals@Struct_System_UpdateEnlistmentLogWriter@@SI_NPAUClass_System_UpdateEnlistmentLogWriter@@PAUClass_System_Object@@@Z 02046fb0 f   DiskDrive.obj
 0001:00045fdc       ?m_StructCopy@Struct_System_Delegate_NativeDelegateRecord@@SIXPAU1@0@Z 02046fdc f   DiskDrive.obj
 0001:00046010       ?m_StructCopy@Struct_System_Delegate_NativeDelegateRecord@@SIXPAU1@PAU1@@Z 02047010 f   DiskDrive.obj
 0001:000460ac       ?m_Equals@Struct_System_Delegate_NativeDelegateRecord@@SI_NPAU1@PAUClass_System_Object@@@Z 020470ac f   DiskDrive.obj
 0001:0004610c       ?m_Equals@Struct_System_Delegate_NativeDelegateRecord@@SI_NPAUClass_System_Delegate_NativeDelegateRecord@@PAUClass_System_Object@@@Z 0204710c f   DiskDrive.obj
 0001:00046138       ?m_Delegate@Struct_System_Delegate_NativeDelegateRecord@@SIPAUClass_System_Delegate@@PAU1@@Z 02047138 f   DiskDrive.obj
 0001:00046168       ?m__ctor@Class_System_FormatException@@SIXPAU1@@Z 02047168 f   DiskDrive.obj
 0001:00046190       ?m__ctor@Class_System_FormatException@@SIXPAU1@PAUClass_System_String@@@Z 02047190 f   DiskDrive.obj
 0001:000461b8       ?m_StructCopy@Struct_Microsoft_Singularity_Io_DiskDeviceContract_AckWrite@@SIXPAU1@0@Z 020471b8 f   DiskDrive.obj
 0001:000461e0       ?m_StructCopy@Struct_Microsoft_Singularity_Io_DiskDeviceContract_AckWrite@@SIXPAU1@PAU1@@Z 020471e0 f   DiskDrive.obj
 0001:00046258       ?m_MarshallContent@Struct_Microsoft_Singularity_Io_DiskDeviceContract_AckWrite@@SIXPAU1@PAEPAUStruct_Microsoft_Singularity_Channels_Endpoint@@1PAH@Z 02047258 f   DiskDrive.obj
 0001:00046300       ?m_MarshallAll@Struct_Microsoft_Singularity_Io_DiskDeviceContract_AckWrite@@SIXPAU1@PAEPAUStruct_Microsoft_Singularity_Channels_Endpoint@@PAH@Z 02047300 f   DiskDrive.obj
 0001:00046358       ?m_Equals@Struct_Microsoft_Singularity_Io_DiskDeviceContract_AckWrite@@SI_NPAU1@PAUClass_System_Object@@@Z 02047358 f   DiskDrive.obj
 0001:000463a0       ?m_Equals@Struct_Microsoft_Singularity_Io_DiskDeviceContract_AckWrite@@SI_NPAUClass_Microsoft_Singularity_Io_DiskDeviceContract_AckWrite@@PAUClass_System_Object@@@Z 020473a0 f   DiskDrive.obj
 0001:000463cc       ?m_VisitSmallPageEnd@Class_System_GCs_MarkSweepCollector_SweepVisitor@@SIXPAU1@@Z 020473cc f   DiskDrive.obj
 0001:000463f8       ?m_VisitSmall@Class_System_GCs_MarkSweepCollector_SweepVisitor@@SIXPAU1@PAUClass_System_Object@@PAUuintPtr@@@Z 020473f8 f   DiskDrive.obj
 0001:00046444       ?m_VisitLarge@Class_System_GCs_MarkSweepCollector_SweepVisitor@@SIPAUuintPtr@@PAU1@PAUClass_System_Object@@@Z 02047444 f   DiskDrive.obj
 0001:000464cc       ?m__ctor@Class_System_GCs_MarkSweepCollector_SweepVisitor@@SIXPAU1@@Z 020474cc f   DiskDrive.obj
 0001:000464f0       ?m_VisitSmallPageEnd@Class_System_GCs_SegregatedFreeList_ObjectVisitor@@SIXPAU1@@Z 020474f0 f   DiskDrive.obj
 0001:0004650c       ?m_VisitSmall@Class_System_GCs_SegregatedFreeList_ObjectVisitor@@SIXPAU1@PAUClass_System_Object@@PAUuintPtr@@@Z 0204750c f   DiskDrive.obj
 0001:00046538       ?m_VisitLarge@Class_System_GCs_SegregatedFreeList_ObjectVisitor@@SIPAUuintPtr@@PAU1@PAUClass_System_Object@@@Z 02047538 f   DiskDrive.obj
 0001:00046564       ?m_Visit@Class_System_GCs_SegregatedFreeList_ObjectVisitor@@SIPAUuintPtr@@PAU1@PAUClass_System_Object@@@Z 02047564 f   DiskDrive.obj
 0001:00046590       ?m_get$_Continue@Class_System_GCs_SegregatedFreeList_ObjectVisitor@@SI_NPAU1@@Z 02047590 f   DiskDrive.obj
 0001:000465ac       ?m__ctor@Class_System_GCs_SegregatedFreeList_ObjectVisitor@@SIXPAU1@@Z 020475ac f   DiskDrive.obj
 0001:000465d0       ?m__ctor@Class_System_Reflection_AssemblyName@@SIXPAU1@@Z 020475d0 f   DiskDrive.obj
 0001:000465ec       ?m_Finalize@Class__Directory_Contracts_Microsoft_Singularity_Channels_TRef$_2$LMicrosoft_Singularity_Extending_ExtensionContract_Exp_Microsoft_Singularity_Extending_ExtensionContract_Start$G@@SIXPAU1@@Z 020475ec f   DiskDrive.obj
 0001:00046678       ?m_Acquire@Class__Directory_Contracts_Microsoft_Singularity_Channels_TRef$_2$LMicrosoft_Singularity_Extending_ExtensionContract_Exp_Microsoft_Singularity_Extending_ExtensionContract_Start$G@@SIPAUStruct_Microsoft_Singularity_Extending_ExtensionContract_Exp@@PAU1@@Z 02047678 f   DiskDrive.obj
 0001:00046714       ?m__ctor@Class__Directory_Contracts_Microsoft_Singularity_Channels_TRef$_2$LMicrosoft_Singularity_Extending_ExtensionContract_Exp_Microsoft_Singularity_Extending_ExtensionContract_Start$G@@SIXPAU1@PAUStruct_Microsoft_Singularity_Extending_ExtensionContract_Exp@@@Z 02047714 f   DiskDrive.obj
 0001:000467b8       ?g_LittleEndianToHost@Class_Microsoft_Singularity_Io_ByteOrder@@SIII@Z 020477b8 f   DiskDrive.obj
 0001:000467d8       ?g_LittleEndianToHost@Class_Microsoft_Singularity_Io_ByteOrder@@SIGG@Z 020477d8 f   DiskDrive.obj
 0001:000467fc       ?g_HostToLittleEndian@Class_Microsoft_Singularity_Io_ByteOrder@@SIII@Z 020477fc f   DiskDrive.obj
 0001:0004681c       ?g_HostToLittleEndian@Class_Microsoft_Singularity_Io_ByteOrder@@SIGG@Z 0204781c f   DiskDrive.obj
 0001:00046840       ?m__ctor@Class_Microsoft_Singularity_Io_ByteOrder@@SIXPAU1@@Z 02047840 f   DiskDrive.obj
 0001:00046858       ?m_StructCopy@Struct_Microsoft_Singularity_V1_Services_DebugService@@SIXPAU1@0@Z 02047858 f   DiskDrive.obj
 0001:00046874       ?m_StructCopy@Struct_Microsoft_Singularity_V1_Services_DebugService@@SIXPAU1@PAU1@@Z 02047874 f   DiskDrive.obj
 0001:000468c8       ?g_PrintBegin@Struct_Microsoft_Singularity_V1_Services_DebugService@@SIXPAPA_WPAH@Z 020478c8 f   DiskDrive.obj
 0001:0004693c       ?m_Equals@Struct_Microsoft_Singularity_V1_Services_DebugService@@SI_NPAU1@PAUClass_System_Object@@@Z 0204793c f   DiskDrive.obj
 0001:00046974       ?m_Equals@Struct_Microsoft_Singularity_V1_Services_DebugService@@SI_NPAUClass_Microsoft_Singularity_V1_Services_DebugService@@PAUClass_System_Object@@@Z 02047974 f   DiskDrive.obj
 0001:000469a0       ?g_SetSlaveDiskConfig@Class_Microsoft_Singularity_Drivers_IDE_DiskDriverControl@@SIXPAUClass_Microsoft_Singularity_Drivers_IDE_IdeDiskConfig@@@Z 020479a0 f   DiskDrive.obj
 0001:000469c4       ?g_SetMasterDiskConfig@Class_Microsoft_Singularity_Drivers_IDE_DiskDriverControl@@SIXPAUClass_Microsoft_Singularity_Drivers_IDE_IdeDiskConfig@@@Z 020479c4 f   DiskDrive.obj
 0001:000469e8       ?g_DriverMain@Class_Microsoft_Singularity_Drivers_IDE_DiskDriverControl@@SIHPAUClass_System_String@@PAUClass_Microsoft_Singularity_Drivers_IDE_DiskResources@@@Z 020479e8 f   DiskDrive.obj
 0001:00046cc4       ?m__ctor@Class_Microsoft_Singularity_Drivers_IDE_DiskDriverControl@@SIXPAU1@@Z 02047cc4 f   DiskDrive.obj
 0001:00046cdc       ?m_StructCopy@Struct_Microsoft_Singularity_V1_Services_PciPortHandle@@SIXPAU1@0@Z 02047cdc f   DiskDrive.obj
 0001:00046d04       ?m_StructCopy@Struct_Microsoft_Singularity_V1_Services_PciPortHandle@@SIXPAU1@PAU1@@Z 02047d04 f   DiskDrive.obj
 0001:00046d7c       ?m_Equals@Struct_Microsoft_Singularity_V1_Services_PciPortHandle@@SI_NPAU1@PAUClass_System_Object@@@Z 02047d7c f   DiskDrive.obj
 0001:00046dc4       ?m_Equals@Struct_Microsoft_Singularity_V1_Services_PciPortHandle@@SI_NPAUClass_Microsoft_Singularity_V1_Services_PciPortHandle@@PAUClass_System_Object@@@Z 02047dc4 f   DiskDrive.obj
 0001:00046df0       ?m__ctor@Class_System_Threading_SynchronizationLockException@@SIXPAU1@@Z 02047df0 f   DiskDrive.obj
 0001:00046e18       ?m__ctor@Class_System_Threading_SynchronizationLockException@@SIXPAU1@PAUClass_System_String@@@Z 02047e18 f   DiskDrive.obj
 0001:00046e40       ?m_StructCopy@Struct_System_UpdateLog_Location@@SIXPAU1@0@Z 02047e40 f   DiskDrive.obj
 0001:00046e74       ?m_StructCopy@Struct_System_UpdateLog_Location@@SIXPAU1@PAU1@@Z 02047e74 f   DiskDrive.obj
 0001:00046f10       ?m_Equals@Struct_System_UpdateLog_Location@@SI_NPAU1@PAUClass_System_Object@@@Z 02047f10 f   DiskDrive.obj
 0001:00046f70       ?m_Equals@Struct_System_UpdateLog_Location@@SI_NPAUClass_System_UpdateLog_Location@@PAUClass_System_Object@@@Z 02047f70 f   DiskDrive.obj
 0001:00046f9c       ?m__ctor@Struct_System_UpdateLog_Location@@SIXPAU1@PAUClass_System_UpdateLog_LogChunk@@H@Z 02047f9c f   DiskDrive.obj
 0001:00046fcc       ?m_StructCopy@Struct_Microsoft_Singularity_Isal_IX_CR4@@SIXPAU1@0@Z 02047fcc f   DiskDrive.obj
 0001:00046fe8       ?m_StructCopy@Struct_Microsoft_Singularity_Isal_IX_CR4@@SIXPAU1@PAU1@@Z 02047fe8 f   DiskDrive.obj
 0001:0004703c       ?m_Equals@Struct_Microsoft_Singularity_Isal_IX_CR4@@SI_NPAU1@PAUClass_System_Object@@@Z 0204803c f   DiskDrive.obj
 0001:00047074       ?m_Equals@Struct_Microsoft_Singularity_Isal_IX_CR4@@SI_NPAUClass_Microsoft_Singularity_Isal_IX_CR4@@PAUClass_System_Object@@@Z 02048074 f   DiskDrive.obj
 0001:000470a0       ?m__ctor@Class_System_VTable_ClassConstructorLock@@SIXPAU1@@Z 020480a0 f   DiskDrive.obj
 0001:000470bc       ?m_StructCopy@Struct_Microsoft_Singularity_Isal_IX_CR0@@SIXPAU1@0@Z 020480bc f   DiskDrive.obj
 0001:000470d8       ?m_StructCopy@Struct_Microsoft_Singularity_Isal_IX_CR0@@SIXPAU1@PAU1@@Z 020480d8 f   DiskDrive.obj
 0001:0004712c       ?m_Equals@Struct_Microsoft_Singularity_Isal_IX_CR0@@SI_NPAU1@PAUClass_System_Object@@@Z 0204812c f   DiskDrive.obj
 0001:00047164       ?m_Equals@Struct_Microsoft_Singularity_Isal_IX_CR0@@SI_NPAUClass_Microsoft_Singularity_Isal_IX_CR0@@PAUClass_System_Object@@@Z 02048164 f   DiskDrive.obj
 0001:00047190       ?m_StructCopy@Struct_Microsoft_Singularity_Isal_IX_CR3@@SIXPAU1@0@Z 02048190 f   DiskDrive.obj
 0001:000471ac       ?m_StructCopy@Struct_Microsoft_Singularity_Isal_IX_CR3@@SIXPAU1@PAU1@@Z 020481ac f   DiskDrive.obj
 0001:00047200       ?m_Equals@Struct_Microsoft_Singularity_Isal_IX_CR3@@SI_NPAU1@PAUClass_System_Object@@@Z 02048200 f   DiskDrive.obj
 0001:00047238       ?m_Equals@Struct_Microsoft_Singularity_Isal_IX_CR3@@SI_NPAUClass_Microsoft_Singularity_Isal_IX_CR3@@PAUClass_System_Object@@@Z 02048238 f   DiskDrive.obj
 0001:00047264       ?m__ctor@Class_Microsoft_Singularity_Drivers_IDE_IdeDiskConfig@@SIXPAU1@PAUClass_Microsoft_Singularity_Drivers_IDE_IdeConfig@@EPAUClass_System_String@@_N@Z 02048264 f   DiskDrive.obj
 0001:000472b0       ?m_FieldOffset@Class_System_GCs_Barrier_ZeroFieldsVisitor@@SIXPAU1@PAUuintPtr@@PAUStruct_System_GCs_ReferenceVisitor_ObjectDescriptor@@@Z 020482b0 f   DiskDrive.obj
 0001:0004734c       ?m__ctor@Class_System_GCs_Barrier_ZeroFieldsVisitor@@SIXPAU1@@Z 0204834c f   DiskDrive.obj
 0001:00047370       ?m_StructCopy@Struct_Microsoft_Singularity_Eventing_QualityOfService@@SIXPAU1@0@Z 02048370 f   DiskDrive.obj
 0001:000473bc       ?m_StructCopy@Struct_Microsoft_Singularity_Eventing_QualityOfService@@SIXPAU1@PAU1@@Z 020483bc f   DiskDrive.obj
 0001:000474a0       ?m_Equals@Struct_Microsoft_Singularity_Eventing_QualityOfService@@SI_NPAU1@PAUClass_System_Object@@@Z 020484a0 f   DiskDrive.obj
 0001:00047518       ?m_Equals@Struct_Microsoft_Singularity_Eventing_QualityOfService@@SI_NPAUClass_Microsoft_Singularity_Eventing_QualityOfService@@PAUClass_System_Object@@@Z 02048518 f   DiskDrive.obj
 0001:00047544       ?m_Visit@Class_System_GCs_MemoryAccounting_RuntimeTypeMapper@@SIPAUuintPtr@@PAU1@PAUClass_System_Object@@@Z 02048544 f   DiskDrive.obj
 0001:00047560       ?m_Initialize@Class_System_GCs_MemoryAccounting_RuntimeTypeMapper@@SIXPAU1@_NPAUClassVector_Struct_System_GCs_MemoryAccounting_RuntimeTypeAccounting@@@Z 02048560 f   DiskDrive.obj
 0001:00047580       ?m__ctor@Class_System_GCs_MemoryAccounting_RuntimeTypeMapper@@SIXPAU1@@Z 02048580 f   DiskDrive.obj
 0001:00047598       ?m_StructCopy@Struct_Microsoft_Singularity_Isal_IX_MmxContext@@SIXPAU1@0@Z 02048598 f   DiskDrive.obj
 0001:000478e0       ?m_StructCopy@Struct_Microsoft_Singularity_Isal_IX_MmxContext@@SIXPAU1@PAU1@@Z 020488e0 f   DiskDrive.obj
 0001:000482b8       ?m_Equals@Struct_Microsoft_Singularity_Isal_IX_MmxContext@@SI_NPAU1@PAUClass_System_Object@@@Z 020492b8 f   DiskDrive.obj
 0001:000496d8       ?m_Equals@Struct_Microsoft_Singularity_Isal_IX_MmxContext@@SI_NPAUClass_Microsoft_Singularity_Isal_IX_MmxContext@@PAUClass_System_Object@@@Z 0204a6d8 f   DiskDrive.obj
 0001:00049704       ?m_TryAcquire@Struct_System_Threading_SpinLockBase@@SI_NPAU1@H@Z 0204a704 f   DiskDrive.obj
 0001:0004975c       ?m_StructCopy@Struct_System_Threading_SpinLockBase@@SIXPAU1@0@Z 0204a75c f   DiskDrive.obj
 0001:00049790       ?m_StructCopy@Struct_System_Threading_SpinLockBase@@SIXPAU1@PAU1@@Z 0204a790 f   DiskDrive.obj
 0001:0004982c       ?m_SpinToAcquire@Struct_System_Threading_SpinLockBase@@SIXPAU1@H@Z 0204a82c f   DiskDrive.obj
 0001:00049910       ?m_Release@Struct_System_Threading_SpinLockBase@@SIXPAU1@H@Z 0204a910 f   DiskDrive.obj
 0001:00049950       ?m_get$_Type@Struct_System_Threading_SpinLockBase@@SIHPAU1@@Z 0204a950 f   DiskDrive.obj
 0001:00049970       ?m_Equals@Struct_System_Threading_SpinLockBase@@SI_NPAU1@PAUClass_System_Object@@@Z 0204a970 f   DiskDrive.obj
 0001:000499cc       ?m_Equals@Struct_System_Threading_SpinLockBase@@SI_NPAUClass_System_Threading_SpinLockBase@@PAUClass_System_Object@@@Z 0204a9cc f   DiskDrive.obj
 0001:000499f8       ?m_Acquire@Struct_System_Threading_SpinLockBase@@SIXPAU1@H@Z 0204a9f8 f   DiskDrive.obj
 0001:00049a74       ?m__ctor@Class_Microsoft_Contracts_NullException@@SIXPAU1@@Z 0204aa74 f   DiskDrive.obj
 0001:00049a98       ?m__ctor@Class_Microsoft_Contracts_ContractException@@SIXPAU1@@Z 0204aa98 f   DiskDrive.obj
 0001:00049abc       ?m__ctor@Class_Microsoft_Contracts_ContractException@@SIXPAU1@PAUClass_System_String@@@Z 0204aabc f   DiskDrive.obj
 0001:00049ae4       ?m_StructCopy@Struct_Microsoft_Singularity_Io_VolumeManagerContract_Exp@@SIXPAU1@0@Z 0204aae4 f   DiskDrive.obj
 0001:00049be4       ?m_StructCopy@Struct_Microsoft_Singularity_Io_VolumeManagerContract_Exp@@SIXPAU1@PAU1@@Z 0204abe4 f   DiskDrive.obj
 0001:00049ee4       ?m_Peek@Struct_Microsoft_Singularity_Io_VolumeManagerContract_Exp@@SIHPAU1@@Z 0204aee4 f   DiskDrive.obj
 0001:0004a178       ?m_MarshallDeliverRegisterDisk0@Struct_Microsoft_Singularity_Io_VolumeManagerContract_Exp@@SIXPAU1@PA_WPAUStruct_Microsoft_Singularity_Channels_Endpoint@@@Z 0204b178 f   DiskDrive.obj
 0001:0004a1d0       ?m_MarshallDeliverNakConnect0@Struct_Microsoft_Singularity_Io_VolumeManagerContract_Exp@@SIXPAU1@PAUStruct_Microsoft_Singularity_Io_DiskDeviceContract_Exp@@PAUStruct_Microsoft_Singularity_Channels_Endpoint@@@Z 0204b1d0 f   DiskDrive.obj
 0001:0004a228       ?m_MarshallDeliverAckConnect0@Struct_Microsoft_Singularity_Io_VolumeManagerContract_Exp@@SIXPAU1@PAUStruct_Microsoft_Singularity_Channels_Endpoint@@@Z 0204b228 f   DiskDrive.obj
 0001:0004a27c       ?m_HeadMatches@Struct_Microsoft_Singularity_Io_VolumeManagerContract_Exp@@SI_NPAU1@HPA_NPAPAUClass_System_Object@@@Z 0204b27c f   DiskDrive.obj
 0001:0004a33c       ?m_HeadMatches@Struct_Microsoft_Singularity_Io_VolumeManagerContract_Exp@@SI_NPAUClass_Microsoft_Singularity_Io_VolumeManagerContract_Exp@@HPA_NPAPAUClass_System_Object@@@Z 0204b33c f   DiskDrive.obj
 0001:0004a374       ?m_Equals@Struct_Microsoft_Singularity_Io_VolumeManagerContract_Exp@@SI_NPAU1@PAUClass_System_Object@@@Z 0204b374 f   DiskDrive.obj
 0001:0004a710       ?m_Equals@Struct_Microsoft_Singularity_Io_VolumeManagerContract_Exp@@SI_NPAUClass_Microsoft_Singularity_Io_VolumeManagerContract_Exp@@PAUClass_System_Object@@@Z 0204b710 f   DiskDrive.obj
 0001:0004a73c       ?m_DeliverRegisterDisk0@Struct_Microsoft_Singularity_Io_VolumeManagerContract_Exp@@SIXPAU1@PA_W@Z 0204b73c f   DiskDrive.obj
 0001:0004a784       ?m_DeliverNakConnect0@Struct_Microsoft_Singularity_Io_VolumeManagerContract_Exp@@SIXPAU1@PAUStruct_Microsoft_Singularity_Io_DiskDeviceContract_Exp@@@Z 0204b784 f   DiskDrive.obj
 0001:0004a7cc       ?m_DeliverAckConnect0@Struct_Microsoft_Singularity_Io_VolumeManagerContract_Exp@@SIXPAU1@@Z 0204b7cc f   DiskDrive.obj
 0001:0004a800       ?m_SetUdmaMode@Class_Microsoft_Singularity_Drivers_IDE_IdeDisk@@SIXPAU1@@Z 0204b800 f   DiskDrive.obj
 0001:0004a8ec       ?m_Run@Class_Microsoft_Singularity_Drivers_IDE_IdeDisk@@SIXPAU1@PAUStruct_Microsoft_Singularity_Extending_ExtensionContract_Exp@@PAUStruct_Microsoft_Singularity_Directory_ServiceProviderContract_Exp@@PAUStruct_Microsoft_Singularity_Io_VolumeManagerContract_Imp@@@Z 0204b8ec f   DiskDrive.obj
 0001:0004c174       ?m_ReadWrite@Class_Microsoft_Singularity_Drivers_IDE_IdeDisk@@SIHPAU1@_NPAEPAUuintPtr@@3_KPAUClass_Microsoft_Singularity_Drivers_IDE_IdeDisk_DiskConnectionState@@@Z 0204d174 f   DiskDrive.obj
 0001:0004c920       ?m_ReadPerf@Class_Microsoft_Singularity_Drivers_IDE_IdeDisk@@SIHPAU1@HHPA_J1PAUClass_Microsoft_Singularity_Drivers_IDE_IdeDisk_DiskConnectionState@@@Z 0204d920 f   DiskDrive.obj
 0001:0004cba4       ?m_IssueOffsetAndCount@Class_Microsoft_Singularity_Drivers_IDE_IdeDisk@@SIXPAU1@_KF@Z 0204dba4 f   DiskDrive.obj
 0001:0004cdfc       ?m_GetDeviceName@Class_Microsoft_Singularity_Drivers_IDE_IdeDisk@@SIPAUClass_System_String@@PAU1@@Z 0204ddfc f   DiskDrive.obj
 0001:0004ce70       ?m_Finalize@Class_Microsoft_Singularity_Drivers_IDE_IdeDisk@@SIXPAU1@@Z 0204de70 f   DiskDrive.obj
 0001:0004ce98       ?m_dumpStatus@Class_Microsoft_Singularity_Drivers_IDE_IdeDisk@@SIXPAU1@HH@Z 0204de98 f   DiskDrive.obj
 0001:0004d0fc       ?m_announceDrive@Class_Microsoft_Singularity_Drivers_IDE_IdeDisk@@SIXPAU1@@Z 0204e0fc f   DiskDrive.obj
 0001:0004d344       ?m__ctor@Class_Microsoft_Singularity_Drivers_IDE_IdeDisk@@SIXPAU1@PAUClass_Microsoft_Singularity_Drivers_IDE_IdeDiskConfig@@PAUClass_System_String@@@Z 0204e344 f   DiskDrive.obj
 0001:0004d6c0       ?g__cctor@Class_Microsoft_Singularity_Drivers_IDE_IdeDisk@@SIXXZ 0204e6c0 f   DiskDrive.obj
 0001:0004dbc4       ?m_StructCopy@Struct_Microsoft_Singularity_Eventing_ArrayType@@SIXPAU1@0@Z 0204ebc4 f   DiskDrive.obj
 0001:0004dc14       ?m_StructCopy@Struct_Microsoft_Singularity_Eventing_ArrayType@@SIXPAU1@PAU1@@Z 0204ec14 f   DiskDrive.obj
 0001:0004dd04       ?m_Equals@Struct_Microsoft_Singularity_Eventing_ArrayType@@SI_NPAU1@PAUClass_System_Object@@@Z 0204ed04 f   DiskDrive.obj
 0001:0004dd80       ?m_Equals@Struct_Microsoft_Singularity_Eventing_ArrayType@@SI_NPAUClass_Microsoft_Singularity_Eventing_ArrayType@@PAUClass_System_Object@@@Z 0204ed80 f   DiskDrive.obj
 0001:0004ddac       ?m_VisitReferenceFields@Class_System_GCs_MarkSweepCollector_MarkAndProcessReferenceVisitor@@SIPAUuintPtr@@PAU1@PAUClass_System_Object@@@Z 0204edac f   DiskDrive.obj
 0001:0004de14       ?m_Visit@Class_System_GCs_MarkSweepCollector_MarkAndProcessReferenceVisitor@@SIXPAU1@PAPAUuintPtr@@@Z 0204ee14 f   DiskDrive.obj
 0001:0004de4c       ?m__ctor@Class_System_GCs_MarkSweepCollector_MarkAndProcessReferenceVisitor@@SIXPAU1@@Z 0204ee4c f   DiskDrive.obj
 0001:0004de70       ?g_visitAllObjects@Class_System_GCs_MemoryAccounting@@SIXPAUClass_System_GCs_ObjectLayout_ObjectVisitor@@PAUuintPtr@@1@Z 0204ee70 f   DiskDrive.obj
 0001:0004e1d4       ?g_TotalNumPages@Class_System_GCs_MemoryAccounting@@SIIUStruct_System_GCs_PageType@@@Z 0204f1d4 f   DiskDrive.obj
 0001:0004e328       ?g_ReportStackDetails@Class_System_GCs_MemoryAccounting@@SIXXZ 0204f328 f   DiskDrive.obj
 0001:0004e734       ?g_ReportNonGCDetails@Class_System_GCs_MemoryAccounting@@SIXXZ 0204f734 f   DiskDrive.obj
 0001:0004e9cc       ?g_ReportHeapDetails@Class_System_GCs_MemoryAccounting@@SIXXZ 0204f9cc f   DiskDrive.obj
 0001:0004f318       ?g_Report@Class_System_GCs_MemoryAccounting@@SIXUStruct_Microsoft_Bartok_Runtime_GCType@@@Z 02050318 f   DiskDrive.obj
 0001:0004f4d8       ?g_assertRuntimeTypeHeaders@Class_System_GCs_MemoryAccounting@@SIXPAUuintPtr@@0@Z 020504d8 f   DiskDrive.obj
 0001:0004f508       ?m__ctor@Class_System_GCs_MemoryAccounting@@SIXPAU1@@Z 02050508 f   DiskDrive.obj
 0001:0004f520       ?m_StructCopy@Struct_Microsoft_Singularity_Io_DiskDeviceContract_AckRead@@SIXPAU1@0@Z 02050520 f   DiskDrive.obj
 0001:0004f548       ?m_StructCopy@Struct_Microsoft_Singularity_Io_DiskDeviceContract_AckRead@@SIXPAU1@PAU1@@Z 02050548 f   DiskDrive.obj
 0001:0004f5c0       ?m_MarshallContent@Struct_Microsoft_Singularity_Io_DiskDeviceContract_AckRead@@SIXPAU1@PAEPAUStruct_Microsoft_Singularity_Channels_Endpoint@@1PAH@Z 020505c0 f   DiskDrive.obj
 0001:0004f668       ?m_MarshallAll@Struct_Microsoft_Singularity_Io_DiskDeviceContract_AckRead@@SIXPAU1@PAEPAUStruct_Microsoft_Singularity_Channels_Endpoint@@PAH@Z 02050668 f   DiskDrive.obj
 0001:0004f6c0       ?m_Equals@Struct_Microsoft_Singularity_Io_DiskDeviceContract_AckRead@@SI_NPAU1@PAUClass_System_Object@@@Z 020506c0 f   DiskDrive.obj
 0001:0004f708       ?m_Equals@Struct_Microsoft_Singularity_Io_DiskDeviceContract_AckRead@@SI_NPAUClass_Microsoft_Singularity_Io_DiskDeviceContract_AckRead@@PAUClass_System_Object@@@Z 02050708 f   DiskDrive.obj
 0001:0004f734       ?m_FieldOffset@Class_System_GCs_Barrier_SlowZeroFieldsVisitor@@SIXPAU1@PAUuintPtr@@PAUStruct_System_GCs_ReferenceVisitor_ObjectDescriptor@@@Z 02050734 f   DiskDrive.obj
 0001:0004f820       ?m__ctor@Class_System_GCs_Barrier_SlowZeroFieldsVisitor@@SIXPAU1@@Z 02050820 f   DiskDrive.obj
 0001:0004f844       ?m_RegisterController@Class_Microsoft_Singularity_Eventing_SystemControllerProxy@@SI_NPAU1@@Z 02050844 f   DiskDrive.obj
 0001:0004f900       ?g_DebugPrintLogEntry@Class_Microsoft_Singularity_Eventing_SystemControllerProxy@@SI_NPAUuintPtr@@@Z 02050900 f   DiskDrive.obj
 0001:0004f930       ?m__ctor@Class_Microsoft_Singularity_Eventing_SystemControllerProxy@@SIXPAU1@@Z 02050930 f   DiskDrive.obj
 0001:0004f954       ?g__cctor@Class_Microsoft_Singularity_Eventing_SystemControllerProxy@@SIXXZ 02050954 f   DiskDrive.obj
 0001:0004f97c       ?g_Create@Class_Microsoft_Singularity_Eventing_ControllerLogger@@SIPAU1@PAUClass_System_String@@PAUClass_Microsoft_Singularity_Eventing_EventingStorage@@@Z 0205097c f   DiskDrive.obj
 0001:0004f9f0       ?m__ctor@Class_Microsoft_Singularity_Eventing_ControllerLogger@@SIXPAU1@PAUClass_System_String@@PAUClass_Microsoft_Singularity_Eventing_EventingStorage@@I@Z 020509f0 f   DiskDrive.obj
 0001:0004fa24       ?m_StructCopy@Struct_Microsoft_Singularity_Isal_IX_DescriptorTable@@SIXPAU1@0@Z 02050a24 f   DiskDrive.obj
 0001:0004fa60       ?m_StructCopy@Struct_Microsoft_Singularity_Isal_IX_DescriptorTable@@SIXPAU1@PAU1@@Z 02050a60 f   DiskDrive.obj
 0001:0004fb14       ?m_Equals@Struct_Microsoft_Singularity_Isal_IX_DescriptorTable@@SI_NPAU1@PAUClass_System_Object@@@Z 02050b14 f   DiskDrive.obj
 0001:0004fc8c       ?m_Equals@Struct_Microsoft_Singularity_Isal_IX_DescriptorTable@@SI_NPAUClass_Microsoft_Singularity_Isal_IX_DescriptorTable@@PAUClass_System_Object@@@Z 02050c8c f   DiskDrive.obj
 0001:0004fcb8       ?m_ToString@Class_Microsoft_Singularity_Io_PnpConfig@@SIPAUClass_System_String@@PAU1@@Z 02050cb8 f   DiskDrive.obj
 0001:0004fcf8       ?m__ctor@Class_Microsoft_Singularity_Io_PnpConfig@@SIXPAU1@PAUClassVector_Class_System_String@@PAUClassVector_Class_Microsoft_Singularity_Io_IoRange@@2@Z 02050cf8 f   DiskDrive.obj
 0001:0004fd3c       ?m_ToPrint@Class_Microsoft_Singularity_Io_IoConfig@@SIPAUClass_System_String@@PAU1@@Z 02050d3c f   DiskDrive.obj
 0001:0004fd98       ?m_ToPrint@Class_Microsoft_Singularity_Io_IoConfig@@SIXPAU1@PAUClass_System_Text_StringBuilder@@@Z 02050d98 f   DiskDrive.obj
 0001:0004fe04       ?g_GetFixedIoResources@Class_Microsoft_Singularity_Io_IoConfig@@SIPAUClassVector_Class_Microsoft_Singularity_Io_IoRange@@XZ 02050e04 f   DiskDrive.obj
 0001:000502a0       ?g_GetConfig@Class_Microsoft_Singularity_Io_IoConfig@@SIPAU1@XZ 020512a0 f   DiskDrive.obj
 0001:00050a00       ?m_DumpRanges@Class_Microsoft_Singularity_Io_IoConfig@@SIXPAU1@PAUClass_System_Text_StringBuilder@@@Z 02051a00 f   DiskDrive.obj
 0001:00050ba4       ?m_DumpIds@Class_Microsoft_Singularity_Io_IoConfig@@SIXPAU1@PAUClass_System_Text_StringBuilder@@@Z 02051ba4 f   DiskDrive.obj
 0001:00050c34       ?m__ctor@Class_Microsoft_Singularity_Io_IoConfig@@SIXPAU1@@Z 02051c34 f   DiskDrive.obj
 0001:00050c50       ?m__ctor@Class_System_Runtime_CompilerServices_SelfPointAttribute@@SIXPAU1@@Z 02051c50 f   DiskDrive.obj
 0001:00050c74       ?m_Finalize@Class__DiskDrive_Microsoft_Singularity_Channels_TRef$_2$LMicrosoft_Singularity_Io_VolumeManagerContract_Imp_Microsoft_Singularity_Io_VolumeManagerContract_Start$G@@SIXPAU1@@Z 02051c74 f   DiskDrive.obj
 0001:00050d00       ?m_Acquire@Class__DiskDrive_Microsoft_Singularity_Channels_TRef$_2$LMicrosoft_Singularity_Io_VolumeManagerContract_Imp_Microsoft_Singularity_Io_VolumeManagerContract_Start$G@@SIPAUStruct_Microsoft_Singularity_Io_VolumeManagerContract_Imp@@PAU1@@Z 02051d00 f   DiskDrive.obj
 0001:00050d9c       ?m__ctor@Class__DiskDrive_Microsoft_Singularity_Channels_TRef$_2$LMicrosoft_Singularity_Io_VolumeManagerContract_Imp_Microsoft_Singularity_Io_VolumeManagerContract_Start$G@@SIXPAU1@PAUStruct_Microsoft_Singularity_Io_VolumeManagerContract_Imp@@@Z 02051d9c f   DiskDrive.obj
 0001:00050e40       ?m_StructCopy@Struct_System_GCs_FrameDescriptor@@SIXPAU1@0@Z 02051e40 f   DiskDrive.obj
 0001:00050ee0       ?m_StructCopy@Struct_System_GCs_FrameDescriptor@@SIXPAU1@PAU1@@Z 02051ee0 f   DiskDrive.obj
 0001:000510c0       ?m_Equals@Struct_System_GCs_FrameDescriptor@@SI_NPAU1@PAUClass_System_Object@@@Z 020520c0 f   DiskDrive.obj
 0001:00051198       ?m_Equals@Struct_System_GCs_FrameDescriptor@@SI_NPAUClass_System_GCs_FrameDescriptor@@PAUClass_System_Object@@@Z 02052198 f   DiskDrive.obj
 0001:000511c4       ?m__ctor@Struct_System_GCs_FrameDescriptor@@SIXPAU1@UStruct_System_GCs_CompressedFrameDescriptor@@@Z 020521c4 f   DiskDrive.obj
 0001:00051424       ?m_VisitReferenceFields@Class_System_GCs_Barrier_CopyFieldsVisitor@@SIXPAU1@PAUClass_System_VTable@@PAUuintPtr@@2@Z 02052424 f   DiskDrive.obj
 0001:00051cf4       ?m_VisitReferenceFields@Class_System_GCs_Barrier_CopyFieldsVisitor@@SIXPAU1@PAUClass_System_VTable@@PAUuintPtr@@2H@Z 02052cf4 f   DiskDrive.obj
 0001:00051ec0       ?m_FieldOffset@Class_System_GCs_Barrier_CopyFieldsVisitor@@SIXPAU1@PAUuintPtr@@PAUStruct_System_GCs_ReferenceVisitor_ObjectDescriptor@@@Z 02052ec0 f   DiskDrive.obj
 0001:00051fb4       ?m__ctor@Class_System_GCs_Barrier_CopyFieldsVisitor@@SIXPAU1@@Z 02052fb4 f   DiskDrive.obj
 0001:00051fd8       ?m_VisitReferenceFields@Class_System_GCs_OffsetReferenceVisitor@@SIPAUuintPtr@@PAU1@PAU2@PAUClass_System_VTable@@@Z 02052fd8 f   DiskDrive.obj
 0001:00052774       ?m_Filter@Class_System_GCs_OffsetReferenceVisitor@@SIXPAU1@PAPAUuintPtr@@PAUStruct_System_GCs_ReferenceVisitor_ObjectDescriptor@@@Z 02053774 f   DiskDrive.obj
 0001:000527c4       ?m__ctor@Class_System_GCs_OffsetReferenceVisitor@@SIXPAU1@@Z 020537c4 f   DiskDrive.obj
 0001:000527e8       ?m_Write8@Class_Microsoft_Singularity_Io_IoPort@@SIXPAU1@E@Z 020537e8 f   DiskDrive.obj
 0001:00052854       ?m_Write8@Class_Microsoft_Singularity_Io_IoPort@@SIXPAU1@IE@Z 02053854 f   DiskDrive.obj
 0001:000528cc       ?m_Write32@Class_Microsoft_Singularity_Io_IoPort@@SIXPAU1@I@Z 020538cc f   DiskDrive.obj
 0001:00052938       ?m_Write32@Class_Microsoft_Singularity_Io_IoPort@@SIXPAU1@II@Z 02053938 f   DiskDrive.obj
 0001:000529b0       ?m_Write16@Class_Microsoft_Singularity_Io_IoPort@@SIXPAU1@IG@Z 020539b0 f   DiskDrive.obj
 0001:00052a28       ?m_Write16@Class_Microsoft_Singularity_Io_IoPort@@SIXPAU1@G@Z 02053a28 f   DiskDrive.obj
 0001:00052a94       ?m_ToString@Class_Microsoft_Singularity_Io_IoPort@@SIPAUClass_System_String@@PAU1@@Z 02053a94 f   DiskDrive.obj
 0001:00052b18       ?m_Read8@Class_Microsoft_Singularity_Io_IoPort@@SIEPAU1@@Z 02053b18 f   DiskDrive.obj
 0001:00052b88       ?m_Read8@Class_Microsoft_Singularity_Io_IoPort@@SIEPAU1@I@Z 02053b88 f   DiskDrive.obj
 0001:00052bfc       ?m_Read16@Class_Microsoft_Singularity_Io_IoPort@@SIGPAU1@@Z 02053bfc f   DiskDrive.obj
 0001:00052c70       ?m_Read16@Class_Microsoft_Singularity_Io_IoPort@@SIGPAU1@I@Z 02053c70 f   DiskDrive.obj
 0001:00052ce4       ?m_CheckWrite@Class_Microsoft_Singularity_Io_IoPort@@SIXPAU1@II@Z 02053ce4 f   DiskDrive.obj
 0001:00052d30       ?m_CheckRead@Class_Microsoft_Singularity_Io_IoPort@@SIXPAU1@II@Z 02053d30 f   DiskDrive.obj
 0001:00052d7c       ?m__ctor@Class_Microsoft_Singularity_Io_IoPort@@SIXPAU1@GG_N1@Z 02053d7c f   DiskDrive.obj
 0001:00052dc4       ?m_StructCopy@Struct_Microsoft_Singularity_Isal_IX_EFlagsShift@@SIXPAU1@0@Z 02053dc4 f   DiskDrive.obj
 0001:00052de0       ?m_StructCopy@Struct_Microsoft_Singularity_Isal_IX_EFlagsShift@@SIXPAU1@PAU1@@Z 02053de0 f   DiskDrive.obj
 0001:00052e34       ?m_Equals@Struct_Microsoft_Singularity_Isal_IX_EFlagsShift@@SI_NPAU1@PAUClass_System_Object@@@Z 02053e34 f   DiskDrive.obj
 0001:00052e6c       ?m_Equals@Struct_Microsoft_Singularity_Isal_IX_EFlagsShift@@SI_NPAUClass_Microsoft_Singularity_Isal_IX_EFlagsShift@@PAUClass_System_Object@@@Z 02053e6c f   DiskDrive.obj
 0001:00052e98       ?m_WaitForInterrupt@Class_Microsoft_Singularity_Io_IoIrq@@SI_NPAU1@@Z 02053e98 f   DiskDrive.obj
 0001:00052ed8       ?m_ToString@Class_Microsoft_Singularity_Io_IoIrq@@SIPAUClass_System_String@@PAU1@@Z 02053ed8 f   DiskDrive.obj
 0001:00052f28       ?m_ReleaseInterrupt@Class_Microsoft_Singularity_Io_IoIrq@@SI_NPAU1@@Z 02053f28 f   DiskDrive.obj
 0001:00052f74       ?m_RegisterInterrupt@Class_Microsoft_Singularity_Io_IoIrq@@SI_NPAU1@@Z 02053f74 f   DiskDrive.obj
 0001:00052fc8       ?m_Pulse@Class_Microsoft_Singularity_Io_IoIrq@@SIXPAU1@@Z 02053fc8 f   DiskDrive.obj
 0001:00053004       ?m_Finalize@Class_Microsoft_Singularity_Io_IoIrq@@SIXPAU1@@Z 02054004 f   DiskDrive.obj
 0001:00053058       ?m_AckInterrupt@Class_Microsoft_Singularity_Io_IoIrq@@SI_NPAU1@@Z 02054058 f   DiskDrive.obj
 0001:00053098       ?m__ctor@Class_Microsoft_Singularity_Io_IoIrq@@SIXPAU1@E@Z 02054098 f   DiskDrive.obj
 0001:000530c8       ?m_get$_SystemId@Class_Microsoft_Singularity_Drivers_IDE_IdeDisk_DiskConnectionState@@SIHPAU1@@Z 020540c8 f   DiskDrive.obj
 0001:00053104       ?m_get$_StartSector@Class_Microsoft_Singularity_Drivers_IDE_IdeDisk_DiskConnectionState@@SI_KPAU1@@Z 02054104 f   DiskDrive.obj
 0001:00053164       ?m_get$_SectorCount@Class_Microsoft_Singularity_Drivers_IDE_IdeDisk_DiskConnectionState@@SI_KPAU1@@Z 02054164 f   DiskDrive.obj
 0001:000531c4       ?m_get$_DiskAttributes@Class_Microsoft_Singularity_Drivers_IDE_IdeDisk_DiskConnectionState@@SI?AUStruct_Microsoft_Singularity_Io_DiskAttributes@@PAU1@@Z 020541c4 f   DiskDrive.obj
 0001:00053204       ?m__ctor@Class_Microsoft_Singularity_Drivers_IDE_IdeDisk_DiskConnectionState@@SIXPAU1@_K1@Z 02054204 f   DiskDrive.obj
 0001:0005323c       ?m__ctor@Class_Microsoft_Singularity_Drivers_IDE_IdeDisk_DiskConnectionState@@SIXPAU1@H_K1@Z 0205423c f   DiskDrive.obj
 0001:00053288       ?m_StructCopy@Struct_System_GCs_CalleeSaveLocations_RegLocation@@SIXPAU1@0@Z 02054288 f   DiskDrive.obj
 0001:000532c8       ?m_StructCopy@Struct_System_GCs_CalleeSaveLocations_RegLocation@@SIXPAU1@PAU1@@Z 020542c8 f   DiskDrive.obj
 0001:00053388       ?m_SetCalleeReg@Struct_System_GCs_CalleeSaveLocations_RegLocation@@SIXPAU1@PAPAUuintPtr@@@Z 02054388 f   DiskDrive.obj
 0001:000533c8       ?m_ScanLiveReg@Struct_System_GCs_CalleeSaveLocations_RegLocation@@SIXPAU1@IPAUClass_System_GCs_NonNullReferenceVisitor@@@Z 020543c8 f   DiskDrive.obj
 0001:00053478       ?m_PopFrameReg@Struct_System_GCs_CalleeSaveLocations_RegLocation@@SIXPAU1@PAPAPAUuintPtr@@@Z 02054478 f   DiskDrive.obj
 0001:00053530       ?m_Equals@Struct_System_GCs_CalleeSaveLocations_RegLocation@@SI_NPAU1@PAUClass_System_Object@@@Z 02054530 f   DiskDrive.obj
 0001:00053598       ?m_Equals@Struct_System_GCs_CalleeSaveLocations_RegLocation@@SI_NPAUClass_System_GCs_CalleeSaveLocations_RegLocation@@PAUClass_System_Object@@@Z 02054598 f   DiskDrive.obj
 0001:000535c4       ?m_ClearFrameReg@Struct_System_GCs_CalleeSaveLocations_RegLocation@@SIXPAU1@@Z 020545c4 f   DiskDrive.obj
 0001:00053644       ?m_ClearCalleeReg@Struct_System_GCs_CalleeSaveLocations_RegLocation@@SIXPAU1@@Z 02054644 f   DiskDrive.obj
 0001:000536c0       ?m_ToString@uint64@@SIPAUClass_System_String@@PA_K@Z 020546c0 f   DiskDrive.obj
 0001:000536e8       ?m_ToString@uint64@@SIPAUClass_System_String@@PA_KPAU2@@Z 020546e8 f   DiskDrive.obj
 0001:0005373c       ?m_ToString@uint64@@SIPAUClass_System_String@@PAUClass_System_UInt64@@@Z 0205473c f   DiskDrive.obj
 0001:00053764       ?m_ToString@uint64@@SIPAUClass_System_String@@PAUClass_System_UInt64@@PAU2@@Z 02054764 f   DiskDrive.obj
 0001:00053790       ?m_GetHashCode@uint64@@SIHPA_K@Z 02054790 f   DiskDrive.obj
 0001:000537c4       ?m_GetHashCode@uint64@@SIHPAUClass_System_UInt64@@@Z 020547c4 f   DiskDrive.obj
 0001:000537ec       ?m_Equals@uint64@@SI_NPA_KPAUClass_System_Object@@@Z 020547ec f   DiskDrive.obj
 0001:0005385c       ?m_Equals@uint64@@SI_NPAUClass_System_UInt64@@PAUClass_System_Object@@@Z 0205485c f   DiskDrive.obj
 0001:00053888       ?m_StructCopy@Struct_System_UpdateLog_Entry@@SIXPAU1@0@Z 02054888 f   DiskDrive.obj
 0001:000538d4       ?m_StructCopy@Struct_System_UpdateLog_Entry@@SIXPAU1@PAU1@@Z 020548d4 f   DiskDrive.obj
 0001:000539b8       ?m_Equals@Struct_System_UpdateLog_Entry@@SI_NPAU1@PAUClass_System_Object@@@Z 020549b8 f   DiskDrive.obj
 0001:00053a8c       ?m_Equals@Struct_System_UpdateLog_Entry@@SI_NPAUClass_System_UpdateLog_Entry@@PAUClass_System_Object@@@Z 02054a8c f   DiskDrive.obj
 0001:00053ab8       ?m__ctor@Class_System_Threading_HandleCreateException@@SIXPAU1@@Z 02054ab8 f   DiskDrive.obj
 0001:00053ae0       ?m_Unlink@Class_Microsoft_Singularity_Drivers_IDE_IdeDisk_Microsoft_Singularity_Channels_EMap$_3$LMicrosoft_Singularity_Io_DiskDeviceContract_Exp_Microsoft_Singularity_Io_DiskDeviceContract_Ready_optional_Microsoft_Contracts_NonNullType__Microsoft_Singularity_Drivers_IDE_IdeDisk_DiskConnectionState$G_Node@@SIPAUStruct_Microsoft_Singularity_Io_DiskDeviceContract_Exp@@PAU1@PAUClass_Microsoft_Singularity_Drivers_IDE_IdeDisk_Microsoft_Singularity_Channels_EMap$_3$LMicrosoft_Singularity_Io_DiskDeviceContract_Exp_Microsoft_Singularity_Io_DiskDeviceContract_Ready_optional_Microsoft_Contracts_NonNullType__Microsoft_Singularity_Drivers_IDE_IdeDisk_DiskConnectionState$G@@PAPAUClass_Microsoft_Singularity_Drivers_IDE_IdeDisk_DiskConnectionState@@@Z 02054ae0 f   DiskDrive.obj
 0001:00053bc8       ?m_LinkAsNext@Class_Microsoft_Singularity_Drivers_IDE_IdeDisk_Microsoft_Singularity_Channels_EMap$_3$LMicrosoft_Singularity_Io_DiskDeviceContract_Exp_Microsoft_Singularity_Io_DiskDeviceContract_Ready_optional_Microsoft_Contracts_NonNullType__Microsoft_Singularity_Drivers_IDE_IdeDisk_DiskConnectionState$G_Node@@SIXPAU1@PAUStruct_Microsoft_Singularity_Io_DiskDeviceContract_Exp@@PAUClass_Microsoft_Singularity_Drivers_IDE_IdeDisk_DiskConnectionState@@PAUClass_Microsoft_Singularity_Drivers_IDE_IdeDisk_Microsoft_Singularity_Channels_EMap$_3$LMicrosoft_Singularity_Io_DiskDeviceContract_Exp_Microsoft_Singularity_Io_DiskDeviceContract_Ready_optional_Microsoft_Contracts_NonNullType__Microsoft_Singularity_Drivers_IDE_IdeDisk_DiskConnectionState$G@@@Z 02054bc8 f   DiskDrive.obj
 0001:00053c48       ?m_Init@Class_Microsoft_Singularity_Drivers_IDE_IdeDisk_Microsoft_Singularity_Channels_EMap$_3$LMicrosoft_Singularity_Io_DiskDeviceContract_Exp_Microsoft_Singularity_Io_DiskDeviceContract_Ready_optional_Microsoft_Contracts_NonNullType__Microsoft_Singularity_Drivers_IDE_IdeDisk_DiskConnectionState$G_Node@@SIXPAU1@PAUStruct_Microsoft_Singularity_Io_DiskDeviceContract_Exp@@PAUClass_Microsoft_Singularity_Drivers_IDE_IdeDisk_DiskConnectionState@@PAUClass_Microsoft_Singularity_Drivers_IDE_IdeDisk_Microsoft_Singularity_Channels_EMap$_3$LMicrosoft_Singularity_Io_DiskDeviceContract_Exp_Microsoft_Singularity_Io_DiskDeviceContract_Ready_optional_Microsoft_Contracts_NonNullType__Microsoft_Singularity_Drivers_IDE_IdeDisk_DiskConnectionState$G@@@Z 02054c48 f   DiskDrive.obj
 0001:00053c84       ?m__ctor@Class_Microsoft_Singularity_Drivers_IDE_IdeDisk_Microsoft_Singularity_Channels_EMap$_3$LMicrosoft_Singularity_Io_DiskDeviceContract_Exp_Microsoft_Singularity_Io_DiskDeviceContract_Ready_optional_Microsoft_Contracts_NonNullType__Microsoft_Singularity_Drivers_IDE_IdeDisk_DiskConnectionState$G_Node@@SIXPAU1@PAUStruct_Microsoft_Singularity_Io_DiskDeviceContract_Exp@@PAUClass_Microsoft_Singularity_Drivers_IDE_IdeDisk_DiskConnectionState@@PAUClass_Microsoft_Singularity_Drivers_IDE_IdeDisk_Microsoft_Singularity_Channels_EMap$_3$LMicrosoft_Singularity_Io_DiskDeviceContract_Exp_Microsoft_Singularity_Io_DiskDeviceContract_Ready_optional_Microsoft_Contracts_NonNullType__Microsoft_Singularity_Drivers_IDE_IdeDisk_DiskConnectionState$G@@@Z 02054c84 f   DiskDrive.obj
 0001:00053ccc       ?m__ctor@Class_Microsoft_Singularity_Drivers_IDE_IdeDisk_Microsoft_Singularity_Channels_EMap$_3$LMicrosoft_Singularity_Io_DiskDeviceContract_Exp_Microsoft_Singularity_Io_DiskDeviceContract_Ready_optional_Microsoft_Contracts_NonNullType__Microsoft_Singularity_Drivers_IDE_IdeDisk_DiskConnectionState$G_Node@@SIXPAU1@PAUClass_Microsoft_Singularity_Drivers_IDE_IdeDisk_Microsoft_Singularity_Channels_EMap$_3$LMicrosoft_Singularity_Io_DiskDeviceContract_Exp_Microsoft_Singularity_Io_DiskDeviceContract_Ready_optional_Microsoft_Contracts_NonNullType__Microsoft_Singularity_Drivers_IDE_IdeDisk_DiskConnectionState$G@@@Z 02054ccc f   DiskDrive.obj
 0001:00053d00       ?m_ToString@Struct_System_SchedulerTime@@SIPAUClass_System_String@@PAU1@@Z 02054d00 f   DiskDrive.obj
 0001:00053e20       ?m_ToString@Struct_System_SchedulerTime@@SIPAUClass_System_String@@PAUClass_System_SchedulerTime@@@Z 02054e20 f   DiskDrive.obj
 0001:00053e68       ?m_StructCopy@Struct_System_SchedulerTime@@SIXPAU1@0@Z 02054e68 f   DiskDrive.obj
 0001:00053e9c       ?m_StructCopy@Struct_System_SchedulerTime@@SIXPAU1@PAU1@@Z 02054e9c f   DiskDrive.obj
 0001:00053f38       ?m_GetHashCode@Struct_System_SchedulerTime@@SIHPAU1@@Z 02054f38 f   DiskDrive.obj
 0001:00053f64       ?m_GetHashCode@Struct_System_SchedulerTime@@SIHPAUClass_System_SchedulerTime@@@Z 02054f64 f   DiskDrive.obj
 0001:00053fac       ?m_get$_TotalDays@Struct_System_SchedulerTime@@SI_JPAU1@@Z 02054fac f   DiskDrive.obj
 0001:00053fe4       ?m_get$_Second@Struct_System_SchedulerTime@@SIHPAU1@@Z 02054fe4 f   DiskDrive.obj
 0001:00054024       ?m_get$_Minute@Struct_System_SchedulerTime@@SIHPAU1@@Z 02055024 f   DiskDrive.obj
 0001:00054064       ?m_get$_Hour@Struct_System_SchedulerTime@@SIHPAU1@@Z 02055064 f   DiskDrive.obj
 0001:000540a4       ?m_Equals@Struct_System_SchedulerTime@@SI_NPAU1@PAUClass_System_Object@@@Z 020550a4 f   DiskDrive.obj
 0001:0005411c       ?m_Equals@Struct_System_SchedulerTime@@SI_NPAUClass_System_SchedulerTime@@PAUClass_System_Object@@@Z 0205511c f   DiskDrive.obj
 0001:00054168       ?m__ctor@Struct_System_SchedulerTime@@SIXPAU1@_J@Z 02055168 f   DiskDrive.obj
 0001:000541f8       ?g__cctor@Struct_System_SchedulerTime@@SIXXZ 020551f8 f   DiskDrive.obj
 0001:00054274       ?m_StructCopy@Struct_Microsoft_Singularity_V1_Services_StackService@@SIXPAU1@0@Z 02055274 f   DiskDrive.obj
 0001:00054290       ?m_StructCopy@Struct_Microsoft_Singularity_V1_Services_StackService@@SIXPAU1@PAU1@@Z 02055290 f   DiskDrive.obj
 0001:000542e4       ?g_FreeStackSegment@Struct_Microsoft_Singularity_V1_Services_StackService@@SIXXZ 020552e4 f   DiskDrive.obj
 0001:000542f4       ?m_Equals@Struct_Microsoft_Singularity_V1_Services_StackService@@SI_NPAU1@PAUClass_System_Object@@@Z 020552f4 f   DiskDrive.obj
 0001:0005432c       ?m_Equals@Struct_Microsoft_Singularity_V1_Services_StackService@@SI_NPAUClass_Microsoft_Singularity_V1_Services_StackService@@PAUClass_System_Object@@@Z 0205532c f   DiskDrive.obj
 0001:00054358       ?g_AllocateStackSegment@Struct_Microsoft_Singularity_V1_Services_StackService@@SIPAUuintPtr@@PAU2@@Z 02055358 f   DiskDrive.obj
 0001:000543a0       ?m__ctor@Class_System_UpdateEnlistmentLog_LogChunk@@SIXPAU1@PAUClassVector_Struct_System_UpdateEnlistmentLog_Entry@@0@Z 020553a0 f   DiskDrive.obj
 0001:000543dc       ?m_StructCopy@Struct_Microsoft_Singularity_Io_DiskDeviceContract_AckNoOp@@SIXPAU1@0@Z 020553dc f   DiskDrive.obj
 0001:000543f8       ?m_StructCopy@Struct_Microsoft_Singularity_Io_DiskDeviceContract_AckNoOp@@SIXPAU1@PAU1@@Z 020553f8 f   DiskDrive.obj
 0001:0005444c       ?m_MarshallContent@Struct_Microsoft_Singularity_Io_DiskDeviceContract_AckNoOp@@SIXPAU1@PAEPAUStruct_Microsoft_Singularity_Channels_Endpoint@@1PAH@Z 0205544c f   DiskDrive.obj
 0001:0005446c       ?m_MarshallAll@Struct_Microsoft_Singularity_Io_DiskDeviceContract_AckNoOp@@SIXPAU1@PAEPAUStruct_Microsoft_Singularity_Channels_Endpoint@@PAH@Z 0205546c f   DiskDrive.obj
 0001:000544c4       ?m_Equals@Struct_Microsoft_Singularity_Io_DiskDeviceContract_AckNoOp@@SI_NPAU1@PAUClass_System_Object@@@Z 020554c4 f   DiskDrive.obj
 0001:000544fc       ?m_Equals@Struct_Microsoft_Singularity_Io_DiskDeviceContract_AckNoOp@@SI_NPAUClass_Microsoft_Singularity_Io_DiskDeviceContract_AckNoOp@@PAUClass_System_Object@@@Z 020554fc f   DiskDrive.obj
 0001:00054528       ?m__ctor@Class_System_UndoLog@@SIXPAU1@@Z 02055528 f   DiskDrive.obj
 0001:00054558       ?m_ToString@float64@@SIPAUClass_System_String@@PAN@Z 02055558 f   DiskDrive.obj
 0001:00054580       ?m_ToString@float64@@SIPAUClass_System_String@@PANPAU2@@Z 02055580 f   DiskDrive.obj
 0001:000545cc       ?m_ToString@float64@@SIPAUClass_System_String@@PAUClass_System_Double@@@Z 020555cc f   DiskDrive.obj
 0001:000545f4       ?m_ToString@float64@@SIPAUClass_System_String@@PAUClass_System_Double@@PAU2@@Z 020555f4 f   DiskDrive.obj
 0001:00054620       ?g_IsNaN@float64@@SI_NN@Z  02055620 f   DiskDrive.obj
 0001:000546d0       ?m_GetHashCode@float64@@SIHPAN@Z 020556d0 f   DiskDrive.obj
 0001:0005473c       ?m_GetHashCode@float64@@SIHPAUClass_System_Double@@@Z 0205573c f   DiskDrive.obj
 0001:00054764       ?m_Equals@float64@@SI_NPANPAUClass_System_Object@@@Z 02055764 f   DiskDrive.obj
 0001:0005480c       ?m_Equals@float64@@SI_NPAUClass_System_Double@@PAUClass_System_Object@@@Z 0205580c f   DiskDrive.obj
 0001:00054838       ?m_StructCopy@Struct_Microsoft_Singularity_Io_DiskDeviceContract_AckReadPerf@@SIXPAU1@0@Z 02055838 f   DiskDrive.obj
 0001:00054884       ?m_StructCopy@Struct_Microsoft_Singularity_Io_DiskDeviceContract_AckReadPerf@@SIXPAU1@PAU1@@Z 02055884 f   DiskDrive.obj
 0001:00054968       ?m_MarshallContent@Struct_Microsoft_Singularity_Io_DiskDeviceContract_AckReadPerf@@SIXPAU1@PAEPAUStruct_Microsoft_Singularity_Channels_Endpoint@@1PAH@Z 02055968 f   DiskDrive.obj
 0001:00054988       ?m_MarshallAll@Struct_Microsoft_Singularity_Io_DiskDeviceContract_AckReadPerf@@SIXPAU1@PAEPAUStruct_Microsoft_Singularity_Channels_Endpoint@@PAH@Z 02055988 f   DiskDrive.obj
 0001:000549e0       ?m_Equals@Struct_Microsoft_Singularity_Io_DiskDeviceContract_AckReadPerf@@SI_NPAU1@PAUClass_System_Object@@@Z 020559e0 f   DiskDrive.obj
 0001:00054a78       ?m_Equals@Struct_Microsoft_Singularity_Io_DiskDeviceContract_AckReadPerf@@SI_NPAUClass_Microsoft_Singularity_Io_DiskDeviceContract_AckReadPerf@@PAUClass_System_Object@@@Z 02055a78 f   DiskDrive.obj
 0001:00054aa4       ?m_StructCopy@Struct_Microsoft_Singularity_V1_Threads_InterruptHandle@@SIXPAU1@0@Z 02055aa4 f   DiskDrive.obj
 0001:00054acc       ?m_StructCopy@Struct_Microsoft_Singularity_V1_Threads_InterruptHandle@@SIXPAU1@PAU1@@Z 02055acc f   DiskDrive.obj
 0001:00054b44       ?m_Equals@Struct_Microsoft_Singularity_V1_Threads_InterruptHandle@@SI_NPAU1@PAUClass_System_Object@@@Z 02055b44 f   DiskDrive.obj
 0001:00054b8c       ?m_Equals@Struct_Microsoft_Singularity_V1_Threads_InterruptHandle@@SI_NPAUClass_Microsoft_Singularity_V1_Threads_InterruptHandle@@PAUClass_System_Object@@@Z 02055b8c f   DiskDrive.obj
 0001:00054bb8       ?g_Create@Struct_Microsoft_Singularity_V1_Threads_InterruptHandle@@SI_NEPAU1@@Z 02055bb8 f   DiskDrive.obj
 0001:00054c04       ?m__ctor@Class_System_Globalization_CharacterInfo@@SIXPAU1@@Z 02055c04 f   DiskDrive.obj
 0001:00054c1c       ?g__cctor@Class_System_Globalization_CharacterInfo@@SIXXZ 02055c1c f   DiskDrive.obj
 0001:00054c30       ?m_StructCopy@Struct_Microsoft_Singularity_Directory_ServiceProviderContract_Exp@@SIXPAU1@0@Z 02055c30 f   DiskDrive.obj
 0001:00054d0c       ?m_StructCopy@Struct_Microsoft_Singularity_Directory_ServiceProviderContract_Exp@@SIXPAU1@PAU1@@Z 02055d0c f   DiskDrive.obj
 0001:00054fa0       ?m_SendNackConnect@Struct_Microsoft_Singularity_Directory_ServiceProviderContract_Exp@@SIXPAU1@PAUStruct_Microsoft_Singularity_Directory_ServiceContract_Exp@@@Z 02055fa0 f   DiskDrive.obj
 0001:00055120       ?m_SendAckConnect@Struct_Microsoft_Singularity_Directory_ServiceProviderContract_Exp@@SIXPAU1@@Z 02056120 f   DiskDrive.obj
 0001:00055214       ?m_Release@Struct_Microsoft_Singularity_Directory_ServiceProviderContract_Exp@@SIXPAU1@@Z 02056214 f   DiskDrive.obj
 0001:00055230       ?m_RecvConnect@Struct_Microsoft_Singularity_Directory_ServiceProviderContract_Exp@@SIXPAU1@PAPAUStruct_Microsoft_Singularity_Directory_ServiceContract_Exp@@@Z 02056230 f   DiskDrive.obj
 0001:000553b8       ?m_Peek@Struct_Microsoft_Singularity_Directory_ServiceProviderContract_Exp@@SIHPAU1@@Z 020563b8 f   DiskDrive.obj
 0001:000554ec       ?m_HeadMatches@Struct_Microsoft_Singularity_Directory_ServiceProviderContract_Exp@@SI_NPAU1@HPA_NPAPAUClass_System_Object@@@Z 020564ec f   DiskDrive.obj
 0001:000555ac       ?m_HeadMatches@Struct_Microsoft_Singularity_Directory_ServiceProviderContract_Exp@@SI_NPAUClass_Microsoft_Singularity_Directory_ServiceProviderContract_Exp@@HPA_NPAPAUClass_System_Object@@@Z 020565ac f   DiskDrive.obj
 0001:000555e4       ?m_Equals@Struct_Microsoft_Singularity_Directory_ServiceProviderContract_Exp@@SI_NPAU1@PAUClass_System_Object@@@Z 020565e4 f   DiskDrive.obj
 0001:000558c0       ?m_Equals@Struct_Microsoft_Singularity_Directory_ServiceProviderContract_Exp@@SI_NPAUClass_Microsoft_Singularity_Directory_ServiceProviderContract_Exp@@PAUClass_System_Object@@@Z 020568c0 f   DiskDrive.obj
 0001:000558ec       ?m_Dispose@Struct_Microsoft_Singularity_Directory_ServiceProviderContract_Exp@@SIXPAU1@@Z 020568ec f   DiskDrive.obj
 0001:00055910       ?m_CurrentState@Struct_Microsoft_Singularity_Directory_ServiceProviderContract_Exp@@SIPAUClass_System_String@@PAU1@@Z 02056910 f   DiskDrive.obj
 0001:0005598c       ?m_Acquire@Struct_Microsoft_Singularity_Directory_ServiceProviderContract_Exp@@SIXPAU1@@Z 0205698c f   DiskDrive.obj
 0001:000559a8       ?m_VisitObjects@Class_System_GCs_MarkSweepCollector@@SIXPAU1@PAUClass_System_GCs_ObjectLayout_ObjectVisitor@@PAUuintPtr@@2@Z 020569a8 f   DiskDrive.obj
 0001:00056350       ?m_VerifyHeap@Class_System_GCs_MarkSweepCollector@@SIXPAU1@_N@Z 02057350 f   DiskDrive.obj
 0001:0005637c       ?m_NewThreadNotification@Class_System_GCs_MarkSweepCollector@@SIXPAU1@PAUClass_System_Threading_Thread@@_N@Z 0205737c f   DiskDrive.obj
 0001:000563b8       ?g_IsPossiblyObject@Class_System_GCs_MarkSweepCollector@@SI_NPAUClass_System_Object@@@Z 020573b8 f   DiskDrive.obj
 0001:000564a4       ?g_Initialize@Class_System_GCs_MarkSweepCollector@@SIXXZ 020574a4 f   DiskDrive.obj
 0001:000565c0       ?m_get$_TotalMemory@Class_System_GCs_MarkSweepCollector@@SI_JPAU1@@Z 020575c0 f   DiskDrive.obj
 0001:000565e4       ?m_get$_MinGeneration@Class_System_GCs_MarkSweepCollector@@SIHPAU1@@Z 020575e4 f   DiskDrive.obj
 0001:00056604       ?m_get$_MaxGeneration@Class_System_GCs_MarkSweepCollector@@SIHPAU1@@Z 02057604 f   DiskDrive.obj
 0001:00056624       ?m_get$_IsOnTheFlyCollector@Class_System_GCs_MarkSweepCollector@@SI_NPAU1@@Z 02057624 f   DiskDrive.obj
 0001:00056640       ?m_FindObjectAddr@Class_System_GCs_MarkSweepCollector@@SIPAUuintPtr@@PAU1@PAU2@@Z 02057640 f   DiskDrive.obj
 0001:00056664       ?m_EnableHeap@Class_System_GCs_MarkSweepCollector@@SIXPAU1@@Z 02057664 f   DiskDrive.obj
 0001:00056680       ?m_DestructHeap@Class_System_GCs_MarkSweepCollector@@SIXPAU1@@Z 02057680 f   DiskDrive.obj
 0001:000567b0       ?m_DeadThreadNotification@Class_System_GCs_MarkSweepCollector@@SIXPAU1@PAUClass_System_Threading_Thread@@@Z 020577b0 f   DiskDrive.obj
 0001:000567e0       ?m_CreateObject@Class_System_GCs_MarkSweepCollector@@SIXPAU1@PAUClass_System_Object@@PAUClass_System_VTable@@PAUClass_System_Threading_Thread@@@Z 020577e0 f   DiskDrive.obj
 0001:00056828       ?m_CollectStopped@Class_System_GCs_MarkSweepCollector@@SIXPAU1@HH@Z 02057828 f   DiskDrive.obj
 0001:000575cc       ?m_AllocateObjectMemorySlow@Class_System_GCs_MarkSweepCollector@@SIPAUuintPtr@@PAU1@PAU2@IPAUClass_System_Threading_Thread@@@Z 020585cc f   DiskDrive.obj
 0001:00057664       ?m_AllocateObjectMemory@Class_System_GCs_MarkSweepCollector@@SIPAUuintPtr@@PAU1@PAU2@IPAUClass_System_Threading_Thread@@@Z 02058664 f   DiskDrive.obj
 0001:00057a30       ?m__ctor@Class_System_GCs_MarkSweepCollector@@SIXPAU1@@Z 02058a30 f   DiskDrive.obj
 0001:00057a54       ?m_ThreadDormantGCNotification@Class_System_GCs_StopTheWorldCollector@@SIXPAU1@H@Z 02058a54 f   DiskDrive.obj
 0001:00057a9c       ?m_StopTheWorld@Class_System_GCs_StopTheWorldCollector@@SIXPAU1@@Z 02058a9c f   DiskDrive.obj
 0001:00057b64       ?g_set$_CurrentPhase@Class_System_GCs_StopTheWorldCollector@@SIXUStruct_System_GCs_StopTheWorldPhase@@@Z 02058b64 f   DiskDrive.obj
 0001:00057b88       ?g_set$_collectorThreadIndex@Class_System_GCs_StopTheWorldCollector@@SIXH@Z 02058b88 f   DiskDrive.obj
 0001:00057bac       ?m_ResumeTheWorld@Class_System_GCs_StopTheWorldCollector@@SIXPAU1@@Z 02058bac f   DiskDrive.obj
 0001:00057bf0       ?m_PerformCollection@Class_System_GCs_StopTheWorldCollector@@SIXPAU1@HH@Z 02058bf0 f   DiskDrive.obj
 0001:00058290       ?m_NewThreadNotification@Class_System_GCs_StopTheWorldCollector@@SIXPAU1@PAUClass_System_Threading_Thread@@_N@Z 02059290 f   DiskDrive.obj
 0001:0005836c       ?g_Initialize@Class_System_GCs_StopTheWorldCollector@@SIXXZ 0205936c f   DiskDrive.obj
 0001:00058394       ?m_get$_IsOnTheFlyCollector@Class_System_GCs_StopTheWorldCollector@@SI_NPAU1@@Z 02059394 f   DiskDrive.obj
 0001:000583b0       ?g_get$_CurrentPhase@Class_System_GCs_StopTheWorldCollector@@SI?AUStruct_System_GCs_StopTheWorldPhase@@XZ 020593b0 f   DiskDrive.obj
 0001:000583c8       ?g_get$_collectorThreadIndex@Class_System_GCs_StopTheWorldCollector@@SIHXZ 020593c8 f   DiskDrive.obj
 0001:000583e0       ?m_EnableHeap@Class_System_GCs_StopTheWorldCollector@@SIXPAU1@@Z 020593e0 f   DiskDrive.obj
 0001:00058424       ?m_DeadThreadNotification@Class_System_GCs_StopTheWorldCollector@@SIXPAU1@PAUClass_System_Threading_Thread@@@Z 02059424 f   DiskDrive.obj
 0001:00058454       ?m_CollectStoppable@Class_System_GCs_StopTheWorldCollector@@SIXPAU1@HH@Z 02059454 f   DiskDrive.obj
 0001:00058a0c       ?m_Collect@Class_System_GCs_StopTheWorldCollector@@SIXPAU1@PAUClass_System_Threading_Thread@@H@Z 02059a0c f   DiskDrive.obj
 0001:00058a74       ?m_CheckForNeededGCWork@Class_System_GCs_StopTheWorldCollector@@SIXPAU1@PAUClass_System_Threading_Thread@@@Z 02059a74 f   DiskDrive.obj
 0001:00058ac8       ?m__ctor@Class_System_GCs_StopTheWorldCollector@@SIXPAU1@@Z 02059ac8 f   DiskDrive.obj
 0001:00058aec       ?g_VisitSmallObjects@Struct_System_GCs_SegregatedFreeList@@SIXPAUuintPtr@@PAUClass_System_GCs_SegregatedFreeList_ObjectVisitor@@@Z 02059aec f   DiskDrive.obj
 0001:000590d0       ?g_VisitObjects@Struct_System_GCs_SegregatedFreeList@@SIXPAUuintPtr@@0PAUClass_System_GCs_SegregatedFreeList_ObjectVisitor@@@Z 0205a0d0 f   DiskDrive.obj
 0001:00059844       ?g_VisitObjects@Struct_System_GCs_SegregatedFreeList@@SIXPAUuintPtr@@0PAUClass_System_GCs_ObjectLayout_ObjectVisitor@@@Z 0205a844 f   DiskDrive.obj
 0001:0005a00c       ?g_VisitLargeObject@Struct_System_GCs_SegregatedFreeList@@SIPAUuintPtr@@PAU2@PAUClass_System_GCs_SegregatedFreeList_ObjectVisitor@@@Z 0205b00c f   DiskDrive.obj
 0001:0005a2b8       ?g_VisitAllObjects@Struct_System_GCs_SegregatedFreeList@@SIXPAUClass_System_GCs_SegregatedFreeList_ObjectVisitor@@@Z 0205b2b8 f   DiskDrive.obj
 0001:0005aa50       ?g_VerifySimpleList@Struct_System_GCs_SegregatedFreeList@@SIPAUStruct_System_GCs_SegregatedFreeList_PageHeader@@PAU2@@Z 0205ba50 f   DiskDrive.obj
 0001:0005ab34       ?g_SubSmallPage@Struct_System_GCs_SegregatedFreeList@@SIXPAUStruct_System_GCs_SegregatedFreeList_PageHeader@@@Z 0205bb34 f   DiskDrive.obj
 0001:0005abe0       ?g_SubSmallBytes@Struct_System_GCs_SegregatedFreeList@@SIXPAUuintPtr@@@Z 0205bbe0 f   DiskDrive.obj
 0001:0005ac0c       ?g_SubLargePages@Struct_System_GCs_SegregatedFreeList@@SIXPAUuintPtr@@@Z 0205bc0c f   DiskDrive.obj
 0001:0005ac38       ?m_StructCopy@Struct_System_GCs_SegregatedFreeList@@SIXPAU1@0@Z 0205bc38 f   DiskDrive.obj
 0001:0005ac6c       ?m_StructCopy@Struct_System_GCs_SegregatedFreeList@@SIXPAU1@PAU1@@Z 0205bc6c f   DiskDrive.obj
 0001:0005ad08       ?g_SplitList@Struct_System_GCs_SegregatedFreeList@@SI_NPAUStruct_System_GCs_SegregatedFreeList_PageHeader@@HHPAUClass_System_GCs_SegregatedFreeList_PartialFreePageVisitor@@PAUStruct_System_GCs_SegregatedFreeList_PageSeparation@@@Z 0205bd08 f   DiskDrive.obj
 0001:0005b1a8       ?m_ReleaseLocalPage@Struct_System_GCs_SegregatedFreeList@@SIXPAU1@I@Z 0205c1a8 f   DiskDrive.obj
 0001:0005b37c       ?g_RecycleGlobalPagesPhase2@Struct_System_GCs_SegregatedFreeList@@SIXPAUClass_System_GCs_SegregatedFreeList_PartialFreePageVisitor@@@Z 0205c37c f   DiskDrive.obj
 0001:0005b738       ?g_RecycleGlobalPagesPhase2@Struct_System_GCs_SegregatedFreeList@@SIXXZ 0205c738 f   DiskDrive.obj
 0001:0005b758       ?g_RecycleGlobalPagesPhase1@Struct_System_GCs_SegregatedFreeList@@SIXPAUClass_System_GCs_SegregatedFreeList_PartialFreePageVisitor@@@Z 0205c758 f   DiskDrive.obj
 0001:0005b980       ?g_RecycleGlobalPagesPhase1@Struct_System_GCs_SegregatedFreeList@@SIXXZ 0205c980 f   DiskDrive.obj
 0001:0005b9a0       ?g_RecycleGlobalPages@Struct_System_GCs_SegregatedFreeList@@SIXXZ 0205c9a0 f   DiskDrive.obj
 0001:0005b9c0       ?g_NewThreadNotification@Struct_System_GCs_SegregatedFreeList@@SIXPAUClass_System_Threading_Thread@@_N@Z 0205c9c0 f   DiskDrive.obj
 0001:0005baa0       ?m_NewLocalPage@Struct_System_GCs_SegregatedFreeList@@SIPAUStruct_System_GCs_SegregatedFreeList_PageHeader@@PAU1@IPAUClass_System_Threading_Thread@@@Z 0205caa0 f   DiskDrive.obj
 0001:0005be24       ?g_MixinThread@Struct_System_GCs_SegregatedFreeList@@SIPAUClass_System_Threading_Thread@@PAU2@@Z 0205ce24 f   DiskDrive.obj
 0001:0005be40       ?g_Initialize@Struct_System_GCs_SegregatedFreeList@@SIXXZ 0205ce40 f   DiskDrive.obj
 0001:0005bf10       ?g_GetSizeClass@Struct_System_GCs_SegregatedFreeList@@SIIPAUuintPtr@@@Z 0205cf10 f   DiskDrive.obj
 0001:0005bfa0       ?m_GetLocalPage@Struct_System_GCs_SegregatedFreeList@@SIPAUStruct_System_GCs_SegregatedFreeList_PageHeader@@PAU1@IPAUClass_System_Threading_Thread@@@Z 0205cfa0 f   DiskDrive.obj
 0001:0005c028       ?g_GetCellSize@Struct_System_GCs_SegregatedFreeList@@SIII@Z 0205d028 f   DiskDrive.obj
 0001:0005c0d0       ?g_get$_TotalBytes@Struct_System_GCs_SegregatedFreeList@@SIPAUuintPtr@@XZ 0205d0d0 f   DiskDrive.obj
 0001:0005c100       ?g_get$_SIZE$_CLASSES@Struct_System_GCs_SegregatedFreeList@@SIIXZ 0205d100 f   DiskDrive.obj
 0001:0005c124       ?g_get$_LazyMemClear@Struct_System_GCs_SegregatedFreeList@@SI_NXZ 0205d124 f   DiskDrive.obj
 0001:0005c13c       ?g_get$_LargeBytes@Struct_System_GCs_SegregatedFreeList@@SIPAUuintPtr@@XZ 0205d13c f   DiskDrive.obj
 0001:0005c178       ?g_get$_LARGE$_OBJECT$_THRESHOLD@Struct_System_GCs_SegregatedFreeList@@SIPAUuintPtr@@XZ 0205d178 f   DiskDrive.obj
 0001:0005c198       ?g_get$_fVerifyLists@Struct_System_GCs_SegregatedFreeList@@SI_NXZ 0205d198 f   DiskDrive.obj
 0001:0005c1b0       ?g_get$_EagerMemClear@Struct_System_GCs_SegregatedFreeList@@SI_NXZ 0205d1b0 f   DiskDrive.obj
 0001:0005c1c8       ?g_get$_BLOCK$_SIZE@Struct_System_GCs_SegregatedFreeList@@SIHXZ 0205d1c8 f   DiskDrive.obj
 0001:0005c1ec       ?g_FreeSmallList@Struct_System_GCs_SegregatedFreeList@@SIXPAUStruct_System_GCs_SegregatedFreeList_TempList@@@Z 0205d1ec f   DiskDrive.obj
 0001:0005c3b0       ?g_FreeListContains@Struct_System_GCs_SegregatedFreeList@@SI_NPAUuintPtr@@0@Z 0205d3b0 f   DiskDrive.obj
 0001:0005c400       ?g_FreeLarge@Struct_System_GCs_SegregatedFreeList@@SIXPAUClass_System_Object@@@Z 0205d400 f   DiskDrive.obj
 0001:0005c80c       ?g_FindSmallCell@Struct_System_GCs_SegregatedFreeList@@SIPAUuintPtr@@PAU2@@Z 0205d80c f   DiskDrive.obj
 0001:0005c91c       ?g_FindSmall@Struct_System_GCs_SegregatedFreeList@@SIPAUuintPtr@@PAU2@@Z 0205d91c f   DiskDrive.obj
 0001:0005c9e0       ?g_FindLarge@Struct_System_GCs_SegregatedFreeList@@SIPAUuintPtr@@PAU2@@Z 0205d9e0 f   DiskDrive.obj
 0001:0005cc64       ?g_Find@Struct_System_GCs_SegregatedFreeList@@SIPAUuintPtr@@PAU2@@Z 0205dc64 f   DiskDrive.obj
 0001:0005cd84       ?m_Equals@Struct_System_GCs_SegregatedFreeList@@SI_NPAU1@PAUClass_System_Object@@@Z 0205dd84 f   DiskDrive.obj
 0001:0005cdec       ?m_Equals@Struct_System_GCs_SegregatedFreeList@@SI_NPAUClass_System_GCs_SegregatedFreeList@@PAUClass_System_Object@@@Z 0205ddec f   DiskDrive.obj
 0001:0005ce18       ?g_DoLazyMemClear@Struct_System_GCs_SegregatedFreeList@@SIXPAUuintPtr@@I@Z 0205de18 f   DiskDrive.obj
 0001:0005ce5c       ?g_DeadThreadNotification@Struct_System_GCs_SegregatedFreeList@@SIXPAUClass_System_Threading_Thread@@@Z 0205de5c f   DiskDrive.obj
 0001:0005cef4       ?g_CountListElements@Struct_System_GCs_SegregatedFreeList@@SIHPAUuintPtr@@@Z 0205def4 f   DiskDrive.obj
 0001:0005d02c       ?g_CompilerAllocateMarkSweep@Struct_System_GCs_SegregatedFreeList@@SIPAUClass_System_Object@@PAUClass_System_VTable@@PAUClass_System_Threading_Thread@@PAUuintPtr@@I@Z 0205e02c f   DiskDrive.obj
 0001:0005d378       ?g_CommitFreedData@Struct_System_GCs_SegregatedFreeList@@SIXXZ 0205e378 f   DiskDrive.obj
 0001:0005d3e0       ?g_AtomicSwitchChains@Struct_System_GCs_SegregatedFreeList@@SIPAUStruct_System_GCs_SegregatedFreeList_PageHeader@@PAPAUuintPtr@@PAU2@@Z 0205e3e0 f   DiskDrive.obj
 0001:0005d404       ?g_AtomicPushIncrementList@Struct_System_GCs_SegregatedFreeList@@SIXPAPAUuintPtr@@UStruct_System_GCs_SegregatedFreeList_PageHeaderList@@@Z 0205e404 f   DiskDrive.obj
 0001:0005d4a0       ?g_AtomicPushDecrementList@Struct_System_GCs_SegregatedFreeList@@SIPAUStruct_System_GCs_SegregatedFreeList_PageHeader@@PAPAUuintPtr@@UStruct_System_GCs_SegregatedFreeList_PageHeaderList@@@Z 0205e4a0 f   DiskDrive.obj
 0001:0005d53c       ?g_AtomicPush@Struct_System_GCs_SegregatedFreeList@@SIXPAPAUuintPtr@@PAUStruct_System_GCs_SegregatedFreeList_PageHeader@@@Z 0205e53c f   DiskDrive.obj
 0001:0005d59c       ?g_AtomicPopChain@Struct_System_GCs_SegregatedFreeList@@SIPAUStruct_System_GCs_SegregatedFreeList_PageHeader@@PAPAUuintPtr@@@Z 0205e59c f   DiskDrive.obj
 0001:0005d5c0       ?g_AtomicPop@Struct_System_GCs_SegregatedFreeList@@SIPAUStruct_System_GCs_SegregatedFreeList_PageHeader@@PAPAUuintPtr@@@Z 0205e5c0 f   DiskDrive.obj
 0001:0005d624       ?g_AtomicAdd@Struct_System_GCs_SegregatedFreeList@@SIXPAHH@Z 0205e624 f   DiskDrive.obj
 0001:0005d67c       ?m_AllocateSmallSlow@Struct_System_GCs_SegregatedFreeList@@SIPAUuintPtr@@PAU1@IPAUClass_System_Threading_Thread@@@Z 0205e67c f   DiskDrive.obj
 0001:0005d92c       ?m_AllocateSmallFast@Struct_System_GCs_SegregatedFreeList@@SIPAUuintPtr@@PAU1@I@Z 0205e92c f   DiskDrive.obj
 0001:0005d990       ?m_AllocateSmall@Struct_System_GCs_SegregatedFreeList@@SIPAUuintPtr@@PAU1@IPAUClass_System_Threading_Thread@@@Z 0205e990 f   DiskDrive.obj
 0001:0005da00       ?m_AllocateSlow@Struct_System_GCs_SegregatedFreeList@@SIPAUuintPtr@@PAU1@PAU2@IPAUClass_System_Threading_Thread@@@Z 0205ea00 f   DiskDrive.obj
 0001:0005dd24       ?g_AllocateSlow@Struct_System_GCs_SegregatedFreeList@@SIPAUuintPtr@@PAUClass_System_Threading_Thread@@PAU2@I@Z 0205ed24 f   DiskDrive.obj
 0001:0005dd78       ?g_AllocateLarge@Struct_System_GCs_SegregatedFreeList@@SIPAUuintPtr@@IPAU2@PAUClass_System_Threading_Thread@@@Z 0205ed78 f   DiskDrive.obj
 0001:0005e3d4       ?m_AllocateFast@Struct_System_GCs_SegregatedFreeList@@SIPAUuintPtr@@PAU1@PAU2@I@Z 0205f3d4 f   DiskDrive.obj
 0001:0005e6fc       ?g_AllocateFast@Struct_System_GCs_SegregatedFreeList@@SIPAUuintPtr@@PAUClass_System_Threading_Thread@@PAU2@I@Z 0205f6fc f   DiskDrive.obj
 0001:0005ea88       ?g_AddSmallPage@Struct_System_GCs_SegregatedFreeList@@SIXPAUStruct_System_GCs_SegregatedFreeList_PageHeader@@@Z 0205fa88 f   DiskDrive.obj
 0001:0005eb3c       ?g_AddSmallBytes@Struct_System_GCs_SegregatedFreeList@@SIXPAUuintPtr@@@Z 0205fb3c f   DiskDrive.obj
 0001:0005eb70       ?g_AddLargePages@Struct_System_GCs_SegregatedFreeList@@SIXPAUuintPtr@@@Z 0205fb70 f   DiskDrive.obj
 0001:0005ebcc       ?m_StructCopy@Struct_Microsoft_Singularity_V1_Services_DeviceService@@SIXPAU1@0@Z 0205fbcc f   DiskDrive.obj
 0001:0005ebe8       ?m_StructCopy@Struct_Microsoft_Singularity_V1_Services_DeviceService@@SIXPAU1@PAU1@@Z 0205fbe8 f   DiskDrive.obj
 0001:0005ec3c       ?g_GetFixedIoPortRange@Struct_Microsoft_Singularity_V1_Services_DeviceService@@SI_NIPAG0PA_N1@Z 0205fc3c f   DiskDrive.obj
 0001:0005ece0       ?g_GetFixedIoMemoryRange@Struct_Microsoft_Singularity_V1_Services_DeviceService@@SI_NIPAPAEPAIPA_N2@Z 0205fce0 f   DiskDrive.obj
 0001:0005ed84       ?g_GetFixedIoIrqRange@Struct_Microsoft_Singularity_V1_Services_DeviceService@@SI_NIPAE0@Z 0205fd84 f   DiskDrive.obj
 0001:0005edec       ?g_GetFixedIoDmaRange@Struct_Microsoft_Singularity_V1_Services_DeviceService@@SI_NIPAE0@Z 0205fdec f   DiskDrive.obj
 0001:0005ee54       ?g_GetDynamicIoPortRange@Struct_Microsoft_Singularity_V1_Services_DeviceService@@SI_NIPAG0PA_N1@Z 0205fe54 f   DiskDrive.obj
 0001:0005eef8       ?g_GetDynamicIoMemoryRange@Struct_Microsoft_Singularity_V1_Services_DeviceService@@SI_NIPAPAEPAIPA_N2@Z 0205fef8 f   DiskDrive.obj
 0001:0005ef9c       ?g_GetDynamicIoIrqRange@Struct_Microsoft_Singularity_V1_Services_DeviceService@@SI_NIPAE0@Z 0205ff9c f   DiskDrive.obj
 0001:0005f004       ?g_GetDynamicIoDmaRange@Struct_Microsoft_Singularity_V1_Services_DeviceService@@SI_NIPAE0@Z 02060004 f   DiskDrive.obj
 0001:0005f06c       ?g_GetDmaPhysicalAddress@Struct_Microsoft_Singularity_V1_Services_DeviceService@@SI_NPAUuintPtr@@PAPAU2@1@Z 0206006c f   DiskDrive.obj
 0001:0005f0d4       ?m_Equals@Struct_Microsoft_Singularity_V1_Services_DeviceService@@SI_NPAU1@PAUClass_System_Object@@@Z 020600d4 f   DiskDrive.obj
 0001:0005f10c       ?m_Equals@Struct_Microsoft_Singularity_V1_Services_DeviceService@@SI_NPAUClass_Microsoft_Singularity_V1_Services_DeviceService@@PAUClass_System_Object@@@Z 0206010c f   DiskDrive.obj
 0001:0005f138       ?m_VerifyTailedList@Struct_System_GCs_SegregatedFreeList_PageHeaderList@@SIXPAU1@@Z 02060138 f   DiskDrive.obj
 0001:0005f1dc       ?m_StructCopy@Struct_System_GCs_SegregatedFreeList_PageHeaderList@@SIXPAU1@0@Z 020601dc f   DiskDrive.obj
 0001:0005f210       ?m_StructCopy@Struct_System_GCs_SegregatedFreeList_PageHeaderList@@SIXPAU1@PAU1@@Z 02060210 f   DiskDrive.obj
 0001:0005f2ac       ?m_RemoveHead@Struct_System_GCs_SegregatedFreeList_PageHeaderList@@SIPAUStruct_System_GCs_SegregatedFreeList_PageHeader@@PAU1@@Z 020602ac f   DiskDrive.obj
 0001:0005f2e4       ?m_get$_IsEmpty@Struct_System_GCs_SegregatedFreeList_PageHeaderList@@SI_NPAU1@@Z 020602e4 f   DiskDrive.obj
 0001:0005f308       ?m_Equals@Struct_System_GCs_SegregatedFreeList_PageHeaderList@@SI_NPAU1@PAUClass_System_Object@@@Z 02060308 f   DiskDrive.obj
 0001:0005f364       ?m_Equals@Struct_System_GCs_SegregatedFreeList_PageHeaderList@@SI_NPAUClass_System_GCs_SegregatedFreeList_PageHeaderList@@PAUClass_System_Object@@@Z 02060364 f   DiskDrive.obj
 0001:0005f390       ?m_Append@Struct_System_GCs_SegregatedFreeList_PageHeaderList@@SIXPAU1@PAUStruct_System_GCs_SegregatedFreeList_PageHeader@@@Z 02060390 f   DiskDrive.obj
 0001:0005f400       ?m_Append@Struct_System_GCs_SegregatedFreeList_PageHeaderList@@SIXPAU1@U1@@Z 02060400 f   DiskDrive.obj
 0001:0005f464       ?g_UncheckedCopyUInt8Up@Class_System_ArrayHelper@@SIXPAUClassVector_uint8@@H0HH@Z 02060464 f   DiskDrive.obj
 0001:0005f510       ?g_UncheckedCopyUInt8Down@Class_System_ArrayHelper@@SIXPAUClassVector_uint8@@H0HH@Z 02060510 f   DiskDrive.obj
 0001:0005f5d4       ?g_UncheckedCopyUInt64Up@Class_System_ArrayHelper@@SIXPAUClassVector_uint64@@H0HH@Z 020605d4 f   DiskDrive.obj
 0001:0005f69c       ?g_UncheckedCopyUInt64Down@Class_System_ArrayHelper@@SIXPAUClassVector_uint64@@H0HH@Z 0206069c f   DiskDrive.obj
 0001:0005f77c       ?g_UncheckedCopyUInt32Down@Class_System_ArrayHelper@@SIXPAUClassVector_uint32@@H0HH@Z 0206077c f   DiskDrive.obj
 0001:0005f840       ?g_UncheckedCopyUInt16Up@Class_System_ArrayHelper@@SIXPAUClassVector_uint16@@H0HH@Z 02060840 f   DiskDrive.obj
 0001:0005f8f0       ?g_UncheckedCopyUInt16Down@Class_System_ArrayHelper@@SIXPAUClassVector_uint16@@H0HH@Z 020608f0 f   DiskDrive.obj
 0001:0005f9b8       ?g_UncheckedCopyInt8Up@Class_System_ArrayHelper@@SIXPAUClassVector_int8@@H0HH@Z 020609b8 f   DiskDrive.obj
 0001:0005fa64       ?g_UncheckedCopyInt8Down@Class_System_ArrayHelper@@SIXPAUClassVector_int8@@H0HH@Z 02060a64 f   DiskDrive.obj
 0001:0005fb28       ?g_UncheckedCopyInt64Up@Class_System_ArrayHelper@@SIXPAUClassVector_int64@@H0HH@Z 02060b28 f   DiskDrive.obj
 0001:0005fbf0       ?g_UncheckedCopyInt64Down@Class_System_ArrayHelper@@SIXPAUClassVector_int64@@H0HH@Z 02060bf0 f   DiskDrive.obj
 0001:0005fcd0       ?g_UncheckedCopyInt32Down@Class_System_ArrayHelper@@SIXPAUClassVector_int32@@H0HH@Z 02060cd0 f   DiskDrive.obj
 0001:0005fd94       ?g_UncheckedCopyInt16Up@Class_System_ArrayHelper@@SIXPAUClassVector_int16@@H0HH@Z 02060d94 f   DiskDrive.obj
 0001:0005fe44       ?g_UncheckedCopyInt16Down@Class_System_ArrayHelper@@SIXPAUClassVector_int16@@H0HH@Z 02060e44 f   DiskDrive.obj
 0001:0005ff0c       ?g_UncheckedCopyFloat64Up@Class_System_ArrayHelper@@SIXPAUClassVector_float64@@H0HH@Z 02060f0c f   DiskDrive.obj
 0001:0005ffb8       ?g_UncheckedCopyFloat64Down@Class_System_ArrayHelper@@SIXPAUClassVector_float64@@H0HH@Z 02060fb8 f   DiskDrive.obj
 0001:0006007c       ?g_UncheckedCopyFloat32Up@Class_System_ArrayHelper@@SIXPAUClassVector_float32@@H0HH@Z 0206107c f   DiskDrive.obj
 0001:00060128       ?g_UncheckedCopyFloat32Down@Class_System_ArrayHelper@@SIXPAUClassVector_float32@@H0HH@Z 02061128 f   DiskDrive.obj
 0001:000601ec       ?g_UncheckedCopyCharUp@Class_System_ArrayHelper@@SIXPAUClassVector_bartok_char@@H0HH@Z 020611ec f   DiskDrive.obj
 0001:0006029c       ?g_UncheckedCopyCharDown@Class_System_ArrayHelper@@SIXPAUClassVector_bartok_char@@H0HH@Z 0206129c f   DiskDrive.obj
 0001:00060364       ?g_UncheckedCopyBoolUp@Class_System_ArrayHelper@@SIXPAUClassVector_bool@@H0HH@Z 02061364 f   DiskDrive.obj
 0001:00060410       ?g_UncheckedCopyBoolDown@Class_System_ArrayHelper@@SIXPAUClassVector_bool@@H0HH@Z 02061410 f   DiskDrive.obj
 0001:000604d4       ?g_CopyUInt8Up@Class_System_ArrayHelper@@SIXPAUClassVector_uint8@@H0HH@Z 020614d4 f   DiskDrive.obj
 0001:00060580       ?g_CopyUInt8Down@Class_System_ArrayHelper@@SIXPAUClassVector_uint8@@H0HH@Z 02061580 f   DiskDrive.obj
 0001:00060644       ?g_CopyUInt64Up@Class_System_ArrayHelper@@SIXPAUClassVector_uint64@@H0HH@Z 02061644 f   DiskDrive.obj
 0001:0006070c       ?g_CopyUInt64Down@Class_System_ArrayHelper@@SIXPAUClassVector_uint64@@H0HH@Z 0206170c f   DiskDrive.obj
 0001:000607ec       ?g_CopyUInt32Up@Class_System_ArrayHelper@@SIXPAUClassVector_uint32@@H0HH@Z 020617ec f   DiskDrive.obj
 0001:00060898       ?g_CopyUInt32Down@Class_System_ArrayHelper@@SIXPAUClassVector_uint32@@H0HH@Z 02061898 f   DiskDrive.obj
 0001:0006095c       ?g_CopyUInt16Up@Class_System_ArrayHelper@@SIXPAUClassVector_uint16@@H0HH@Z 0206195c f   DiskDrive.obj
 0001:00060a0c       ?g_CopyUInt16Down@Class_System_ArrayHelper@@SIXPAUClassVector_uint16@@H0HH@Z 02061a0c f   DiskDrive.obj
 0001:00060ad4       ?g_CopyInt8Up@Class_System_ArrayHelper@@SIXPAUClassVector_int8@@H0HH@Z 02061ad4 f   DiskDrive.obj
 0001:00060b80       ?g_CopyInt8Down@Class_System_ArrayHelper@@SIXPAUClassVector_int8@@H0HH@Z 02061b80 f   DiskDrive.obj
 0001:00060c44       ?g_CopyInt64Up@Class_System_ArrayHelper@@SIXPAUClassVector_int64@@H0HH@Z 02061c44 f   DiskDrive.obj
 0001:00060d0c       ?g_CopyInt64Down@Class_System_ArrayHelper@@SIXPAUClassVector_int64@@H0HH@Z 02061d0c f   DiskDrive.obj
 0001:00060dec       ?g_CopyInt32Up@Class_System_ArrayHelper@@SIXPAUClassVector_int32@@H0HH@Z 02061dec f   DiskDrive.obj
 0001:00060e98       ?g_CopyInt32Down@Class_System_ArrayHelper@@SIXPAUClassVector_int32@@H0HH@Z 02061e98 f   DiskDrive.obj
 0001:00060f5c       ?g_CopyInt16Up@Class_System_ArrayHelper@@SIXPAUClassVector_int16@@H0HH@Z 02061f5c f   DiskDrive.obj
 0001:0006100c       ?g_CopyInt16Down@Class_System_ArrayHelper@@SIXPAUClassVector_int16@@H0HH@Z 0206200c f   DiskDrive.obj
 0001:000610d4       ?g_CopyFloat64Up@Class_System_ArrayHelper@@SIXPAUClassVector_float64@@H0HH@Z 020620d4 f   DiskDrive.obj
 0001:00061180       ?g_CopyFloat64Down@Class_System_ArrayHelper@@SIXPAUClassVector_float64@@H0HH@Z 02062180 f   DiskDrive.obj
 0001:00061244       ?g_CopyFloat32Up@Class_System_ArrayHelper@@SIXPAUClassVector_float32@@H0HH@Z 02062244 f   DiskDrive.obj
 0001:000612f0       ?g_CopyFloat32Down@Class_System_ArrayHelper@@SIXPAUClassVector_float32@@H0HH@Z 020622f0 f   DiskDrive.obj
 0001:000613b4       ?g_CopyCharUp@Class_System_ArrayHelper@@SIXPAUClassVector_bartok_char@@H0HH@Z 020623b4 f   DiskDrive.obj
 0001:00061464       ?g_CopyCharDown@Class_System_ArrayHelper@@SIXPAUClassVector_bartok_char@@H0HH@Z 02062464 f   DiskDrive.obj
 0001:0006152c       ?g_CopyBoolUp@Class_System_ArrayHelper@@SIXPAUClassVector_bool@@H0HH@Z 0206252c f   DiskDrive.obj
 0001:000615d8       ?g_CopyBoolDown@Class_System_ArrayHelper@@SIXPAUClassVector_bool@@H0HH@Z 020625d8 f   DiskDrive.obj
 0001:0006169c       ?m__ctor@Class_System_ArrayHelper@@SIXPAU1@@Z 0206269c f   DiskDrive.obj
 0001:000616b8       ?m__ctor@Class_System_Reflection_Assembly@@SIXPAU1@@Z 020626b8 f   DiskDrive.obj
 0001:000616d4       ?g__cctor@Class_System_Reflection_Assembly@@SIXXZ 020626d4 f   DiskDrive.obj
 0001:000616e8       ?m_RecvEmpty@Class_Microsoft_Singularity_Channels_ESet$_2$LMicrosoft_Singularity_Directory_ServiceProviderContract_Exp_Microsoft_Singularity_Directory_ServiceProviderContract_Start$G@@SIXPAU1@@Z 020626e8 f   DiskDrive.obj
 0001:00061704       ?m_HeadMatches@Class_Microsoft_Singularity_Channels_ESet$_2$LMicrosoft_Singularity_Directory_ServiceProviderContract_Exp_Microsoft_Singularity_Directory_ServiceProviderContract_Start$G@@SI_NPAU1@HPA_NPAPAUClass_System_Object@@@Z 02062704 f   DiskDrive.obj
 0001:0006187c       ?m_GetWaitHandle@Class_Microsoft_Singularity_Channels_ESet$_2$LMicrosoft_Singularity_Directory_ServiceProviderContract_Exp_Microsoft_Singularity_Directory_ServiceProviderContract_Start$G@@SI?AUStruct_Microsoft_Singularity_V1_Threads_SyncHandle@@PAU1@@Z 0206287c f   DiskDrive.obj
 0001:000618e8       ?m_GetFreshNode@Class_Microsoft_Singularity_Channels_ESet$_2$LMicrosoft_Singularity_Directory_ServiceProviderContract_Exp_Microsoft_Singularity_Directory_ServiceProviderContract_Start$G@@SIPAUClass_Microsoft_Singularity_Channels_ESet$_2$LMicrosoft_Singularity_Directory_ServiceProviderContract_Exp_Microsoft_Singularity_Directory_ServiceProviderContract_Start$G_Node@@PAU1@PAUStruct_Microsoft_Singularity_Directory_ServiceProviderContract_Exp@@0@Z 020628e8 f   DiskDrive.obj
 0001:0006198c       ?m_get$_NextScanStart@Class_Microsoft_Singularity_Channels_ESet$_2$LMicrosoft_Singularity_Directory_ServiceProviderContract_Exp_Microsoft_Singularity_Directory_ServiceProviderContract_Start$G@@SIPAUClass_Microsoft_Singularity_Channels_ESet$_2$LMicrosoft_Singularity_Directory_ServiceProviderContract_Exp_Microsoft_Singularity_Directory_ServiceProviderContract_Start$G_Node@@PAU1@@Z 0206298c f   DiskDrive.obj
 0001:000619f4       ?m_Extract@Class_Microsoft_Singularity_Channels_ESet$_2$LMicrosoft_Singularity_Directory_ServiceProviderContract_Exp_Microsoft_Singularity_Directory_ServiceProviderContract_Start$G@@SIPAUStruct_Microsoft_Singularity_Directory_ServiceProviderContract_Exp@@PAU1@PAUClass_System_Object@@@Z 020629f4 f   DiskDrive.obj
 0001:00061aac       ?m_Dispose@Class_Microsoft_Singularity_Channels_ESet$_2$LMicrosoft_Singularity_Directory_ServiceProviderContract_Exp_Microsoft_Singularity_Directory_ServiceProviderContract_Start$G@@SIXPAU1@@Z 02062aac f   DiskDrive.obj
 0001:00061b98       ?m_Add@Class_Microsoft_Singularity_Channels_ESet$_2$LMicrosoft_Singularity_Directory_ServiceProviderContract_Exp_Microsoft_Singularity_Directory_ServiceProviderContract_Start$G@@SIXPAU1@PAUStruct_Microsoft_Singularity_Directory_ServiceProviderContract_Exp@@@Z 02062b98 f   DiskDrive.obj
 0001:00061bc8       ?m__ctor@Class_Microsoft_Singularity_Channels_ESet$_2$LMicrosoft_Singularity_Directory_ServiceProviderContract_Exp_Microsoft_Singularity_Directory_ServiceProviderContract_Start$G@@SIXPAU1@@Z 02062bc8 f   DiskDrive.obj
 0001:00061c54       ?m_set$_Target@Class_System_EMU@@SIXPAU1@PAUClass_System_Object@@@Z 02062c54 f   DiskDrive.obj
 0001:00061c98       ?m_set$_NextShadow@Class_System_EMU@@SIXPAU1@0@Z 02062c98 f   DiskDrive.obj
 0001:00061cc0       ?m_set$_Monitor@Class_System_EMU@@SIXPAU1@PAUClass_System_Threading_Monitor@@@Z 02062cc0 f   DiskDrive.obj
 0001:00061ce8       ?m_set$_HashCode@Class_System_EMU@@SIXPAU1@H@Z 02062ce8 f   DiskDrive.obj
 0001:00061d10       ?m_Register@Class_System_EMU@@SIXPAU1@@Z 02062d10 f   DiskDrive.obj
 0001:00061d98       ?m_IsMonitor@Class_System_EMU@@SI_NPAU1@@Z 02062d98 f   DiskDrive.obj
 0001:00061dc0       ?m_get$_Target@Class_System_EMU@@SIPAUClass_System_Object@@PAU1@@Z 02062dc0 f   DiskDrive.obj
 0001:00061e04       ?m_get$_NextShadow@Class_System_EMU@@SIPAU1@PAU1@@Z 02062e04 f   DiskDrive.obj
 0001:00061e28       ?m_get$_Next@Class_System_EMU@@SIPAU1@PAU1@@Z 02062e28 f   DiskDrive.obj
 0001:00061e4c       ?m_get$_Monitor@Class_System_EMU@@SIPAUClass_System_Threading_Monitor@@PAU1@@Z 02062e4c f   DiskDrive.obj
 0001:00061e84       ?m_get$_HashCode@Class_System_EMU@@SIHPAU1@@Z 02062e84 f   DiskDrive.obj
 0001:00061ea4       ?g_FromAddress@Class_System_EMU@@SIPAU1@PAUuintPtr@@@Z 02062ea4 f   DiskDrive.obj
 0001:00061ec0       ?m__ctor@Class_System_EMU@@SIXPAU1@@Z 02062ec0 f   DiskDrive.obj
 0001:00061edc       ?m_DriverMain@Class_Microsoft_Singularity_Drivers_IDE_DiskResources@@SIHPAU1@PAUClass_System_String@@@Z 02062edc f   DiskDrive.obj
 0001:00061f20       ?m_$_$_$_CTR$_Method$_0@Class_Microsoft_Singularity_Drivers_IDE_DiskResources@@SIXPAU1@PAUClass_System_String@@1PAUClass_Microsoft_Singularity_Io_IoConfig@@@Z 02062f20 f   DiskDrive.obj
 0001:000624c4       ?m__ctor@Class_Microsoft_Singularity_Drivers_IDE_DiskResources@@SIXPAU1@@Z 020634c4 f   DiskDrive.obj
 0001:000624e8       ?m__ctor@Class_Microsoft_Singularity_Io_DriverCategoryDeclaration@@SIXPAU1@@Z 020634e8 f   DiskDrive.obj
 0001:0006250c       ?m_StructCopy@Struct_Microsoft_Singularity_Io_VolumeManagerContract_AckRegisterDisk@@SIXPAU1@0@Z 0206350c f   DiskDrive.obj
 0001:00062528       ?m_StructCopy@Struct_Microsoft_Singularity_Io_VolumeManagerContract_AckRegisterDisk@@SIXPAU1@PAU1@@Z 02063528 f   DiskDrive.obj
 0001:0006257c       ?m_Equals@Struct_Microsoft_Singularity_Io_VolumeManagerContract_AckRegisterDisk@@SI_NPAU1@PAUClass_System_Object@@@Z 0206357c f   DiskDrive.obj
 0001:000625b4       ?m_Equals@Struct_Microsoft_Singularity_Io_VolumeManagerContract_AckRegisterDisk@@SI_NPAUClass_Microsoft_Singularity_Io_VolumeManagerContract_AckRegisterDisk@@PAUClass_System_Object@@@Z 020635b4 f   DiskDrive.obj
 0001:000625e0       ?m_InvokeStaticStub@Class_System_GCs_ProfileRootsDelegate@@SIXPAU1@PAUClass_System_GCs_NonNullReferenceVisitor@@@Z 020635e0 f   DiskDrive.obj
 0001:00062610       ?m_Invoke@Class_System_GCs_ProfileRootsDelegate@@SIXPAU1@PAUClass_System_GCs_NonNullReferenceVisitor@@@Z 02063610 f   DiskDrive.obj
 0001:0006266c       ?m_EndInvoke@Class_System_GCs_ProfileRootsDelegate@@SIXPAU1@PAUClass_System_IAsyncResult@@@Z 0206366c f   DiskDrive.obj
 0001:00062688       ?m_BeginInvoke@Class_System_GCs_ProfileRootsDelegate@@SIPAUClass_System_IAsyncResult@@PAU1@PAUClass_System_GCs_NonNullReferenceVisitor@@PAUClass_System_AsyncCallback@@PAUClass_System_Object@@@Z 02063688 f   DiskDrive.obj
 0001:000626a8       ?m__ctor@Class_System_GCs_ProfileRootsDelegate@@SIXPAU1@PAUClass_System_Object@@PAUintPtr@@@Z 020636a8 f   DiskDrive.obj
 0001:0006270c       ?m_StructCopy@Struct_Microsoft_Singularity_V1_Threads_ContainerHandle@@SIXPAU1@0@Z 0206370c f   DiskDrive.obj
 0001:00062734       ?m_StructCopy@Struct_Microsoft_Singularity_V1_Threads_ContainerHandle@@SIXPAU1@PAU1@@Z 02063734 f   DiskDrive.obj
 0001:000627ac       ?m_Equals@Struct_Microsoft_Singularity_V1_Threads_ContainerHandle@@SI_NPAU1@PAUClass_System_Object@@@Z 020637ac f   DiskDrive.obj
 0001:000627f4       ?m_Equals@Struct_Microsoft_Singularity_V1_Threads_ContainerHandle@@SI_NPAUClass_Microsoft_Singularity_V1_Threads_ContainerHandle@@PAUClass_System_Object@@@Z 020637f4 f   DiskDrive.obj
 0001:00062820       ?m_ScanRoots@Class_System_GCs_GCProfiler@@SIXPAU1@@Z 02063820 f   DiskDrive.obj
 0001:0006284c       ?m_ScanObjects@Class_System_GCs_GCProfiler@@SIXPAU1@@Z 0206384c f   DiskDrive.obj
 0001:00062878       ?m_NotifyShutdown@Class_System_GCs_GCProfiler@@SIXPAU1@@Z 02063878 f   DiskDrive.obj
 0001:0006289c       ?m_NotifyPreGC@Class_System_GCs_GCProfiler@@SIXPAU1@H@Z 0206389c f   DiskDrive.obj
 0001:000628c8       ?m_NotifyPostGC@Class_System_GCs_GCProfiler@@SIXPAU1@PAUClass_System_GCs_ProfileRootsDelegate@@PAUClass_System_GCs_ProfileObjectsDelegate@@@Z 020638c8 f   DiskDrive.obj
 0001:00062904       ?m_NotifyAllocation@Class_System_GCs_GCProfiler@@SIXPAU1@PAUuintPtr@@PAUClass_System_Type@@1@Z 02063904 f   DiskDrive.obj
 0001:00062938       ?m__ctor@Class_System_GCs_GCProfiler@@SIXPAU1@@Z 02063938 f   DiskDrive.obj
 0001:000629a8       ?m_StructCopy@Struct_System_GCs_UnmanagedPageList@@SIXPAU1@0@Z 020639a8 f   DiskDrive.obj
 0001:000629dc       ?m_StructCopy@Struct_System_GCs_UnmanagedPageList@@SIXPAU1@PAU1@@Z 020639dc f   DiskDrive.obj
 0001:00062a78       ?g_SetNext@Struct_System_GCs_UnmanagedPageList@@SIXPAUuintPtr@@0@Z 02063a78 f   DiskDrive.obj
 0001:00062a9c       ?m_RemoveHead@Struct_System_GCs_UnmanagedPageList@@SIPAUuintPtr@@PAU1@@Z 02063a9c f   DiskDrive.obj
 0001:00062b08       ?g_ReleaseStandbyPages@Struct_System_GCs_UnmanagedPageList@@SIXXZ 02063b08 f   DiskDrive.obj
 0001:00062bcc       ?g_Next@Struct_System_GCs_UnmanagedPageList@@SIPAUuintPtr@@PAU2@@Z 02063bcc f   DiskDrive.obj
 0001:00062bec       ?m_get$_IsEmpty@Struct_System_GCs_UnmanagedPageList@@SI_NPAU1@@Z 02063bec f   DiskDrive.obj
 0001:00062c10       ?g_FirstPageAddr@Struct_System_GCs_UnmanagedPageList@@SIPAPAUuintPtr@@PAU2@@Z 02063c10 f   DiskDrive.obj
 0001:00062c30       ?m_Equals@Struct_System_GCs_UnmanagedPageList@@SI_NPAU1@PAUClass_System_Object@@@Z 02063c30 f   DiskDrive.obj
 0001:00062c8c       ?m_Equals@Struct_System_GCs_UnmanagedPageList@@SI_NPAUClass_System_GCs_UnmanagedPageList@@PAUClass_System_Object@@@Z 02063c8c f   DiskDrive.obj
 0001:00062cb8       ?g_EndPageAddr@Struct_System_GCs_UnmanagedPageList@@SIPAPAUuintPtr@@PAU2@@Z 02063cb8 f   DiskDrive.obj
 0001:00062cf4       ?m_AddHead@Struct_System_GCs_UnmanagedPageList@@SIXPAU1@PAUuintPtr@@@Z 02063cf4 f   DiskDrive.obj
 0001:00062d38       ?m_StructCopy@Struct_Microsoft_Singularity_Monitoring_LogEntry@@SIXPAU1@0@Z 02063d38 f   DiskDrive.obj
 0001:00062e14       ?m_StructCopy@Struct_Microsoft_Singularity_Monitoring_LogEntry@@SIXPAU1@PAU1@@Z 02063e14 f   DiskDrive.obj
 0001:000630a8       ?m_Equals@Struct_Microsoft_Singularity_Monitoring_LogEntry@@SI_NPAU1@PAUClass_System_Object@@@Z 020640a8 f   DiskDrive.obj
 0001:000631f0       ?m_Equals@Struct_Microsoft_Singularity_Monitoring_LogEntry@@SI_NPAUClass_Microsoft_Singularity_Monitoring_LogEntry@@PAUClass_System_Object@@@Z 020641f0 f   DiskDrive.obj
 0001:0006321c       ?g_IntToString@Class_System_ParseNumbers@@SIPAUClass_System_String@@HHH_WH@Z 0206421c f   DiskDrive.obj
 0001:00063628       ?m__ctor@Class_System_ParseNumbers@@SIXPAU1@@Z 02064628 f   DiskDrive.obj
 0001:00063640       ?g__cctor@Class_System_ParseNumbers@@SIXXZ 02064640 f   DiskDrive.obj
 0001:00063668       ?m_ToString@uint16@@SIPAUClass_System_String@@PAG@Z 02064668 f   DiskDrive.obj
 0001:00063690       ?m_ToString@uint16@@SIPAUClass_System_String@@PAGPAU2@@Z 02064690 f   DiskDrive.obj
 0001:000636dc       ?m_ToString@uint16@@SIPAUClass_System_String@@PAUClass_System_UInt16@@@Z 020646dc f   DiskDrive.obj
 0001:00063704       ?m_ToString@uint16@@SIPAUClass_System_String@@PAUClass_System_UInt16@@PAU2@@Z 02064704 f   DiskDrive.obj
 0001:00063730       ?m_GetHashCode@uint16@@SIHPAG@Z 02064730 f   DiskDrive.obj
 0001:00063754       ?m_GetHashCode@uint16@@SIHPAUClass_System_UInt16@@@Z 02064754 f   DiskDrive.obj
 0001:0006377c       ?m_Equals@uint16@@SI_NPAGPAUClass_System_Object@@@Z 0206477c f   DiskDrive.obj
 0001:000637e0       ?m_Equals@uint16@@SI_NPAUClass_System_UInt16@@PAUClass_System_Object@@@Z 020647e0 f   DiskDrive.obj
 0001:0006380c       ?g_Process@Class_System_WeakReference@@SIXPAUClass_System_GCs_DirectReferenceVisitor@@_N1@Z 0206480c f   DiskDrive.obj
 0001:00063944       ?m__ctor@Class_System_WeakReference@@SIXPAU1@@Z 02064944 f   DiskDrive.obj
 0001:00063960       ?g__cctor@Class_System_WeakReference@@SIXXZ 02064960 f   DiskDrive.obj
 0001:000639a0       ?g_IsInUserMode@Class_Microsoft_Singularity_Isal_Isa@@SI_NXZ 020649a0 f   DiskDrive.obj
 0001:000639c4       ?g_GetStackReturnAddresses@Class_Microsoft_Singularity_Isal_Isa@@SIIPAUClassVector_uintPtr@@@Z 020649c4 f   DiskDrive.obj
 0001:00063aa0       ?g_get$_StackLimit@Class_Microsoft_Singularity_Isal_Isa@@SIPAUuintPtr@@XZ 02064aa0 f   DiskDrive.obj
 0001:00063ac0       ?g_get$_IsRunningOnInterruptStack@Class_Microsoft_Singularity_Isal_Isa@@SI_NXZ 02064ac0 f   DiskDrive.obj
 0001:00063af4       ?m__ctor@Class_Microsoft_Singularity_Isal_Isa@@SIXPAU1@@Z 02064af4 f   DiskDrive.obj
 0001:00063b10       ?m_StructCopy@Struct_Microsoft_Singularity_V1_Threads_SyncHandle@@SIXPAU1@0@Z 02064b10 f   DiskDrive.obj
 0001:00063b38       ?m_StructCopy@Struct_Microsoft_Singularity_V1_Threads_SyncHandle@@SIXPAU1@PAU1@@Z 02064b38 f   DiskDrive.obj
 0001:00063bb0       ?g_op$_Implicit@Struct_Microsoft_Singularity_V1_Threads_SyncHandle@@SI?AU1@UStruct_Microsoft_Singularity_V1_Threads_MutexHandle@@@Z 02064bb0 f   DiskDrive.obj
 0001:00063be0       ?g_op$_Implicit@Struct_Microsoft_Singularity_V1_Threads_SyncHandle@@SI?AU1@UStruct_Microsoft_Singularity_V1_Threads_ManualResetEventHandle@@@Z 02064be0 f   DiskDrive.obj
 0001:00063c10       ?g_op$_Implicit@Struct_Microsoft_Singularity_V1_Threads_SyncHandle@@SI?AU1@UStruct_Microsoft_Singularity_V1_Threads_AutoResetEventHandle@@@Z 02064c10 f   DiskDrive.obj
 0001:00063c40       ?m_Equals@Struct_Microsoft_Singularity_V1_Threads_SyncHandle@@SI_NPAU1@PAUClass_System_Object@@@Z 02064c40 f   DiskDrive.obj
 0001:00063c88       ?m_Equals@Struct_Microsoft_Singularity_V1_Threads_SyncHandle@@SI_NPAUClass_Microsoft_Singularity_V1_Threads_SyncHandle@@PAUClass_System_Object@@@Z 02064c88 f   DiskDrive.obj
 0001:00063cb4       ?m__ctor@Struct_Microsoft_Singularity_V1_Threads_SyncHandle@@SIXPAU1@PAUuintPtr@@@Z 02064cb4 f   DiskDrive.obj
 0001:00063cd8       ?m_Unlink@Class_Microsoft_Singularity_Channels_ESet$_2$LMicrosoft_Singularity_Io_VolumeManagerContract_Imp_Microsoft_Singularity_Io_VolumeManagerContract_Accept$G_Node@@SIPAUStruct_Microsoft_Singularity_Io_VolumeManagerContract_Imp@@PAU1@PAUClass_Microsoft_Singularity_Channels_ESet$_2$LMicrosoft_Singularity_Io_VolumeManagerContract_Imp_Microsoft_Singularity_Io_VolumeManagerContract_Accept$G@@@Z 02064cd8 f   DiskDrive.obj
 0001:00063dec       ?m_LinkAsNext@Class_Microsoft_Singularity_Channels_ESet$_2$LMicrosoft_Singularity_Io_VolumeManagerContract_Imp_Microsoft_Singularity_Io_VolumeManagerContract_Accept$G_Node@@SIXPAU1@PAUStruct_Microsoft_Singularity_Io_VolumeManagerContract_Imp@@PAUClass_Microsoft_Singularity_Channels_ESet$_2$LMicrosoft_Singularity_Io_VolumeManagerContract_Imp_Microsoft_Singularity_Io_VolumeManagerContract_Accept$G@@@Z 02064dec f   DiskDrive.obj
 0001:00063e68       ?m_Init@Class_Microsoft_Singularity_Channels_ESet$_2$LMicrosoft_Singularity_Io_VolumeManagerContract_Imp_Microsoft_Singularity_Io_VolumeManagerContract_Accept$G_Node@@SIXPAU1@PAUStruct_Microsoft_Singularity_Io_VolumeManagerContract_Imp@@PAUClass_Microsoft_Singularity_Channels_ESet$_2$LMicrosoft_Singularity_Io_VolumeManagerContract_Imp_Microsoft_Singularity_Io_VolumeManagerContract_Accept$G@@@Z 02064e68 f   DiskDrive.obj
 0001:00063e98       ?m__ctor@Class_Microsoft_Singularity_Channels_ESet$_2$LMicrosoft_Singularity_Io_VolumeManagerContract_Imp_Microsoft_Singularity_Io_VolumeManagerContract_Accept$G_Node@@SIXPAU1@PAUStruct_Microsoft_Singularity_Io_VolumeManagerContract_Imp@@PAUClass_Microsoft_Singularity_Channels_ESet$_2$LMicrosoft_Singularity_Io_VolumeManagerContract_Imp_Microsoft_Singularity_Io_VolumeManagerContract_Accept$G@@@Z 02064e98 f   DiskDrive.obj
 0001:00063edc       ?m__ctor@Class_Microsoft_Singularity_Channels_ESet$_2$LMicrosoft_Singularity_Io_VolumeManagerContract_Imp_Microsoft_Singularity_Io_VolumeManagerContract_Accept$G_Node@@SIXPAU1@PAUClass_Microsoft_Singularity_Channels_ESet$_2$LMicrosoft_Singularity_Io_VolumeManagerContract_Imp_Microsoft_Singularity_Io_VolumeManagerContract_Accept$G@@@Z 02064edc f   DiskDrive.obj
 0001:00063f10       ?m_WriteSectorCountPort@Class_Microsoft_Singularity_Drivers_IDE_IdeController@@SIXPAU1@E@Z 02064f10 f   DiskDrive.obj
 0001:00063f98       ?m_WriteLBAMidPort@Class_Microsoft_Singularity_Drivers_IDE_IdeController@@SIXPAU1@E@Z 02064f98 f   DiskDrive.obj
 0001:00064020       ?m_WriteLBALowPort@Class_Microsoft_Singularity_Drivers_IDE_IdeController@@SIXPAU1@E@Z 02065020 f   DiskDrive.obj
 0001:000640a8       ?m_WriteLBAHighPort@Class_Microsoft_Singularity_Drivers_IDE_IdeController@@SIXPAU1@E@Z 020650a8 f   DiskDrive.obj
 0001:00064130       ?m_WriteFeaturesPort@Class_Microsoft_Singularity_Drivers_IDE_IdeController@@SIXPAU1@E@Z 02065130 f   DiskDrive.obj
 0001:000641b8       ?m_WriteDeviceHeadPort@Class_Microsoft_Singularity_Drivers_IDE_IdeController@@SIXPAU1@E@Z 020651b8 f   DiskDrive.obj
 0001:00064240       ?m_WriteDataPort@Class_Microsoft_Singularity_Drivers_IDE_IdeController@@SIXPAU1@G@Z 02065240 f   DiskDrive.obj
 0001:000642cc       ?m_WriteControlPort@Class_Microsoft_Singularity_Drivers_IDE_IdeController@@SIXPAU1@E@Z 020652cc f   DiskDrive.obj
 0001:00064354       ?m_WriteCommandPort@Class_Microsoft_Singularity_Drivers_IDE_IdeController@@SIXPAU1@E@Z 02065354 f   DiskDrive.obj
 0001:000643dc       ?m_SetIdentifyInProgress@Class_Microsoft_Singularity_Drivers_IDE_IdeController@@SIXPAU1@_N@Z 020653dc f   DiskDrive.obj
 0001:00064404       ?m_SetCommandPending@Class_Microsoft_Singularity_Drivers_IDE_IdeController@@SIXPAU1@_N@Z 02065404 f   DiskDrive.obj
 0001:0006442c       ?m_SelectDevice@Class_Microsoft_Singularity_Drivers_IDE_IdeController@@SIXPAU1@H_N@Z 0206542c f   DiskDrive.obj
 0001:00064484       ?m_ResetController@Class_Microsoft_Singularity_Drivers_IDE_IdeController@@SIXPAU1@@Z 02065484 f   DiskDrive.obj
 0001:000645a0       ?m_ReadStatusPort@Class_Microsoft_Singularity_Drivers_IDE_IdeController@@SIEPAU1@@Z 020655a0 f   DiskDrive.obj
 0001:0006464c       ?m_ReadSectorCountPort@Class_Microsoft_Singularity_Drivers_IDE_IdeController@@SIEPAU1@@Z 0206564c f   DiskDrive.obj
 0001:000646f8       ?m_ReadLBAMidPort@Class_Microsoft_Singularity_Drivers_IDE_IdeController@@SIEPAU1@@Z 020656f8 f   DiskDrive.obj
 0001:000647a4       ?m_ReadLBALowPort@Class_Microsoft_Singularity_Drivers_IDE_IdeController@@SIEPAU1@@Z 020657a4 f   DiskDrive.obj
 0001:00064850       ?m_ReadLBAHighPort@Class_Microsoft_Singularity_Drivers_IDE_IdeController@@SIEPAU1@@Z 02065850 f   DiskDrive.obj
 0001:000648fc       ?m_ReadFullStatus@Class_Microsoft_Singularity_Drivers_IDE_IdeController@@SIHPAU1@@Z 020658fc f   DiskDrive.obj
 0001:0006496c       ?m_ReadErrorPort@Class_Microsoft_Singularity_Drivers_IDE_IdeController@@SIEPAU1@@Z 0206596c f   DiskDrive.obj
 0001:00064a18       ?m_ReadDataPort@Class_Microsoft_Singularity_Drivers_IDE_IdeController@@SIGPAU1@@Z 02065a18 f   DiskDrive.obj
 0001:00064ae4       ?m_ReadAlternateStatusPort@Class_Microsoft_Singularity_Drivers_IDE_IdeController@@SIEPAU1@@Z 02065ae4 f   DiskDrive.obj
 0001:00064b90       ?m_PollDRDY@Class_Microsoft_Singularity_Drivers_IDE_IdeController@@SI_NPAU1@_N@Z 02065b90 f   DiskDrive.obj
 0001:00064c48       ?m_PollBSY@Class_Microsoft_Singularity_Drivers_IDE_IdeController@@SI_NPAU1@_N@Z 02065c48 f   DiskDrive.obj
 0001:00064d08       ?m_IssueSet@Class_Microsoft_Singularity_Drivers_IDE_IdeController@@SI_NPAU1@UStruct_Microsoft_Singularity_Drivers_IDE_IdeSet@@PAUStruct_Microsoft_Singularity_Drivers_IDE_IdentifyDeviceInformation@@@Z 02065d08 f   DiskDrive.obj
 0001:00064ec8       ?m_IrqWorkerMain@Class_Microsoft_Singularity_Drivers_IDE_IdeController@@SIXPAU1@@Z 02065ec8 f   DiskDrive.obj
 0001:00065178       ?m_Initialize@Class_Microsoft_Singularity_Drivers_IDE_IdeController@@SIXPAU1@@Z 02066178 f   DiskDrive.obj
 0001:000651a0       ?m_GetIdentifyInProgress@Class_Microsoft_Singularity_Drivers_IDE_IdeController@@SI_NPAU1@@Z 020661a0 f   DiskDrive.obj
 0001:000651d4       ?m_GetConfig@Class_Microsoft_Singularity_Drivers_IDE_IdeController@@SIPAUClass_Microsoft_Singularity_Drivers_IDE_IdeConfig@@PAU1@@Z 020661d4 f   DiskDrive.obj
 0001:00065210       ?m_GetCommandPending@Class_Microsoft_Singularity_Drivers_IDE_IdeController@@SI_NPAU1@@Z 02066210 f   DiskDrive.obj
 0001:00065244       ?m_get$_ControllerName@Class_Microsoft_Singularity_Drivers_IDE_IdeController@@SIPAUClass_System_String@@PAU1@@Z 02066244 f   DiskDrive.obj
 0001:00065280       ?m_FindDisks@Class_Microsoft_Singularity_Drivers_IDE_IdeController@@SIXPAU1@@Z 02066280 f   DiskDrive.obj
 0001:000658c8       ?m_Finalize@Class_Microsoft_Singularity_Drivers_IDE_IdeController@@SIXPAU1@@Z 020668c8 f   DiskDrive.obj
 0001:00065910       ?m_Delay400ns@Class_Microsoft_Singularity_Drivers_IDE_IdeController@@SIXPAU1@@Z 02066910 f   DiskDrive.obj
 0001:00065934       ?g_Create@Class_Microsoft_Singularity_Drivers_IDE_IdeController@@SIPAU1@PAUClass_Microsoft_Singularity_Drivers_IDE_DiskResources@@PAUClass_System_String@@@Z 02066934 f   DiskDrive.obj
 0001:00065b18       ?g_CalculateDelay400nsCount@Class_Microsoft_Singularity_Drivers_IDE_IdeController@@SIHXZ 02066b18 f   DiskDrive.obj
 0001:0006606c       ?m__ctor@Class_Microsoft_Singularity_Drivers_IDE_IdeController@@SIXPAU1@PAUClass_Microsoft_Singularity_Drivers_IDE_DiskResources@@PAUClass_System_String@@@Z 0206706c f   DiskDrive.obj
 0001:00066284       ?g_Min@Class_System_Math@@SIIII@Z 02067284 f   DiskDrive.obj
 0001:000662b4       ?m__ctor@Class_System_Math@@SIXPAU1@@Z 020672b4 f   DiskDrive.obj
 0001:000662d0       ?g__cctor@Class_System_Math@@SIXXZ 020672d0 f   DiskDrive.obj
 0001:00066310       ?m_TransferContentsOwnership@Struct_Microsoft_Singularity_Io_DeviceContract_Exp@@SIXPAU1@PAUStruct_Microsoft_Singularity_Channels_Endpoint@@@Z 02067310 f   DiskDrive.obj
 0001:0006633c       ?m_StructCopy@Struct_Microsoft_Singularity_Io_DeviceContract_Exp@@SIXPAU1@0@Z 0206733c f   DiskDrive.obj
 0001:00066408       ?m_StructCopy@Struct_Microsoft_Singularity_Io_DeviceContract_Exp@@SIXPAU1@PAU1@@Z 02067408 f   DiskDrive.obj
 0001:0006666c       ?m_Peek@Struct_Microsoft_Singularity_Io_DeviceContract_Exp@@SIHPAU1@@Z 0206766c f   DiskDrive.obj
 0001:00066734       ?m_HeadMatches@Struct_Microsoft_Singularity_Io_DeviceContract_Exp@@SI_NPAU1@HPA_NPAPAUClass_System_Object@@@Z 02067734 f   DiskDrive.obj
 0001:000667f4       ?m_HeadMatches@Struct_Microsoft_Singularity_Io_DeviceContract_Exp@@SI_NPAUClass_Microsoft_Singularity_Io_DeviceContract_Exp@@HPA_NPAPAUClass_System_Object@@@Z 020677f4 f   DiskDrive.obj
 0001:0006682c       ?m_Equals@Struct_Microsoft_Singularity_Io_DeviceContract_Exp@@SI_NPAU1@PAUClass_System_Object@@@Z 0206782c f   DiskDrive.obj
 0001:00066aa4       ?m_Equals@Struct_Microsoft_Singularity_Io_DeviceContract_Exp@@SI_NPAUClass_Microsoft_Singularity_Io_DeviceContract_Exp@@PAUClass_System_Object@@@Z 02067aa4 f   DiskDrive.obj
 0001:00066ad0       ?m_Dispose@Struct_Microsoft_Singularity_Io_DeviceContract_Exp@@SIXPAU1@@Z 02067ad0 f   DiskDrive.obj
 0001:00066af4       ?m_WriteImpl@Class_System_GCs_EmptyWriteBarrier@@SIXPAU1@PAPAUuintPtr@@PAUClass_System_Object@@H@Z 02067af4 f   DiskDrive.obj
 0001:00066b1c       ?g_Initialize@Class_System_GCs_EmptyWriteBarrier@@SIXXZ 02067b1c f   DiskDrive.obj
 0001:00066b94       ?m_CopyStructImpl@Class_System_GCs_EmptyWriteBarrier@@SIXPAU1@PAUClass_System_Object@@1PAUClass_System_VTable@@PAUuintPtr@@3@Z 02067b94 f   DiskDrive.obj
 0001:00066bf8       ?m_ArrayCopyImpl@Class_System_GCs_EmptyWriteBarrier@@SIXPAU1@PAUClass_System_Array@@H1HH@Z 02067bf8 f   DiskDrive.obj
 0001:00066d00       ?m__ctor@Class_System_GCs_EmptyWriteBarrier@@SIXPAU1@@Z 02067d00 f   DiskDrive.obj
 0001:00066d24       ?m_WriteImpl@Class_System_GCs_RefWriteBarrier@@SIXPAU1@PAPAUuintPtr@@PAU2@H@Z 02067d24 f   DiskDrive.obj
 0001:00066d4c       ?m_WeakRefWriteImpl@Class_System_GCs_RefWriteBarrier@@SIPAUuintPtr@@PAU1@PAUClass_System_Object@@H@Z 02067d4c f   DiskDrive.obj
 0001:00066d70       ?m_WeakRefReadImpl@Class_System_GCs_RefWriteBarrier@@SIPAUClass_System_Object@@PAU1@PAUuintPtr@@H@Z 02067d70 f   DiskDrive.obj
 0001:00066d94       ?m_ReadObjImpl@Class_System_GCs_RefWriteBarrier@@SIPAUClass_System_Object@@PAU1@PAPAUuintPtr@@H@Z 02067d94 f   DiskDrive.obj
 0001:00066db8       ?m_ReadImpl@Class_System_GCs_RefWriteBarrier@@SIPAUuintPtr@@PAU1@PAPAU2@H@Z 02067db8 f   DiskDrive.obj
 0001:00066ddc       ?m__ctor@Class_System_GCs_RefWriteBarrier@@SIXPAU1@@Z 02067ddc f   DiskDrive.obj
 0001:00066e00       ?m_WriteImpl@Class_System_GCs_Barrier@@SIXPAU1@PAPAUuintPtr@@PAU2@H@Z 02067e00 f   DiskDrive.obj
 0001:00066e28       ?m_WriteImpl@Class_System_GCs_Barrier@@SIXPAU1@PAPAUuintPtr@@PAUClass_System_Object@@H@Z 02067e28 f   DiskDrive.obj
 0001:00066e50       ?m_WriteImpl@Class_System_GCs_Barrier@@SIXPAU1@PAUClass_System_Object@@PAPAUuintPtr@@PAU3@H@Z 02067e50 f   DiskDrive.obj
 0001:00066e88       ?m_WriteImpl@Class_System_GCs_Barrier@@SIXPAU1@PAUClass_System_Object@@PAPAUuintPtr@@1H@Z 02067e88 f   DiskDrive.obj
 0001:00066ec0       ?m_WriteImpl@Class_System_GCs_Barrier@@SIXPAU1@PAUClass_System_Object@@PAUuintPtr@@2H@Z 02067ec0 f   DiskDrive.obj
 0001:00066f04       ?m_WriteImpl@Class_System_GCs_Barrier@@SIXPAU1@PAUClass_System_Object@@PAUuintPtr@@1H@Z 02067f04 f   DiskDrive.obj
 0001:00066f48       ?m_WeakRefWriteImpl@Class_System_GCs_Barrier@@SIPAUuintPtr@@PAU1@PAUClass_System_Object@@H@Z 02067f48 f   DiskDrive.obj
 0001:00066f6c       ?g_WeakRefWrite@Class_System_GCs_Barrier@@SIPAUuintPtr@@PAUClass_System_Object@@H@Z 02067f6c f   DiskDrive.obj
 0001:00066fa4       ?m_WeakRefReadImpl@Class_System_GCs_Barrier@@SIPAUClass_System_Object@@PAU1@PAUuintPtr@@H@Z 02067fa4 f   DiskDrive.obj
 0001:00066fc8       ?g_WeakRefRead@Class_System_GCs_Barrier@@SIPAUClass_System_Object@@PAUuintPtr@@H@Z 02067fc8 f   DiskDrive.obj
 0001:00067000       ?m_StoreIndirectImpl@Class_System_GCs_Barrier@@SIXPAU1@PAPAUuintPtr@@PAUClass_System_Object@@H@Z 02068000 f   DiskDrive.obj
 0001:00067038       ?g_StoreIndirect@Class_System_GCs_Barrier@@SIXPAPAUuintPtr@@PAUClass_System_Object@@H@Z 02068038 f   DiskDrive.obj
 0001:00067078       ?m_ReadUIntPtrImpl@Class_System_GCs_Barrier@@SIPAUuintPtr@@PAU1@PAUClass_System_Object@@PAU2@H@Z 02068078 f   DiskDrive.obj
 0001:000670b4       ?m_ReadObjImpl@Class_System_GCs_Barrier@@SIPAUClass_System_Object@@PAU1@PAPAUuintPtr@@H@Z 020680b4 f   DiskDrive.obj
 0001:000670d8       ?m_ReadObjImpl@Class_System_GCs_Barrier@@SIPAUClass_System_Object@@PAU1@PAU2@PAPAUuintPtr@@H@Z 020680d8 f   DiskDrive.obj
 0001:00067114       ?m_ReadObjImpl@Class_System_GCs_Barrier@@SIPAUClass_System_Object@@PAU1@PAU2@PAUuintPtr@@H@Z 02068114 f   DiskDrive.obj
 0001:00067154       ?m_ReadImpl@Class_System_GCs_Barrier@@SIPAUuintPtr@@PAU1@PAPAU2@H@Z 02068154 f   DiskDrive.obj
 0001:00067178       ?m_ReadImpl@Class_System_GCs_Barrier@@SIPAUuintPtr@@PAU1@PAUClass_System_Object@@PAPAU2@H@Z 02068178 f   DiskDrive.obj
 0001:000671b0       ?g_MyInitObject@Class_System_GCs_Barrier@@SIXPAUClass_System_Object@@PAUClass_System_VTable@@@Z 020681b0 f   DiskDrive.obj
 0001:000671dc       ?g_MemZeroBarrierSlow@Class_System_GCs_Barrier@@SIXPAUClass_System_Object@@PAUuintPtr@@1@Z 020681dc f   DiskDrive.obj
 0001:0006723c       ?g_MemCopyBarrierSlow@Class_System_GCs_Barrier@@SIXPAUClass_System_Object@@PAUuintPtr@@011@Z 0206823c f   DiskDrive.obj
 0001:000672c0       ?m_InitObjectImpl@Class_System_GCs_Barrier@@SIXPAU1@PAUClass_System_Object@@PAUClass_System_VTable@@@Z 020682c0 f   DiskDrive.obj
 0001:000672f0       ?g_InitObject@Class_System_GCs_Barrier@@SIXPAUClass_System_Object@@PAUClass_System_VTable@@@Z 020682f0 f   DiskDrive.obj
 0001:00067324       ?g_Initialize@Class_System_GCs_Barrier@@SIXXZ 02068324 f   DiskDrive.obj
 0001:000674bc       ?g_IndexedDataPtr@Class_System_GCs_Barrier@@SIPAUuintPtr@@PAUClass_System_Array@@@Z 020684bc f   DiskDrive.obj
 0001:000674fc       ?m_ForwardImpl@Class_System_GCs_Barrier@@SIPAUClass_System_Object@@PAU1@PAU2@H@Z 020684fc f   DiskDrive.obj
 0001:00067520       ?m_CopyStructWithBarrier@Class_System_GCs_Barrier@@SIXPAU1@PAUClass_System_VTable@@PAUuintPtr@@2@Z 02068520 f   DiskDrive.obj
 0001:00067558       ?m_CopyStructNoBarrier@Class_System_GCs_Barrier@@SIXPAU1@PAUClass_System_VTable@@PAUuintPtr@@2@Z 02068558 f   DiskDrive.obj
 0001:000675bc       ?m_CopyStructImpl@Class_System_GCs_Barrier@@SIXPAU1@PAUClass_System_Object@@1PAUClass_System_VTable@@PAUuintPtr@@3@Z 020685bc f   DiskDrive.obj
 0001:000675f4       ?g_CopyStruct@Class_System_GCs_Barrier@@SIXPAUClass_System_Object@@0PAUClass_System_VTable@@PAUuintPtr@@2@Z 020685f4 f   DiskDrive.obj
 0001:00067630       ?g_BootstrapInitObjectImpl@Class_System_GCs_Barrier@@SIXPAUClass_System_Object@@PAUClass_System_VTable@@@Z 02068630 f   DiskDrive.obj
 0001:0006765c       ?g_BootstrapInitObject@Class_System_GCs_Barrier@@SIXPAUClass_System_Object@@PAUClass_System_VTable@@@Z 0206865c f   DiskDrive.obj
 0001:00067684       ?m_ArrayCopyWithBarrier@Class_System_GCs_Barrier@@SIXPAU1@PAUClass_System_Array@@H1HH@Z 02068684 f   DiskDrive.obj
 0001:000677c0       ?m_ArrayCopyNoBarrier@Class_System_GCs_Barrier@@SIXPAU1@PAUClass_System_Array@@H1HH@Z 020687c0 f   DiskDrive.obj
 0001:000678c8       ?m_ArrayCopyImpl@Class_System_GCs_Barrier@@SIXPAU1@PAUClass_System_Array@@H1HH@Z 020688c8 f   DiskDrive.obj
 0001:00067a04       ?g_ArrayCopy@Class_System_GCs_Barrier@@SIXPAUClass_System_Array@@H0HH@Z 02068a04 f   DiskDrive.obj
 0001:00067a40       ?m__ctor@Class_System_GCs_Barrier@@SIXPAU1@@Z 02068a40 f   DiskDrive.obj
 0001:00067a5c       ?m_StructCopy@Struct_Microsoft_Singularity_V1_Threads_AutoResetEventHandle@@SIXPAU1@0@Z 02068a5c f   DiskDrive.obj
 0001:00067a84       ?m_StructCopy@Struct_Microsoft_Singularity_V1_Threads_AutoResetEventHandle@@SIXPAU1@PAU1@@Z 02068a84 f   DiskDrive.obj
 0001:00067afc       ?m_Equals@Struct_Microsoft_Singularity_V1_Threads_AutoResetEventHandle@@SI_NPAU1@PAUClass_System_Object@@@Z 02068afc f   DiskDrive.obj
 0001:00067b44       ?m_Equals@Struct_Microsoft_Singularity_V1_Threads_AutoResetEventHandle@@SI_NPAUClass_Microsoft_Singularity_V1_Threads_AutoResetEventHandle@@PAUClass_System_Object@@@Z 02068b44 f   DiskDrive.obj
 0001:00067b70       ?g_Create@Struct_Microsoft_Singularity_V1_Threads_AutoResetEventHandle@@SI_N_NPAU1@@Z 02068b70 f   DiskDrive.obj
 0001:00067bbc       ?g_UInt64BitsToDouble@Class_System_BitConverter@@SIN_K@Z 02068bbc f   DiskDrive.obj
 0001:00067be0       ?g_SingleToUInt32Bits@Class_System_BitConverter@@SIIM@Z 02068be0 f   DiskDrive.obj
 0001:00067bfc       ?g_GetBytes@Class_System_BitConverter@@SIPAUClassVector_uint8@@F@Z 02068bfc f   DiskDrive.obj
 0001:00067c44       ?g_GetBytes@Class_System_BitConverter@@SIXFPAUClassVector_uint8@@H@Z 02068c44 f   DiskDrive.obj
 0001:00067d08       ?g_DoubleToUInt64Bits@Class_System_BitConverter@@SI_KN@Z 02068d08 f   DiskDrive.obj
 0001:00067d28       ?m__ctor@Class_System_BitConverter@@SIXPAU1@@Z 02068d28 f   DiskDrive.obj
 0001:00067d44       ?g__cctor@Class_System_BitConverter@@SIXXZ 02068d44 f   DiskDrive.obj
 0001:00067d98       ?m__ctor@Class_System_TypeInfo@@SIXPAU1@@Z 02068d98 f   DiskDrive.obj
 0001:00067db0       ?g__cctor@Class_System_TypeInfo@@SIXXZ 02068db0 f   DiskDrive.obj
 0001:00067fac       ?m_Visit@Class_System_GCs_MemoryAccounting_InstanceReckoner@@SIPAUuintPtr@@PAU1@PAUClass_System_Object@@@Z 02068fac f   DiskDrive.obj
 0001:00067fc8       ?m_Initialize@Class_System_GCs_MemoryAccounting_InstanceReckoner@@SIXPAU1@PAUClassVector_Struct_System_GCs_MemoryAccounting_RuntimeTypeAccounting@@@Z 02068fc8 f   DiskDrive.obj
 0001:00067fe4       ?m__ctor@Class_System_GCs_MemoryAccounting_InstanceReckoner@@SIXPAU1@@Z 02068fe4 f   DiskDrive.obj
 0001:00067ffc       ?m_StructCopy@Struct_Microsoft_Singularity_Directory_ServiceProviderContract_NackConnect@@SIXPAU1@0@Z 02068ffc f   DiskDrive.obj
 0001:00068024       ?m_StructCopy@Struct_Microsoft_Singularity_Directory_ServiceProviderContract_NackConnect@@SIXPAU1@PAU1@@Z 02069024 f   DiskDrive.obj
 0001:0006809c       ?m_MarshallContent@Struct_Microsoft_Singularity_Directory_ServiceProviderContract_NackConnect@@SIXPAU1@PAEPAUStruct_Microsoft_Singularity_Channels_Endpoint@@1PAH@Z 0206909c f   DiskDrive.obj
 0001:00068120       ?m_MarshallAll@Struct_Microsoft_Singularity_Directory_ServiceProviderContract_NackConnect@@SIXPAU1@PAEPAUStruct_Microsoft_Singularity_Channels_Endpoint@@PAH@Z 02069120 f   DiskDrive.obj
 0001:00068178       ?m_Equals@Struct_Microsoft_Singularity_Directory_ServiceProviderContract_NackConnect@@SI_NPAU1@PAUClass_System_Object@@@Z 02069178 f   DiskDrive.obj
 0001:000681c0       ?m_Equals@Struct_Microsoft_Singularity_Directory_ServiceProviderContract_NackConnect@@SI_NPAUClass_Microsoft_Singularity_Directory_ServiceProviderContract_NackConnect@@PAUClass_System_Object@@@Z 020691c0 f   DiskDrive.obj
 0001:000681ec       ?m_UnRegisterSource@Class_Microsoft_Singularity_Eventing_Controller@@SIXPAU1@PAUClass_Microsoft_Singularity_Eventing_EventSource@@@Z 020691ec f   DiskDrive.obj
 0001:00068208       ?m_RegisterSource@Class_Microsoft_Singularity_Eventing_Controller@@SI_NPAU1@PAUClass_Microsoft_Singularity_Eventing_EventSource@@@Z 02069208 f   DiskDrive.obj
 0001:00068228       ?m_RegisterController@Class_Microsoft_Singularity_Eventing_Controller@@SI_NPAU1@@Z 02069228 f   DiskDrive.obj
 0001:00068244       ?g_InitializeSystem@Class_Microsoft_Singularity_Eventing_Controller@@SIXXZ 02069244 f   DiskDrive.obj
 0001:00068330       ?m_Initialize@Class_Microsoft_Singularity_Eventing_Controller@@SIXPAU1@@Z 02069330 f   DiskDrive.obj
 0001:0006837c       ?g_GetSystemController@Class_Microsoft_Singularity_Eventing_Controller@@SIPAU1@XZ 0206937c f   DiskDrive.obj
 0001:00068394       ?g_GetLocalController@Class_Microsoft_Singularity_Eventing_Controller@@SIPAUClass_Microsoft_Singularity_Eventing_LocalController@@XZ 02069394 f   DiskDrive.obj
 0001:000683ac       ?g_Finalize@Class_Microsoft_Singularity_Eventing_Controller@@SIXXZ 020693ac f   DiskDrive.obj
 0001:000683c8       ?m__ctor@Class_Microsoft_Singularity_Eventing_Controller@@SIXPAU1@@Z 020693c8 f   DiskDrive.obj
 0001:000683e4       ?g__cctor@Class_Microsoft_Singularity_Eventing_Controller@@SIXXZ 020693e4 f   DiskDrive.obj
 0001:000683f8       ?m__ctor@Class_Microsoft_Singularity_Monitoring@@SIXPAU1@@Z 020693f8 f   DiskDrive.obj
 0001:00068414       ?m_ToString@Class_Microsoft_Singularity_Io_IoPortRange@@SIPAUClass_System_String@@PAU1@@Z 02069414 f   DiskDrive.obj
 0001:00068514       ?m_PortAtOffset@Class_Microsoft_Singularity_Io_IoPortRange@@SIPAUClass_Microsoft_Singularity_Io_IoPort@@PAU1@GGUStruct_Microsoft_Singularity_Io_Access@@@Z 02069514 f   DiskDrive.obj
 0001:00068574       ?m_PortAtOffset@Class_Microsoft_Singularity_Io_IoPortRange@@SIPAUClass_Microsoft_Singularity_Io_IoPort@@PAU1@GG_N1@Z 02069574 f   DiskDrive.obj
 0001:00068690       ?m_get$_Port@Class_Microsoft_Singularity_Io_IoPortRange@@SIGPAU1@@Z 02069690 f   DiskDrive.obj
 0001:000686b0       ?m__ctor@Class_Microsoft_Singularity_Io_IoPortRange@@SIXPAU1@GGUStruct_Microsoft_Singularity_Io_Access@@@Z 020696b0 f   DiskDrive.obj
 0001:00068714       ?m__ctor@Class_Microsoft_Singularity_Io_IoPortRange@@SIXPAU1@GG_N1@Z 02069714 f   DiskDrive.obj
 0001:00068764       ?m__ctor@Class_Microsoft_Singularity_Io_IoRange@@SIXPAU1@@Z 02069764 f   DiskDrive.obj
 0001:00068780       ?m_StructCopy@Struct_Microsoft_Singularity_Isal_IX_Gdte@@SIXPAU1@0@Z 02069780 f   DiskDrive.obj
 0001:000687e8       ?m_StructCopy@Struct_Microsoft_Singularity_Isal_IX_Gdte@@SIXPAU1@PAU1@@Z 020697e8 f   DiskDrive.obj
 0001:00068920       ?m_Equals@Struct_Microsoft_Singularity_Isal_IX_Gdte@@SI_NPAU1@PAUClass_System_Object@@@Z 02069920 f   DiskDrive.obj
 0001:000689b8       ?m_Equals@Struct_Microsoft_Singularity_Isal_IX_Gdte@@SI_NPAUClass_Microsoft_Singularity_Isal_IX_Gdte@@PAUClass_System_Object@@@Z 020699b8 f   DiskDrive.obj
 0001:000689e4       ?m_StructCopy@Struct_Microsoft_Singularity_V1_Services_DeliveryHandle@@SIXPAU1@0@Z 020699e4 f   DiskDrive.obj
 0001:00068a0c       ?m_StructCopy@Struct_Microsoft_Singularity_V1_Services_DeliveryHandle@@SIXPAU1@PAU1@@Z 02069a0c f   DiskDrive.obj
 0001:00068a84       ?m_Equals@Struct_Microsoft_Singularity_V1_Services_DeliveryHandle@@SI_NPAU1@PAUClass_System_Object@@@Z 02069a84 f   DiskDrive.obj
 0001:00068acc       ?m_Equals@Struct_Microsoft_Singularity_V1_Services_DeliveryHandle@@SI_NPAUClass_Microsoft_Singularity_V1_Services_DeliveryHandle@@PAUClass_System_Object@@@Z 02069acc f   DiskDrive.obj
 0001:00068af8       ?m__ctor@Class_System_InvalidCastException@@SIXPAU1@@Z 02069af8 f   DiskDrive.obj
 0001:00068b20       ?m__ctor@Class_System_InvalidCastException@@SIXPAU1@PAUClass_System_String@@@Z 02069b20 f   DiskDrive.obj
 0001:00068b48       ?m__ctor@Class_System_InvalidCastException@@SIXPAU1@PAUClass_System_String@@PAUClass_System_Exception@@@Z 02069b48 f   DiskDrive.obj
 0001:00068b78       ?m_StructCopy@Struct_System_GCs_MemoryAccounting_RuntimeTypeAccounting@@SIXPAU1@0@Z 02069b78 f   DiskDrive.obj
 0001:00068bc8       ?m_StructCopy@Struct_System_GCs_MemoryAccounting_RuntimeTypeAccounting@@SIXPAU1@PAU1@@Z 02069bc8 f   DiskDrive.obj
 0001:00068cb8       ?m_Equals@Struct_System_GCs_MemoryAccounting_RuntimeTypeAccounting@@SI_NPAU1@PAUClass_System_Object@@@Z 02069cb8 f   DiskDrive.obj
 0001:00068d98       ?m_Equals@Struct_System_GCs_MemoryAccounting_RuntimeTypeAccounting@@SI_NPAUClass_System_GCs_MemoryAccounting_RuntimeTypeAccounting@@PAUClass_System_Object@@@Z 02069d98 f   DiskDrive.obj
 0001:00068dc4       ?m__ctor@Class_System_NotSupportedException@@SIXPAU1@@Z 02069dc4 f   DiskDrive.obj
 0001:00068dec       ?m__ctor@Class_System_NotSupportedException@@SIXPAU1@PAUClass_System_String@@@Z 02069dec f   DiskDrive.obj
 0001:00068e14       ?g_AssumeStatement@Class_Microsoft_Contracts_AssertHelpers@@SIXPAUClass_System_String@@@Z 02069e14 f   DiskDrive.obj
 0001:00068e30       ?g_Assume@Class_Microsoft_Contracts_AssertHelpers@@SIX_N@Z 02069e30 f   DiskDrive.obj
 0001:00068e74       ?g_AssertStatement@Class_Microsoft_Contracts_AssertHelpers@@SIXPAUClass_System_String@@0@Z 02069e74 f   DiskDrive.obj
 0001:00068e90       ?g_Assert@Class_Microsoft_Contracts_AssertHelpers@@SIX_N@Z 02069e90 f   DiskDrive.obj
 0001:00068ed4       ?m__ctor@Class_Microsoft_Contracts_AssertHelpers@@SIXPAU1@@Z 02069ed4 f   DiskDrive.obj
 0001:00068eec       ?m_ToString@int32@@SIPAUClass_System_String@@PAH@Z 02069eec f   DiskDrive.obj
 0001:00068f14       ?m_ToString@int32@@SIPAUClass_System_String@@PAHPAU2@@Z 02069f14 f   DiskDrive.obj
 0001:00068f5c       ?m_ToString@int32@@SIPAUClass_System_String@@PAUClass_System_Int32@@@Z 02069f5c f   DiskDrive.obj
 0001:00068f84       ?m_ToString@int32@@SIPAUClass_System_String@@PAUClass_System_Int32@@PAU2@@Z 02069f84 f   DiskDrive.obj
 0001:00068fb0       ?m_GetHashCode@int32@@SIHPAH@Z 02069fb0 f   DiskDrive.obj
 0001:00068fd0       ?m_GetHashCode@int32@@SIHPAUClass_System_Int32@@@Z 02069fd0 f   DiskDrive.obj
 0001:00068ff8       ?m_Equals@int32@@SI_NPAHPAUClass_System_Object@@@Z 02069ff8 f   DiskDrive.obj
 0001:00069054       ?m_Equals@int32@@SI_NPAUClass_System_Int32@@PAUClass_System_Object@@@Z 0206a054 f   DiskDrive.obj
 0001:00069080       ?m_StructCopy@Struct_Microsoft_Singularity_Isal_IX_Gdte64@@SIXPAU1@0@Z 0206a080 f   DiskDrive.obj
 0001:00069100       ?m_StructCopy@Struct_Microsoft_Singularity_Isal_IX_Gdte64@@SIXPAU1@PAU1@@Z 0206a100 f   DiskDrive.obj
 0001:00069280       ?m_Equals@Struct_Microsoft_Singularity_Isal_IX_Gdte64@@SI_NPAU1@PAUClass_System_Object@@@Z 0206a280 f   DiskDrive.obj
 0001:00069330       ?m_Equals@Struct_Microsoft_Singularity_Isal_IX_Gdte64@@SI_NPAUClass_Microsoft_Singularity_Isal_IX_Gdte64@@PAUClass_System_Object@@@Z 0206a330 f   DiskDrive.obj
 0001:0006935c       ?m__ctor@Class_System_ApplicationException@@SIXPAU1@@Z 0206a35c f   DiskDrive.obj
 0001:00069384       ?m__ctor@Class_System_ApplicationException@@SIXPAU1@PAUClass_System_String@@@Z 0206a384 f   DiskDrive.obj
 0001:000693ac       ?m_StructCopy@Struct_Microsoft_Singularity_Memory_PhysicalAddress@@SIXPAU1@0@Z 0206a3ac f   DiskDrive.obj
 0001:000693e0       ?m_StructCopy@Struct_Microsoft_Singularity_Memory_PhysicalAddress@@SIXPAU1@PAU1@@Z 0206a3e0 f   DiskDrive.obj
 0001:0006947c       ?g_op$_Equality@Struct_Microsoft_Singularity_Memory_PhysicalAddress@@SI_NU1@0@Z 0206a47c f   DiskDrive.obj
 0001:000694c4       ?m_GetHashCode@Struct_Microsoft_Singularity_Memory_PhysicalAddress@@SIHPAU1@@Z 0206a4c4 f   DiskDrive.obj
 0001:000694e8       ?m_GetHashCode@Struct_Microsoft_Singularity_Memory_PhysicalAddress@@SIHPAUClass_Microsoft_Singularity_Memory_PhysicalAddress@@@Z 0206a4e8 f   DiskDrive.obj
 0001:00069510       ?m_get$_Value@Struct_Microsoft_Singularity_Memory_PhysicalAddress@@SI_KPAU1@@Z 0206a510 f   DiskDrive.obj
 0001:00069534       ?m_Equals@Struct_Microsoft_Singularity_Memory_PhysicalAddress@@SI_NPAU1@PAUClass_System_Object@@@Z 0206a534 f   DiskDrive.obj
 0001:000695c8       ?m_Equals@Struct_Microsoft_Singularity_Memory_PhysicalAddress@@SI_NPAUClass_Microsoft_Singularity_Memory_PhysicalAddress@@PAUClass_System_Object@@@Z 0206a5c8 f   DiskDrive.obj
 0001:000695f4       ?m__ctor@Struct_Microsoft_Singularity_Memory_PhysicalAddress@@SIXPAU1@PAUuintPtr@@@Z 0206a5f4 f   DiskDrive.obj
 0001:00069624       ?m__ctor@Struct_Microsoft_Singularity_Memory_PhysicalAddress@@SIXPAU1@_K@Z 0206a624 f   DiskDrive.obj
 0001:00069650       ?m_Visit@Class_System_GCs_MemoryAccounting_RuntimeTypeReckoner@@SIPAUuintPtr@@PAU1@PAUClass_System_Object@@@Z 0206a650 f   DiskDrive.obj
 0001:0006966c       ?m_Initialize@Class_System_GCs_MemoryAccounting_RuntimeTypeReckoner@@SIXPAU1@_N@Z 0206a66c f   DiskDrive.obj
 0001:00069688       ?m__ctor@Class_System_GCs_MemoryAccounting_RuntimeTypeReckoner@@SIXPAU1@@Z 0206a688 f   DiskDrive.obj
 0001:000696a0       ?g_get$_NullMessage@Class_System_ArgumentNullException@@SIPAUClass_System_String@@XZ 0206a6a0 f   DiskDrive.obj
 0001:000696cc       ?m__ctor@Class_System_ArgumentNullException@@SIXPAU1@@Z 0206a6cc f   DiskDrive.obj
 0001:000696f4       ?m__ctor@Class_System_ArgumentNullException@@SIXPAU1@PAUClass_System_String@@@Z 0206a6f4 f   DiskDrive.obj
 0001:00069724       ?m__ctor@Class_System_ArgumentNullException@@SIXPAU1@PAUClass_System_String@@1@Z 0206a724 f   DiskDrive.obj
 0001:00069754       ?g__cctor@Class_System_ArgumentNullException@@SIXXZ 0206a754 f   DiskDrive.obj
 0001:00069768       ?m__ctor@Class_System_OverflowException@@SIXPAU1@@Z 0206a768 f   DiskDrive.obj
 0001:00069790       ?m__ctor@Class_System_OverflowException@@SIXPAU1@PAUClass_System_String@@@Z 0206a790 f   DiskDrive.obj
 0001:000697b8       ?m__ctor@Class_System_OverflowException@@SIXPAU1@PAUClass_System_String@@PAUClass_System_Exception@@@Z 0206a7b8 f   DiskDrive.obj
 0001:000697e8       ?m__ctor@Class_System_ArithmeticException@@SIXPAU1@@Z 0206a7e8 f   DiskDrive.obj
 0001:00069810       ?m__ctor@Class_System_ArithmeticException@@SIXPAU1@PAUClass_System_String@@@Z 0206a810 f   DiskDrive.obj
 0001:00069838       ?m__ctor@Class_System_ArithmeticException@@SIXPAU1@PAUClass_System_String@@PAUClass_System_Exception@@@Z 0206a838 f   DiskDrive.obj
 0001:00069868       ?m_Finalize@Class__Directory_Contracts_Microsoft_Singularity_Channels_TRef$_2$LMicrosoft_Singularity_Directory_ServiceProviderContract_Exp_Microsoft_Singularity_Directory_ServiceProviderContract_Start$G@@SIXPAU1@@Z 0206a868 f   DiskDrive.obj
 0001:000698f4       ?m_Acquire@Class__Directory_Contracts_Microsoft_Singularity_Channels_TRef$_2$LMicrosoft_Singularity_Directory_ServiceProviderContract_Exp_Microsoft_Singularity_Directory_ServiceProviderContract_Start$G@@SIPAUStruct_Microsoft_Singularity_Directory_ServiceProviderContract_Exp@@PAU1@@Z 0206a8f4 f   DiskDrive.obj
 0001:00069990       ?m__ctor@Class__Directory_Contracts_Microsoft_Singularity_Channels_TRef$_2$LMicrosoft_Singularity_Directory_ServiceProviderContract_Exp_Microsoft_Singularity_Directory_ServiceProviderContract_Start$G@@SIXPAU1@PAUStruct_Microsoft_Singularity_Directory_ServiceProviderContract_Exp@@@Z 0206a990 f   DiskDrive.obj
 0001:00069a34       ?m_set$_Item@Class_System_Collections_Hashtable@@SIXPAU1@PAUClass_System_Object@@1@Z 0206aa34 f   DiskDrive.obj
 0001:00069a64       ?m_set$_hcp@Class_System_Collections_Hashtable@@SIXPAU1@PAUClass_System_Collections_IHashCodeProvider@@@Z 0206aa64 f   DiskDrive.obj
 0001:00069a8c       ?m_set$_comparer@Class_System_Collections_Hashtable@@SIXPAU1@PAUClass_System_Collections_IComparer@@@Z 0206aa8c f   DiskDrive.obj
 0001:00069ab4       ?m_Remove@Class_System_Collections_Hashtable@@SIXPAU1@PAUClass_System_Object@@@Z 0206aab4 f   DiskDrive.obj
 0001:00069cf4       ?m_rehash@Class_System_Collections_Hashtable@@SIXPAU1@@Z 0206acf4 f   DiskDrive.obj
 0001:00069d20       ?m_rehash@Class_System_Collections_Hashtable@@SIXPAU1@H@Z 0206ad20 f   DiskDrive.obj
 0001:00069e80       ?m_putEntry@Class_System_Collections_Hashtable@@SIXPAU1@PAUClassVector_Struct_System_Collections_Hashtable_bucket@@PAUClass_System_Object@@2H@Z 0206ae80 f   DiskDrive.obj
 0001:00069f88       ?m_KeyEquals@Class_System_Collections_Hashtable@@SI_NPAU1@PAUClass_System_Object@@1@Z 0206af88 f   DiskDrive.obj
 0001:0006a000       ?m_Insert@Class_System_Collections_Hashtable@@SIXPAU1@PAUClass_System_Object@@1_N@Z 0206b000 f   DiskDrive.obj
 0001:0006a44c       ?m_InitHash@Class_System_Collections_Hashtable@@SIIPAU1@PAUClass_System_Object@@HPAI2@Z 0206b44c f   DiskDrive.obj
 0001:0006a4b8       ?m_GetPrime@Class_System_Collections_Hashtable@@SIHPAU1@H@Z 0206b4b8 f   DiskDrive.obj
 0001:0006a57c       ?m_GetHash@Class_System_Collections_Hashtable@@SIHPAU1@PAUClass_System_Object@@@Z 0206b57c f   DiskDrive.obj
 0001:0006a5e4       ?m_GetEnumerator@Class_System_Collections_Hashtable@@SIPAUClass_System_Collections_IDictionaryEnumerator@@PAU1@@Z 0206b5e4 f   DiskDrive.obj
 0001:0006a628       ?m_get$_Item@Class_System_Collections_Hashtable@@SIPAUClass_System_Object@@PAU1@PAU2@@Z 0206b628 f   DiskDrive.obj
 0001:0006a814       ?m_get$_hcp@Class_System_Collections_Hashtable@@SIPAUClass_System_Collections_IHashCodeProvider@@PAU1@@Z 0206b814 f   DiskDrive.obj
 0001:0006a834       ?m_get$_comparer@Class_System_Collections_Hashtable@@SIPAUClass_System_Collections_IComparer@@PAU1@@Z 0206b834 f   DiskDrive.obj
 0001:0006a854       ?m_expand@Class_System_Collections_Hashtable@@SIXPAU1@@Z 0206b854 f   DiskDrive.obj
 0001:0006a890       ?m__ctor@Class_System_Collections_Hashtable@@SIXPAU1@@Z 0206b890 f   DiskDrive.obj
 0001:0006a8b8       ?m__ctor@Class_System_Collections_Hashtable@@SIXPAU1@HH@Z 0206b8b8 f   DiskDrive.obj
 0001:0006a8ec       ?m__ctor@Class_System_Collections_Hashtable@@SIXPAU1@HHPAUClass_System_Collections_IHashCodeProvider@@PAUClass_System_Collections_IComparer@@@Z 0206b8ec f   DiskDrive.obj
 0001:0006aa70       ?g__cctor@Class_System_Collections_Hashtable@@SIXXZ 0206ba70 f   DiskDrive.obj
 0001:0006aa84       ?m_Visit@Class_System_GCs_GCProfiler_OneObjectVisitor@@SIXPAU1@PAPAUuintPtr@@@Z 0206ba84 f   DiskDrive.obj
 0001:0006aab0       ?m__ctor@Class_System_GCs_GCProfiler_OneObjectVisitor@@SIXPAU1@PAUClass_System_GCs_GCProfiler@@@Z 0206bab0 f   DiskDrive.obj
 0001:0006aae0       ?m_StructCopy@Struct_Microsoft_Singularity_Io_DiskDeviceContract_NoSystemId@@SIXPAU1@0@Z 0206bae0 f   DiskDrive.obj
 0001:0006aafc       ?m_StructCopy@Struct_Microsoft_Singularity_Io_DiskDeviceContract_NoSystemId@@SIXPAU1@PAU1@@Z 0206bafc f   DiskDrive.obj
 0001:0006ab50       ?m_MarshallContent@Struct_Microsoft_Singularity_Io_DiskDeviceContract_NoSystemId@@SIXPAU1@PAEPAUStruct_Microsoft_Singularity_Channels_Endpoint@@1PAH@Z 0206bb50 f   DiskDrive.obj
 0001:0006ab70       ?m_MarshallAll@Struct_Microsoft_Singularity_Io_DiskDeviceContract_NoSystemId@@SIXPAU1@PAEPAUStruct_Microsoft_Singularity_Channels_Endpoint@@PAH@Z 0206bb70 f   DiskDrive.obj
 0001:0006abc8       ?m_Equals@Struct_Microsoft_Singularity_Io_DiskDeviceContract_NoSystemId@@SI_NPAU1@PAUClass_System_Object@@@Z 0206bbc8 f   DiskDrive.obj
 0001:0006ac00       ?m_Equals@Struct_Microsoft_Singularity_Io_DiskDeviceContract_NoSystemId@@SI_NPAUClass_Microsoft_Singularity_Io_DiskDeviceContract_NoSystemId@@PAUClass_System_Object@@@Z 0206bc00 f   DiskDrive.obj
 0001:0006ac2c       ?m_StructCopy@Struct_Microsoft_Singularity_V1_Services_PlatformService@@SIXPAU1@0@Z 0206bc2c f   DiskDrive.obj
 0001:0006ac48       ?m_StructCopy@Struct_Microsoft_Singularity_V1_Services_PlatformService@@SIXPAU1@PAU1@@Z 0206bc48 f   DiskDrive.obj
 0001:0006ac9c       ?m_Equals@Struct_Microsoft_Singularity_V1_Services_PlatformService@@SI_NPAU1@PAUClass_System_Object@@@Z 0206bc9c f   DiskDrive.obj
 0001:0006acd4       ?m_Equals@Struct_Microsoft_Singularity_V1_Services_PlatformService@@SI_NPAUClass_Microsoft_Singularity_V1_Services_PlatformService@@PAUClass_System_Object@@@Z 0206bcd4 f   DiskDrive.obj
 0001:0006ad00       ?m_Push@Class_System_Collections_Stack@@SIXPAU1@PAUClass_System_Object@@@Z 0206bd00 f   DiskDrive.obj
 0001:0006adac       ?m_Pop@Class_System_Collections_Stack@@SIPAUClass_System_Object@@PAU1@@Z 0206bdac f   DiskDrive.obj
 0001:0006ae44       ?m_get$_Count@Class_System_Collections_Stack@@SIHPAU1@@Z 0206be44 f   DiskDrive.obj
 0001:0006ae64       ?m__ctor@Class_System_Collections_Stack@@SIXPAU1@@Z 0206be64 f   DiskDrive.obj
 0001:0006aea8       ?m_ThreadStartNotification@Class_System_GCs_BaseCollector@@SIXPAU1@H@Z 0206bea8 f   DiskDrive.obj
 0001:0006aec4       ?m_ThreadDormantGCNotification@Class_System_GCs_BaseCollector@@SIXPAU1@H@Z 0206bec4 f   DiskDrive.obj
 0001:0006aee0       ?g_StartGCCycle@Class_System_GCs_BaseCollector@@SIXXZ 0206bee0 f   DiskDrive.obj
 0001:0006af2c       ?m_Shutdown@Class_System_GCs_BaseCollector@@SIXPAU1@@Z 0206bf2c f   DiskDrive.obj
 0001:0006af48       ?m_SetProfiler@Class_System_GCs_BaseCollector@@SIXPAU1@PAUClass_System_GCs_GCProfiler@@@Z 0206bf48 f   DiskDrive.obj
 0001:0006aff8       ?g_RegisterPause@Class_System_GCs_BaseCollector@@SIXH@Z 0206bff8 f   DiskDrive.obj
 0001:0006b090       ?m_RegisterHeapSize@Class_System_GCs_BaseCollector@@SIXPAU1@_K@Z 0206c090 f   DiskDrive.obj
 0001:0006b0ac       ?m_ProfileScanRoots@Class_System_GCs_BaseCollector@@SIXPAU1@PAUClass_System_GCs_NonNullReferenceVisitor@@@Z 0206c0ac f   DiskDrive.obj
 0001:0006b0f0       ?m_ProfileScanObjects@Class_System_GCs_BaseCollector@@SIXPAU1@PAUClass_System_GCs_SegregatedFreeList_ObjectVisitor@@@Z 0206c0f0 f   DiskDrive.obj
 0001:0006b890       ?m_ProfileAllocation@Class_System_GCs_BaseCollector@@SIXPAU1@PAUClass_System_Object@@@Z 0206c890 f   DiskDrive.obj
 0001:0006b93c       ?m_PrintGCTiming@Class_System_GCs_BaseCollector@@SIXPAU1@@Z 0206c93c f   DiskDrive.obj
 0001:0006b9e4       ?m_PrintAllocations@Class_System_GCs_BaseCollector@@SIXPAU1@@Z 0206c9e4 f   DiskDrive.obj
 0001:0006ba00       ?m_NewThreadNotification@Class_System_GCs_BaseCollector@@SIXPAU1@PAUClass_System_Threading_Thread@@_N@Z 0206ca00 f   DiskDrive.obj
 0001:0006ba2c       ?g_NewBytesSinceGCExceeds@Class_System_GCs_BaseCollector@@SI_NPAUuintPtr@@@Z 0206ca2c f   DiskDrive.obj
 0001:0006ba54       ?g_IncrementNewBytesSinceGC@Class_System_GCs_BaseCollector@@SIXPAUuintPtr@@@Z 0206ca54 f   DiskDrive.obj
 0001:0006ba80       ?g_get$_DebugNewBytesSinceGC@Class_System_GCs_BaseCollector@@SIPAUuintPtr@@XZ 0206ca80 f   DiskDrive.obj
 0001:0006ba98       ?m_DestructHeap@Class_System_GCs_BaseCollector@@SIXPAU1@@Z 0206ca98 f   DiskDrive.obj
 0001:0006bad4       ?m_DeadThreadNotification@Class_System_GCs_BaseCollector@@SIXPAU1@PAUClass_System_Threading_Thread@@@Z 0206cad4 f   DiskDrive.obj
 0001:0006baf0       ?m_CreateObject@Class_System_GCs_BaseCollector@@SIXPAU1@PAUClass_System_Object@@PAUClass_System_VTable@@PAUClass_System_Threading_Thread@@@Z 0206caf0 f   DiskDrive.obj
 0001:0006bb28       ?g_AllThreadRendezvous@Class_System_GCs_BaseCollector@@SIXH@Z 0206cb28 f   DiskDrive.obj
 0001:0006beb4       ?g_AllThreadRelease@Class_System_GCs_BaseCollector@@SIXH@Z 0206ceb4 f   DiskDrive.obj
 0001:0006c2a0       ?m_AllocateVector@Class_System_GCs_BaseCollector@@SIPAUClass_System_Array@@PAU1@PAUClass_System_VTable@@HPAUClass_System_Threading_Thread@@@Z 0206d2a0 f   DiskDrive.obj
 0001:0006c340       ?m_AllocateString@Class_System_GCs_BaseCollector@@SIPAUClass_System_String@@PAU1@HPAUClass_System_Threading_Thread@@@Z 0206d340 f   DiskDrive.obj
 0001:0006c3fc       ?m_AllocateObject@Class_System_GCs_BaseCollector@@SIPAUClass_System_Object@@PAU1@PAUClass_System_VTable@@PAUuintPtr@@IPAUClass_System_Threading_Thread@@@Z 0206d3fc f   DiskDrive.obj
 0001:0006c474       ?m_AllocateObject@Class_System_GCs_BaseCollector@@SIPAUClass_System_Object@@PAU1@PAUClass_System_VTable@@PAUClass_System_Threading_Thread@@@Z 0206d474 f   DiskDrive.obj
 0001:0006c4bc       ?m__ctor@Class_System_GCs_BaseCollector@@SIXPAU1@@Z 0206d4bc f   DiskDrive.obj
 0001:0006c4e0       ?m_SetProfiler@Class_System_GCs_Collector@@SIXPAU1@PAUClass_System_GCs_GCProfiler@@@Z 0206d4e0 f   DiskDrive.obj
 0001:0006c4fc       ?m_ProfileAllocation@Class_System_GCs_Collector@@SIXPAU1@PAUClass_System_Object@@@Z 0206d4fc f   DiskDrive.obj
 0001:0006c518       ?m__ctor@Class_System_GCs_Collector@@SIXPAU1@@Z 0206d518 f   DiskDrive.obj
 0001:0006c534       ?m_StructCopy@Struct_Microsoft_Singularity_Io_DiskDeviceContract_SystemId@@SIXPAU1@0@Z 0206d534 f   DiskDrive.obj
 0001:0006c55c       ?m_StructCopy@Struct_Microsoft_Singularity_Io_DiskDeviceContract_SystemId@@SIXPAU1@PAU1@@Z 0206d55c f   DiskDrive.obj
 0001:0006c5d4       ?m_MarshallContent@Struct_Microsoft_Singularity_Io_DiskDeviceContract_SystemId@@SIXPAU1@PAEPAUStruct_Microsoft_Singularity_Channels_Endpoint@@1PAH@Z 0206d5d4 f   DiskDrive.obj
 0001:0006c5f4       ?m_MarshallAll@Struct_Microsoft_Singularity_Io_DiskDeviceContract_SystemId@@SIXPAU1@PAEPAUStruct_Microsoft_Singularity_Channels_Endpoint@@PAH@Z 0206d5f4 f   DiskDrive.obj
 0001:0006c64c       ?m_Equals@Struct_Microsoft_Singularity_Io_DiskDeviceContract_SystemId@@SI_NPAU1@PAUClass_System_Object@@@Z 0206d64c f   DiskDrive.obj
 0001:0006c694       ?m_Equals@Struct_Microsoft_Singularity_Io_DiskDeviceContract_SystemId@@SI_NPAUClass_Microsoft_Singularity_Io_DiskDeviceContract_SystemId@@PAUClass_System_Object@@@Z 0206d694 f   DiskDrive.obj
 0001:0006c6c0       ?m_Register@Class_Microsoft_Singularity_Eventing_EventSource@@SI_NPAU1@@Z 0206d6c0 f   DiskDrive.obj
 0001:0006c6f8       ?m_Finalize@Class_Microsoft_Singularity_Eventing_EventSource@@SIXPAU1@@Z 0206d6f8 f   DiskDrive.obj
 0001:0006c740       ?m__ctor@Class_Microsoft_Singularity_Eventing_EventSource@@SIXPAU1@@Z 0206d740 f   DiskDrive.obj
 0001:0006c764       ?m__ctor@Class_Microsoft_Singularity_Eventing_EventSource@@SIXPAU1@PAUClass_System_String@@PAUClass_Microsoft_Singularity_Eventing_EventingStorage@@I@Z 0206d764 f   DiskDrive.obj
 0001:0006c7e4       ?m__ctor@Class_Microsoft_Singularity_Eventing_EventSource@@SIXPAU1@PAUClass_Microsoft_Singularity_Eventing_Controller@@PAUClass_System_String@@PAUuintPtr@@@Z 0206d7e4 f   DiskDrive.obj
 0001:0006c838       ?m__ctor@Class_System_Runtime_CompilerServices_ExternalEntryPointAttribute@@SIXPAU1@@Z 0206d838 f   DiskDrive.obj
 0001:0006c85c       ?g_IsInst@Class_Microsoft_Singularity_Channels_ExHeap@@SI_NPAUvoid@@PAUClass_System_Type@@@Z 0206d85c f   DiskDrive.obj
 0001:0006c8e4       ?g_IndirectToData@Class_Microsoft_Singularity_Channels_ExHeap@@SIPAUvoid@@PAU2@@Z 0206d8e4 f   DiskDrive.obj
 0001:0006c9a0       ?g_GetSize@Class_Microsoft_Singularity_Channels_ExHeap@@SIPAUuintPtr@@PAUvoid@@@Z 0206d9a0 f   DiskDrive.obj
 0001:0006ca14       ?g_Free@Class_Microsoft_Singularity_Channels_ExHeap@@SIXPAUvoid@@@Z 0206da14 f   DiskDrive.obj
 0001:0006cad0       ?g_AllocateVector@Class_Microsoft_Singularity_Channels_ExHeap@@SIPAUvoid@@PAUClass_System_Type@@H@Z 0206dad0 f   DiskDrive.obj
 0001:0006cc10       ?m__ctor@Class_Microsoft_Singularity_Channels_ExHeap@@SIXPAU1@@Z 0206dc10 f   DiskDrive.obj
 0001:0006cc28       ?m__ctor@Class_Microsoft_SingSharp_CustomAllocator@@SIXPAU1@@Z 0206dc28 f   DiskDrive.obj
 0001:0006cc40       ?m_StructCopy@Struct_Microsoft_Singularity_Io_DiskDeviceContract_GetDeviceName@@SIXPAU1@0@Z 0206dc40 f   DiskDrive.obj
 0001:0006cc5c       ?m_StructCopy@Struct_Microsoft_Singularity_Io_DiskDeviceContract_GetDeviceName@@SIXPAU1@PAU1@@Z 0206dc5c f   DiskDrive.obj
 0001:0006ccb0       ?m_Equals@Struct_Microsoft_Singularity_Io_DiskDeviceContract_GetDeviceName@@SI_NPAU1@PAUClass_System_Object@@@Z 0206dcb0 f   DiskDrive.obj
 0001:0006cce8       ?m_Equals@Struct_Microsoft_Singularity_Io_DiskDeviceContract_GetDeviceName@@SI_NPAUClass_Microsoft_Singularity_Io_DiskDeviceContract_GetDeviceName@@PAUClass_System_Object@@@Z 0206dce8 f   DiskDrive.obj
 0001:0006cd14       ?m_StructCopy@Struct_Microsoft_Singularity_Io_DiskDeviceContract_Read@@SIXPAU1@0@Z 0206dd14 f   DiskDrive.obj
 0001:0006cd84       ?m_StructCopy@Struct_Microsoft_Singularity_Io_DiskDeviceContract_Read@@SIXPAU1@PAU1@@Z 0206dd84 f   DiskDrive.obj
 0001:0006ced4       ?m_Equals@Struct_Microsoft_Singularity_Io_DiskDeviceContract_Read@@SI_NPAU1@PAUClass_System_Object@@@Z 0206ded4 f   DiskDrive.obj
 0001:0006cf98       ?m_Equals@Struct_Microsoft_Singularity_Io_DiskDeviceContract_Read@@SI_NPAUClass_Microsoft_Singularity_Io_DiskDeviceContract_Read@@PAUClass_System_Object@@@Z 0206df98 f   DiskDrive.obj
 0001:0006cfc4       ?g_DoCallback@Class_Microsoft_Singularity_Isal_Isa_ICallback@@SIPAUuintPtr@@PAU1@PAU2@@Z 0206dfc4 f   DiskDrive.obj
 0001:0006cffc       ?m__ctor@Class_Microsoft_Singularity_Isal_Isa_ICallback@@SIXPAU1@@Z 0206dffc f   DiskDrive.obj
 0001:0006d018       ?m_Visit@Struct_System_STMWord@@SIXPAU1@PAUClass_System_GCs_DirectReferenceVisitor@@@Z 0206e018 f   DiskDrive.obj
 0001:0006d0b0       ?m_ToString@Struct_System_STMWord@@SIPAUClass_System_String@@PAU1@@Z 0206e0b0 f   DiskDrive.obj
 0001:0006d1b4       ?m_ToString@Struct_System_STMWord@@SIPAUClass_System_String@@PAUClass_System_STMWord@@@Z 0206e1b4 f   DiskDrive.obj
 0001:0006d1dc       ?m_StructCopy@Struct_System_STMWord@@SIXPAU1@0@Z 0206e1dc f   DiskDrive.obj
 0001:0006d204       ?m_StructCopy@Struct_System_STMWord@@SIXPAU1@PAU1@@Z 0206e204 f   DiskDrive.obj
 0001:0006d27c       ?m_IsQuiescent@Struct_System_STMWord@@SI_NPAU1@@Z 0206e27c f   DiskDrive.obj
 0001:0006d2a4       ?m_IsOwned@Struct_System_STMWord@@SI_NPAU1@@Z 0206e2a4 f   DiskDrive.obj
 0001:0006d2cc       ?m_GetPayload@Struct_System_STMWord@@SIPAUuintPtr@@PAU1@@Z 0206e2cc f   DiskDrive.obj
 0001:0006d2f0       ?m_GetOwnersVersion@Struct_System_STMWord@@SI?AU1@PAU1@@Z 0206e2f0 f   DiskDrive.obj
 0001:0006d354       ?m_GetOwner@Struct_System_STMWord@@SIPAUClass_System_TryAllManager@@PAU1@@Z 0206e354 f   DiskDrive.obj
 0001:0006d3b8       ?m_Equals@Struct_System_STMWord@@SI_NPAU1@PAUClass_System_Object@@@Z 0206e3b8 f   DiskDrive.obj
 0001:0006d400       ?m_Equals@Struct_System_STMWord@@SI_NPAUClass_System_STMWord@@PAUClass_System_Object@@@Z 0206e400 f   DiskDrive.obj
 0001:0006d42c       ?m_Eq@Struct_System_STMWord@@SI_NPAU1@U1@@Z 0206e42c f   DiskDrive.obj
 0001:0006d458       ?m_Eq@Struct_System_STMWord@@SI_NPAU1@UStruct_System_MultiUseWord_STMSnapshot@@@Z 0206e458 f   DiskDrive.obj
 0001:0006d54c       ?m__ctor@Struct_System_STMWord@@SIXPAU1@PAUuintPtr@@@Z 0206e54c f   DiskDrive.obj
 0001:0006d570       ?m__ctor@Struct_System_STMWord@@SIXPAU1@PAUuintPtr@@_N@Z 0206e570 f   DiskDrive.obj
 0001:0006d5c4       ?m_StructCopy@Struct_Microsoft_Singularity_Isal_CpuRecord@@SIXPAU1@0@Z 0206e5c4 f   DiskDrive.obj
 0001:0006d63c       ?m_StructCopy@Struct_Microsoft_Singularity_Isal_CpuRecord@@SIXPAU1@PAU1@@Z 0206e63c f   DiskDrive.obj
 0001:0006d7a4       ?m_Equals@Struct_Microsoft_Singularity_Isal_CpuRecord@@SI_NPAU1@PAUClass_System_Object@@@Z 0206e7a4 f   DiskDrive.obj
 0001:0006d920       ?m_Equals@Struct_Microsoft_Singularity_Isal_CpuRecord@@SI_NPAUClass_Microsoft_Singularity_Isal_CpuRecord@@PAUClass_System_Object@@@Z 0206e920 f   DiskDrive.obj
 0001:0006d94c       ?g_VisitWeakRefsPhase2@Class_System_TryAllManager@@SIXPAU1@PAUClass_System_GCs_DirectReferenceVisitor@@@Z 0206e94c f   DiskDrive.obj
 0001:0006d9c4       ?g_VisitWeakRefsPhase1@Class_System_TryAllManager@@SIXPAU1@PAUClass_System_GCs_DirectReferenceVisitor@@@Z 0206e9c4 f   DiskDrive.obj
 0001:0006da08       ?g_VisitWeakRefs@Class_System_TryAllManager@@SIXPAUClass_System_GCs_DirectReferenceVisitor@@@Z 0206ea08 f   DiskDrive.obj
 0001:0006da34       ?g_VisitStrongRefs@Class_System_TryAllManager@@SIXPAU1@PAUClass_System_GCs_DirectReferenceVisitor@@@Z 0206ea34 f   DiskDrive.obj
 0001:0006da80       ?g_VisitStrongRefs@Class_System_TryAllManager@@SIXPAUClass_System_GCs_DirectReferenceVisitor@@@Z 0206ea80 f   DiskDrive.obj
 0001:0006daac       ?m_startNestedTryAllHelper@Class_System_TryAllManager@@SIXPAU1@_NH@Z 0206eaac f   DiskDrive.obj
 0001:0006dcc4       ?m_Shake@Class_System_TryAllManager@@SIXPAU1@_N@Z 0206ecc4 f   DiskDrive.obj
 0001:0006dce0       ?g_SetDuringGC@Class_System_TryAllManager@@SIX_N@Z 0206ece0 f   DiskDrive.obj
 0001:0006dcfc       ?g_ReplenishTokens@Class_System_TryAllManager@@SIXXZ 0206ecfc f   DiskDrive.obj
 0001:0006ddd4       ?g_RemoveCache@Class_System_TryAllManager@@SIXPAU1@@Z 0206edd4 f   DiskDrive.obj
 0001:0006ddf8       ?g_ReadBarrier@Class_System_TryAllManager@@SIPAUClass_System_Object@@PAUClass_System_GCs_DirectReferenceVisitor@@PAU2@@Z 0206edf8 f   DiskDrive.obj
 0001:0006de58       ?g_PreGCHookTryAll@Class_System_TryAllManager@@SIXXZ 0206ee58 f   DiskDrive.obj
 0001:0006de7c       ?g_PostGCHookTryAll@Class_System_TryAllManager@@SIXXZ 0206ee7c f   DiskDrive.obj
 0001:0006dea0       ?m_InitLocallyAllocatedSTMWords@Class_System_TryAllManager@@SIXPAU1@@Z 0206eea0 f   DiskDrive.obj
 0001:0006e018       ?g_EnsureCache@Class_System_TryAllManager@@SIXPAU1@@Z 0206f018 f   DiskDrive.obj
 0001:0006e074       ?g_DumpPerCallSiteStats@Class_System_TryAllManager@@SIXXZ 0206f074 f   DiskDrive.obj
 0001:0006e088       ?g_doVisitWeakRefs@Class_System_TryAllManager@@SIXPAUClass_System_GCs_DirectReferenceVisitor@@@Z 0206f088 f   DiskDrive.obj
 0001:0006e1d0       ?g_doVisitStrongRefs@Class_System_TryAllManager@@SIXPAUClass_System_GCs_DirectReferenceVisitor@@@Z 0206f1d0 f   DiskDrive.obj
 0001:0006e2a8       ?g_doPreGCHook@Class_System_TryAllManager@@SIXXZ 0206f2a8 f   DiskDrive.obj
 0001:0006e394       ?g_doPostGCHook@Class_System_TryAllManager@@SIXXZ 0206f394 f   DiskDrive.obj
 0001:0006e610       ?m_becomeInvalid@Class_System_TryAllManager@@SIXPAU1@_N@Z 0206f610 f   DiskDrive.obj
 0001:0006e688       ?m_AllocLocallyAllocatedSTMWords@Class_System_TryAllManager@@SIXPAU1@@Z 0206f688 f   DiskDrive.obj
 0001:0006e738       ?m__ctor@Class_System_TryAllManager@@SIXPAU1@@Z 0206f738 f   DiskDrive.obj
 0001:0006eb04       ?g__cctor@Class_System_TryAllManager@@SIXXZ 0206fb04 f   DiskDrive.obj
 0001:0006eb34       ?m__ctor@Class_System_Globalization_CultureInfo@@SIXPAU1@@Z 0206fb34 f   DiskDrive.obj
 0001:0006eb50       ?g__cctor@Class_System_Globalization_CultureInfo@@SIXXZ 0206fb50 f   DiskDrive.obj
 0001:0006f058       ?m_StructCopy@Struct_Microsoft_Singularity_Io_DiskDeviceContract_AckGetSectorCount@@SIXPAU1@0@Z 02070058 f   DiskDrive.obj
 0001:0006f08c       ?m_StructCopy@Struct_Microsoft_Singularity_Io_DiskDeviceContract_AckGetSectorCount@@SIXPAU1@PAU1@@Z 0207008c f   DiskDrive.obj
 0001:0006f128       ?m_MarshallContent@Struct_Microsoft_Singularity_Io_DiskDeviceContract_AckGetSectorCount@@SIXPAU1@PAEPAUStruct_Microsoft_Singularity_Channels_Endpoint@@1PAH@Z 02070128 f   DiskDrive.obj
 0001:0006f148       ?m_MarshallAll@Struct_Microsoft_Singularity_Io_DiskDeviceContract_AckGetSectorCount@@SIXPAU1@PAEPAUStruct_Microsoft_Singularity_Channels_Endpoint@@PAH@Z 02070148 f   DiskDrive.obj
 0001:0006f1a0       ?m_Equals@Struct_Microsoft_Singularity_Io_DiskDeviceContract_AckGetSectorCount@@SI_NPAU1@PAUClass_System_Object@@@Z 020701a0 f   DiskDrive.obj
 0001:0006f20c       ?m_Equals@Struct_Microsoft_Singularity_Io_DiskDeviceContract_AckGetSectorCount@@SI_NPAUClass_Microsoft_Singularity_Io_DiskDeviceContract_AckGetSectorCount@@PAUClass_System_Object@@@Z 0207020c f   DiskDrive.obj
 0001:0006f238       ?m_Visit@Class_System_GCs_MarkSweepCollector_ThreadMarkReferenceVisitor@@SIXPAU1@PAPAUuintPtr@@@Z 02070238 f   DiskDrive.obj
 0001:0006f628       ?m__ctor@Class_System_GCs_MarkSweepCollector_ThreadMarkReferenceVisitor@@SIXPAU1@@Z 02070628 f   DiskDrive.obj
 0001:0006f64c       ?m_VisitReferenceFields@Class_System_GCs_NonNullReferenceVisitor@@SIPAUuintPtr@@PAU1@PAU2@PAUClass_System_VTable@@@Z 0207064c f   DiskDrive.obj
 0001:0006fde8       ?m_VisitReferenceFields@Class_System_GCs_NonNullReferenceVisitor@@SIPAUuintPtr@@PAU1@PAUClass_System_Object@@@Z 02070de8 f   DiskDrive.obj
 0001:0006fe34       ?m_Filter@Class_System_GCs_NonNullReferenceVisitor@@SIXPAU1@PAPAUuintPtr@@PAUStruct_System_GCs_ReferenceVisitor_ObjectDescriptor@@@Z 02070e34 f   DiskDrive.obj
 0001:0006fe6c       ?m__ctor@Class_System_GCs_NonNullReferenceVisitor@@SIXPAU1@@Z 02070e6c f   DiskDrive.obj
 0001:0006fe90       ?m__ctor@Class_System_GCs_DirectReferenceVisitor@@SIXPAU1@@Z 02070e90 f   DiskDrive.obj
 0001:0006feb4       ?m_VisitReferenceFieldsTemplateNoInline@Class_System_GCs_ReferenceVisitor@@SIPAUuintPtr@@PAU1@PAUStruct_System_GCs_ReferenceVisitor_ObjectDescriptor@@@Z 02070eb4 f   DiskDrive.obj
 0001:000704a0       ?m_VisitReferenceFieldsTemplate@Class_System_GCs_ReferenceVisitor@@SIPAUuintPtr@@PAU1@PAUStruct_System_GCs_ReferenceVisitor_ObjectDescriptor@@@Z 020714a0 f   DiskDrive.obj
 0001:000709b4       ?m_VisitReferenceFieldsTemplate@Class_System_GCs_ReferenceVisitor@@SIXPAU1@PAUStruct_System_GCs_ReferenceVisitor_ObjectDescriptor@@H@Z 020719b4 f   DiskDrive.obj
 0001:00070ba0       ?m_VisitReferenceFields@Class_System_GCs_ReferenceVisitor@@SIPAUuintPtr@@PAU1@PAUClass_System_Object@@@Z 02071ba0 f   DiskDrive.obj
 0001:00070bec       ?m__ctor@Class_System_GCs_ReferenceVisitor@@SIXPAU1@@Z 02071bec f   DiskDrive.obj
 0001:00070c08       ?g_WaitForGCEvent@Class_System_Threading_Thread@@SI_NH@Z 02071c08 f   DiskDrive.obj
 0001:00070c58       ?g_VisitBootstrapData@Class_System_Threading_Thread@@SIXPAUClass_System_GCs_ReferenceVisitor@@@Z 02071c58 f   DiskDrive.obj
 0001:00070c94       ?g_ThreadStub@Class_System_Threading_Thread@@SIXH@Z 02071c94 f   DiskDrive.obj
 0001:0007110c       ?m_Start@Class_System_Threading_Thread@@SIXPAU1@@Z 0207210c f   DiskDrive.obj
 0001:00071210       ?g_SpinWait@Class_System_Threading_Thread@@SIXH@Z 02072210 f   DiskDrive.obj
 0001:00071254       ?g_Sleep@Class_System_Threading_Thread@@SIXUStruct_System_TimeSpan@@@Z 02072254 f   DiskDrive.obj
 0001:00071290       ?g_SignalGCEvent@Class_System_Threading_Thread@@SIXH@Z 02072290 f   DiskDrive.obj
 0001:000712e8       ?m_SetIgnoredByJoinAll@Class_System_Threading_Thread@@SIXPAU1@@Z 020722e8 f   DiskDrive.obj
 0001:00071308       ?m_set$_DebugName@Class_System_Threading_Thread@@SIXPAU1@PAUClass_System_String@@@Z 02072308 f   DiskDrive.obj
 0001:00071330       ?g_RemoveThread@Class_System_Threading_Thread@@SIXH@Z 02072330 f   DiskDrive.obj
 0001:000713e4       ?m_PushSelectSyncHandles@Class_System_Threading_Thread@@SIXPAU1@PAUClassVector_Struct_Microsoft_Singularity_V1_Threads_SyncHandle@@@Z 020723e4 f   DiskDrive.obj
 0001:0007145c       ?m_PushSelectObjects@Class_System_Threading_Thread@@SIXPAU1@PAUClassVector_Class_Microsoft_Singularity_Channels_ISelectable@@@Z 0207245c f   DiskDrive.obj
 0001:000714d0       ?m_PushSelectBools@Class_System_Threading_Thread@@SIXPAU1@PAUClassVector_bool@@@Z 020724d0 f   DiskDrive.obj
 0001:000714fc       ?m_PopSelectSyncHandles@Class_System_Threading_Thread@@SIPAUClassVector_Struct_Microsoft_Singularity_V1_Threads_SyncHandle@@PAU1@H@Z 020724fc f   DiskDrive.obj
 0001:000715b0       ?m_PopSelectObjects@Class_System_Threading_Thread@@SIPAUClassVector_Class_Microsoft_Singularity_Channels_ISelectable@@PAU1@H@Z 020725b0 f   DiskDrive.obj
 0001:00071664       ?m_PopSelectBools@Class_System_Threading_Thread@@SIPAUClassVector_bool@@PAU1@H@Z 02072664 f   DiskDrive.obj
 0001:00071718       ?m_NotifySpinLockReleased@Class_System_Threading_Thread@@SIXPAU1@H@Z 02072718 f   DiskDrive.obj
 0001:00071734       ?m_NotifySpinLockAboutToAcquire@Class_System_Threading_Thread@@SIXPAU1@H@Z 02072734 f   DiskDrive.obj
 0001:00071750       ?g_NotifyServiceThreads@Class_System_Threading_Thread@@SIXXZ 02072750 f   DiskDrive.obj
 0001:00071848       ?g_JoinAll@Class_System_Threading_Thread@@SI_NXZ 02072848 f   DiskDrive.obj
 0001:000719ac       ?m_Join@Class_System_Threading_Thread@@SIXPAU1@@Z 020729ac f   DiskDrive.obj
 0001:00071a0c       ?m_Join@Class_System_Threading_Thread@@SI_NPAU1@UStruct_System_SchedulerTime@@@Z 02072a0c f   DiskDrive.obj
 0001:00071a78       ?m_GetThreadId@Class_System_Threading_Thread@@SIHPAU1@@Z 02072a78 f   DiskDrive.obj
 0001:00071a98       ?g_GetCurrentThreadNative@Class_System_Threading_Thread@@SIPAU1@XZ 02072a98 f   DiskDrive.obj
 0001:00071ab0       ?g_GetCurrentThreadIndex@Class_System_Threading_Thread@@SIHXZ 02072ab0 f   DiskDrive.obj
 0001:00071acc       ?m_get$_DebugName@Class_System_Threading_Thread@@SIPAUClass_System_String@@PAU1@@Z 02072acc f   DiskDrive.obj
 0001:00071aec       ?g_get$_CurrentThread@Class_System_Threading_Thread@@SIPAU1@XZ 02072aec f   DiskDrive.obj
 0001:00071b04       ?g_FinishInitializeThread@Class_System_Threading_Thread@@SIXXZ 02072b04 f   DiskDrive.obj
 0001:00071c74       ?m_Finalize@Class_System_Threading_Thread@@SIXPAU1@@Z 02072c74 f   DiskDrive.obj
 0001:00071cd8       ?g_CheckKernelProcessBoundary@Class_System_Threading_Thread@@SIPAUuintPtr@@PAU2@0PAUClass_System_Exception@@@Z 02072cd8 f   DiskDrive.obj
 0001:00071d8c       ?g_AddThread@Class_System_Threading_Thread@@SI_NH@Z 02072d8c f   DiskDrive.obj
 0001:00071e60       ?m__ctor@Class_System_Threading_Thread@@SIXPAU1@@Z 02072e60 f   DiskDrive.obj
 0001:00071e7c       ?m__ctor@Class_System_Threading_Thread@@SIXPAU1@PAUClass_System_Threading_ThreadStart@@@Z 02072e7c f   DiskDrive.obj
 0001:00072188       ?g__cctor@Class_System_Threading_Thread@@SIXXZ 02073188 f   DiskDrive.obj
 0001:00072244       ?m_Top@Struct_Microsoft_Singularity_Channels_StateStack@@SIHPAU1@@Z 02073244 f   DiskDrive.obj
 0001:00072284       ?m_StructCopy@Struct_Microsoft_Singularity_Channels_StateStack@@SIXPAU1@0@Z 02073284 f   DiskDrive.obj
 0001:000722ac       ?m_StructCopy@Struct_Microsoft_Singularity_Channels_StateStack@@SIXPAU1@PAU1@@Z 020732ac f   DiskDrive.obj
 0001:00072324       ?m_Set@Struct_Microsoft_Singularity_Channels_StateStack@@SIXPAU1@H@Z 02073324 f   DiskDrive.obj
 0001:0007235c       ?m_Equals@Struct_Microsoft_Singularity_Channels_StateStack@@SI_NPAU1@PAUClass_System_Object@@@Z 0207335c f   DiskDrive.obj
 0001:000723a4       ?m_Equals@Struct_Microsoft_Singularity_Channels_StateStack@@SI_NPAUClass_Microsoft_Singularity_Channels_StateStack@@PAUClass_System_Object@@@Z 020733a4 f   DiskDrive.obj
 0001:000723d0       ?m_ToString@Struct_System_StackHeight@@SIPAUClass_System_String@@PAU1@@Z 020733d0 f   DiskDrive.obj
 0001:0007242c       ?m_ToString@Struct_System_StackHeight@@SIPAUClass_System_String@@PAUClass_System_StackHeight@@@Z 0207342c f   DiskDrive.obj
 0001:00072454       ?m_StructCopy@Struct_System_StackHeight@@SIXPAU1@0@Z 02073454 f   DiskDrive.obj
 0001:0007247c       ?m_StructCopy@Struct_System_StackHeight@@SIXPAU1@PAU1@@Z 0207347c f   DiskDrive.obj
 0001:000724f4       ?m_Equals@Struct_System_StackHeight@@SI_NPAU1@PAUClass_System_Object@@@Z 020734f4 f   DiskDrive.obj
 0001:0007253c       ?m_Equals@Struct_System_StackHeight@@SI_NPAUClass_System_StackHeight@@PAUClass_System_Object@@@Z 0207353c f   DiskDrive.obj
 0001:00072568       ?g_VisitWeakRefs@Struct_System_MultiUseWord@@SIXPAUClass_System_GCs_DirectReferenceVisitor@@_N@Z 02073568 f   DiskDrive.obj
 0001:000726d4       ?g_VisitStrongRefsNonRC@Struct_System_MultiUseWord@@SIXPAUClass_System_GCs_DirectReferenceVisitor@@_N@Z 020736d4 f   DiskDrive.obj
 0001:0007289c       ?g_VisitStrongRefs@Struct_System_MultiUseWord@@SIXPAUClass_System_GCs_DirectReferenceVisitor@@_N@Z 0207389c f   DiskDrive.obj
 0001:000728c4       ?m_StructCopy@Struct_System_MultiUseWord@@SIXPAU1@0@Z 020738c4 f   DiskDrive.obj
 0001:000728ec       ?m_StructCopy@Struct_System_MultiUseWord@@SIXPAU1@PAU1@@Z 020738ec f   DiskDrive.obj
 0001:00072964       ?g_SetValForObject@Struct_System_MultiUseWord@@SIXPAUClass_System_Object@@PAUuintPtr@@@Z 02073964 f   DiskDrive.obj
 0001:000729a4       ?g_SetForObject@Struct_System_MultiUseWord@@SIXPAUClass_System_Object@@U1@@Z 020739a4 f   DiskDrive.obj
 0001:000729d4       ?g_PreGCHook@Struct_System_MultiUseWord@@SIX_N@Z 020739d4 f   DiskDrive.obj
 0001:000729f8       ?g_PreGCHook@Struct_System_MultiUseWord@@SIX_N0@Z 020739f8 f   DiskDrive.obj
 0001:00072a88       ?g_PostGCHook@Struct_System_MultiUseWord@@SIX_N@Z 02073a88 f   DiskDrive.obj
 0001:00072d18       ?g_PostGCHook@Struct_System_MultiUseWord@@SIXXZ 02073d18 f   DiskDrive.obj
 0001:00072d34       ?g_Occasionally@Struct_System_MultiUseWord@@SI_NXZ 02073d34 f   DiskDrive.obj
 0001:00072d58       ?m_IsUnused@Struct_System_MultiUseWord@@SI_NPAU1@@Z 02073d58 f   DiskDrive.obj
 0001:00072d88       ?m_IsMonitor@Struct_System_MultiUseWord@@SI_NPAU1@@Z 02073d88 f   DiskDrive.obj
 0001:00072dbc       ?m_IsMarked@Struct_System_MultiUseWord@@SI_NPAU1@@Z 02073dbc f   DiskDrive.obj
 0001:00072dfc       ?g_IsMarked@Struct_System_MultiUseWord@@SI_NPAUClass_System_Object@@@Z 02073dfc f   DiskDrive.obj
 0001:00072e3c       ?m_IsInflated@Struct_System_MultiUseWord@@SI_NPAU1@@Z 02073e3c f   DiskDrive.obj
 0001:00072e70       ?g_Inflate@Struct_System_MultiUseWord@@SIXPAUClass_System_Object@@@Z 02073e70 f   DiskDrive.obj
 0001:00073090       ?g_IncrementMonitorEMUAllocCount@Struct_System_MultiUseWord@@SIXXZ 02074090 f   DiskDrive.obj
 0001:000730b0       ?g_IncrementInflationToCount@Struct_System_MultiUseWord@@SIXI@Z 020740b0 f   DiskDrive.obj
 0001:0007310c       ?g_IncrementInflationFromCount@Struct_System_MultiUseWord@@SIXI@Z 0207410c f   DiskDrive.obj
 0001:00073168       ?g_IncrementFullEMUAllocCount@Struct_System_MultiUseWord@@SIXXZ 02074168 f   DiskDrive.obj
 0001:00073188       ?g_IncrementDeadEMUsCount@Struct_System_MultiUseWord@@SIXXZ 02074188 f   DiskDrive.obj
 0001:000731a8       ?g_IncrementAbandonedEMUsCount@Struct_System_MultiUseWord@@SIXXZ 020741a8 f   DiskDrive.obj
 0001:000731c8       ?m_GetTag@Struct_System_MultiUseWord@@SIIPAU1@@Z 020741c8 f   DiskDrive.obj
 0001:000731fc       ?m_GetRefPayload@Struct_System_MultiUseWord@@SIPAUClass_System_Object@@PAU1@@Z 020741fc f   DiskDrive.obj
 0001:000732a0       ?m_GetPayload@Struct_System_MultiUseWord@@SIPAUuintPtr@@PAU1@@Z 020742a0 f   DiskDrive.obj
 0001:000732e0       ?g_GetMonitorSlow@Struct_System_MultiUseWord@@SIPAUClass_System_Threading_Monitor@@PAUClass_System_Object@@U1@@Z 020742e0 f   DiskDrive.obj
 0001:000734dc       ?g_GetMonitor@Struct_System_MultiUseWord@@SIPAUClass_System_Threading_Monitor@@PAUClass_System_Object@@@Z 020744dc f   DiskDrive.obj
 0001:000735b0       ?g_GetHashCodeSlow@Struct_System_MultiUseWord@@SIHPAUClass_System_Object@@U1@@Z 020745b0 f   DiskDrive.obj
 0001:00073720       ?g_GetHashCode@Struct_System_MultiUseWord@@SIHPAUClass_System_Object@@@Z 02074720 f   DiskDrive.obj
 0001:000737b8       ?g_GetForObject@Struct_System_MultiUseWord@@SI?AU1@PAUClass_System_Object@@@Z 020747b8 f   DiskDrive.obj
 0001:000737fc       ?m_GetEMURefPayload@Struct_System_MultiUseWord@@SIPAUClass_System_EMU@@PAU1@@Z 020747fc f   DiskDrive.obj
 0001:00073888       ?g_get$_PAYLOAD$_MASK@Struct_System_MultiUseWord@@SIPAUuintPtr@@XZ 02074888 f   DiskDrive.obj
 0001:000738a0       ?g_get$_MARK$_BIT$_MASK@Struct_System_MultiUseWord@@SIPAUuintPtr@@XZ 020748a0 f   DiskDrive.obj
 0001:000738b8       ?m_Equals@Struct_System_MultiUseWord@@SI_NPAU1@PAUClass_System_Object@@@Z 020748b8 f   DiskDrive.obj
 0001:00073900       ?m_Equals@Struct_System_MultiUseWord@@SI_NPAUClass_System_MultiUseWord@@PAUClass_System_Object@@@Z 02074900 f   DiskDrive.obj
 0001:0007392c       ?m_Eq@Struct_System_MultiUseWord@@SI_NPAU1@U1@@Z 0207492c f   DiskDrive.obj
 0001:00073958       ?g_DumpTables@Struct_System_MultiUseWord@@SIXXZ 02074958 f   DiskDrive.obj
 0001:00073fa8       ?g_ComputeEmuCount@Struct_System_MultiUseWord@@SIX_N@Z 02074fa8 f   DiskDrive.obj
 0001:00074040       ?g_CompareExchangeForObject@Struct_System_MultiUseWord@@SIPAUuintPtr@@PAUClass_System_Object@@PAU2@1@Z 02075040 f   DiskDrive.obj
 0001:0007409c       ?g_CompareExchangeForObject@Struct_System_MultiUseWord@@SI?AU1@PAUClass_System_Object@@U1@1@Z 0207509c f   DiskDrive.obj
 0001:000740f0       ?g_CollectFromThreads@Struct_System_MultiUseWord@@SIX_N@Z 020750f0 f   DiskDrive.obj
 0001:0007418c       ?g_CollectFromThread@Struct_System_MultiUseWord@@SIXPAUClass_System_Threading_Thread@@@Z 0207518c f   DiskDrive.obj
 0001:0007421c       ?g_CollectFromPreviousCollections@Struct_System_MultiUseWord@@SIX_N@Z 0207521c f   DiskDrive.obj
 0001:00074264       ?g_ChooseHashCode@Struct_System_MultiUseWord@@SIHPAUClass_System_Object@@@Z 02075264 f   DiskDrive.obj
 0001:000742b4       ?m__ctor@Struct_System_MultiUseWord@@SIXPAU1@PAUuintPtr@@@Z 020752b4 f   DiskDrive.obj
 0001:000742d8       ?m__ctor@Struct_System_MultiUseWord@@SIXPAU1@IPAUuintPtr@@@Z 020752d8 f   DiskDrive.obj
 0001:00074334       ?m__ctor@Struct_System_MultiUseWord@@SIXPAU1@IPAUClass_System_Object@@@Z 02075334 f   DiskDrive.obj
 0001:00074404       ?g__cctor@Struct_System_MultiUseWord@@SIXXZ 02075404 f   DiskDrive.obj
 0001:00074440       ?m__ctor@Class_System_ArrayTypeMismatchException@@SIXPAU1@@Z 02075440 f   DiskDrive.obj
 0001:00074468       ?m__ctor@Class_System_ArrayTypeMismatchException@@SIXPAU1@PAUClass_System_String@@@Z 02075468 f   DiskDrive.obj
 0001:00074490       ?m_GetString@Class_System_Text_ASCIIEncoding@@SIPAUClass_System_String@@PAU1@PAUClassVector_uint8@@@Z 02075490 f   DiskDrive.obj
 0001:0007450c       ?m__ctor@Class_System_Text_ASCIIEncoding@@SIXPAU1@@Z 0207550c f   DiskDrive.obj
 0001:00074534       ?g__cctor@Class_System_Text_ASCIIEncoding@@SIXXZ 02075534 f   DiskDrive.obj
 0001:0007455c       ?m_GetHashCode@Class_System_Text_Encoding@@SIHPAU1@@Z 0207555c f   DiskDrive.obj
 0001:0007457c       ?m_Equals@Class_System_Text_Encoding@@SI_NPAU1@PAUClass_System_Object@@@Z 0207557c f   DiskDrive.obj
 0001:000745d0       ?m__ctor@Class_System_Text_Encoding@@SIXPAU1@@Z 020755d0 f   DiskDrive.obj
 0001:000745f8       ?m__ctor@Class_System_Text_Encoding@@SIXPAU1@H@Z 020755f8 f   DiskDrive.obj
 0001:0007464c       ?g__cctor@Class_System_Text_Encoding@@SIXXZ 0207564c f   DiskDrive.obj
 0001:00074674       ?m_ToString@float32@@SIPAUClass_System_String@@PAM@Z 02075674 f   DiskDrive.obj
 0001:0007469c       ?m_ToString@float32@@SIPAUClass_System_String@@PAMPAU2@@Z 0207569c f   DiskDrive.obj
 0001:000746e8       ?m_ToString@float32@@SIPAUClass_System_String@@PAUClass_System_Single@@@Z 020756e8 f   DiskDrive.obj
 0001:00074710       ?m_ToString@float32@@SIPAUClass_System_String@@PAUClass_System_Single@@PAU2@@Z 02075710 f   DiskDrive.obj
 0001:0007473c       ?g_IsNaN@float32@@SI_NM@Z  0207573c f   DiskDrive.obj
 0001:000747d4       ?m_GetHashCode@float32@@SIHPAM@Z 020757d4 f   DiskDrive.obj
 0001:00074808       ?m_GetHashCode@float32@@SIHPAUClass_System_Single@@@Z 02075808 f   DiskDrive.obj
 0001:00074830       ?m_Equals@float32@@SI_NPAMPAUClass_System_Object@@@Z 02075830 f   DiskDrive.obj
 0001:000748d8       ?m_Equals@float32@@SI_NPAUClass_System_Single@@PAUClass_System_Object@@@Z 020758d8 f   DiskDrive.obj
 0001:00074904       ?m_StructCopy@Struct_System_GCs_CalleeSaveRegisters@@SIXPAU1@0@Z 02075904 f   DiskDrive.obj
 0001:00074950       ?m_StructCopy@Struct_System_GCs_CalleeSaveRegisters@@SIXPAU1@PAU1@@Z 02075950 f   DiskDrive.obj
 0001:00074a34       ?m_GetFramePointer@Struct_System_GCs_CalleeSaveRegisters@@SIPAUuintPtr@@PAU1@@Z 02075a34 f   DiskDrive.obj
 0001:00074a54       ?m_Equals@Struct_System_GCs_CalleeSaveRegisters@@SI_NPAU1@PAUClass_System_Object@@@Z 02075a54 f   DiskDrive.obj
 0001:00074acc       ?m_Equals@Struct_System_GCs_CalleeSaveRegisters@@SI_NPAUClass_System_GCs_CalleeSaveRegisters@@PAUClass_System_Object@@@Z 02075acc f   DiskDrive.obj
 0001:00074af8       ?m_DebugTrace@Struct_System_GCs_CalleeSaveRegisters@@SIXPAU1@@Z 02075af8 f   DiskDrive.obj
 0001:00074b14       ?g_Type@Class_System_GCs_PageTable@@SI?AUStruct_System_GCs_PageType@@PAUuintPtr@@@Z 02075b14 f   DiskDrive.obj
 0001:00074b84       ?g_SetType@Class_System_GCs_PageTable@@SIXPAUuintPtr@@0UStruct_System_GCs_PageType@@@Z 02075b84 f   DiskDrive.obj
 0001:00074c5c       ?g_SetType@Class_System_GCs_PageTable@@SIXPAUuintPtr@@UStruct_System_GCs_PageType@@@Z 02075c5c f   DiskDrive.obj
 0001:00074cf8       ?g_SetProcessTag@Class_System_GCs_PageTable@@SIXPAUuintPtr@@0I@Z 02075cf8 f   DiskDrive.obj
 0001:00074dcc       ?g_SetProcessTag@Class_System_GCs_PageTable@@SIXPAUuintPtr@@I@Z 02075dcc f   DiskDrive.obj
 0001:00074e74       ?g_SetProcess@Class_System_GCs_PageTable@@SIXPAUuintPtr@@0@Z 02075e74 f   DiskDrive.obj
 0001:00074f78       ?g_SetPageTableEntry@Class_System_GCs_PageTable@@SIXPAUuintPtr@@I@Z 02075f78 f   DiskDrive.obj
 0001:00074fa8       ?g_SetExtra@Class_System_GCs_PageTable@@SIXPAUuintPtr@@I@Z 02075fa8 f   DiskDrive.obj
 0001:00075058       ?g_RegionSize@Class_System_GCs_PageTable@@SIPAUuintPtr@@PAU2@@Z 02076058 f   DiskDrive.obj
 0001:00075084       ?g_ProcessTag@Class_System_GCs_PageTable@@SIIPAUuintPtr@@@Z 02076084 f   DiskDrive.obj
 0001:000750f4       ?g_Process@Class_System_GCs_PageTable@@SIGPAUuintPtr@@@Z 020760f4 f   DiskDrive.obj
 0001:00075164       ?g_PageTableEntry@Class_System_GCs_PageTable@@SIIPAUuintPtr@@@Z 02076164 f   DiskDrive.obj
 0001:0007519c       ?g_PagePad@Class_System_GCs_PageTable@@SIPAUuintPtr@@PAU2@@Z 0207619c f   DiskDrive.obj
 0001:00075218       ?g_PageCount@Class_System_GCs_PageTable@@SIPAUuintPtr@@PAU2@@Z 02076218 f   DiskDrive.obj
 0001:00075278       ?g_PageAligned@Class_System_GCs_PageTable@@SI_NPAUuintPtr@@@Z 02076278 f   DiskDrive.obj
 0001:000752cc       ?g_PageAlign@Class_System_GCs_PageTable@@SIPAUuintPtr@@PAU2@@Z 020762cc f   DiskDrive.obj
 0001:00075328       ?g_PageAddr@Class_System_GCs_PageTable@@SIPAUuintPtr@@PAU2@@Z 02076328 f   DiskDrive.obj
 0001:0007535c       ?g_Page@Class_System_GCs_PageTable@@SIPAUuintPtr@@PAU2@@Z 0207635c f   DiskDrive.obj
 0001:000753bc       ?g_MyType@Class_System_GCs_PageTable@@SI?AUStruct_System_GCs_PageType@@PAUuintPtr@@@Z 020763bc f   DiskDrive.obj
 0001:0007544c       ?g_IsUnusedPageType@Class_System_GCs_PageTable@@SI_NUStruct_System_GCs_PageType@@@Z 0207644c f   DiskDrive.obj
 0001:00075480       ?g_IsUnusedPage@Class_System_GCs_PageTable@@SI_NPAUuintPtr@@@Z 02076480 f   DiskDrive.obj
 0001:0007551c       ?g_IsStackPage@Class_System_GCs_PageTable@@SI_NUStruct_System_GCs_PageType@@@Z 0207651c f   DiskDrive.obj
 0001:00075540       ?g_IsSharedPage@Class_System_GCs_PageTable@@SI_NUStruct_System_GCs_PageType@@@Z 02076540 f   DiskDrive.obj
 0001:00075564       ?g_IsNonGcPage@Class_System_GCs_PageTable@@SI_NUStruct_System_GCs_PageType@@@Z 02076564 f   DiskDrive.obj
 0001:00075588       ?g_IsMyPage@Class_System_GCs_PageTable@@SI_NPAUuintPtr@@@Z 02076588 f   DiskDrive.obj
 0001:0007560c       ?g_IsMyGcPage@Class_System_GCs_PageTable@@SI_NPAUuintPtr@@@Z 0207660c f   DiskDrive.obj
 0001:00075728       ?g_IsKernelPage@Class_System_GCs_PageTable@@SI_NPAUuintPtr@@@Z 02076728 f   DiskDrive.obj
 0001:000757ac       ?g_IsGcPage@Class_System_GCs_PageTable@@SI_NPAUuintPtr@@@Z 020767ac f   DiskDrive.obj
 0001:0007583c       ?g_IsGcPage@Class_System_GCs_PageTable@@SI_NUStruct_System_GCs_PageType@@@Z 0207683c f   DiskDrive.obj
 0001:00075864       ?g_IsForeignAddr@Class_System_GCs_PageTable@@SI_NPAUuintPtr@@@Z 02076864 f   DiskDrive.obj
 0001:000758a4       ?g_IsAddrOnPage@Class_System_GCs_PageTable@@SI_NPAUuintPtr@@0@Z 020768a4 f   DiskDrive.obj
 0001:000758e4       ?g_Initialize@Class_System_GCs_PageTable@@SIXXZ 020768e4 f   DiskDrive.obj
 0001:00075974       ?g_get$_PageSize@Class_System_GCs_PageTable@@SIPAUuintPtr@@XZ 02076974 f   DiskDrive.obj
 0001:0007599c       ?g_get$_PageMask@Class_System_GCs_PageTable@@SIPAUuintPtr@@XZ 0207699c f   DiskDrive.obj
 0001:000759d4       ?g_get$_PageBits@Class_System_GCs_PageTable@@SIEXZ 020769d4 f   DiskDrive.obj
 0001:000759ec       ?g_get$_PageAlignMask@Class_System_GCs_PageTable@@SIPAUuintPtr@@XZ 020769ec f   DiskDrive.obj
 0001:00075a34       ?g_Extra@Class_System_GCs_PageTable@@SIIPAUuintPtr@@@Z 02076a34 f   DiskDrive.obj
 0001:00075ad0       ?g_Dump@Class_System_GCs_PageTable@@SI_NG@Z 02076ad0 f   DiskDrive.obj
 0001:00075eec       ?g_Dump@Class_System_GCs_PageTable@@SIXPAUClass_System_String@@@Z 02076eec f   DiskDrive.obj
 0001:0007656c       ?m__ctor@Class_System_GCs_PageTable@@SIXPAU1@@Z 0207756c f   DiskDrive.obj
 0001:00076588       ?m__ctor@Class_System_Threading_ThreadQueueItem@@SIXPAU1@PAUClass_System_Threading_Thread@@@Z 02077588 f   DiskDrive.obj
 0001:000765d8       ?m_ToString@Class_System_Enum@@SIPAUClass_System_String@@PAU1@@Z 020775d8 f   DiskDrive.obj
 0001:00076600       ?m_ToString@Class_System_Enum@@SIPAUClass_System_String@@PAU1@PAU2@@Z 02077600 f   DiskDrive.obj
 0001:00076660       ?m_GetValue@Class_System_Enum@@SIPAUClass_System_Object@@PAU1@@Z 02077660 f   DiskDrive.obj
 0001:000768c0       ?m_GetHashCode@Class_System_Enum@@SIHPAU1@@Z 020778c0 f   DiskDrive.obj
 0001:000768e8       ?m_Equals@Class_System_Enum@@SI_NPAU1@PAUClass_System_Object@@@Z 020778e8 f   DiskDrive.obj
 0001:00076984       ?m__ctor@Class_System_Enum@@SIXPAU1@@Z 02077984 f   DiskDrive.obj
 0001:000769a8       ?m_StructCopy@Struct_Microsoft_Singularity_Isal_IX_EFlags@@SIXPAU1@0@Z 020779a8 f   DiskDrive.obj
 0001:000769c4       ?m_StructCopy@Struct_Microsoft_Singularity_Isal_IX_EFlags@@SIXPAU1@PAU1@@Z 020779c4 f   DiskDrive.obj
 0001:00076a18       ?m_Equals@Struct_Microsoft_Singularity_Isal_IX_EFlags@@SI_NPAU1@PAUClass_System_Object@@@Z 02077a18 f   DiskDrive.obj
 0001:00076a50       ?m_Equals@Struct_Microsoft_Singularity_Isal_IX_EFlags@@SI_NPAUClass_Microsoft_Singularity_Isal_IX_EFlags@@PAUClass_System_Object@@@Z 02077a50 f   DiskDrive.obj
 0001:00076a7c       ?g_RestoreInterrupts@Class_Microsoft_Singularity_PrivilegedGate@@SIX_N@Z 02077a7c f   DiskDrive.obj
 0001:00076aa0       ?g_InterruptsDisabled@Class_Microsoft_Singularity_PrivilegedGate@@SI_NXZ 02077aa0 f   DiskDrive.obj
 0001:00076ab8       ?g_DisableInterrupts@Class_Microsoft_Singularity_PrivilegedGate@@SI_NXZ 02077ab8 f   DiskDrive.obj
 0001:00076ad0       ?m__ctor@Class_Microsoft_Singularity_PrivilegedGate@@SIXPAU1@@Z 02077ad0 f   DiskDrive.obj
 0001:00076aec       ?g_TopLevelException@Class_Microsoft_Singularity_AppRuntime@@SIXPAUClass_System_Exception@@@Z 02077aec f   DiskDrive.obj
 0001:00076c14       ?g_InitializeConsole@Class_Microsoft_Singularity_AppRuntime@@SIXXZ 02077c14 f   DiskDrive.obj
 0001:00076c28       ?g_get$_AppName@Class_Microsoft_Singularity_AppRuntime@@SIPAUClass_System_String@@XZ 02077c28 f   DiskDrive.obj
 0001:00076c40       ?g_FinalizeConsole@Class_Microsoft_Singularity_AppRuntime@@SIXXZ 02077c40 f   DiskDrive.obj
 0001:00076c54       ?g_AppStart@Class_Microsoft_Singularity_AppRuntime@@SIHPAUClass_System_Type@@@Z 02077c54 f   DiskDrive.obj
 0001:000770ec       ?m__ctor@Class_Microsoft_Singularity_AppRuntime@@SIXPAU1@@Z 020780ec f   DiskDrive.obj
 0001:00077108       ?m_StructCopy@Struct_Microsoft_Singularity_Extending_ExtensionContract_Exp@@SIXPAU1@0@Z 02078108 f   DiskDrive.obj
 0001:000771e4       ?m_StructCopy@Struct_Microsoft_Singularity_Extending_ExtensionContract_Exp@@SIXPAU1@PAU1@@Z 020781e4 f   DiskDrive.obj
 0001:00077478       ?m_SendSuccess@Struct_Microsoft_Singularity_Extending_ExtensionContract_Exp@@SIXPAU1@@Z 02078478 f   DiskDrive.obj
 0001:0007756c       ?m_SendAckShutdown@Struct_Microsoft_Singularity_Extending_ExtensionContract_Exp@@SIXPAU1@@Z 0207856c f   DiskDrive.obj
 0001:00077660       ?m_Release@Struct_Microsoft_Singularity_Extending_ExtensionContract_Exp@@SIXPAU1@@Z 02078660 f   DiskDrive.obj
 0001:0007767c       ?m_RecvShutdown@Struct_Microsoft_Singularity_Extending_ExtensionContract_Exp@@SIXPAU1@@Z 0207867c f   DiskDrive.obj
 0001:000777f4       ?m_Peek@Struct_Microsoft_Singularity_Extending_ExtensionContract_Exp@@SIHPAU1@@Z 020787f4 f   DiskDrive.obj
 0001:0007799c       ?m_HeadMatches@Struct_Microsoft_Singularity_Extending_ExtensionContract_Exp@@SI_NPAU1@HPA_NPAPAUClass_System_Object@@@Z 0207899c f   DiskDrive.obj
 0001:00077a5c       ?m_HeadMatches@Struct_Microsoft_Singularity_Extending_ExtensionContract_Exp@@SI_NPAUClass_Microsoft_Singularity_Extending_ExtensionContract_Exp@@HPA_NPAPAUClass_System_Object@@@Z 02078a5c f   DiskDrive.obj
 0001:00077a94       ?m_Equals@Struct_Microsoft_Singularity_Extending_ExtensionContract_Exp@@SI_NPAU1@PAUClass_System_Object@@@Z 02078a94 f   DiskDrive.obj
 0001:00077d68       ?m_Equals@Struct_Microsoft_Singularity_Extending_ExtensionContract_Exp@@SI_NPAUClass_Microsoft_Singularity_Extending_ExtensionContract_Exp@@PAUClass_System_Object@@@Z 02078d68 f   DiskDrive.obj
 0001:00077d94       ?m_Dispose@Struct_Microsoft_Singularity_Extending_ExtensionContract_Exp@@SIXPAU1@@Z 02078d94 f   DiskDrive.obj
 0001:00077db8       ?m_CurrentState@Struct_Microsoft_Singularity_Extending_ExtensionContract_Exp@@SIPAUClass_System_String@@PAU1@@Z 02078db8 f   DiskDrive.obj
 0001:00077e68       ?m_Acquire@Struct_Microsoft_Singularity_Extending_ExtensionContract_Exp@@SIXPAU1@@Z 02078e68 f   DiskDrive.obj
 0001:00077e84       ?g_TransferOwnership@Struct_Microsoft_Singularity_Directory_ServiceContract_Exp@@SIXPAUStruct_Microsoft_Singularity_Channels_Endpoint@@PAU1@@Z 02078e84 f   DiskDrive.obj
 0001:00077ec8       ?m_TransferContentsOwnership@Struct_Microsoft_Singularity_Directory_ServiceContract_Exp@@SIXPAU1@PAUStruct_Microsoft_Singularity_Channels_Endpoint@@@Z 02078ec8 f   DiskDrive.obj
 0001:00077ef4       ?m_StructCopy@Struct_Microsoft_Singularity_Directory_ServiceContract_Exp@@SIXPAU1@0@Z 02078ef4 f   DiskDrive.obj
 0001:00077fc0       ?m_StructCopy@Struct_Microsoft_Singularity_Directory_ServiceContract_Exp@@SIXPAU1@PAU1@@Z 02078fc0 f   DiskDrive.obj
 0001:00078224       ?m_Peek@Struct_Microsoft_Singularity_Directory_ServiceContract_Exp@@SIHPAU1@@Z 02079224 f   DiskDrive.obj
 0001:000782ec       ?m_MarshallContent@Struct_Microsoft_Singularity_Directory_ServiceContract_Exp@@SIXPAU1@PAEPAUStruct_Microsoft_Singularity_Channels_Endpoint@@1@Z 020792ec f   DiskDrive.obj
 0001:0007830c       ?m_InState@Struct_Microsoft_Singularity_Directory_ServiceContract_Exp@@SI_NPAU1@H@Z 0207930c f   DiskDrive.obj
 0001:0007839c       ?m_HeadMatches@Struct_Microsoft_Singularity_Directory_ServiceContract_Exp@@SI_NPAU1@HPA_NPAPAUClass_System_Object@@@Z 0207939c f   DiskDrive.obj
 0001:0007845c       ?m_HeadMatches@Struct_Microsoft_Singularity_Directory_ServiceContract_Exp@@SI_NPAUClass_Microsoft_Singularity_Directory_ServiceContract_Exp@@HPA_NPAPAUClass_System_Object@@@Z 0207945c f   DiskDrive.obj
 0001:00078494       ?m_Equals@Struct_Microsoft_Singularity_Directory_ServiceContract_Exp@@SI_NPAU1@PAUClass_System_Object@@@Z 02079494 f   DiskDrive.obj
 0001:0007870c       ?m_Equals@Struct_Microsoft_Singularity_Directory_ServiceContract_Exp@@SI_NPAUClass_Microsoft_Singularity_Directory_ServiceContract_Exp@@PAUClass_System_Object@@@Z 0207970c f   DiskDrive.obj
 0001:00078738       ?m_Dispose@Struct_Microsoft_Singularity_Directory_ServiceContract_Exp@@SIXPAU1@@Z 02079738 f   DiskDrive.obj
 0001:0007875c       ?m_CurrentState@Struct_Microsoft_Singularity_Directory_ServiceContract_Exp@@SIPAUClass_System_String@@PAU1@@Z 0207975c f   DiskDrive.obj
 0001:000787d8       ?g_StableState@Class_Microsoft_Singularity_Io_DeviceContract@@SIHPAUStruct_Microsoft_Singularity_Channels_StateStack@@@Z 020797d8 f   DiskDrive.obj
 0001:00078854       ?m__ctor@Class_Microsoft_Singularity_Io_DeviceContract@@SIXPAU1@@Z 02079854 f   DiskDrive.obj
 0001:0007886c       ?m_StructCopy@Struct_Microsoft_Singularity_Isal_IX_uint128@@SIXPAU1@0@Z 0207986c f   DiskDrive.obj
 0001:000788b8       ?m_StructCopy@Struct_Microsoft_Singularity_Isal_IX_uint128@@SIXPAU1@PAU1@@Z 020798b8 f   DiskDrive.obj
 0001:0007899c       ?m_Equals@Struct_Microsoft_Singularity_Isal_IX_uint128@@SI_NPAU1@PAUClass_System_Object@@@Z 0207999c f   DiskDrive.obj
 0001:00078a34       ?m_Equals@Struct_Microsoft_Singularity_Isal_IX_uint128@@SI_NPAUClass_Microsoft_Singularity_Isal_IX_uint128@@PAUClass_System_Object@@@Z 02079a34 f   DiskDrive.obj
 0001:00078a60       ?g_QueryMemory@Class_System_GCs_MemoryManager@@SI_NPAUuintPtr@@PAPAU2@1@Z 02079a60 f   DiskDrive.obj
 0001:00078a90       ?g_Initialize@Class_System_GCs_MemoryManager@@SIXXZ 02079a90 f   DiskDrive.obj
 0001:00078ae4       ?g_IgnoreMemoryContents@Class_System_GCs_MemoryManager@@SIXPAUuintPtr@@0@Z 02079ae4 f   DiskDrive.obj
 0001:00078b00       ?g_get$_OperatingSystemCommitSize@Class_System_GCs_MemoryManager@@SIPAUuintPtr@@XZ 02079b00 f   DiskDrive.obj
 0001:00078b18       ?g_AllocateMemory@Class_System_GCs_MemoryManager@@SIPAUuintPtr@@PAU2@@Z 02079b18 f   DiskDrive.obj
 0001:00078bb0       ?m__ctor@Class_System_GCs_MemoryManager@@SIXPAU1@@Z 02079bb0 f   DiskDrive.obj
 0001:00078bc8       ?m__ctor@Class_System_Runtime_CompilerServices_NoInlineAttribute@@SIXPAU1@@Z 02079bc8 f   DiskDrive.obj
 0001:00078bec       ?m__ctor@Class_System_Attribute@@SIXPAU1@@Z 02079bec f   DiskDrive.obj
 0001:00078c08       ?g_StableState@Class_Microsoft_Singularity_Io_VolumeManagerContract@@SIHPAUStruct_Microsoft_Singularity_Channels_StateStack@@@Z 02079c08 f   DiskDrive.obj
 0001:00078ca8       ?g_CanonicalState@Class_Microsoft_Singularity_Io_VolumeManagerContract@@SIHH@Z 02079ca8 f   DiskDrive.obj
 0001:00078d14       ?m__ctor@Class_Microsoft_Singularity_Io_VolumeManagerContract@@SIXPAU1@@Z 02079d14 f   DiskDrive.obj
 0001:00078d2c       ?g_StableState@Class_Microsoft_Singularity_Directory_ServiceContract@@SIHPAUStruct_Microsoft_Singularity_Channels_StateStack@@@Z 02079d2c f   DiskDrive.obj
 0001:00078da8       ?g_CanonicalState@Class_Microsoft_Singularity_Directory_ServiceContract@@SIHH@Z 02079da8 f   DiskDrive.obj
 0001:00078e00       ?m__ctor@Class_Microsoft_Singularity_Directory_ServiceContract@@SIXPAU1@@Z 02079e00 f   DiskDrive.obj
 0001:00078e18       ?m_StructCopy@Struct_Microsoft_Singularity_Extending_ExtensionContract_Imp@@SIXPAU1@0@Z 02079e18 f   DiskDrive.obj
 0001:00078f28       ?m_StructCopy@Struct_Microsoft_Singularity_Extending_ExtensionContract_Imp@@SIXPAU1@PAU1@@Z 02079f28 f   DiskDrive.obj
 0001:00079258       ?m_Peek@Struct_Microsoft_Singularity_Extending_ExtensionContract_Imp@@SIHPAU1@@Z 0207a258 f   DiskDrive.obj
 0001:00079400       ?m_MarshallDeliverSuccess0@Struct_Microsoft_Singularity_Extending_ExtensionContract_Imp@@SIXPAU1@PAUStruct_Microsoft_Singularity_Channels_Endpoint@@@Z 0207a400 f   DiskDrive.obj
 0001:0007944c       ?m_MarshallDeliverAckShutdown0@Struct_Microsoft_Singularity_Extending_ExtensionContract_Imp@@SIXPAU1@PAUStruct_Microsoft_Singularity_Channels_Endpoint@@@Z 0207a44c f   DiskDrive.obj
 0001:00079498       ?m_HeadMatches@Struct_Microsoft_Singularity_Extending_ExtensionContract_Imp@@SI_NPAU1@HPA_NPAPAUClass_System_Object@@@Z 0207a498 f   DiskDrive.obj
 0001:00079558       ?m_HeadMatches@Struct_Microsoft_Singularity_Extending_ExtensionContract_Imp@@SI_NPAUClass_Microsoft_Singularity_Extending_ExtensionContract_Imp@@HPA_NPAPAUClass_System_Object@@@Z 0207a558 f   DiskDrive.obj
 0001:00079590       ?m_Equals@Struct_Microsoft_Singularity_Extending_ExtensionContract_Imp@@SI_NPAU1@PAUClass_System_Object@@@Z 0207a590 f   DiskDrive.obj
 0001:00079970       ?m_Equals@Struct_Microsoft_Singularity_Extending_ExtensionContract_Imp@@SI_NPAUClass_Microsoft_Singularity_Extending_ExtensionContract_Imp@@PAUClass_System_Object@@@Z 0207a970 f   DiskDrive.obj
 0001:0007999c       ?m_DeliverSuccess0@Struct_Microsoft_Singularity_Extending_ExtensionContract_Imp@@SIXPAU1@@Z 0207a99c f   DiskDrive.obj
 0001:000799d0       ?m_DeliverAckShutdown0@Struct_Microsoft_Singularity_Extending_ExtensionContract_Imp@@SIXPAU1@@Z 0207a9d0 f   DiskDrive.obj
 0001:00079a04       ?m_StructCopy@Struct_Microsoft_Singularity_Extending_ExtensionContract_Shutdown@@SIXPAU1@0@Z 0207aa04 f   DiskDrive.obj
 0001:00079a20       ?m_StructCopy@Struct_Microsoft_Singularity_Extending_ExtensionContract_Shutdown@@SIXPAU1@PAU1@@Z 0207aa20 f   DiskDrive.obj
 0001:00079a74       ?m_Equals@Struct_Microsoft_Singularity_Extending_ExtensionContract_Shutdown@@SI_NPAU1@PAUClass_System_Object@@@Z 0207aa74 f   DiskDrive.obj
 0001:00079aac       ?m_Equals@Struct_Microsoft_Singularity_Extending_ExtensionContract_Shutdown@@SI_NPAUClass_Microsoft_Singularity_Extending_ExtensionContract_Shutdown@@PAUClass_System_Object@@@Z 0207aaac f   DiskDrive.obj
 0001:00079ad8       ?m_InvokeStaticStub@Class_System_Threading_ThreadStart@@SIXPAU1@@Z 0207aad8 f   DiskDrive.obj
 0001:00079b00       ?m_Invoke@Class_System_Threading_ThreadStart@@SIXPAU1@@Z 0207ab00 f   DiskDrive.obj
 0001:00079b54       ?m_EndInvoke@Class_System_Threading_ThreadStart@@SIXPAU1@PAUClass_System_IAsyncResult@@@Z 0207ab54 f   DiskDrive.obj
 0001:00079b70       ?m_BeginInvoke@Class_System_Threading_ThreadStart@@SIPAUClass_System_IAsyncResult@@PAU1@PAUClass_System_AsyncCallback@@PAUClass_System_Object@@@Z 0207ab70 f   DiskDrive.obj
 0001:00079b90       ?m__ctor@Class_System_Threading_ThreadStart@@SIXPAU1@PAUClass_System_Object@@PAUintPtr@@@Z 0207ab90 f   DiskDrive.obj
 0001:00079bf4       ?m_InvocationListEquals@Class_System_MulticastDelegate@@SI_NPAU1@0@Z 0207abf4 f   DiskDrive.obj
 0001:00079c68       ?m_GetHashCode@Class_System_MulticastDelegate@@SIHPAU1@@Z 0207ac68 f   DiskDrive.obj
 0001:00079c8c       ?m_Equals@Class_System_MulticastDelegate@@SI_NPAU1@PAUClass_System_Object@@@Z 0207ac8c f   DiskDrive.obj
 0001:00079d38       ?m__ctor@Class_System_MulticastDelegate@@SIXPAU1@@Z 0207ad38 f   DiskDrive.obj
 0001:00079d5c       ?g_SplitIdx@Class_System_Delegate@@SIXHPAH0@Z 0207ad5c f   DiskDrive.obj
 0001:00079e10       ?g_op$_Equality@Class_System_Delegate@@SI_NPAU1@0@Z 0207ae10 f   DiskDrive.obj
 0001:00079e50       ?m_IsStatic@Class_System_Delegate@@SI_NPAU1@@Z 0207ae50 f   DiskDrive.obj
 0001:00079e88       ?g_IdxToDelegate@Class_System_Delegate@@SIPAU1@H@Z 0207ae88 f   DiskDrive.obj
 0001:00079f00       ?m_GetHashCode@Class_System_Delegate@@SIHPAU1@@Z 0207af00 f   DiskDrive.obj
 0001:00079f44       ?m_Equals@Class_System_Delegate@@SI_NPAU1@PAUClass_System_Object@@@Z 0207af44 f   DiskDrive.obj
 0001:0007a004       ?m__ctor@Class_System_Delegate@@SIXPAU1@@Z 0207b004 f   DiskDrive.obj
 0001:0007a028       ?g__cctor@Class_System_Delegate@@SIXXZ 0207b028 f   DiskDrive.obj
 0001:0007a0b0       ?g_WriterIsValid@Class_System_UpdateLog@@SI_NUStruct_System_UpdateLogWriter@@@Z 0207b0b0 f   DiskDrive.obj
 0001:0007a0d0       ?m_VisitWeakRefs@Class_System_UpdateLog@@SIXPAU1@PAUClass_System_TryAllManager@@PAUClass_System_GCs_DirectReferenceVisitor@@@Z 0207b0d0 f   DiskDrive.obj
 0001:0007a58c       ?m_VisitStrongRefs@Class_System_UpdateLog@@SIXPAU1@PAUClass_System_TryAllManager@@PAUClass_System_GCs_DirectReferenceVisitor@@@Z 0207b58c f   DiskDrive.obj
 0001:0007a7b0       ?g_SyncFromWriter@Class_System_UpdateLog@@SIXPAUClass_System_TryAllManager@@@Z 0207b7b0 f   DiskDrive.obj
 0001:0007a834       ?g_InitWriter@Class_System_UpdateLog@@SIXPAUClass_System_TryAllManager@@@Z 0207b834 f   DiskDrive.obj
 0001:0007a8b0       ?m_get$_CurrentLocation@Class_System_UpdateLog@@SI?AUStruct_System_UpdateLog_Location@@PAU1@@Z 0207b8b0 f   DiskDrive.obj
 0001:0007a944       ?m_AddrToIndex@Class_System_UpdateLog@@SIIPAU1@PAUStruct_System_UpdateLog_Entry@@@Z 0207b944 f   DiskDrive.obj
 0001:0007a9d4       ?m_AddrOfEntry@Class_System_UpdateLog@@SIPAUStruct_System_UpdateLog_Entry@@PAU1@H@Z 0207b9d4 f   DiskDrive.obj
 0001:0007aa74       ?m__ctor@Class_System_UpdateLog@@SIXPAU1@@Z 0207ba74 f   DiskDrive.obj
 0001:0007aad8       ?m_StructCopy@Struct_Microsoft_Singularity_Io_DiskDeviceContract_Imp@@SIXPAU1@0@Z 0207bad8 f   DiskDrive.obj
 0001:0007ac90       ?m_StructCopy@Struct_Microsoft_Singularity_Io_DiskDeviceContract_Imp@@SIXPAU1@PAU1@@Z 0207bc90 f   DiskDrive.obj
 0001:0007b1b8       ?m_Peek@Struct_Microsoft_Singularity_Io_DiskDeviceContract_Imp@@SIHPAU1@@Z 0207c1b8 f   DiskDrive.obj
 0001:0007b708       ?m_MarshallDeliverSystemId0@Struct_Microsoft_Singularity_Io_DiskDeviceContract_Imp@@SIXPAU1@EPAUStruct_Microsoft_Singularity_Channels_Endpoint@@@Z 0207c708 f   DiskDrive.obj
 0001:0007b758       ?m_MarshallDeliverSuccess0@Struct_Microsoft_Singularity_Io_DiskDeviceContract_Imp@@SIXPAU1@PAUStruct_Microsoft_Singularity_Channels_Endpoint@@@Z 0207c758 f   DiskDrive.obj
 0001:0007b7a4       ?m_MarshallDeliverNoSystemId0@Struct_Microsoft_Singularity_Io_DiskDeviceContract_Imp@@SIXPAU1@PAUStruct_Microsoft_Singularity_Channels_Endpoint@@@Z 0207c7a4 f   DiskDrive.obj
 0001:0007b7f0       ?m_MarshallDeliverNakWrite0@Struct_Microsoft_Singularity_Io_DiskDeviceContract_Imp@@SIXPAU1@PAUStruct_Microsoft_Singularity_Channels_Endpoint@@@Z 0207c7f0 f   DiskDrive.obj
 0001:0007b83c       ?m_MarshallDeliverNakRead0@Struct_Microsoft_Singularity_Io_DiskDeviceContract_Imp@@SIXPAU1@PAUStruct_Microsoft_Singularity_Channels_Endpoint@@@Z 0207c83c f   DiskDrive.obj
 0001:0007b888       ?m_MarshallDeliverAckWrite0@Struct_Microsoft_Singularity_Io_DiskDeviceContract_Imp@@SIXPAU1@PAEPAUStruct_Microsoft_Singularity_Channels_Endpoint@@@Z 0207c888 f   DiskDrive.obj
 0001:0007b8d8       ?m_MarshallDeliverAckReadPerf0@Struct_Microsoft_Singularity_Io_DiskDeviceContract_Imp@@SIXPAU1@_J1PAUStruct_Microsoft_Singularity_Channels_Endpoint@@@Z 0207c8d8 f   DiskDrive.obj
 0001:0007b938       ?m_MarshallDeliverAckRead0@Struct_Microsoft_Singularity_Io_DiskDeviceContract_Imp@@SIXPAU1@PAEPAUStruct_Microsoft_Singularity_Channels_Endpoint@@@Z 0207c938 f   DiskDrive.obj
 0001:0007b988       ?m_MarshallDeliverAckNoOp0@Struct_Microsoft_Singularity_Io_DiskDeviceContract_Imp@@SIXPAU1@PAUStruct_Microsoft_Singularity_Channels_Endpoint@@@Z 0207c988 f   DiskDrive.obj
 0001:0007b9d4       ?m_MarshallDeliverAckGetStartSector0@Struct_Microsoft_Singularity_Io_DiskDeviceContract_Imp@@SIXPAU1@_KPAUStruct_Microsoft_Singularity_Channels_Endpoint@@@Z 0207c9d4 f   DiskDrive.obj
 0001:0007ba2c       ?m_MarshallDeliverAckGetSectorCount0@Struct_Microsoft_Singularity_Io_DiskDeviceContract_Imp@@SIXPAU1@_KPAUStruct_Microsoft_Singularity_Channels_Endpoint@@@Z 0207ca2c f   DiskDrive.obj
 0001:0007ba84       ?m_MarshallDeliverAckGetDiskAttributes0@Struct_Microsoft_Singularity_Io_DiskDeviceContract_Imp@@SIXPAU1@UStruct_Microsoft_Singularity_Io_DiskAttributes@@PAUStruct_Microsoft_Singularity_Channels_Endpoint@@@Z 0207ca84 f   DiskDrive.obj
 0001:0007bad4       ?m_MarshallDeliverAckGetDeviceName0@Struct_Microsoft_Singularity_Io_DiskDeviceContract_Imp@@SIXPAU1@PA_WPAUStruct_Microsoft_Singularity_Channels_Endpoint@@@Z 0207cad4 f   DiskDrive.obj
 0001:0007bb24       ?m_HeadMatches@Struct_Microsoft_Singularity_Io_DiskDeviceContract_Imp@@SI_NPAU1@HPA_NPAPAUClass_System_Object@@@Z 0207cb24 f   DiskDrive.obj
 0001:0007bbe4       ?m_HeadMatches@Struct_Microsoft_Singularity_Io_DiskDeviceContract_Imp@@SI_NPAUClass_Microsoft_Singularity_Io_DiskDeviceContract_Imp@@HPA_NPAPAUClass_System_Object@@@Z 0207cbe4 f   DiskDrive.obj
 0001:0007bc1c       ?m_Equals@Struct_Microsoft_Singularity_Io_DiskDeviceContract_Imp@@SI_NPAU1@PAUClass_System_Object@@@Z 0207cc1c f   DiskDrive.obj
 0001:0007c4a8       ?m_Equals@Struct_Microsoft_Singularity_Io_DiskDeviceContract_Imp@@SI_NPAUClass_Microsoft_Singularity_Io_DiskDeviceContract_Imp@@PAUClass_System_Object@@@Z 0207d4a8 f   DiskDrive.obj
 0001:0007c4d4       ?m_DeliverSystemId0@Struct_Microsoft_Singularity_Io_DiskDeviceContract_Imp@@SIXPAU1@E@Z 0207d4d4 f   DiskDrive.obj
 0001:0007c51c       ?m_DeliverSuccess0@Struct_Microsoft_Singularity_Io_DiskDeviceContract_Imp@@SIXPAU1@@Z 0207d51c f   DiskDrive.obj
 0001:0007c550       ?m_DeliverNoSystemId0@Struct_Microsoft_Singularity_Io_DiskDeviceContract_Imp@@SIXPAU1@@Z 0207d550 f   DiskDrive.obj
 0001:0007c584       ?m_DeliverNakWrite0@Struct_Microsoft_Singularity_Io_DiskDeviceContract_Imp@@SIXPAU1@@Z 0207d584 f   DiskDrive.obj
 0001:0007c5b8       ?m_DeliverNakRead0@Struct_Microsoft_Singularity_Io_DiskDeviceContract_Imp@@SIXPAU1@@Z 0207d5b8 f   DiskDrive.obj
 0001:0007c5ec       ?m_DeliverAckWrite0@Struct_Microsoft_Singularity_Io_DiskDeviceContract_Imp@@SIXPAU1@PAE@Z 0207d5ec f   DiskDrive.obj
 0001:0007c634       ?m_DeliverAckReadPerf0@Struct_Microsoft_Singularity_Io_DiskDeviceContract_Imp@@SIXPAU1@_J1@Z 0207d634 f   DiskDrive.obj
 0001:0007c68c       ?m_DeliverAckRead0@Struct_Microsoft_Singularity_Io_DiskDeviceContract_Imp@@SIXPAU1@PAE@Z 0207d68c f   DiskDrive.obj
 0001:0007c6d4       ?m_DeliverAckNoOp0@Struct_Microsoft_Singularity_Io_DiskDeviceContract_Imp@@SIXPAU1@@Z 0207d6d4 f   DiskDrive.obj
 0001:0007c708       ?m_DeliverAckGetStartSector0@Struct_Microsoft_Singularity_Io_DiskDeviceContract_Imp@@SIXPAU1@_K@Z 0207d708 f   DiskDrive.obj
 0001:0007c754       ?m_DeliverAckGetSectorCount0@Struct_Microsoft_Singularity_Io_DiskDeviceContract_Imp@@SIXPAU1@_K@Z 0207d754 f   DiskDrive.obj
 0001:0007c7a0       ?m_DeliverAckGetDiskAttributes0@Struct_Microsoft_Singularity_Io_DiskDeviceContract_Imp@@SIXPAU1@UStruct_Microsoft_Singularity_Io_DiskAttributes@@@Z 0207d7a0 f   DiskDrive.obj
 0001:0007c7e8       ?m_DeliverAckGetDeviceName0@Struct_Microsoft_Singularity_Io_DiskDeviceContract_Imp@@SIXPAU1@PA_W@Z 0207d7e8 f   DiskDrive.obj
 0001:0007c830       ?g_WaitAnyEndpoint@Struct_Microsoft_Singularity_Channels_Endpoint@@SIHPAUClassVector_Struct_Microsoft_Singularity_V1_Threads_SyncHandle@@H@Z 0207d830 f   DiskDrive.obj
 0001:0007c898       ?m_Wait@Struct_Microsoft_Singularity_Channels_Endpoint@@SIXPAU1@@Z 0207d898 f   DiskDrive.obj
 0001:0007c8bc       ?m_UnlinkFromCollection@Struct_Microsoft_Singularity_Channels_Endpoint@@SIXPAU1@UStruct_Microsoft_Singularity_V1_Threads_AutoResetEventHandle@@@Z 0207d8bc f   DiskDrive.obj
 0001:0007c8e8       ?m_TransferContentsOwnership@Struct_Microsoft_Singularity_Channels_Endpoint@@SIXPAU1@0@Z 0207d8e8 f   DiskDrive.obj
 0001:0007c920       ?m_TransferBlockOwnership@Struct_Microsoft_Singularity_Channels_Endpoint@@SIXPAU1@PAUvoid@@@Z 0207d920 f   DiskDrive.obj
 0001:0007c978       ?g_ThreadLocalObjectArray@Struct_Microsoft_Singularity_Channels_Endpoint@@SIPAUClassVector_Class_Microsoft_Singularity_Channels_ISelectable@@H@Z 0207d978 f   DiskDrive.obj
 0001:0007c9e8       ?m_StructCopy@Struct_Microsoft_Singularity_Channels_Endpoint@@SIXPAU1@0@Z 0207d9e8 f   DiskDrive.obj
 0001:0007caa8       ?m_StructCopy@Struct_Microsoft_Singularity_Channels_Endpoint@@SIXPAU1@PAU1@@Z 0207daa8 f   DiskDrive.obj
 0001:0007cce8       ?g_Select@Struct_Microsoft_Singularity_Channels_Endpoint@@SIHPAUClassVector_ClassVector_int32@@PAUClassVector_Class_Microsoft_Singularity_Channels_ISelectable@@PAPAUClass_System_Object@@@Z 0207dce8 f   DiskDrive.obj
 0001:0007d0d0       ?g_RowMatches@Struct_Microsoft_Singularity_Channels_Endpoint@@SI_NPAUClassVector_Class_Microsoft_Singularity_Channels_ISelectable@@PAUClassVector_int32@@PAPAUClass_System_Object@@PA_N@Z 0207e0d0 f   DiskDrive.obj
 0001:0007d1f8       ?m_RetrieveHookInternal@Struct_Microsoft_Singularity_Channels_Endpoint@@SIXPAU1@H@Z 0207e1f8 f   DiskDrive.obj
 0001:0007d22c       ?g_RetrieveHook@Struct_Microsoft_Singularity_Channels_Endpoint@@SIXPAU1@IH@Z 0207e22c f   DiskDrive.obj
 0001:0007d24c       ?m_NotifyPeer@Struct_Microsoft_Singularity_Channels_Endpoint@@SIXPAU1@@Z 0207e24c f   DiskDrive.obj
 0001:0007d27c       ?m_MarshallPointer@Struct_Microsoft_Singularity_Channels_Endpoint@@SIXPAU1@PAEPAPAUvoid@@PAUClass_System_Type@@1H@Z 0207e27c f   DiskDrive.obj
 0001:0007d2e4       ?m_MarshallMessage@Struct_Microsoft_Singularity_Channels_Endpoint@@SIXPAU1@PAE1PAHPAUClass_System_Type@@@Z 0207e2e4 f   DiskDrive.obj
 0001:0007d328       ?m_LinkIntoCollection@Struct_Microsoft_Singularity_Channels_Endpoint@@SIXPAU1@UStruct_Microsoft_Singularity_V1_Threads_AutoResetEventHandle@@@Z 0207e328 f   DiskDrive.obj
 0001:0007d354       ?m_HeadMatches@Struct_Microsoft_Singularity_Channels_Endpoint@@SI_NPAU1@HPA_NPAPAUClass_System_Object@@@Z 0207e354 f   DiskDrive.obj
 0001:0007d398       ?m_HeadMatches@Struct_Microsoft_Singularity_Channels_Endpoint@@SI_NPAUClass_Microsoft_Singularity_Channels_Endpoint@@HPA_NPAPAUClass_System_Object@@@Z 0207e398 f   DiskDrive.obj
 0001:0007d3d0       ?m_GetWaitHandle@Struct_Microsoft_Singularity_Channels_Endpoint@@SI?AUStruct_Microsoft_Singularity_V1_Threads_SyncHandle@@PAU1@@Z 0207e3d0 f   DiskDrive.obj
 0001:0007d410       ?m_GetWaitHandle@Struct_Microsoft_Singularity_Channels_Endpoint@@SI?AUStruct_Microsoft_Singularity_V1_Threads_SyncHandle@@PAUClass_Microsoft_Singularity_Channels_Endpoint@@@Z 0207e410 f   DiskDrive.obj
 0001:0007d438       ?m_GetPeer@Struct_Microsoft_Singularity_Channels_Endpoint@@SIPAU1@PAU1@PA_N@Z 0207e438 f   DiskDrive.obj
 0001:0007d4b0       ?m_get$_PeerClosed@Struct_Microsoft_Singularity_Channels_Endpoint@@SI_NPAU1@@Z 0207e4b0 f   DiskDrive.obj
 0001:0007d4e8       ?m_get$_Closed@Struct_Microsoft_Singularity_Channels_Endpoint@@SI_NPAU1@@Z 0207e4e8 f   DiskDrive.obj
 0001:0007d520       ?m_get$_ChannelID@Struct_Microsoft_Singularity_Channels_Endpoint@@SIHPAU1@@Z 0207e520 f   DiskDrive.obj
 0001:0007d560       ?g_FindRowMatch@Struct_Microsoft_Singularity_Channels_Endpoint@@SI_NHPAUClassVector_Class_Microsoft_Singularity_Channels_ISelectable@@PAUClassVector_ClassVector_int32@@PAUClassVector_bool@@PAH3PAPAUClass_System_Object@@@Z 0207e560 f   DiskDrive.obj
 0001:0007d884       ?m_Equals@Struct_Microsoft_Singularity_Channels_Endpoint@@SI_NPAU1@PAUClass_System_Object@@@Z 0207e884 f   DiskDrive.obj
 0001:0007daec       ?m_Equals@Struct_Microsoft_Singularity_Channels_Endpoint@@SI_NPAUClass_Microsoft_Singularity_Channels_Endpoint@@PAUClass_System_Object@@@Z 0207eaec f   DiskDrive.obj
 0001:0007db18       ?m_Dispose@Struct_Microsoft_Singularity_Channels_Endpoint@@SIXPAU1@@Z 0207eb18 f   DiskDrive.obj
 0001:0007dba4       ?m_DeliverHookInternal@Struct_Microsoft_Singularity_Channels_Endpoint@@SIXPAU1@H@Z 0207eba4 f   DiskDrive.obj
 0001:0007dbd8       ?g_DeliverHook@Struct_Microsoft_Singularity_Channels_Endpoint@@SIXPAU1@IH@Z 0207ebd8 f   DiskDrive.obj
 0001:0007dbf8       ?g_Wait@Struct_Microsoft_Singularity_V1_Services_EndpointCore@@SIXPAU1@@Z 0207ebf8 f   DiskDrive.obj
 0001:0007dc54       ?g_UnlinkFromCollection@Struct_Microsoft_Singularity_V1_Services_EndpointCore@@SIXPAU1@UStruct_Microsoft_Singularity_V1_Threads_AutoResetEventHandle@@@Z 0207ec54 f   DiskDrive.obj
 0001:0007dc84       ?m_StructCopy@Struct_Microsoft_Singularity_V1_Services_EndpointCore@@SIXPAU1@0@Z 0207ec84 f   DiskDrive.obj
 0001:0007dd1c       ?m_StructCopy@Struct_Microsoft_Singularity_V1_Services_EndpointCore@@SIXPAU1@PAU1@@Z 0207ed1c f   DiskDrive.obj
 0001:0007dee4       ?g_PeerClosed@Struct_Microsoft_Singularity_V1_Services_EndpointCore@@SI_NPAU1@@Z 0207eee4 f   DiskDrive.obj
 0001:0007df40       ?g_LinkIntoCollection@Struct_Microsoft_Singularity_V1_Services_EndpointCore@@SIXPAU1@UStruct_Microsoft_Singularity_V1_Threads_AutoResetEventHandle@@@Z 0207ef40 f   DiskDrive.obj
 0001:0007df6c       ?g_GetWaitHandle@Struct_Microsoft_Singularity_V1_Services_EndpointCore@@SI?AUStruct_Microsoft_Singularity_V1_Threads_SyncHandle@@PAU1@@Z 0207ef6c f   DiskDrive.obj
 0001:0007dfb8       ?g_GetPeer@Struct_Microsoft_Singularity_V1_Services_EndpointCore@@SIPAUStruct_Microsoft_Singularity_V1_Services_SharedHeapService_Allocation@@PAU1@PA_N@Z 0207efb8 f   DiskDrive.obj
 0001:0007e008       ?g_GetChannelID@Struct_Microsoft_Singularity_V1_Services_EndpointCore@@SIHPAU1@@Z 0207f008 f   DiskDrive.obj
 0001:0007e028       ?m_Equals@Struct_Microsoft_Singularity_V1_Services_EndpointCore@@SI_NPAU1@PAUClass_System_Object@@@Z 0207f028 f   DiskDrive.obj
 0001:0007e208       ?m_Equals@Struct_Microsoft_Singularity_V1_Services_EndpointCore@@SI_NPAUClass_Microsoft_Singularity_V1_Services_EndpointCore@@PAUClass_System_Object@@@Z 0207f208 f   DiskDrive.obj
 0001:0007e234       ?g_Closed@Struct_Microsoft_Singularity_V1_Services_EndpointCore@@SI_NPAU1@@Z 0207f234 f   DiskDrive.obj
 0001:0007e254       ?m_get$_Message@Class_System_ArgumentException@@SIPAUClass_System_String@@PAU1@@Z 0207f254 f   DiskDrive.obj
 0001:0007e2d8       ?m__ctor@Class_System_ArgumentException@@SIXPAU1@@Z 0207f2d8 f   DiskDrive.obj
 0001:0007e300       ?m__ctor@Class_System_ArgumentException@@SIXPAU1@PAUClass_System_String@@@Z 0207f300 f   DiskDrive.obj
 0001:0007e328       ?m__ctor@Class_System_ArgumentException@@SIXPAU1@PAUClass_System_String@@1@Z 0207f328 f   DiskDrive.obj
 0001:0007e35c       ?m__ctor@Class_System_SystemException@@SIXPAU1@@Z 0207f35c f   DiskDrive.obj
 0001:0007e384       ?m__ctor@Class_System_SystemException@@SIXPAU1@PAUClass_System_String@@@Z 0207f384 f   DiskDrive.obj
 0001:0007e3ac       ?m__ctor@Class_System_SystemException@@SIXPAU1@PAUClass_System_String@@PAUClass_System_Exception@@@Z 0207f3ac f   DiskDrive.obj
 0001:0007e3dc       ?m_ToString@Class_System_Exception@@SIPAUClass_System_String@@PAU1@@Z 0207f3dc f   DiskDrive.obj
 0001:0007e43c       ?g_IsUnlinkStack@Class_System_Exception@@SI_NPAUuintPtr@@@Z 0207f43c f   DiskDrive.obj
 0001:0007e4e0       ?m_get$_Message@Class_System_Exception@@SIPAUClass_System_String@@PAU1@@Z 0207f4e0 f   DiskDrive.obj
 0001:0007e50c       ?m_get$_InnerException@Class_System_Exception@@SIPAU1@PAU1@@Z 0207f50c f   DiskDrive.obj
 0001:0007e52c       ?m__ctor@Class_System_Exception@@SIXPAU1@@Z 0207f52c f   DiskDrive.obj
 0001:0007e550       ?m__ctor@Class_System_Exception@@SIXPAU1@PAUClass_System_String@@@Z 0207f550 f   DiskDrive.obj
 0001:0007e578       ?m__ctor@Class_System_Exception@@SIXPAU1@PAUClass_System_String@@0@Z 0207f578 f   DiskDrive.obj
 0001:0007e5a8       ?g_VectorCopy@Class_System_Array@@SIXPAUClass_System_Object@@H0HH@Z 0207f5a8 f   DiskDrive.obj
 0001:0007eb1c       ?g_UnBoxEachElement@Class_System_Array@@SIXPAU1@H0HH_N@Z 0207fb1c f   DiskDrive.obj
 0001:0007ee68       ?m_SetValue@Class_System_Array@@SIXPAU1@PAUClass_System_Object@@H@Z 0207fe68 f   DiskDrive.obj
 0001:0007eecc       ?g_PrimitiveWiden@Class_System_Array@@SIXPAU1@H0HH@Z 0207fecc f   DiskDrive.obj
 0001:0007ef10       ?m_InternalSetValueHelper@Class_System_Array@@SIXPAU1@PAEHPAUClass_System_Object@@@Z 0207ff10 f   DiskDrive.obj
 0001:0007f0f8       ?m_InternalSetValue@Class_System_Array@@SIXPAU1@PAUClass_System_Object@@HHH@Z 020800f8 f   DiskDrive.obj
 0001:0007f188       ?m_InternalGetValueHelper@Class_System_Array@@SIPAUClass_System_Object@@PAU1@PAEH@Z 02080188 f   DiskDrive.obj
 0001:0007f5b0       ?m_InternalGetValue@Class_System_Array@@SIPAUClass_System_Object@@PAU1@HHH@Z 020805b0 f   DiskDrive.obj
 0001:0007f634       ?m_InternalGetOffset@Class_System_Array@@SIHPAU1@HHH@Z 02080634 f   DiskDrive.obj
 0001:0007f7e8       ?m_InitializeVectorLength@Class_System_Array@@SIXPAU1@H@Z 020807e8 f   DiskDrive.obj
 0001:0007f810       ?m_GetValue@Class_System_Array@@SIPAUClass_System_Object@@PAU1@H@Z 02080810 f   DiskDrive.obj
 0001:0007f870       ?m_GetLowerBoundRectangleArray@Class_System_Array@@SIHPAU1@H@Z 02080870 f   DiskDrive.obj
 0001:0007f8c4       ?m_GetLowerBound@Class_System_Array@@SIHPAU1@H@Z 020808c4 f   DiskDrive.obj
 0001:0007f934       ?m_GetLengthVector@Class_System_Array@@SIHPAU1@@Z 02080934 f   DiskDrive.obj
 0001:0007f954       ?m_GetLengthRectangleArray@Class_System_Array@@SIHPAU1@@Z 02080954 f   DiskDrive.obj
 0001:0007f974       ?m_GetFirstElementAddress@Class_System_Array@@SIPAUvoid@@PAU1@PAH@Z 02080974 f   DiskDrive.obj
 0001:0007f9b8       ?m_get$_RankRectangleArray@Class_System_Array@@SIHPAU1@@Z 020809b8 f   DiskDrive.obj
 0001:0007f9d8       ?m_get$_Rank@Class_System_Array@@SIHPAU1@@Z 020809d8 f   DiskDrive.obj
 0001:0007fa0c       ?m_get$_Length@Class_System_Array@@SIHPAU1@@Z 02080a0c f   DiskDrive.obj
 0001:0007fa44       ?m_get$_IsVector@Class_System_Array@@SI_NPAU1@@Z 02080a44 f   DiskDrive.obj
 0001:0007fa84       ?g_CreateInstance@Class_System_Array@@SIPAU1@PAUClass_System_Type@@H@Z 02080a84 f   DiskDrive.obj
 0001:0007fcb0       ?g_Copy@Class_System_Array@@SIXPAUClassVector_uint64@@H0HH@Z 02080cb0 f   DiskDrive.obj
 0001:0007fe64       ?g_Copy@Class_System_Array@@SIXPAUClassVector_uint32@@H0HH@Z 02080e64 f   DiskDrive.obj
 0001:00080018       ?g_Copy@Class_System_Array@@SIXPAUClassVector_uint16@@H0HH@Z 02081018 f   DiskDrive.obj
 0001:000801cc       ?g_Copy@Class_System_Array@@SIXPAUClassVector_float32@@H0HH@Z 020811cc f   DiskDrive.obj
 0001:00080380       ?g_Copy@Class_System_Array@@SIXPAUClassVector_int8@@H0HH@Z 02081380 f   DiskDrive.obj
 0001:00080534       ?g_Copy@Class_System_Array@@SIXPAUClassVector_Class_System_Object@@H0HH@Z 02081534 f   DiskDrive.obj
 0001:00080768       ?g_Copy@Class_System_Array@@SIXPAUClassVector_int64@@H0HH@Z 02081768 f   DiskDrive.obj
 0001:0008091c       ?g_Copy@Class_System_Array@@SIXPAUClassVector_int32@@H0HH@Z 0208191c f   DiskDrive.obj
 0001:00080ad0       ?g_Copy@Class_System_Array@@SIXPAUClassVector_int16@@H0HH@Z 02081ad0 f   DiskDrive.obj
 0001:00080c84       ?g_Copy@Class_System_Array@@SIXPAUClassVector_float64@@H0HH@Z 02081c84 f   DiskDrive.obj
 0001:00080e38       ?g_Copy@Class_System_Array@@SIXPAUClassVector_bartok_char@@H0HH@Z 02081e38 f   DiskDrive.obj
 0001:00080fec       ?g_Copy@Class_System_Array@@SIXPAUClassVector_uint8@@H0HH@Z 02081fec f   DiskDrive.obj
 0001:000811a0       ?g_Copy@Class_System_Array@@SIXPAUClassVector_bool@@H0HH@Z 020821a0 f   DiskDrive.obj
 0001:00081354       ?g_Copy@Class_System_Array@@SIXPAU1@H0HH@Z 02082354 f   DiskDrive.obj
 0001:000817e0       ?g_CastCheckEachElement@Class_System_Array@@SIXPAU1@H0HH@Z 020827e0 f   DiskDrive.obj
 0001:00081ab4       ?g_CanAssignArrayType@Class_System_Array@@SI?AUStruct_System_Array_AssignArray@@PAU1@0@Z 02082ab4 f   DiskDrive.obj
 0001:00081c98       ?g_BoxEachElement@Class_System_Array@@SIXPAU1@H0HH@Z 02082c98 f   DiskDrive.obj
 0001:00081d1c       ?m__ctor@Class_System_Array@@SIXPAU1@@Z 02082d1c f   DiskDrive.obj
 0001:00081d38       ?m__ctor@Class_System_GCs_ObjectLayout_ObjectVisitor@@SIXPAU1@@Z 02082d38 f   DiskDrive.obj
 0001:00081d54       ?m_StructCopy@Struct_System_RuntimeFieldHandle@@SIXPAU1@0@Z 02082d54 f   DiskDrive.obj
 0001:00081d7c       ?m_StructCopy@Struct_System_RuntimeFieldHandle@@SIXPAU1@PAU1@@Z 02082d7c f   DiskDrive.obj
 0001:00081df4       ?m_Equals@Struct_System_RuntimeFieldHandle@@SI_NPAU1@PAUClass_System_Object@@@Z 02082df4 f   DiskDrive.obj
 0001:00081e3c       ?m_Equals@Struct_System_RuntimeFieldHandle@@SI_NPAUClass_System_RuntimeFieldHandle@@PAUClass_System_Object@@@Z 02082e3c f   DiskDrive.obj
 0001:00081e68       ?m_ToString@Class_System_ValueType@@SIPAUClass_System_String@@PAU1@@Z 02082e68 f   DiskDrive.obj
 0001:00081ea0       ?m_GetHashCode@Class_System_ValueType@@SIHPAU1@@Z 02082ea0 f   DiskDrive.obj
 0001:00081ee0       ?m_Equals@Class_System_ValueType@@SI_NPAU1@PAUClass_System_Object@@@Z 02082ee0 f   DiskDrive.obj
 0001:00081f20       ?m__ctor@Class_System_ValueType@@SIXPAU1@@Z 02082f20 f   DiskDrive.obj
 0001:00081f3c       ?m_WritePrdEntry@Class_Microsoft_Singularity_Drivers_IDE_BusMasterDma@@SIXPAU1@HII_N@Z 02082f3c f   DiskDrive.obj
 0001:00082150       ?m_WritePrdChunk@Class_Microsoft_Singularity_Drivers_IDE_BusMasterDma@@SIIPAU1@HPAUuintPtr@@I@Z 02083150 f   DiskDrive.obj
 0001:00082314       ?m_SetVirtualized@Class_Microsoft_Singularity_Drivers_IDE_BusMasterDma@@SIXPAU1@@Z 02083314 f   DiskDrive.obj
 0001:00082334       ?m_ReadPrdEntry@Class_Microsoft_Singularity_Drivers_IDE_BusMasterDma@@SIXPAU1@HPAI1PA_N@Z 02083334 f   DiskDrive.obj
 0001:00082540       ?m_InterruptHigh@Class_Microsoft_Singularity_Drivers_IDE_BusMasterDma@@SI_NPAU1@@Z 02083540 f   DiskDrive.obj
 0001:000825fc       ?m_GetStatus@Class_Microsoft_Singularity_Drivers_IDE_BusMasterDma@@SIEPAU1@@Z 020835fc f   DiskDrive.obj
 0001:0008269c       ?m_Get64KLimit@Class_Microsoft_Singularity_Drivers_IDE_BusMasterDma@@SIPAUuintPtr@@PAU1@PAU2@@Z 0208369c f   DiskDrive.obj
 0001:000826e4       ?m_FillPrdTable@Class_Microsoft_Singularity_Drivers_IDE_BusMasterDma@@SIIPAU1@PAUClass_Microsoft_Singularity_Drivers_IDE_IdeRequest@@@Z 020836e4 f   DiskDrive.obj
 0001:000828f0       ?m_Disarm@Class_Microsoft_Singularity_Drivers_IDE_BusMasterDma@@SIXPAU1@@Z 020838f0 f   DiskDrive.obj
 0001:00082ab8       ?m_BmPrepareController@Class_Microsoft_Singularity_Drivers_IDE_BusMasterDma@@SIXPAU1@PAUClass_Microsoft_Singularity_Drivers_IDE_IdeRequest@@@Z 02083ab8 f   DiskDrive.obj
 0001:00082b9c       ?m_Arm@Class_Microsoft_Singularity_Drivers_IDE_BusMasterDma@@SIHPAU1@PAUClass_Microsoft_Singularity_Drivers_IDE_IdeRequest@@@Z 02083b9c f   DiskDrive.obj
 0001:00082c4c       ?m__ctor@Class_Microsoft_Singularity_Drivers_IDE_BusMasterDma@@SIXPAU1@PAUClass_Microsoft_Singularity_Drivers_IDE_IdeConfig@@@Z 02083c4c f   DiskDrive.obj
 0001:00082cd4       ?m__ctor@Class_Microsoft_Singularity_Configuration_CategoryDeclaration@@SIXPAU1@@Z 02083cd4 f   DiskDrive.obj
 0001:00082cf0       ?g_WriteAlignment@Class_System_GCs_Allocator@@SIXPAUuintPtr@@@Z 02083cf0 f   DiskDrive.obj
 0001:00082d24       ?g_SkipAlignment@Class_System_GCs_Allocator@@SIPAUuintPtr@@PAU2@@Z 02083d24 f   DiskDrive.obj
 0001:00082db0       ?g_IsAlignmentMarkerAddr@Class_System_GCs_Allocator@@SI_NPAUuintPtr@@@Z 02083db0 f   DiskDrive.obj
 0001:00082de4       ?g_IsAlignment@Class_System_GCs_Allocator@@SI_NPAUuintPtr@@@Z 02083de4 f   DiskDrive.obj
 0001:00082e1c       ?g_get$_ALIGNMENT$_TOKEN@Class_System_GCs_Allocator@@SIPAUuintPtr@@XZ 02083e1c f   DiskDrive.obj
 0001:00082e34       ?g_AlignedObjectPtr@Class_System_GCs_Allocator@@SIPAUuintPtr@@PAU2@I@Z 02083e34 f   DiskDrive.obj
 0001:00082eec       ?g_AlignedAllocationPtr@Class_System_GCs_Allocator@@SIPAUuintPtr@@PAU2@0I@Z 02083eec f   DiskDrive.obj
 0001:00082fa8       ?m__ctor@Class_System_GCs_Allocator@@SIXPAU1@@Z 02083fa8 f   DiskDrive.obj
 0001:00082fc0       ?m_LogTick@Class_Microsoft_Singularity_GCProfilerLogger_ProfilerBuffer@@SIXPAU1@@Z 02083fc0 f   DiskDrive.obj
 0001:00083064       ?m__ctor@Class_Microsoft_Singularity_GCProfilerLogger_ProfilerBuffer@@SIXPAU1@@Z 02084064 f   DiskDrive.obj
 0001:00083090       ?g_get$_TickCount@Class_System_Environment@@SIHXZ 02084090 f   DiskDrive.obj
 0001:000830fc       ?g_get$_NewLine@Class_System_Environment@@SIPAUClass_System_String@@XZ 020840fc f   DiskDrive.obj
 0001:00083114       ?m__ctor@Class_System_Environment@@SIXPAU1@@Z 02084114 f   DiskDrive.obj
 0001:0008312c       ?g_WriteNotSupported@Class_Microsoft_Singularity_Io_Error@@SIXXZ 0208412c f   DiskDrive.obj
 0001:00083168       ?g_ReadNotSupported@Class_Microsoft_Singularity_Io_Error@@SIXXZ 02084168 f   DiskDrive.obj
 0001:000831a4       ?g_AccessOutOfRange@Class_Microsoft_Singularity_Io_Error@@SIXXZ 020841a4 f   DiskDrive.obj
 0001:000831e0       ?m__ctor@Class_Microsoft_Singularity_Io_Error@@SIXPAU1@@Z 020841e0 f   DiskDrive.obj
 0001:000831f8       ?g_get$_positiveSign@Class_System_Globalization_NumberFormatInfo@@SIPAUClass_System_String@@XZ 020841f8 f   DiskDrive.obj
 0001:00083228       ?g_get$_positiveInfinitySymbol@Class_System_Globalization_NumberFormatInfo@@SIPAUClass_System_String@@XZ 02084228 f   DiskDrive.obj
 0001:00083258       ?g_get$_percentSymbol@Class_System_Globalization_NumberFormatInfo@@SIPAUClass_System_String@@XZ 02084258 f   DiskDrive.obj
 0001:00083288       ?g_get$_percentPositivePattern@Class_System_Globalization_NumberFormatInfo@@SIHXZ 02084288 f   DiskDrive.obj
 0001:000832bc       ?g_get$_percentNegativePattern@Class_System_Globalization_NumberFormatInfo@@SIHXZ 020842bc f   DiskDrive.obj
 0001:000832f0       ?g_get$_percentGroupSizes@Class_System_Globalization_NumberFormatInfo@@SIPAUClassVector_int32@@XZ 020842f0 f   DiskDrive.obj
 0001:00083320       ?g_get$_percentGroupSeparator@Class_System_Globalization_NumberFormatInfo@@SIPAUClass_System_String@@XZ 02084320 f   DiskDrive.obj
 0001:00083350       ?g_get$_percentDecimalSeparator@Class_System_Globalization_NumberFormatInfo@@SIPAUClass_System_String@@XZ 02084350 f   DiskDrive.obj
 0001:00083380       ?g_get$_percentDecimalDigits@Class_System_Globalization_NumberFormatInfo@@SIHXZ 02084380 f   DiskDrive.obj
 0001:000833b4       ?g_get$_numberNegativePattern@Class_System_Globalization_NumberFormatInfo@@SIHXZ 020843b4 f   DiskDrive.obj
 0001:000833e8       ?g_get$_numberGroupSizes@Class_System_Globalization_NumberFormatInfo@@SIPAUClassVector_int32@@XZ 020843e8 f   DiskDrive.obj
 0001:00083418       ?g_get$_numberGroupSeparator@Class_System_Globalization_NumberFormatInfo@@SIPAUClass_System_String@@XZ 02084418 f   DiskDrive.obj
 0001:00083448       ?g_get$_numberDecimalSeparator@Class_System_Globalization_NumberFormatInfo@@SIPAUClass_System_String@@XZ 02084448 f   DiskDrive.obj
 0001:00083478       ?g_get$_numberDecimalDigits@Class_System_Globalization_NumberFormatInfo@@SIHXZ 02084478 f   DiskDrive.obj
 0001:000834ac       ?g_get$_negativeSign@Class_System_Globalization_NumberFormatInfo@@SIPAUClass_System_String@@XZ 020844ac f   DiskDrive.obj
 0001:000834dc       ?g_get$_negativeInfinitySymbol@Class_System_Globalization_NumberFormatInfo@@SIPAUClass_System_String@@XZ 020844dc f   DiskDrive.obj
 0001:0008350c       ?g_get$_nanSymbol@Class_System_Globalization_NumberFormatInfo@@SIPAUClass_System_String@@XZ 0208450c f   DiskDrive.obj
 0001:0008353c       ?m__ctor@Class_System_Globalization_NumberFormatInfo@@SIXPAU1@@Z 0208453c f   DiskDrive.obj
 0001:00083554       ?g__cctor@Class_System_Globalization_NumberFormatInfo@@SIXXZ 02084554 f   DiskDrive.obj
 0001:00083568       ?m_ToString@Class_System_RuntimeType@@SIPAUClass_System_String@@PAU1@@Z 02084568 f   DiskDrive.obj
 0001:0008358c       ?m_IsSubclassOf@Class_System_RuntimeType@@SI_NPAU1@PAUClass_System_Type@@@Z 0208458c f   DiskDrive.obj
 0001:000835f4       ?m_IsPrimitiveImpl@Class_System_RuntimeType@@SI_NPAU1@@Z 020845f4 f   DiskDrive.obj
 0001:0008361c       ?m_IsArrayImpl@Class_System_RuntimeType@@SI_NPAU1@@Z 0208461c f   DiskDrive.obj
 0001:00083644       ?m_InternalGetProperlyQualifiedName@Class_System_RuntimeType@@SIPAUClass_System_String@@PAU1@@Z 02084644 f   DiskDrive.obj
 0001:00083668       ?g_GetTypeFromHandleImpl@Class_System_RuntimeType@@SIPAUClass_System_Type@@UStruct_System_RuntimeTypeHandle@@@Z 02084668 f   DiskDrive.obj
 0001:00083698       ?m_GetSystemType@Class_System_RuntimeType@@SI?AUStruct_Microsoft_Singularity_V1_Types_SystemType@@PAU1@@Z 02084698 f   DiskDrive.obj
 0001:00083804       ?m_GetHashCode@Class_System_RuntimeType@@SIHPAU1@@Z 02084804 f   DiskDrive.obj
 0001:0008383c       ?m_get$_UnderlyingSystemType@Class_System_RuntimeType@@SIPAUClass_System_Type@@PAU1@@Z 0208483c f   DiskDrive.obj
 0001:0008385c       ?m_get$_Namespace@Class_System_RuntimeType@@SIPAUClass_System_String@@PAU1@@Z 0208485c f   DiskDrive.obj
 0001:0008387c       ?m_get$_Name@Class_System_RuntimeType@@SIPAUClass_System_String@@PAU1@@Z 0208487c f   DiskDrive.obj
 0001:0008389c       ?m_get$_IsVector@Class_System_RuntimeType@@SI_NPAU1@@Z 0208489c f   DiskDrive.obj
 0001:000838c4       ?m_get$_IsRectangleArray@Class_System_RuntimeType@@SI_NPAU1@@Z 020848c4 f   DiskDrive.obj
 0001:000838ec       ?m_get$_FullName@Class_System_RuntimeType@@SIPAUClass_System_String@@PAU1@@Z 020848ec f   DiskDrive.obj
 0001:00083948       ?m_get$_BaseType@Class_System_RuntimeType@@SIPAUClass_System_Type@@PAU1@@Z 02084948 f   DiskDrive.obj
 0001:00083968       ?m_AddFullName@Class_System_RuntimeType@@SIXPAU1@PAUClass_System_Text_StringBuilder@@@Z 02084968 f   DiskDrive.obj
 0001:00083a24       ?m__ctor@Class_System_RuntimeType@@SIXPAU1@@Z 02084a24 f   DiskDrive.obj
 0001:00083a5c       ?m_ToString@Class_System_Type@@SIPAUClass_System_String@@PAU1@@Z 02084a5c f   DiskDrive.obj
 0001:00083a8c       ?m_IsValueTypeImpl@Class_System_Type@@SI_NPAU1@@Z 02084a8c f   DiskDrive.obj
 0001:00083af0       ?m_IsSubclassOf@Class_System_Type@@SI_NPAU1@0@Z 02084af0 f   DiskDrive.obj
 0001:00083b58       ?g_GetTypeFromHandle@Class_System_Type@@SIPAU1@UStruct_System_RuntimeTypeHandle@@@Z 02084b58 f   DiskDrive.obj
 0001:00083ba0       ?m_GetHashCode@Class_System_Type@@SIHPAU1@@Z 02084ba0 f   DiskDrive.obj
 0001:00083bf0       ?m_get$_IsValueType@Class_System_Type@@SI_NPAU1@@Z 02084bf0 f   DiskDrive.obj
 0001:00083c18       ?m_get$_IsPrimitive@Class_System_Type@@SI_NPAU1@@Z 02084c18 f   DiskDrive.obj
 0001:00083c40       ?m_get$_IsArray@Class_System_Type@@SI_NPAU1@@Z 02084c40 f   DiskDrive.obj
 0001:00083c64       ?m_Equals@Class_System_Type@@SI_NPAU1@0@Z 02084c64 f   DiskDrive.obj
 0001:00083cb0       ?m_Equals@Class_System_Type@@SI_NPAU1@PAUClass_System_Object@@@Z 02084cb0 f   DiskDrive.obj
 0001:00083d24       ?m__ctor@Class_System_Type@@SIXPAU1@@Z 02084d24 f   DiskDrive.obj
 0001:00083d40       ?g__cctor@Class_System_Type@@SIXXZ 02084d40 f   DiskDrive.obj
 0001:00083d74       ?g_throwNewStringIndexOutOfRangeException@Class_System_VTable@@SIXXZ 02084d74 f   DiskDrive.obj
 0001:00083dac       ?g_throwNewOverflowException@Class_System_VTable@@SIXXZ 02084dac f   DiskDrive.obj
 0001:00083df0       ?g_throwNewIndexOutOfRangeException@Class_System_VTable@@SIXXZ 02084df0 f   DiskDrive.obj
 0001:00083e28       ?g_throwNewDivideByZeroException@Class_System_VTable@@SIXXZ 02084e28 f   DiskDrive.obj
 0001:00083e60       ?g_throwNewClassCastException@Class_System_VTable@@SIXXZ 02084e60 f   DiskDrive.obj
 0001:00083e98       ?g_throwNewArrayTypeMismatchException@Class_System_VTable@@SIXXZ 02084e98 f   DiskDrive.obj
 0001:00083ed0       ?g_throwNewArithmeticException@Class_System_VTable@@SIXXZ 02084ed0 f   DiskDrive.obj
 0001:00083f08       ?g_throwNewArgumentOutOfRangeException@Class_System_VTable@@SIXXZ 02084f08 f   DiskDrive.obj
 0001:00083f40       ?g_TerminateByException@Class_System_VTable@@SIXPAUClass_System_Exception@@@Z 02084f40 f   DiskDrive.obj
 0001:0008415c       ?g_StartupChecks@Class_System_VTable@@SIXXZ 0208515c f   DiskDrive.obj
 0001:00084234       ?g_Shutdown@Class_System_VTable@@SIXH@Z 02085234 f   DiskDrive.obj
 0001:000847d4       ?g_Shutdown@Class_System_VTable@@SIXXZ 020857d4 f   DiskDrive.obj
 0001:000847e8       ?g_profileInterfaceOffset@Class_System_VTable@@SIXPAU1@PAUClass_System_RuntimeType@@H@Z 020857e8 f   DiskDrive.obj
 0001:00084968       ?g_NotReached@Class_System_VTable@@SIXPAUClass_System_String@@@Z 02085968 f   DiskDrive.obj
 0001:0008498c       ?g_NotReached@Class_System_VTable@@SIXXZ 0208598c f   DiskDrive.obj
 0001:000849ac       ?g_NotImplemented@Class_System_VTable@@SIXPAUClass_System_String@@@Z 020859ac f   DiskDrive.obj
 0001:000849d0       ?g_NotImplemented@Class_System_VTable@@SIXXZ 020859d0 f   DiskDrive.obj
 0001:000849f0       ?g_newIsValidAssignment@Class_System_VTable@@SI_NPAU1@0H_N1@Z 020859f0 f   DiskDrive.obj
 0001:00084acc       ?g_newIsInstanceOfSimple@Class_System_VTable@@SIPAUClass_System_Object@@PAU1@PAU2@H@Z 02085acc f   DiskDrive.obj
 0001:00084b6c       ?g_newIsInstanceOfNonNullSimple@Class_System_VTable@@SIPAUClass_System_Object@@PAU1@PAU2@H@Z 02085b6c f   DiskDrive.obj
 0001:00084bf8       ?g_newIsInstanceOfNonNullExact@Class_System_VTable@@SIPAUClass_System_Object@@PAU1@PAU2@H@Z 02085bf8 f   DiskDrive.obj
 0001:00084c84       ?g_newIsInstanceOfNonNullComplex@Class_System_VTable@@SIPAUClass_System_Object@@PAU1@PAU2@H@Z 02085c84 f   DiskDrive.obj
 0001:00084d10       ?g_newIsInstanceOfExact@Class_System_VTable@@SIPAUClass_System_Object@@PAU1@PAU2@H@Z 02085d10 f   DiskDrive.obj
 0001:00084db0       ?g_newIsInstanceOfComplex@Class_System_VTable@@SIPAUClass_System_Object@@PAU1@PAU2@H@Z 02085db0 f   DiskDrive.obj
 0001:00084e50       ?g_newIsInstanceOf@Class_System_VTable@@SIPAUClass_System_Object@@PAU1@PAU2@H_N22@Z 02085e50 f   DiskDrive.obj
 0001:00084ee4       ?g_newCheckClassCastSimple@Class_System_VTable@@SIXPAU1@PAUClass_System_Object@@H@Z 02085ee4 f   DiskDrive.obj
 0001:00084fc0       ?g_newCheckClassCastNonNullSimple@Class_System_VTable@@SIXPAU1@PAUClass_System_Object@@H@Z 02085fc0 f   DiskDrive.obj
 0001:00085090       ?g_newCheckClassCastNonNullExact@Class_System_VTable@@SIXPAU1@PAUClass_System_Object@@H@Z 02086090 f   DiskDrive.obj
 0001:00085140       ?g_newCheckClassCastNonNullComplex@Class_System_VTable@@SIXPAU1@PAUClass_System_Object@@H@Z 02086140 f   DiskDrive.obj
 0001:00085274       ?g_newCheckClassCastExact@Class_System_VTable@@SIXPAU1@PAUClass_System_Object@@H@Z 02086274 f   DiskDrive.obj
 0001:00085334       ?g_newCheckClassCastComplex@Class_System_VTable@@SIXPAU1@PAUClass_System_Object@@H@Z 02086334 f   DiskDrive.obj
 0001:00085478       ?g_newCheckClassCast@Class_System_VTable@@SIXPAU1@PAUClass_System_Object@@H_N22@Z 02086478 f   DiskDrive.obj
 0001:0008564c       ?g_mulUnsigned64Bit@Class_System_VTable@@SI_K_K0@Z 0208664c f   DiskDrive.obj
 0001:00085710       ?g_isValidAssignmentSlow@Class_System_VTable@@SI_NPAUClass_System_RuntimeType@@0@Z 02086710 f   DiskDrive.obj
 0001:00085894       ?g_isValidAssignmentMedium@Class_System_VTable@@SI_NPAUClass_System_RuntimeType@@0@Z 02086894 f   DiskDrive.obj
 0001:000858e8       ?g_isValidAssignmentArray@Class_System_VTable@@SI_NPAUClass_System_RuntimeType@@0@Z 020868e8 f   DiskDrive.obj
 0001:00085a1c       ?g_isValidAssignment@Class_System_VTable@@SI_NPAUClass_System_RuntimeType@@0@Z 02086a1c f   DiskDrive.obj
 0001:00085a58       ?g_isInstanceOf@Class_System_VTable@@SIPAUClass_System_Object@@PAUClass_System_RuntimeType@@PAU2@@Z 02086a58 f   DiskDrive.obj
 0001:00085ac8       ?g_IsExceptionHandler@Class_System_VTable@@SI_NPAUClass_System_Type@@PAUClass_System_Exception@@@Z 02086ac8 f   DiskDrive.obj
 0001:00085b34       ?g_interfaceOffset@Class_System_VTable@@SIPAUintPtr@@PAU1@PAUClass_System_RuntimeType@@@Z 02086b34 f   DiskDrive.obj
 0001:00085bec       ?g_initTypePrint@Class_System_VTable@@SIXPAUClass_System_RuntimeType@@PAUClass_System_String@@@Z 02086bec f   DiskDrive.obj
 0001:00085c10       ?g_initType@Class_System_VTable@@SIXPAUClass_System_RuntimeType@@@Z 02086c10 f   DiskDrive.obj
 0001:00085f14       ?g_InitializeLimitedType@Class_System_VTable@@SIXPAUClass_System_Type@@@Z 02086f14 f   DiskDrive.obj
 0001:00085f38       ?g_InitializeLimitedType@Class_System_VTable@@SIXPAUClass_System_RuntimeType@@@Z 02086f38 f   DiskDrive.obj
 0001:00085f68       ?g_initializeGC@Class_System_VTable@@SIXXZ 02086f68 f   DiskDrive.obj
 0001:00086058       ?g_Initialize@Class_System_VTable@@SIXPAUClass_System_RuntimeType@@@Z 02087058 f   DiskDrive.obj
 0001:0008618c       ?g_init@Class_System_VTable@@SIXPAUClass_System_Object@@@Z 0208718c f   DiskDrive.obj
 0001:000861a8       ?g_get$_fDebug@Class_System_VTable@@SI_NXZ 020871a8 f   DiskDrive.obj
 0001:000861c0       ?g_failAssert@Class_System_VTable@@SIXPAUClass_System_String@@@Z 020871c0 f   DiskDrive.obj
 0001:00086284       ?g_EnableLibraryAsserts@Class_System_VTable@@SI_NXZ 02087284 f   DiskDrive.obj
 0001:0008629c       ?g_doubleToULong@Class_System_VTable@@SI_KN@Z 0208729c f   DiskDrive.obj
 0001:00086338       ?g_Deny@Class_System_VTable@@SIX_N@Z 02087338 f   DiskDrive.obj
 0001:00086380       ?g_Deny@Class_System_VTable@@SIX_NPAUClass_System_String@@@Z 02087380 f   DiskDrive.obj
 0001:000863c8       ?g_DebugPrint@Class_System_VTable@@SIX_J@Z 020873c8 f   DiskDrive.obj
 0001:00086444       ?g_DebugPrint@Class_System_VTable@@SIXH@Z 02087444 f   DiskDrive.obj
 0001:000864bc       ?g_DebugPrint@Class_System_VTable@@SIXPAUClass_System_String@@@Z 020874bc f   DiskDrive.obj
 0001:000864e0       ?g_DebugPrint@Class_System_VTable@@SIXPAUClass_System_String@@UStruct_System_VarargList@@@Z 020874e0 f   DiskDrive.obj
 0001:00086548       ?g_DebugBreak@Class_System_VTable@@SIXXZ 02087548 f   DiskDrive.obj
 0001:00086560       ?g_checkUnbox@Class_System_VTable@@SIXPAUClass_System_Object@@H@Z 02087560 f   DiskDrive.obj
 0001:000865bc       ?g_checkedDoubleToULong@Class_System_VTable@@SI_KN@Z 020875bc f   DiskDrive.obj
 0001:000866b4       ?g_checkClassCast@Class_System_VTable@@SIXPAUClass_System_RuntimeType@@PAUClass_System_Object@@@Z 020876b4 f   DiskDrive.obj
 0001:00086728       ?g_checkArrayStore@Class_System_VTable@@SIXPAUClass_System_Object@@0@Z 02087728 f   DiskDrive.obj
 0001:00086830       ?g_Assert@Class_System_VTable@@SIX_N@Z 02087830 f   DiskDrive.obj
 0001:00086874       ?g_Assert@Class_System_VTable@@SIX_NPAUClass_System_String@@@Z 02087874 f   DiskDrive.obj
 0001:000868b8       ?m__ctor@Class_System_VTable@@SIXPAU1@@Z 020878b8 f   DiskDrive.obj
 0001:000868d4       ?g__cctor@Class_System_VTable@@SIXXZ 020878d4 f   DiskDrive.obj
 0001:000869a8       ?m_ToString@Class_System_Object@@SIPAUClass_System_String@@PAU1@@Z 020879a8 f   DiskDrive.obj
 0001:000869d0       ?m_set$_vtable@Class_System_Object@@SIXPAU1@PAUClass_System_VTable@@@Z 020879d0 f   DiskDrive.obj
 0001:000869fc       ?m_set$_muw@Class_System_Object@@SIXPAU1@UStruct_System_MultiUseWord@@@Z 020879fc f   DiskDrive.obj
 0001:00086a30       ?m_GetType@Class_System_Object@@SIPAUClass_System_Type@@PAU1@@Z 02087a30 f   DiskDrive.obj
 0001:00086a68       ?m_GetHashCode@Class_System_Object@@SIHPAU1@@Z 02087a68 f   DiskDrive.obj
 0001:00086a8c       ?m_get$_VTableFieldAddr@Class_System_Object@@SIPAPAUuintPtr@@PAU1@@Z 02087a8c f   DiskDrive.obj
 0001:00086ab8       ?m_get$_vtable@Class_System_Object@@SIPAUClass_System_VTable@@PAU1@@Z 02087ab8 f   DiskDrive.obj
 0001:00086ae0       ?m_get$_muw@Class_System_Object@@SI?AUStruct_System_MultiUseWord@@PAU1@@Z 02087ae0 f   DiskDrive.obj
 0001:00086b0c       ?m_get$_GcUnmarkedVTable@Class_System_Object@@SIPAUClass_System_VTable@@PAU1@@Z 02087b0c f   DiskDrive.obj
 0001:00086b40       ?m_GcMark@Class_System_Object@@SIPAUuintPtr@@PAU1@@Z 02087b40 f   DiskDrive.obj
 0001:00086b7c       ?m_GcMark@Class_System_Object@@SI_NPAU1@PAUuintPtr@@@Z 02087b7c f   DiskDrive.obj
 0001:00086bf0       ?m_Finalize@Class_System_Object@@SIXPAU1@@Z 02087bf0 f   DiskDrive.obj
 0001:00086c0c       ?m_Equals@Class_System_Object@@SI_NPAU1@0@Z 02087c0c f   DiskDrive.obj
 0001:00086c34       ?m_CompareExchangeMUW@Class_System_Object@@SIPAUuintPtr@@PAU1@PAU2@1@Z 02087c34 f   DiskDrive.obj
 0001:00086c74       ?m__ctor@Class_System_Object@@SIXPAU1@@Z 02087c74 f   DiskDrive.obj
 0001:00086c90       ?g_Initialize@Class_System_VTable@@SIXXZ 02087c90 f   DiskDrive_superObj.obj
 0001:00086c90       C:\Users\cc\source\repos\Singularity-OS\base.obj\AppNativeObj\Debug.x86.MarkSweep\DiskDrive_superObj_CodeBase 02087c90     DiskDrive_superObj.obj
 0001:00086ca0       __checkStackOverflow       02087ca0 f   native.Full:halstack.obj
 0001:00086cb9       ?c_LinkStackFunctionsBegin@Class_Microsoft_Singularity_Memory_Stacks@@2EA 02087cb9     native.Full:halstack.obj
 0001:00086cba       ?c_LinkStackBegin@Class_Microsoft_Singularity_Memory_Stacks@@2EA 02087cba     native.Full:halstack.obj
 0001:00086cc0       LinkStack                  02087cc0 f   native.Full:halstack.obj
 0001:00086d10       ?c_LinkStackLimit@Class_Microsoft_Singularity_Memory_Stacks@@2EA 02087d10     native.Full:halstack.obj
 0001:00086d11       ?c_UnlinkStackBegin@Class_Microsoft_Singularity_Memory_Stacks@@2EA 02087d11     native.Full:halstack.obj
 0001:00086d20       UnlinkStack                02087d20 f   native.Full:halstack.obj
 0001:00086d64       ?c_UnlinkStackLimit@Class_Microsoft_Singularity_Memory_Stacks@@2EA 02087d64     native.Full:halstack.obj
 0001:00086d65       ?c_LinkStackStubsBegin@Class_Microsoft_Singularity_Memory_Stacks@@2EA 02087d65     native.Full:halstack.obj
 0001:00086d68       ?g_LinkStack0@Class_Microsoft_Singularity_Memory_Stacks@@SIXXZ 02087d68     native.Full:halstack.obj
 0001:00086d80       ?g_LinkStack4@Class_Microsoft_Singularity_Memory_Stacks@@SIXXZ 02087d80     native.Full:halstack.obj
 0001:00086d98       ?g_LinkStack8@Class_Microsoft_Singularity_Memory_Stacks@@SIXXZ 02087d98     native.Full:halstack.obj
 0001:00086db0       ?g_LinkStack12@Class_Microsoft_Singularity_Memory_Stacks@@SIXXZ 02087db0     native.Full:halstack.obj
 0001:00086dc8       ?g_LinkStack16@Class_Microsoft_Singularity_Memory_Stacks@@SIXXZ 02087dc8     native.Full:halstack.obj
 0001:00086de0       ?g_LinkStack20@Class_Microsoft_Singularity_Memory_Stacks@@SIXXZ 02087de0     native.Full:halstack.obj
 0001:00086df8       ?g_LinkStack24@Class_Microsoft_Singularity_Memory_Stacks@@SIXXZ 02087df8     native.Full:halstack.obj
 0001:00086e10       ?g_LinkStack28@Class_Microsoft_Singularity_Memory_Stacks@@SIXXZ 02087e10     native.Full:halstack.obj
 0001:00086e28       ?g_LinkStack32@Class_Microsoft_Singularity_Memory_Stacks@@SIXXZ 02087e28     native.Full:halstack.obj
 0001:00086e40       ?g_LinkStack36@Class_Microsoft_Singularity_Memory_Stacks@@SIXXZ 02087e40     native.Full:halstack.obj
 0001:00086e58       ?g_LinkStack40@Class_Microsoft_Singularity_Memory_Stacks@@SIXXZ 02087e58     native.Full:halstack.obj
 0001:00086e70       ?g_LinkStack44@Class_Microsoft_Singularity_Memory_Stacks@@SIXXZ 02087e70     native.Full:halstack.obj
 0001:00086e88       ?g_LinkStack48@Class_Microsoft_Singularity_Memory_Stacks@@SIXXZ 02087e88     native.Full:halstack.obj
 0001:00086ea0       ?g_LinkStack52@Class_Microsoft_Singularity_Memory_Stacks@@SIXXZ 02087ea0     native.Full:halstack.obj
 0001:00086eb8       ?g_LinkStack56@Class_Microsoft_Singularity_Memory_Stacks@@SIXXZ 02087eb8     native.Full:halstack.obj
 0001:00086ed0       ?g_LinkStack60@Class_Microsoft_Singularity_Memory_Stacks@@SIXXZ 02087ed0     native.Full:halstack.obj
 0001:00086ee8       ?g_LinkStack64@Class_Microsoft_Singularity_Memory_Stacks@@SIXXZ 02087ee8     native.Full:halstack.obj
 0001:00086f00       ?g_LinkStack68@Class_Microsoft_Singularity_Memory_Stacks@@SIXXZ 02087f00     native.Full:halstack.obj
 0001:00086f18       ?g_LinkStack72@Class_Microsoft_Singularity_Memory_Stacks@@SIXXZ 02087f18     native.Full:halstack.obj
 0001:00086f30       ?g_LinkStack76@Class_Microsoft_Singularity_Memory_Stacks@@SIXXZ 02087f30     native.Full:halstack.obj
 0001:00086f48       ?g_LinkStack80@Class_Microsoft_Singularity_Memory_Stacks@@SIXXZ 02087f48     native.Full:halstack.obj
 0001:00086f60       ?g_LinkStack84@Class_Microsoft_Singularity_Memory_Stacks@@SIXXZ 02087f60     native.Full:halstack.obj
 0001:00086f78       ?g_LinkStack88@Class_Microsoft_Singularity_Memory_Stacks@@SIXXZ 02087f78     native.Full:halstack.obj
 0001:00086f90       ?g_LinkStack92@Class_Microsoft_Singularity_Memory_Stacks@@SIXXZ 02087f90     native.Full:halstack.obj
 0001:00086fa8       ?g_LinkStack96@Class_Microsoft_Singularity_Memory_Stacks@@SIXXZ 02087fa8     native.Full:halstack.obj
 0001:00086fc0       ?g_LinkStack100@Class_Microsoft_Singularity_Memory_Stacks@@SIXXZ 02087fc0     native.Full:halstack.obj
 0001:00086fd8       ?g_LinkStack104@Class_Microsoft_Singularity_Memory_Stacks@@SIXXZ 02087fd8     native.Full:halstack.obj
 0001:00086ff0       ?g_LinkStack108@Class_Microsoft_Singularity_Memory_Stacks@@SIXXZ 02087ff0     native.Full:halstack.obj
 0001:00087008       ?g_LinkStack112@Class_Microsoft_Singularity_Memory_Stacks@@SIXXZ 02088008     native.Full:halstack.obj
 0001:00087020       ?g_LinkStack116@Class_Microsoft_Singularity_Memory_Stacks@@SIXXZ 02088020     native.Full:halstack.obj
 0001:00087038       ?g_LinkStack120@Class_Microsoft_Singularity_Memory_Stacks@@SIXXZ 02088038     native.Full:halstack.obj
 0001:00087050       ?g_LinkStack124@Class_Microsoft_Singularity_Memory_Stacks@@SIXXZ 02088050     native.Full:halstack.obj
 0001:00087068       ?g_LinkStack128@Class_Microsoft_Singularity_Memory_Stacks@@SIXXZ 02088068     native.Full:halstack.obj
 0001:0008707f       ?c_LinkStackStubsLimit@Class_Microsoft_Singularity_Memory_Stacks@@2EA 0208807f     native.Full:halstack.obj
 0001:00087080       __checkStackLimit          02088080 f   native.Full:halstack.obj
 0001:000870b6       ?c_LinkStackFunctionsLimit@Class_Microsoft_Singularity_Memory_Stacks@@2EA 020880b6     native.Full:halstack.obj
 0001:000870e0       __throwDispatcher          020880e0 f   native.Full:lib.obj
 0001:00087100       __throwDispatcherExplicitAddr 02088100 f   native.Full:lib.obj
 0001:00087110       __throwDispatcherExplicitAddrAfterCore 02088110 f   native.Full:lib.obj
 0001:00087120       __throwDispatcherHandler   02088120 f   native.Full:lib.obj
 0001:00087130       __throwDispatcherUnwind    02088130 f   native.Full:lib.obj
 0001:00087180       __throwDivideByZeroException 02088180 f   native.Full:lib.obj
 0001:000871b0       __throwStackOverflowException 020881b0 f   native.Full:lib.obj
 0001:000871f0       __throwNullReferenceException 020881f0 f   native.Full:lib.obj
 0001:00087220       __throwOverflowException   02088220 f   native.Full:lib.obj
 0001:00087250       ?g_doubleToInt@Class_System_VTable@@SIHN@Z 02088250 f   native.Full:lib.obj
 0001:000872b0       ?g_doubleToLong@Class_System_VTable@@SI_JN@Z 020882b0 f   native.Full:lib.obj
 0001:00087320       ?g_floatToInt@Class_System_VTable@@SIHM@Z 02088320 f   native.Full:lib.obj
 0001:00087380       ?g_floatToLong@Class_System_VTable@@SI_JM@Z 02088380 f   native.Full:lib.obj
 0001:00087400       ?g_checkedDoubleToInt@Class_System_VTable@@SIHN@Z 02088400 f   native.Full:lib.obj
 0001:00087480       ?g_checkedDoubleToLong@Class_System_VTable@@SI_JN@Z 02088480 f   native.Full:lib.obj
 0001:00087500       ?g_checkedFloatToInt@Class_System_VTable@@SIHM@Z 02088500 f   native.Full:lib.obj
 0001:00087570       ?g_checkedFloatToLong@Class_System_VTable@@SI_JM@Z 02088570 f   native.Full:lib.obj
 0001:000875f0       ?g_Sin@Class_System_Math@@SINN@Z 020885f0 f   native.Full:lib.obj
 0001:00087600       ?g_Cos@Class_System_Math@@SINN@Z 02088600 f   native.Full:lib.obj
 0001:00087610       ?g_Tan@Class_System_Math@@SINN@Z 02088610 f   native.Full:lib.obj
 0001:00087620       ?g_Atan@Class_System_Math@@SINN@Z 02088620 f   native.Full:lib.obj
 0001:00087630       ?g_atan2@Class_System_Math@@SINNN@Z 02088630 f   native.Full:lib.obj
 0001:00087640       ?g_exp@Class_System_Math@@SINN@Z 02088640 f   native.Full:lib.obj
 0001:00087660       ?g_Log@Class_System_Math@@SINN@Z 02088660 f   native.Full:lib.obj
 0001:00087670       ?g_Ceiling@Class_System_Math@@SINN@Z 02088670 f   native.Full:lib.obj
 0001:000876a0       ?g_Floor@Class_System_Math@@SINN@Z 020886a0 f   native.Full:lib.obj
 0001:000876d0       ?g_Round@Class_System_Math@@SINN@Z 020886d0 f   native.Full:lib.obj
 0001:000876e0       ?g_abs@Class_System_Math@@SIMM@Z 020886e0 f   native.Full:lib.obj
 0001:000876f0       ?g_abs@Class_System_Math@@SINN@Z 020886f0 f   native.Full:lib.obj
 0001:00087700       ?g_floatRem@Class_System_VTable@@SIMMM@Z 02088700 f   native.Full:lib.obj
 0001:00087720       ?g_doubleRem@Class_System_VTable@@SINNN@Z 02088720 f   native.Full:lib.obj
 0001:00087740       ?g_LogFunction@Class_Microsoft_Singularity_GCProfilerLogger_ProfilerBuffer@@SIXIPAUuintPtr@@@Z 02088740 f   native.Full:GCTracing.obj
 0001:00087770       ?g_LogAllocation@Class_Microsoft_Singularity_GCProfilerLogger_ProfilerBuffer@@SIXHPAUuintPtr@@I@Z 02088770 f   native.Full:GCTracing.obj
 0001:000877b0       ?g_LogStack@Class_Microsoft_Singularity_GCProfilerLogger_ProfilerBuffer@@SIXIIPAUuintPtr@@IPAI@Z 020887b0 f   native.Full:GCTracing.obj
 0001:00087810       ?g_LogInterval@Class_Microsoft_Singularity_GCProfilerLogger_ProfilerBuffer@@SIX_K@Z 02088810 f   native.Full:GCTracing.obj
 0001:00087850       ?g_LogType@Class_Microsoft_Singularity_GCProfilerLogger_ProfilerBuffer@@SIXIPAUClass_System_String@@@Z 02088850 f   native.Full:GCTracing.obj
 0001:000878a0       ?g_LogObject@Class_Microsoft_Singularity_GCProfilerLogger_ProfilerBuffer@@SIXIPAPAUuintPtr@@@Z 020888a0 f   native.Full:GCTracing.obj
 0001:000878f0       ?g_LogGenerations@Class_Microsoft_Singularity_GCProfilerLogger_ProfilerBuffer@@SIXHPAH@Z 020888f0 f   native.Full:GCTracing.obj
 0001:00087940       ?g_LogRoots@Class_Microsoft_Singularity_GCProfilerLogger_ProfilerBuffer@@SIXIPAPAUuintPtr@@@Z 02088940 f   native.Full:GCTracing.obj
 0001:00087990       ?fail_assert@@YIXPAUClass_System_String@@@Z 02088990 f   native.Full:ProcessEntry.obj
 0001:000879b0       ?g_CallMain@Class_Microsoft_Singularity_AppRuntime@@SIHPAUClassVector_Class_System_String@@@Z 020889b0 f   native.Full:ProcessEntry.obj
 0001:000879c0       ?g_MainReturnsInt@Class_Microsoft_Singularity_AppRuntime@@SI_NXZ 020889c0 f   native.Full:ProcessEntry.obj
 0001:000879d0       ?g_SetDebuggerPresence@Class_Microsoft_Singularity_AppRuntime@@SIX_N@Z 020889d0 f   native.Full:ProcessEntry.obj
 0001:000879e0       @RuntimeEntryPoint@4       020889e0 f   native.Full:ProcessEntry.obj
 0001:00087a60       ?g_GetCurrentThread@Class_Microsoft_Singularity_Isal_Isa@@SIPAUStruct_Microsoft_Singularity_Isal_ThreadRecord@@XZ 02088a60 f   native.Full:isa.obj
 0001:00087a69       ?g_GetCurrentCpu@Class_Microsoft_Singularity_Isal_Isa@@SIPAUStruct_Microsoft_Singularity_Isal_CpuRecord@@XZ 02088a69 f   native.Full:isa.obj
 0001:00087a72       ?g_GetCs@Class_Microsoft_Singularity_Isal_Isa@@SIPAUuintPtr@@XZ 02088a72 f   native.Full:isa.obj
 0001:00087a75       ?g_InitFpu@Class_Microsoft_Singularity_Isal_Isa@@SIXXZ 02088a75 f   native.Full:isa.obj
 0001:00087a83       ?g_ReadFpuStatus@Class_Microsoft_Singularity_Isal_Isa@@Z@@XZ 02088a83 f   native.Full:isa.obj
 0001:00087a8b       ?g_ClearFpuStatus@Class_Microsoft_Singularity_Isal_Isa@@Z@@XZ 02088a8b f   native.Full:isa.obj
 0001:00087a8e       ?g_EnterUserMode@Class_Microsoft_Singularity_Isal_Isa@@SIXXZ 02088a8e f   native.Full:isa.obj
 0001:00087aaa       ?g_GetFramePointer@Class_Microsoft_Singularity_Isal_Isa@@SIPAUuintPtr@@XZ 02088aaa f   native.Full:isa.obj
 0001:00087ab0       ?g_GetCycleCount@Class_Microsoft_Singularity_Isal_Isa@@SI_KXZ 02088ab0 f   native.Full:isac.obj
 0001:00087ac0       ?g_GetFrameReturnAddress@Class_Microsoft_Singularity_Isal_Isa@@SIPAUuintPtr@@PAU2@@Z 02088ac0 f   native.Full:isac.obj
 0001:00087ad0       ?g_GetFrameCallerFrame@Class_Microsoft_Singularity_Isal_Isa@@SIPAUuintPtr@@PAU2@@Z 02088ad0 f   native.Full:isac.obj
 0001:00087ae0       ?g_HalReadInt8@Class_Microsoft_Singularity_Io_IoPort@@SIEI@Z 02088ae0 f   native.Full:IoPort.obj
 0001:00087af0       ?g_HalReadInt16@Class_Microsoft_Singularity_Io_IoPort@@SIGI@Z 02088af0 f   native.Full:IoPort.obj
 0001:00087b00       ?g_HalWriteInt8@Class_Microsoft_Singularity_Io_IoPort@@SIXIE@Z 02088b00 f   native.Full:IoPort.obj
 0001:00087b10       ?g_HalWriteInt16@Class_Microsoft_Singularity_Io_IoPort@@SIXIG@Z 02088b10 f   native.Full:IoPort.obj
 0001:00087b20       ?g_HalWriteInt32@Class_Microsoft_Singularity_Io_IoPort@@SIXII@Z 02088b20 f   native.Full:IoPort.obj
 0001:00087b30       ?g_Break@Class_Microsoft_Singularity_DebugStub@@SIXXZ 02088b30 f   native.Full:DebugStub.obj
 0001:00087b40       ?MemoryStorageGetNextGeneration@@YIIPAU_MEMORY_STORAGE@@@Z 02088b40 f   native.Full:MemoryStorage.obj
 0001:00087b50       ?MemoryStorageAdvanceCursor@@YIPAU_MEMORY_HEADER@@PAU_MEMORY_STORAGE@@PAU_MEMORY_ZONE@@G@Z 02088b50 f   native.Full:MemoryStorage.obj
 0001:00087bf0       ?CaptureStackTrace@@YIIPAPAUuintPtr@@I@Z 02088bf0 f   native.Full:MemoryStorage.obj
 0001:00087ca0       ?InternalLogRecord@@YIPAU_MEMORY_HEADER@@PAUuintPtr@@I0PAXIPAPAXI@Z 02088ca0 f   native.Full:MemoryStorage.obj
 0001:00087dd0       ?InternalLogFixedRecord@@YIPAU_MEMORY_HEADER@@PAUuintPtr@@I0PAXI@Z 02088dd0 f   native.Full:MemoryStorage.obj
 0001:00087e10       ?InternalLogVariableRecord@@YIPAU_MEMORY_HEADER@@_NPAUuintPtr@@I1PAXIHPAUStruct_Microsoft_Singularity_Eventing_ArrayType@@@Z 02088e10 f   native.Full:MemoryStorage.obj
 0001:00087f70       ?g_MemoryStorageRegisterBufferImpl@Class_Microsoft_Singularity_Eventing_MemoryStorage@@SIXPAUuintPtr@@PAEI@Z 02088f70 f   native.Full:MemoryStorage.obj
 0001:00088070       ?g_GetMemoryStorageOveheadImpl@Class_Microsoft_Singularity_Eventing_MemoryStorage@@SIIXZ 02089070 f   native.Full:MemoryStorage.obj
 0001:00088080       ?g_MemoryStorageCreateImpl@Class_Microsoft_Singularity_Eventing_MemoryStorage@@SIPAUuintPtr@@IPAEII@Z 02089080 f   native.Full:MemoryStorage.obj
 0001:00088120       ?g_MoveMemory@Class_System_Buffer@@SIXPAE0H@Z 02089120 f   native.Full:Buffer.obj
 0001:00088280       ?g_ZeroMemory@Class_System_Buffer@@SIXPAEH@Z 02089280 f   native.Full:Buffer.obj
 0001:00088320       ?g_DoubleFromDecimal@Struct_System_Decimal@@SIHPAU1@PAN@Z 02089320 f   native.Full:Decimal.obj
 0001:00088330       ?g_DecimalCompare@Struct_System_Decimal@@SIHPAU1@0@Z 02089330 f   native.Full:Decimal.obj
 0001:00088340       __pushStackMark            02089340 f   native.Full:gc.obj
 0001:000883a0       __popStackMark             020893a0 f   native.Full:gc.obj
 0001:000883f0       ?g_CollectBodyTransition@Class_System_GC@@SIXPAUClass_System_Threading_Thread@@H@Z 020893f0 f   native.Full:gc.obj
 0001:00088450       ?m_UpdateAfterGC@Struct_Microsoft_Singularity_ThreadContext@@SIXPAU1@PAUClass_System_Threading_Thread@@@Z 02089450 f   native.Full:Thread.obj
 0001:00088460       ?m_GetThread@Struct_Microsoft_Singularity_ThreadContext@@SIPAUClass_System_Threading_Thread@@PAU1@@Z 02089460 f   native.Full:Thread.obj
 0001:00088870       ?g_ecvt@Class_System_Number@@SI_NNHPAUClassVector_bartok_char@@PAHPA_N@Z 02089870 f   native.Full:Number.obj
 0001:00088bc0       ?g_atof@Class_System_Number@@SINPAUClassVector_uint8@@@Z 02089bc0 f   native.Full:Number.obj
 0001:00088bd0       ?g_Initialize@Class_Microsoft_Singularity_Tracing@@SIXXZ 02089bd0 f   native.Full:Tracing.obj
 0001:00088bf0       ?g_Log@Class_Microsoft_Singularity_Tracing@@SIXEPAUClass_System_String@@@Z 02089bf0 f   native.Full:Tracing.obj
 0001:00088ca0       ?g_Log@Class_Microsoft_Singularity_Tracing@@SIXEPAUClass_System_String@@PAUuintPtr@@@Z 02089ca0 f   native.Full:Tracing.obj
 0001:00088d50       ?g_Log@Class_Microsoft_Singularity_Tracing@@SIXEPAUClass_System_String@@PAUuintPtr@@1@Z 02089d50 f   native.Full:Tracing.obj
 0001:00088e00       ?g_Log@Class_Microsoft_Singularity_Tracing@@SIXEPAUClass_System_String@@PAUuintPtr@@11@Z 02089e00 f   native.Full:Tracing.obj
 0001:00088ec0       ?g_Log@Class_Microsoft_Singularity_Tracing@@SIXEPAUClass_System_String@@PAUuintPtr@@111@Z 02089ec0 f   native.Full:Tracing.obj
 0001:00088f80       ?g_Log@Class_Microsoft_Singularity_Tracing@@SIXEPAUClass_System_String@@PAUuintPtr@@1111@Z 02089f80 f   native.Full:Tracing.obj
 0001:00089040       ?g_Log@Class_Microsoft_Singularity_Tracing@@SIXEPAUClass_System_String@@0@Z 0208a040 f   native.Full:Tracing.obj
 0001:00089110       ?g_Log@Class_Microsoft_Singularity_Tracing@@SIXEPAUClass_System_String@@0PAUuintPtr@@@Z 0208a110 f   native.Full:Tracing.obj
 0001:000891e0       ?g_Log@Class_Microsoft_Singularity_Tracing@@SIXEPAUClass_System_String@@0PAUuintPtr@@1@Z 0208a1e0 f   native.Full:Tracing.obj
 0001:000892b0       ?g_Log@Class_Microsoft_Singularity_Tracing@@SIXEPAUClass_System_String@@00@Z 0208a2b0 f   native.Full:Tracing.obj
 0001:00089390       ?LogExceptionInfo@@YIXPAUuintPtr@@0PAUClass_System_String@@@Z 0208a390 f   native.Full:Tracing.obj
 0001:00089400       ?ConvertToChars@@YIPADPADPA_WH@Z 0208a400 f   native.Full:EventController.obj
 0001:00089430       ?g_FetchLocalStorage@Class_Microsoft_Singularity_Eventing_LocalController@@SIPAUuintPtr@@XZ 0208a430 f   native.Full:EventController.obj
 0001:00089440       ?g_SetRepositoryStorage@Class_Microsoft_Singularity_Eventing_LocalController@@SI_NPAUuintPtr@@@Z 0208a440 f   native.Full:EventController.obj
 0001:00089460       ?g_RegisterStorageImpl@Class_Microsoft_Singularity_Eventing_LocalController@@SI_NPAUuintPtr@@@Z 0208a460 f   native.Full:EventController.obj
 0001:00089490       ?g_UnRegisterStorageImpl@Class_Microsoft_Singularity_Eventing_LocalController@@SIXPAUuintPtr@@@Z 0208a490 f   native.Full:EventController.obj
 0001:000894c0       ?g_AllocateSourceHandleImpl@Class_Microsoft_Singularity_Eventing_LocalController@@SIPAUuintPtr@@PAUClass_System_String@@@Z 0208a4c0 f   native.Full:EventController.obj
 0001:00089570       ?g_RegisterSourceStorageImpl@Class_Microsoft_Singularity_Eventing_LocalController@@SIXPAUuintPtr@@0I@Z 0208a570 f   native.Full:EventController.obj
 0001:000895c0       ?g_RegisterActiveSourceImpl@Class_Microsoft_Singularity_Eventing_LocalController@@SIXPAUuintPtr@@00GG@Z 0208a5c0 f   native.Full:EventController.obj
 0001:00089620       ?g_UnRegisterSourceImpl@Class_Microsoft_Singularity_Eventing_LocalController@@SIXPAUuintPtr@@@Z 0208a620 f   native.Full:EventController.obj
 0001:00089660       ?g_GetControllerHandle@Class_Microsoft_Singularity_Eventing_LocalController@@SI_NPAPAUuintPtr@@0@Z 0208a660 f   native.Full:EventController.obj
 0001:00089670       ?g_QueryNativeSourceInfo@Class_Microsoft_Singularity_Eventing_LocalController@@SI_NPAUuintPtr@@PAPAU2@PA_WG@Z 0208a670 f   native.Full:EventController.obj
 0001:000896e0       ?g_QuerySystemSources@Class_Microsoft_Singularity_Eventing_LocalController@@SIHPAPAUuintPtr@@G@Z 0208a6e0 f   native.Full:EventController.obj
 0001:00089710       __alldiv                   0208a710 f   native.Full:_lldiv.obj
 0001:000897c0       __allrem                   0208a7c0 f   native.Full:_llrem.obj
 0001:00089880       __aulldiv                  0208a880 f   native.Full:_ulldiv.obj
 0001:000898f0       __aullrem                  0208a8f0 f   native.Full:_ullrem.obj
 0001:00089970       __throwDispatcherExplicitAddrAfter 0208a970 f   native.Full:lib.obj
 0001:000899aa       ?g_ZeroPages@Class_System_Buffer@@SIXPAEH@Z 0208a9aa f   native.Full:lib.obj
 0001:000899de       ?g_CopyPages@Class_System_Buffer@@SIXPAE0H@Z 0208a9de f   native.Full:lib.obj
 0001:00089b10       ?ExceptionTableLookup@@YI_KPAUClass_System_Exception@@I@Z 0208ab10 f   native.Full:halexn.obj
 0001:00089c60       ?GetFieldSize@@YIGG@Z      0208ac60 f   native.Full:EventDescriptor.obj
 0001:00089cc0       ?RegisterFieldDescriptorImplementation@@YIPAU_MEMORY_HEADER@@HPAU1@PAXIGG@Z 0208acc0 f   native.Full:EventDescriptor.obj
 0001:00089dd0       ?RegisterGenericFieldDescriptorImplementation@@YIPAU_MEMORY_HEADER@@HPAU1@PAXIGGPAUuintPtr@@@Z 0208add0 f   native.Full:EventDescriptor.obj
 0001:00089ef0       ?RegisterEnumDescriptorImplementation@@YIPAU_MEMORY_HEADER@@HPAXGG@Z 0208aef0 f   native.Full:EventDescriptor.obj
 0001:00089f60       ?RegisterValueDescriptorImplementation@@YIPAU_MEMORY_HEADER@@HPAU1@PAXI_KE@Z 0208af60 f   native.Full:EventDescriptor.obj
 0001:0008a030       ?RegisterNativeTypes@@YIXXZ 0208b030 f   native.Full:EventDescriptor.obj
 0001:0008a9a0       ?g_Initialize@Class_Microsoft_Singularity_Monitoring@@SIXXZ 0208b9a0 f   native.Full:Monitoring.obj
 0001:0008a9c0       ?_cinit@@YAHXZ             0208b9c0 f   native.Full:CInit.obj
 0001:0008aa10       ?InitializeMemoryZone@@YIPAU_MEMORY_ZONE@@PAXGPAUuintPtr@@@Z 0208ba10 f   native.Full:ZoneAllocation.obj
 0001:0008aa80       ?MarkZoneFull@@YIXPAU_MEMORY_ZONE@@@Z 0208ba80 f   native.Full:ZoneAllocation.obj
 0001:0008ab00       ?MarkZoneCommited@@YIXPAU_MEMORY_ZONE@@@Z 0208bb00 f   native.Full:ZoneAllocation.obj
 0001:0008ab80       ?AllocateEventEntry@@YIPAU_MEMORY_HEADER@@PAU_MEMORY_ZONE@@G@Z 0208bb80 f   native.Full:ZoneAllocation.obj
 0001:0008acc0       ?CommitEventEntry@@YIXPAU_MEMORY_HEADER@@@Z 0208bcc0 f   native.Full:ZoneAllocation.obj
 0001:0008ad70       ?IsZoneCompleted@@YI_NPAU_MEMORY_ZONE@@@Z 0208bd70 f   native.Full:ZoneAllocation.obj
 0001:0008ada0       ?RecycleZone@@YI_NPAU_MEMORY_ZONE@@@Z 0208bda0 f   native.Full:ZoneAllocation.obj
 0001:0008ae80       _memcpy                    0208be80 f   native.Full:_memcpy.obj
 0001:0008b1bd       _memmove                   0208c1bd f   native.Full:_memcpy.obj
 0001:0008b1c6       ?g_Dispose@Struct_Microsoft_Singularity_V1_Services_EndpointCore@@SI_NPAU1@@Z 0208c1c6 f   singularity.V1.Full:Singularity.V1.dll
 0001:0008b1cc       ?g_Free@Struct_Microsoft_Singularity_V1_Services_EndpointCore@@SIXPAUStruct_Microsoft_Singularity_V1_Services_SharedHeapService_Allocation@@@Z 0208c1cc f   singularity.V1.Full:Singularity.V1.dll
 0001:0008b1d2       ?g_GetPeerABI@Struct_Microsoft_Singularity_V1_Services_EndpointCore@@SIPAUStruct_Microsoft_Singularity_V1_Services_SharedHeapService_Allocation@@PAU1@PA_N@Z 0208c1d2 f   singularity.V1.Full:Singularity.V1.dll
 0001:0008b1d8       ?g_MarshallMessage@Struct_Microsoft_Singularity_V1_Services_EndpointCore@@SIXPAU1@PAE1PAHH@Z 0208c1d8 f   singularity.V1.Full:Singularity.V1.dll
 0001:0008b1de       ?g_MarshallPointer@Struct_Microsoft_Singularity_V1_Services_EndpointCore@@SIXPAU1@PAEPAPAEUStruct_Microsoft_Singularity_V1_Types_SystemType@@1H@Z 0208c1de f   singularity.V1.Full:Singularity.V1.dll
 0001:0008b1e4       ?g_NotifyPeer@Struct_Microsoft_Singularity_V1_Services_EndpointCore@@SIXPAU1@@Z 0208c1e4 f   singularity.V1.Full:Singularity.V1.dll
 0001:0008b1ea       ?g_PeerClosedABI@Struct_Microsoft_Singularity_V1_Services_EndpointCore@@SI_NPAU1@@Z 0208c1ea f   singularity.V1.Full:Singularity.V1.dll
 0001:0008b1f0       ?g_TransferBlockOwnership@Struct_Microsoft_Singularity_V1_Services_EndpointCore@@SIXPAUStruct_Microsoft_Singularity_V1_Services_SharedHeapService_Allocation@@PAU1@@Z 0208c1f0 f   singularity.V1.Full:Singularity.V1.dll
 0001:0008b1f6       ?g_TransferContentOwnership@Struct_Microsoft_Singularity_V1_Services_EndpointCore@@SIXPAU1@0@Z 0208c1f6 f   singularity.V1.Full:Singularity.V1.dll
 0001:0008b1fc       ?g_DisableInterrupts@Struct_Microsoft_Singularity_V1_Services_PlatformService@@SI_NXZ 0208c1fc f   singularity.V1.Full:Singularity.V1.dll
 0001:0008b202       ?g_InterruptsDisabled@Struct_Microsoft_Singularity_V1_Services_PlatformService@@SI_NXZ 0208c202 f   singularity.V1.Full:Singularity.V1.dll
 0001:0008b208       ?g_RestoreInterrupts@Struct_Microsoft_Singularity_V1_Services_PlatformService@@SIX_N@Z 0208c208 f   singularity.V1.Full:Singularity.V1.dll
 0001:0008b20e       ?g_CreateImpl@Struct_Microsoft_Singularity_V1_Threads_AutoResetEventHandle@@SI_N_NPAU1@@Z 0208c20e f   singularity.V1.Full:Singularity.V1.dll
 0001:0008b214       ?g_Dispose@Struct_Microsoft_Singularity_V1_Threads_AutoResetEventHandle@@SIXU1@@Z 0208c214 f   singularity.V1.Full:Singularity.V1.dll
 0001:0008b21a       ?g_Set@Struct_Microsoft_Singularity_V1_Threads_AutoResetEventHandle@@SI_NU1@@Z 0208c21a f   singularity.V1.Full:Singularity.V1.dll
 0001:0008b220       ?g_SetNoGC@Struct_Microsoft_Singularity_V1_Threads_AutoResetEventHandle@@SI_NU1@@Z 0208c220 f   singularity.V1.Full:Singularity.V1.dll
 0001:0008b226       ?g_WaitAny@Struct_Microsoft_Singularity_V1_Threads_SyncHandle@@SIHPAU1@H@Z 0208c226 f   singularity.V1.Full:Singularity.V1.dll
 0001:0008b22c       ?g_WaitOne@Struct_Microsoft_Singularity_V1_Threads_SyncHandle@@SI_NU1@UStruct_System_SchedulerTime@@@Z 0208c22c f   singularity.V1.Full:Singularity.V1.dll
 0001:0008b232       ?g_WaitOne@Struct_Microsoft_Singularity_V1_Threads_SyncHandle@@SI_NU1@UStruct_System_TimeSpan@@@Z 0208c232 f   singularity.V1.Full:Singularity.V1.dll
 0001:0008b238       ?g_WaitOne@Struct_Microsoft_Singularity_V1_Threads_SyncHandle@@SI_NU1@@Z 0208c238 f   singularity.V1.Full:Singularity.V1.dll
 0001:0008b23e       ?g_WaitOneNoGC@Struct_Microsoft_Singularity_V1_Threads_SyncHandle@@SI_NU1@@Z 0208c23e f   singularity.V1.Full:Singularity.V1.dll
 0001:0008b244       ?g_GetDmaPhysicalAddressImpl@Struct_Microsoft_Singularity_V1_Services_DeviceService@@SI_NPAUuintPtr@@PAPAU2@1@Z 0208c244 f   singularity.V1.Full:Singularity.V1.dll
 0001:0008b24a       ?g_GetDynamicIoDmaRangeImpl@Struct_Microsoft_Singularity_V1_Services_DeviceService@@SI_NIPAE0@Z 0208c24a f   singularity.V1.Full:Singularity.V1.dll
 0001:0008b250       ?g_GetDynamicIoIrqRangeImpl@Struct_Microsoft_Singularity_V1_Services_DeviceService@@SI_NIPAE0@Z 0208c250 f   singularity.V1.Full:Singularity.V1.dll
 0001:0008b256       ?g_GetDynamicIoMemoryRangeImpl@Struct_Microsoft_Singularity_V1_Services_DeviceService@@SI_NIPAPAEPAIPA_N2@Z 0208c256 f   singularity.V1.Full:Singularity.V1.dll
 0001:0008b25c       ?g_GetDynamicIoPortRangeImpl@Struct_Microsoft_Singularity_V1_Services_DeviceService@@SI_NIPAG0PA_N1@Z 0208c25c f   singularity.V1.Full:Singularity.V1.dll
 0001:0008b262       ?g_GetDynamicIoRangeCount@Struct_Microsoft_Singularity_V1_Services_DeviceService@@SIIXZ 0208c262 f   singularity.V1.Full:Singularity.V1.dll
 0001:0008b268       ?g_GetFixedIoDmaRangeImpl@Struct_Microsoft_Singularity_V1_Services_DeviceService@@SI_NIPAE0@Z 0208c268 f   singularity.V1.Full:Singularity.V1.dll
 0001:0008b26e       ?g_GetFixedIoIrqRangeImpl@Struct_Microsoft_Singularity_V1_Services_DeviceService@@SI_NIPAE0@Z 0208c26e f   singularity.V1.Full:Singularity.V1.dll
 0001:0008b274       ?g_GetFixedIoMemoryRangeImpl@Struct_Microsoft_Singularity_V1_Services_DeviceService@@SI_NIPAPAEPAIPA_N2@Z 0208c274 f   singularity.V1.Full:Singularity.V1.dll
 0001:0008b27a       ?g_GetFixedIoPortRangeImpl@Struct_Microsoft_Singularity_V1_Services_DeviceService@@SI_NIPAG0PA_N1@Z 0208c27a f   singularity.V1.Full:Singularity.V1.dll
 0001:0008b280       ?g_GetFixedIoRangeCount@Struct_Microsoft_Singularity_V1_Services_DeviceService@@SIIXZ 0208c280 f   singularity.V1.Full:Singularity.V1.dll
 0001:0008b286       ?g_GetIrqCount@Struct_Microsoft_Singularity_V1_Services_DeviceService@@SIHE@Z 0208c286 f   singularity.V1.Full:Singularity.V1.dll
 0001:0008b28c       ?g_GetPciPort@Struct_Microsoft_Singularity_V1_Services_DeviceService@@SI_NPAUStruct_Microsoft_Singularity_V1_Services_PciPortHandle@@@Z 0208c28c f   singularity.V1.Full:Singularity.V1.dll
 0001:0008b292       ?g_GetPnpSignature@Struct_Microsoft_Singularity_V1_Services_DeviceService@@SIIHPA_WI@Z 0208c292 f   singularity.V1.Full:Singularity.V1.dll
 0001:0008b298       ?g_Ack@Struct_Microsoft_Singularity_V1_Threads_InterruptHandle@@SI_NU1@@Z 0208c298 f   singularity.V1.Full:Singularity.V1.dll
 0001:0008b29e       ?g_CreateImpl@Struct_Microsoft_Singularity_V1_Threads_InterruptHandle@@SI_NEPAU1@@Z 0208c29e f   singularity.V1.Full:Singularity.V1.dll
 0001:0008b2a4       ?g_Dispose@Struct_Microsoft_Singularity_V1_Threads_InterruptHandle@@SI_NU1@@Z 0208c2a4 f   singularity.V1.Full:Singularity.V1.dll
 0001:0008b2aa       ?g_Pulse@Struct_Microsoft_Singularity_V1_Threads_InterruptHandle@@SIXU1@@Z 0208c2aa f   singularity.V1.Full:Singularity.V1.dll
 0001:0008b2b0       ?g_Wait@Struct_Microsoft_Singularity_V1_Threads_InterruptHandle@@SI_NU1@@Z 0208c2b0 f   singularity.V1.Full:Singularity.V1.dll
 0001:0008b2b6       ?g_AllocateStackSegmentAbi@Struct_Microsoft_Singularity_V1_Services_StackService@@SIPAUuintPtr@@PAU2@@Z 0208c2b6 f   singularity.V1.Full:Singularity.V1.dll
 0001:0008b2bc       ?g_FreeStackSegmentAbi@Struct_Microsoft_Singularity_V1_Services_StackService@@SIXXZ 0208c2bc f   singularity.V1.Full:Singularity.V1.dll
 0001:0008b2c2       ?g_StackOverflowImpl@Struct_Microsoft_Singularity_V1_Services_StackService@@SIXXZ 0208c2c2 f   singularity.V1.Full:Singularity.V1.dll
 0001:0008b2c8       ?g_Read32Impl@Struct_Microsoft_Singularity_V1_Services_PciPortHandle@@SI_NU1@HPAI@Z 0208c2c8 f   singularity.V1.Full:Singularity.V1.dll
 0001:0008b2ce       ?g_Read8Impl@Struct_Microsoft_Singularity_V1_Services_PciPortHandle@@SI_NU1@HPAE@Z 0208c2ce f   singularity.V1.Full:Singularity.V1.dll
 0001:0008b2d4       ?g_Write32@Struct_Microsoft_Singularity_V1_Services_PciPortHandle@@SI_NU1@HI@Z 0208c2d4 f   singularity.V1.Full:Singularity.V1.dll
 0001:0008b2da       ?g_AddToPerfCounter@Struct_Microsoft_Singularity_V1_Services_DebugService@@SI_NI_K@Z 0208c2da f   singularity.V1.Full:Singularity.V1.dll
 0001:0008b2e0       ?g_Break@Struct_Microsoft_Singularity_V1_Services_DebugService@@SIXXZ 0208c2e0 f   singularity.V1.Full:Singularity.V1.dll
 0001:0008b2e6       ?g_IsDebuggerPresent@Struct_Microsoft_Singularity_V1_Services_DebugService@@SI_NXZ 0208c2e6 f   singularity.V1.Full:Singularity.V1.dll
 0001:0008b2ec       ?g_PrintBeginImpl@Struct_Microsoft_Singularity_V1_Services_DebugService@@SIXPAPA_WPAH@Z 0208c2ec f   singularity.V1.Full:Singularity.V1.dll
 0001:0008b2f2       ?g_PrintComplete@Struct_Microsoft_Singularity_V1_Services_DebugService@@SIXPA_WH@Z 0208c2f2 f   singularity.V1.Full:Singularity.V1.dll
 0001:0008b2f8       ?g_CloseGlobalStorage@Struct_Microsoft_Singularity_V1_Services_DiagnosisService@@SIXPAUuintPtr@@@Z 0208c2f8 f   singularity.V1.Full:Singularity.V1.dll
 0001:0008b2fe       ?g_DebugPrintLogEntry@Struct_Microsoft_Singularity_V1_Services_DiagnosisService@@SI_NPAUuintPtr@@0@Z 0208c2fe f   singularity.V1.Full:Singularity.V1.dll
 0001:0008b304       ?g_GCProfileSettings@Struct_Microsoft_Singularity_V1_Services_DiagnosisService@@SIHPA_K0@Z 0208c304 f   singularity.V1.Full:Singularity.V1.dll
 0001:0008b30a       ?g_RegisterEventingController@Struct_Microsoft_Singularity_V1_Services_DiagnosisService@@SI_NPAUuintPtr@@0@Z 0208c30a f   singularity.V1.Full:Singularity.V1.dll
 0001:0008b310       ?g_IsSubtype@Struct_Microsoft_Singularity_V1_Types_SystemType@@SI_NPAUStruct_Microsoft_Singularity_V1_Services_SharedHeapService_Allocation@@U1@@Z 0208c310 f   singularity.V1.Full:Singularity.V1.dll
 0001:0008b316       ?g_Register@Struct_Microsoft_Singularity_V1_Types_SystemType@@SI?AU1@PA_WH_J1U1@@Z 0208c316 f   singularity.V1.Full:Singularity.V1.dll
 0001:0008b31c       ?g_RootSystemType@Struct_Microsoft_Singularity_V1_Types_SystemType@@SI?AU1@XZ 0208c31c f   singularity.V1.Full:Singularity.V1.dll
 0001:0008b322       ?g_CreateImpl@Struct_Microsoft_Singularity_V1_Threads_ThreadHandle@@SI_NHUStruct_Microsoft_Singularity_V1_Threads_ContainerHandle@@PAU1@PAPAUuintPtr@@@Z 0208c322 f   singularity.V1.Full:Singularity.V1.dll
 0001:0008b328       ?g_CurrentThread@Struct_Microsoft_Singularity_V1_Threads_ThreadHandle@@SI?AU1@XZ 0208c328 f   singularity.V1.Full:Singularity.V1.dll
 0001:0008b32e       ?g_Dispose@Struct_Microsoft_Singularity_V1_Threads_ThreadHandle@@SIXU1@@Z 0208c32e f   singularity.V1.Full:Singularity.V1.dll
 0001:0008b334       ?g_Sleep@Struct_Microsoft_Singularity_V1_Threads_ThreadHandle@@SIXUStruct_System_TimeSpan@@@Z 0208c334 f   singularity.V1.Full:Singularity.V1.dll
 0001:0008b33a       ?g_Start@Struct_Microsoft_Singularity_V1_Threads_ThreadHandle@@SIXU1@@Z 0208c33a f   singularity.V1.Full:Singularity.V1.dll
 0001:0008b340       ?g_Allocate@Struct_Microsoft_Singularity_V1_Services_PageTableService@@SIPAUuintPtr@@PAU2@@Z 0208c340 f   singularity.V1.Full:Singularity.V1.dll
 0001:0008b346       ?g_AllocateIOMemory@Struct_Microsoft_Singularity_V1_Services_PageTableService@@SIIIII@Z 0208c346 f   singularity.V1.Full:Singularity.V1.dll
 0001:0008b34c       ?g_Free@Struct_Microsoft_Singularity_V1_Services_PageTableService@@SIXPAUuintPtr@@0@Z 0208c34c f   singularity.V1.Full:Singularity.V1.dll
 0001:0008b352       ?g_GetBaseAddress@Struct_Microsoft_Singularity_V1_Services_PageTableService@@SIIXZ 0208c352 f   singularity.V1.Full:Singularity.V1.dll
 0001:0008b358       ?g_GetPageCount@Struct_Microsoft_Singularity_V1_Services_PageTableService@@SIIXZ 0208c358 f   singularity.V1.Full:Singularity.V1.dll
 0001:0008b35e       ?g_GetPageTable@Struct_Microsoft_Singularity_V1_Services_PageTableService@@SIPAIXZ 0208c35e f   singularity.V1.Full:Singularity.V1.dll
 0001:0008b364       ?g_GetProcessTag@Struct_Microsoft_Singularity_V1_Services_PageTableService@@SIIXZ 0208c364 f   singularity.V1.Full:Singularity.V1.dll
 0001:0008b36a       ?g_QueryImpl@Struct_Microsoft_Singularity_V1_Services_PageTableService@@SI_NPAUuintPtr@@PAPAU2@1@Z 0208c36a f   singularity.V1.Full:Singularity.V1.dll
 0001:0008b370       ?g_GetCurrentProcessId@Struct_Microsoft_Singularity_V1_Services_ProcessService@@SIGXZ 0208c370 f   singularity.V1.Full:Singularity.V1.dll
 0001:0008b376       ?g_GetCycleCount@Struct_Microsoft_Singularity_V1_Services_ProcessService@@SI_JXZ 0208c376 f   singularity.V1.Full:Singularity.V1.dll
 0001:0008b37c       ?g_GetCyclesPerSecond@Struct_Microsoft_Singularity_V1_Services_ProcessService@@SI_JXZ 0208c37c f   singularity.V1.Full:Singularity.V1.dll
 0001:0008b382       ?g_GetSharedSourceHandlesImpl@Struct_Microsoft_Singularity_V1_Services_ProcessService@@SI_NIPAPAUuintPtr@@00@Z 0208c382 f   singularity.V1.Full:Singularity.V1.dll
 0001:0008b388       ?g_GetStartupArg@Struct_Microsoft_Singularity_V1_Services_ProcessService@@SIHHPA_WH@Z 0208c388 f   singularity.V1.Full:Singularity.V1.dll
 0001:0008b38e       ?g_GetStartupEndpoint@Struct_Microsoft_Singularity_V1_Services_ProcessService@@SIPAUStruct_Microsoft_Singularity_V1_Services_SharedHeapService_Allocation@@H@Z 0208c38e f   singularity.V1.Full:Singularity.V1.dll
 0001:0008b394       ?g_GetUpTime@Struct_Microsoft_Singularity_V1_Services_ProcessService@@SI?AUStruct_System_TimeSpan@@XZ 0208c394 f   singularity.V1.Full:Singularity.V1.dll
 0001:0008b39a       ?g_SetGcPerformanceCounters@Struct_Microsoft_Singularity_V1_Services_ProcessService@@SIXUStruct_System_TimeSpan@@_J@Z 0208c39a f   singularity.V1.Full:Singularity.V1.dll
 0001:0008b3a0       ?g_Allocate@Struct_Microsoft_Singularity_V1_Services_SharedHeapService@@SIPAUStruct_Microsoft_Singularity_V1_Services_SharedHeapService_Allocation@@PAUuintPtr@@UStruct_Microsoft_Singularity_V1_Types_SystemType@@I@Z 0208c3a0 f   singularity.V1.Full:Singularity.V1.dll
 0001:0008b3a6       ?g_Free@Struct_Microsoft_Singularity_V1_Services_SharedHeapService@@SI_NPAUStruct_Microsoft_Singularity_V1_Services_SharedHeapService_Allocation@@@Z 0208c3a6 f   singularity.V1.Full:Singularity.V1.dll
 0001:0008b3ac       ?g_CreateImpl@Struct_Microsoft_Singularity_V1_Threads_ManualResetEventHandle@@SI_N_NPAU1@@Z 0208c3ac f   singularity.V1.Full:Singularity.V1.dll
 0001:0008b3b2       ?g_Dispose@Struct_Microsoft_Singularity_V1_Threads_ManualResetEventHandle@@SIXU1@@Z 0208c3b2 f   singularity.V1.Full:Singularity.V1.dll
 0001:0008b3b8       ?g_Reset@Struct_Microsoft_Singularity_V1_Threads_ManualResetEventHandle@@SI_NU1@@Z 0208c3b8 f   singularity.V1.Full:Singularity.V1.dll
 0001:0008b3be       ?g_Set@Struct_Microsoft_Singularity_V1_Threads_ManualResetEventHandle@@SI_NU1@@Z 0208c3be f   singularity.V1.Full:Singularity.V1.dll
 0001:0008b3c4       ?g_CreateImpl@Struct_Microsoft_Singularity_V1_Threads_MutexHandle@@SI_N_NPAU1@@Z 0208c3c4 f   singularity.V1.Full:Singularity.V1.dll
 0001:0008b3ca       ?g_Dispose@Struct_Microsoft_Singularity_V1_Threads_MutexHandle@@SIXU1@@Z 0208c3ca f   singularity.V1.Full:Singularity.V1.dll
 0001:0008b3d0       ?g_IsOwnedByCurrentThread@Struct_Microsoft_Singularity_V1_Threads_MutexHandle@@SI_NU1@@Z 0208c3d0 f   singularity.V1.Full:Singularity.V1.dll
 0001:0008b3d6       ?g_Release@Struct_Microsoft_Singularity_V1_Threads_MutexHandle@@SIXU1@@Z 0208c3d6 f   singularity.V1.Full:Singularity.V1.dll
 0001:0008b3dc       ?g_Print@Struct_Microsoft_Singularity_V1_Services_DebugService@@SIXPA_WH@Z 0208c3dc f   singularity.V1.Full:Singularity.V1.dll
 0001:0008b3e2       ?g_GetProcessorContextOffset@Struct_Microsoft_Singularity_V1_Services_PlatformService@@SIHXZ 0208c3e2 f   singularity.V1.Full:Singularity.V1.dll
 0001:0008b3e8       ?g_GetThreadContextOffset@Struct_Microsoft_Singularity_V1_Services_PlatformService@@SIHXZ 0208c3e8 f   singularity.V1.Full:Singularity.V1.dll
 0001:0008b3ee       ?g_SuspendBarrier@Struct_Microsoft_Singularity_V1_Processes_ProcessHandle@@SIXXZ 0208c3ee f   singularity.V1.Full:Singularity.V1.dll
 0002:00000000       __imp_?g_Dispose@Struct_Microsoft_Singularity_V1_Services_EndpointCore@@SI_NPAU1@@Z 0208d000     singularity.V1.Full:Singularity.V1.dll
 0002:00000004       __imp_?g_Free@Struct_Microsoft_Singularity_V1_Services_EndpointCore@@SIXPAUStruct_Microsoft_Singularity_V1_Services_SharedHeapService_Allocation@@@Z 0208d004     singularity.V1.Full:Singularity.V1.dll
 0002:00000008       __imp_?g_GetPeerABI@Struct_Microsoft_Singularity_V1_Services_EndpointCore@@SIPAUStruct_Microsoft_Singularity_V1_Services_SharedHeapService_Allocation@@PAU1@PA_N@Z 0208d008     singularity.V1.Full:Singularity.V1.dll
 0002:0000000c       __imp_?g_MarshallMessage@Struct_Microsoft_Singularity_V1_Services_EndpointCore@@SIXPAU1@PAE1PAHH@Z 0208d00c     singularity.V1.Full:Singularity.V1.dll
 0002:00000010       __imp_?g_MarshallPointer@Struct_Microsoft_Singularity_V1_Services_EndpointCore@@SIXPAU1@PAEPAPAEUStruct_Microsoft_Singularity_V1_Types_SystemType@@1H@Z 0208d010     singularity.V1.Full:Singularity.V1.dll
 0002:00000014       __imp_?g_NotifyPeer@Struct_Microsoft_Singularity_V1_Services_EndpointCore@@SIXPAU1@@Z 0208d014     singularity.V1.Full:Singularity.V1.dll
 0002:00000018       __imp_?g_PeerClosedABI@Struct_Microsoft_Singularity_V1_Services_EndpointCore@@SI_NPAU1@@Z 0208d018     singularity.V1.Full:Singularity.V1.dll
 0002:0000001c       __imp_?g_TransferBlockOwnership@Struct_Microsoft_Singularity_V1_Services_EndpointCore@@SIXPAUStruct_Microsoft_Singularity_V1_Services_SharedHeapService_Allocation@@PAU1@@Z 0208d01c     singularity.V1.Full:Singularity.V1.dll
 0002:00000020       __imp_?g_TransferContentOwnership@Struct_Microsoft_Singularity_V1_Services_EndpointCore@@SIXPAU1@0@Z 0208d020     singularity.V1.Full:Singularity.V1.dll
 0002:00000024       __imp_?g_DisableInterrupts@Struct_Microsoft_Singularity_V1_Services_PlatformService@@SI_NXZ 0208d024     singularity.V1.Full:Singularity.V1.dll
 0002:00000028       __imp_?g_InterruptsDisabled@Struct_Microsoft_Singularity_V1_Services_PlatformService@@SI_NXZ 0208d028     singularity.V1.Full:Singularity.V1.dll
 0002:0000002c       __imp_?g_RestoreInterrupts@Struct_Microsoft_Singularity_V1_Services_PlatformService@@SIX_N@Z 0208d02c     singularity.V1.Full:Singularity.V1.dll
 0002:00000030       __imp_?g_CreateImpl@Struct_Microsoft_Singularity_V1_Threads_AutoResetEventHandle@@SI_N_NPAU1@@Z 0208d030     singularity.V1.Full:Singularity.V1.dll
 0002:00000034       __imp_?g_Dispose@Struct_Microsoft_Singularity_V1_Threads_AutoResetEventHandle@@SIXU1@@Z 0208d034     singularity.V1.Full:Singularity.V1.dll
 0002:00000038       __imp_?g_Set@Struct_Microsoft_Singularity_V1_Threads_AutoResetEventHandle@@SI_NU1@@Z 0208d038     singularity.V1.Full:Singularity.V1.dll
 0002:0000003c       __imp_?g_SetNoGC@Struct_Microsoft_Singularity_V1_Threads_AutoResetEventHandle@@SI_NU1@@Z 0208d03c     singularity.V1.Full:Singularity.V1.dll
 0002:00000040       __imp_?g_WaitAny@Struct_Microsoft_Singularity_V1_Threads_SyncHandle@@SIHPAU1@H@Z 0208d040     singularity.V1.Full:Singularity.V1.dll
 0002:00000044       __imp_?g_WaitOne@Struct_Microsoft_Singularity_V1_Threads_SyncHandle@@SI_NU1@UStruct_System_SchedulerTime@@@Z 0208d044     singularity.V1.Full:Singularity.V1.dll
 0002:00000048       __imp_?g_WaitOne@Struct_Microsoft_Singularity_V1_Threads_SyncHandle@@SI_NU1@UStruct_System_TimeSpan@@@Z 0208d048     singularity.V1.Full:Singularity.V1.dll
 0002:0000004c       __imp_?g_WaitOne@Struct_Microsoft_Singularity_V1_Threads_SyncHandle@@SI_NU1@@Z 0208d04c     singularity.V1.Full:Singularity.V1.dll
 0002:00000050       __imp_?g_WaitOneNoGC@Struct_Microsoft_Singularity_V1_Threads_SyncHandle@@SI_NU1@@Z 0208d050     singularity.V1.Full:Singularity.V1.dll
 0002:00000054       __imp_?g_GetDmaPhysicalAddressImpl@Struct_Microsoft_Singularity_V1_Services_DeviceService@@SI_NPAUuintPtr@@PAPAU2@1@Z 0208d054     singularity.V1.Full:Singularity.V1.dll
 0002:00000058       __imp_?g_GetDynamicIoDmaRangeImpl@Struct_Microsoft_Singularity_V1_Services_DeviceService@@SI_NIPAE0@Z 0208d058     singularity.V1.Full:Singularity.V1.dll
 0002:0000005c       __imp_?g_GetDynamicIoIrqRangeImpl@Struct_Microsoft_Singularity_V1_Services_DeviceService@@SI_NIPAE0@Z 0208d05c     singularity.V1.Full:Singularity.V1.dll
 0002:00000060       __imp_?g_GetDynamicIoMemoryRangeImpl@Struct_Microsoft_Singularity_V1_Services_DeviceService@@SI_NIPAPAEPAIPA_N2@Z 0208d060     singularity.V1.Full:Singularity.V1.dll
 0002:00000064       __imp_?g_GetDynamicIoPortRangeImpl@Struct_Microsoft_Singularity_V1_Services_DeviceService@@SI_NIPAG0PA_N1@Z 0208d064     singularity.V1.Full:Singularity.V1.dll
 0002:00000068       __imp_?g_GetDynamicIoRangeCount@Struct_Microsoft_Singularity_V1_Services_DeviceService@@SIIXZ 0208d068     singularity.V1.Full:Singularity.V1.dll
 0002:0000006c       __imp_?g_GetFixedIoDmaRangeImpl@Struct_Microsoft_Singularity_V1_Services_DeviceService@@SI_NIPAE0@Z 0208d06c     singularity.V1.Full:Singularity.V1.dll
 0002:00000070       __imp_?g_GetFixedIoIrqRangeImpl@Struct_Microsoft_Singularity_V1_Services_DeviceService@@SI_NIPAE0@Z 0208d070     singularity.V1.Full:Singularity.V1.dll
 0002:00000074       __imp_?g_GetFixedIoMemoryRangeImpl@Struct_Microsoft_Singularity_V1_Services_DeviceService@@SI_NIPAPAEPAIPA_N2@Z 0208d074     singularity.V1.Full:Singularity.V1.dll
 0002:00000078       __imp_?g_GetFixedIoPortRangeImpl@Struct_Microsoft_Singularity_V1_Services_DeviceService@@SI_NIPAG0PA_N1@Z 0208d078     singularity.V1.Full:Singularity.V1.dll
 0002:0000007c       __imp_?g_GetFixedIoRangeCount@Struct_Microsoft_Singularity_V1_Services_DeviceService@@SIIXZ 0208d07c     singularity.V1.Full:Singularity.V1.dll
 0002:00000080       __imp_?g_GetIrqCount@Struct_Microsoft_Singularity_V1_Services_DeviceService@@SIHE@Z 0208d080     singularity.V1.Full:Singularity.V1.dll
 0002:00000084       __imp_?g_GetPciPort@Struct_Microsoft_Singularity_V1_Services_DeviceService@@SI_NPAUStruct_Microsoft_Singularity_V1_Services_PciPortHandle@@@Z 0208d084     singularity.V1.Full:Singularity.V1.dll
 0002:00000088       __imp_?g_GetPnpSignature@Struct_Microsoft_Singularity_V1_Services_DeviceService@@SIIHPA_WI@Z 0208d088     singularity.V1.Full:Singularity.V1.dll
 0002:0000008c       __imp_?g_Ack@Struct_Microsoft_Singularity_V1_Threads_InterruptHandle@@SI_NU1@@Z 0208d08c     singularity.V1.Full:Singularity.V1.dll
 0002:00000090       __imp_?g_CreateImpl@Struct_Microsoft_Singularity_V1_Threads_InterruptHandle@@SI_NEPAU1@@Z 0208d090     singularity.V1.Full:Singularity.V1.dll
 0002:00000094       __imp_?g_Dispose@Struct_Microsoft_Singularity_V1_Threads_InterruptHandle@@SI_NU1@@Z 0208d094     singularity.V1.Full:Singularity.V1.dll
 0002:00000098       __imp_?g_Pulse@Struct_Microsoft_Singularity_V1_Threads_InterruptHandle@@SIXU1@@Z 0208d098     singularity.V1.Full:Singularity.V1.dll
 0002:0000009c       __imp_?g_Wait@Struct_Microsoft_Singularity_V1_Threads_InterruptHandle@@SI_NU1@@Z 0208d09c     singularity.V1.Full:Singularity.V1.dll
 0002:000000a0       __imp_?g_AllocateStackSegmentAbi@Struct_Microsoft_Singularity_V1_Services_StackService@@SIPAUuintPtr@@PAU2@@Z 0208d0a0     singularity.V1.Full:Singularity.V1.dll
 0002:000000a4       __imp_?g_FreeStackSegmentAbi@Struct_Microsoft_Singularity_V1_Services_StackService@@SIXXZ 0208d0a4     singularity.V1.Full:Singularity.V1.dll
 0002:000000a8       __imp_?g_StackOverflowImpl@Struct_Microsoft_Singularity_V1_Services_StackService@@SIXXZ 0208d0a8     singularity.V1.Full:Singularity.V1.dll
 0002:000000ac       __imp_?g_Read32Impl@Struct_Microsoft_Singularity_V1_Services_PciPortHandle@@SI_NU1@HPAI@Z 0208d0ac     singularity.V1.Full:Singularity.V1.dll
 0002:000000b0       __imp_?g_Read8Impl@Struct_Microsoft_Singularity_V1_Services_PciPortHandle@@SI_NU1@HPAE@Z 0208d0b0     singularity.V1.Full:Singularity.V1.dll
 0002:000000b4       __imp_?g_Write32@Struct_Microsoft_Singularity_V1_Services_PciPortHandle@@SI_NU1@HI@Z 0208d0b4     singularity.V1.Full:Singularity.V1.dll
 0002:000000b8       __imp_?g_AddToPerfCounter@Struct_Microsoft_Singularity_V1_Services_DebugService@@SI_NI_K@Z 0208d0b8     singularity.V1.Full:Singularity.V1.dll
 0002:000000bc       __imp_?g_Break@Struct_Microsoft_Singularity_V1_Services_DebugService@@SIXXZ 0208d0bc     singularity.V1.Full:Singularity.V1.dll
 0002:000000c0       __imp_?g_IsDebuggerPresent@Struct_Microsoft_Singularity_V1_Services_DebugService@@SI_NXZ 0208d0c0     singularity.V1.Full:Singularity.V1.dll
 0002:000000c4       __imp_?g_PrintBeginImpl@Struct_Microsoft_Singularity_V1_Services_DebugService@@SIXPAPA_WPAH@Z 0208d0c4     singularity.V1.Full:Singularity.V1.dll
 0002:000000c8       __imp_?g_PrintComplete@Struct_Microsoft_Singularity_V1_Services_DebugService@@SIXPA_WH@Z 0208d0c8     singularity.V1.Full:Singularity.V1.dll
 0002:000000cc       __imp_?g_CloseGlobalStorage@Struct_Microsoft_Singularity_V1_Services_DiagnosisService@@SIXPAUuintPtr@@@Z 0208d0cc     singularity.V1.Full:Singularity.V1.dll
 0002:000000d0       __imp_?g_DebugPrintLogEntry@Struct_Microsoft_Singularity_V1_Services_DiagnosisService@@SI_NPAUuintPtr@@0@Z 0208d0d0     singularity.V1.Full:Singularity.V1.dll
 0002:000000d4       __imp_?g_GCProfileSettings@Struct_Microsoft_Singularity_V1_Services_DiagnosisService@@SIHPA_K0@Z 0208d0d4     singularity.V1.Full:Singularity.V1.dll
 0002:000000d8       __imp_?g_RegisterEventingController@Struct_Microsoft_Singularity_V1_Services_DiagnosisService@@SI_NPAUuintPtr@@0@Z 0208d0d8     singularity.V1.Full:Singularity.V1.dll
 0002:000000dc       __imp_?g_IsSubtype@Struct_Microsoft_Singularity_V1_Types_SystemType@@SI_NPAUStruct_Microsoft_Singularity_V1_Services_SharedHeapService_Allocation@@U1@@Z 0208d0dc     singularity.V1.Full:Singularity.V1.dll
 0002:000000e0       __imp_?g_Register@Struct_Microsoft_Singularity_V1_Types_SystemType@@SI?AU1@PA_WH_J1U1@@Z 0208d0e0     singularity.V1.Full:Singularity.V1.dll
 0002:000000e4       __imp_?g_RootSystemType@Struct_Microsoft_Singularity_V1_Types_SystemType@@SI?AU1@XZ 0208d0e4     singularity.V1.Full:Singularity.V1.dll
 0002:000000e8       __imp_?g_CreateImpl@Struct_Microsoft_Singularity_V1_Threads_ThreadHandle@@SI_NHUStruct_Microsoft_Singularity_V1_Threads_ContainerHandle@@PAU1@PAPAUuintPtr@@@Z 0208d0e8     singularity.V1.Full:Singularity.V1.dll
 0002:000000ec       __imp_?g_CurrentThread@Struct_Microsoft_Singularity_V1_Threads_ThreadHandle@@SI?AU1@XZ 0208d0ec     singularity.V1.Full:Singularity.V1.dll
 0002:000000f0       __imp_?g_Dispose@Struct_Microsoft_Singularity_V1_Threads_ThreadHandle@@SIXU1@@Z 0208d0f0     singularity.V1.Full:Singularity.V1.dll
 0002:000000f4       __imp_?g_Sleep@Struct_Microsoft_Singularity_V1_Threads_ThreadHandle@@SIXUStruct_System_TimeSpan@@@Z 0208d0f4     singularity.V1.Full:Singularity.V1.dll
 0002:000000f8       __imp_?g_Start@Struct_Microsoft_Singularity_V1_Threads_ThreadHandle@@SIXU1@@Z 0208d0f8     singularity.V1.Full:Singularity.V1.dll
 0002:000000fc       __imp_?g_Allocate@Struct_Microsoft_Singularity_V1_Services_PageTableService@@SIPAUuintPtr@@PAU2@@Z 0208d0fc     singularity.V1.Full:Singularity.V1.dll
 0002:00000100       __imp_?g_AllocateIOMemory@Struct_Microsoft_Singularity_V1_Services_PageTableService@@SIIIII@Z 0208d100     singularity.V1.Full:Singularity.V1.dll
 0002:00000104       __imp_?g_Free@Struct_Microsoft_Singularity_V1_Services_PageTableService@@SIXPAUuintPtr@@0@Z 0208d104     singularity.V1.Full:Singularity.V1.dll
 0002:00000108       __imp_?g_GetBaseAddress@Struct_Microsoft_Singularity_V1_Services_PageTableService@@SIIXZ 0208d108     singularity.V1.Full:Singularity.V1.dll
 0002:0000010c       __imp_?g_GetPageCount@Struct_Microsoft_Singularity_V1_Services_PageTableService@@SIIXZ 0208d10c     singularity.V1.Full:Singularity.V1.dll
 0002:00000110       __imp_?g_GetPageTable@Struct_Microsoft_Singularity_V1_Services_PageTableService@@SIPAIXZ 0208d110     singularity.V1.Full:Singularity.V1.dll
 0002:00000114       __imp_?g_GetProcessTag@Struct_Microsoft_Singularity_V1_Services_PageTableService@@SIIXZ 0208d114     singularity.V1.Full:Singularity.V1.dll
 0002:00000118       __imp_?g_QueryImpl@Struct_Microsoft_Singularity_V1_Services_PageTableService@@SI_NPAUuintPtr@@PAPAU2@1@Z 0208d118     singularity.V1.Full:Singularity.V1.dll
 0002:0000011c       __imp_?g_GetCurrentProcessId@Struct_Microsoft_Singularity_V1_Services_ProcessService@@SIGXZ 0208d11c     singularity.V1.Full:Singularity.V1.dll
 0002:00000120       __imp_?g_GetCycleCount@Struct_Microsoft_Singularity_V1_Services_ProcessService@@SI_JXZ 0208d120     singularity.V1.Full:Singularity.V1.dll
 0002:00000124       __imp_?g_GetCyclesPerSecond@Struct_Microsoft_Singularity_V1_Services_ProcessService@@SI_JXZ 0208d124     singularity.V1.Full:Singularity.V1.dll
 0002:00000128       __imp_?g_GetSharedSourceHandlesImpl@Struct_Microsoft_Singularity_V1_Services_ProcessService@@SI_NIPAPAUuintPtr@@00@Z 0208d128     singularity.V1.Full:Singularity.V1.dll
 0002:0000012c       __imp_?g_GetStartupArg@Struct_Microsoft_Singularity_V1_Services_ProcessService@@SIHHPA_WH@Z 0208d12c     singularity.V1.Full:Singularity.V1.dll
 0002:00000130       __imp_?g_GetStartupEndpoint@Struct_Microsoft_Singularity_V1_Services_ProcessService@@SIPAUStruct_Microsoft_Singularity_V1_Services_SharedHeapService_Allocation@@H@Z 0208d130     singularity.V1.Full:Singularity.V1.dll
 0002:00000134       __imp_?g_GetUpTime@Struct_Microsoft_Singularity_V1_Services_ProcessService@@SI?AUStruct_System_TimeSpan@@XZ 0208d134     singularity.V1.Full:Singularity.V1.dll
 0002:00000138       __imp_?g_SetGcPerformanceCounters@Struct_Microsoft_Singularity_V1_Services_ProcessService@@SIXUStruct_System_TimeSpan@@_J@Z 0208d138     singularity.V1.Full:Singularity.V1.dll
 0002:0000013c       __imp_?g_Allocate@Struct_Microsoft_Singularity_V1_Services_SharedHeapService@@SIPAUStruct_Microsoft_Singularity_V1_Services_SharedHeapService_Allocation@@PAUuintPtr@@UStruct_Microsoft_Singularity_V1_Types_SystemType@@I@Z 0208d13c     singularity.V1.Full:Singularity.V1.dll
 0002:00000140       __imp_?g_Free@Struct_Microsoft_Singularity_V1_Services_SharedHeapService@@SI_NPAUStruct_Microsoft_Singularity_V1_Services_SharedHeapService_Allocation@@@Z 0208d140     singularity.V1.Full:Singularity.V1.dll
 0002:00000144       __imp_?g_CreateImpl@Struct_Microsoft_Singularity_V1_Threads_ManualResetEventHandle@@SI_N_NPAU1@@Z 0208d144     singularity.V1.Full:Singularity.V1.dll
 0002:00000148       __imp_?g_Dispose@Struct_Microsoft_Singularity_V1_Threads_ManualResetEventHandle@@SIXU1@@Z 0208d148     singularity.V1.Full:Singularity.V1.dll
 0002:0000014c       __imp_?g_Reset@Struct_Microsoft_Singularity_V1_Threads_ManualResetEventHandle@@SI_NU1@@Z 0208d14c     singularity.V1.Full:Singularity.V1.dll
 0002:00000150       __imp_?g_Set@Struct_Microsoft_Singularity_V1_Threads_ManualResetEventHandle@@SI_NU1@@Z 0208d150     singularity.V1.Full:Singularity.V1.dll
 0002:00000154       __imp_?g_CreateImpl@Struct_Microsoft_Singularity_V1_Threads_MutexHandle@@SI_N_NPAU1@@Z 0208d154     singularity.V1.Full:Singularity.V1.dll
 0002:00000158       __imp_?g_Dispose@Struct_Microsoft_Singularity_V1_Threads_MutexHandle@@SIXU1@@Z 0208d158     singularity.V1.Full:Singularity.V1.dll
 0002:0000015c       __imp_?g_IsOwnedByCurrentThread@Struct_Microsoft_Singularity_V1_Threads_MutexHandle@@SI_NU1@@Z 0208d15c     singularity.V1.Full:Singularity.V1.dll
 0002:00000160       __imp_?g_Release@Struct_Microsoft_Singularity_V1_Threads_MutexHandle@@SIXU1@@Z 0208d160     singularity.V1.Full:Singularity.V1.dll
 0002:00000164       __imp_?g_Print@Struct_Microsoft_Singularity_V1_Services_DebugService@@SIXPA_WH@Z 0208d164     singularity.V1.Full:Singularity.V1.dll
 0002:00000168       __imp_?g_GetProcessorContextOffset@Struct_Microsoft_Singularity_V1_Services_PlatformService@@SIHXZ 0208d168     singularity.V1.Full:Singularity.V1.dll
 0002:0000016c       __imp_?g_GetThreadContextOffset@Struct_Microsoft_Singularity_V1_Services_PlatformService@@SIHXZ 0208d16c     singularity.V1.Full:Singularity.V1.dll
 0002:00000170       __imp_?g_SuspendBarrier@Struct_Microsoft_Singularity_V1_Processes_ProcessHandle@@SIXXZ 0208d170     singularity.V1.Full:Singularity.V1.dll
 0002:00000174       \177Singularity.V1_NULL_THUNK_DATA 0208d174     singularity.V1.Full:Singularity.V1.dll
 0002:000001a0       c_roDataSectionBase@Class_System_GCs_StaticData 0208d1a0     DiskDrive.obj
 0002:00000228       ?brtmain@@3P6IHPAUClassVector_Class_System_String@@@ZA 0208d228     DiskDrive.obj
 0002:00000228       ?crtmain@@3P6AHHPAPAD@ZA   0208d228     DiskDrive.obj
 0002:00000228       ?crtwmain@@3P6AHHPAPA_W@ZA 0208d228     DiskDrive.obj
 0002:0000022c       ?brtmainReturnsInt@@3HA    0208d22c     DiskDrive.obj
 0002:00000230       ?brtmainClass@@3PAUClass_System_RuntimeType@@A 0208d230     DiskDrive.obj
 0002:00000234       ?charInput@@3_NA           0208d234     DiskDrive.obj
 0002:00000235       ?wcharInput@@3_NA          0208d235     DiskDrive.obj
 0002:0000088e       c_roDataSectionEnd@Class_System_GCs_StaticData 0208d88e     DiskDrive.obj
 0002:00000894       ?c_internedStringConstantsVector@Class_System_String@@2PAUClassVector_Class_System_String@@A 0208d894     DiskDrive.obj
 0002:00001dc0       ExceptionTable             0208edc0     DiskDrive.obj
 0002:00001dcc       ExceptionTableBase         0208edcc     DiskDrive.obj
 0002:00007364       ExceptionTableBound        02094364     DiskDrive.obj
 0002:00007370       returnAddressToCallSiteSetNumbers 02094370     DiskDrive.obj
 0002:0000d2d0       callSiteSetCount           0209a2d0     DiskDrive.obj
 0002:0000d2d4       callSetSiteNumberToIndex   0209a2d4     DiskDrive.obj
 0002:00010284       activationDescriptorTable  0209d284     DiskDrive.obj
 0002:000132a0       staticDataPointerBitMap    020a02a0     DiskDrive.obj
 0002:00014b40       ?c_useLinkedStack@Class_System_VTable@@2_NA 020a1b40     DiskDrive_superObj.obj
 0002:00014b50       ?TableBase@@3PAUTableEntry@@A 020a1b50     DiskDrive_superObj.obj
 0002:00014b58       ?TableBound@@3PAUTableEntry@@A 020a1b58     DiskDrive_superObj.obj
 0002:00014b60       ?c_returnAddressToCallSiteSetNumbers@Class_System_GCs_CallStack@@2PAPAIA 020a1b60     DiskDrive_superObj.obj
 0002:00014b64       ?returnAddressToCallSiteSetNumbersArray 020a1b64     DiskDrive_superObj.obj
 0002:00014b68       ?returnAddressToCallSiteSetNumbersArrayEnd 020a1b68     DiskDrive_superObj.obj
 0002:00014b68       ?c_callSiteTableCount@Class_System_GCs_CallStack@@2HA 020a1b68     DiskDrive_superObj.obj
 0002:00014b6c       ?c_callSiteSetCount@Class_System_GCs_CallStack@@2PAPAHA 020a1b6c     DiskDrive_superObj.obj
 0002:00014b70       ?callSiteSetCountArray     020a1b70     DiskDrive_superObj.obj
 0002:00014b74       ?c_callSetSiteNumberToIndex@Class_System_GCs_CallStack@@2PAPAGA 020a1b74     DiskDrive_superObj.obj
 0002:00014b74       ?callSiteSetCountArrayEnd  020a1b74     DiskDrive_superObj.obj
 0002:00014b78       ?callSetSiteNumberToIndexArray 020a1b78     DiskDrive_superObj.obj
 0002:00014b7c       ?c_activationDescriptorTable@Class_System_GCs_CallStack@@2PAPAUStruct_System_GCs_CompressedFrameDescriptor@@A 020a1b7c     DiskDrive_superObj.obj
 0002:00014b80       ?activationDescriptorArray 020a1b80     DiskDrive_superObj.obj
 0002:00014b84       ?activationDescriptorArrayEnd 020a1b84     DiskDrive_superObj.obj
 0002:00014b90       ?c_staticDataPointerBitMap@Class_System_GCs_StaticData@@2PAPAIA 020a1b90     DiskDrive_superObj.obj
 0002:00014b94       ?staticDataPointerBitMapsArray 020a1b94     DiskDrive_superObj.obj
 0002:00014b98       ?staticDataPointerBitMapsArrayEnd 020a1b98     DiskDrive_superObj.obj
 0002:00014ba0       ?c_dataSectionBase@Class_System_GCs_StaticData@@2PAPAIA 020a1ba0     DiskDrive_superObj.obj
 0002:00014ba4       ?dataSectionBaseArray      020a1ba4     DiskDrive_superObj.obj
 0002:00014ba8       ?dataSectionBaseArrayEnd   020a1ba8     DiskDrive_superObj.obj
 0002:00014ba8       ?c_dataSectionEnd@Class_System_GCs_StaticData@@2PAPAIA 020a1ba8     DiskDrive_superObj.obj
 0002:00014bac       ?dataSectionEndArray       020a1bac     DiskDrive_superObj.obj
 0002:00014bb0       ?dataSectionEndArrayEnd    020a1bb0     DiskDrive_superObj.obj
 0002:00014bb0       ?c_sectionCount@Class_System_GCs_StaticData@@2HA 020a1bb0     DiskDrive_superObj.obj
 0002:00014bc0       ?c_roDataSectionBase@Class_System_GCs_StaticData@@2PAPAIA 020a1bc0     DiskDrive_superObj.obj
 0002:00014bc4       ?roDataSectionBaseArray    020a1bc4     DiskDrive_superObj.obj
 0002:00014bc8       ?roDataSectionBaseArrayEnd 020a1bc8     DiskDrive_superObj.obj
 0002:00014bc8       ?c_roDataSectionEnd@Class_System_GCs_StaticData@@2PAPAIA 020a1bc8     DiskDrive_superObj.obj
 0002:00014bcc       ?roDataSectionEndArray     020a1bcc     DiskDrive_superObj.obj
 0002:00014bd0       ?c_codeBaseStartTable@Class_System_GCs_CallStack@@2PAIA 020a1bd0     DiskDrive_superObj.obj
 0002:00014bd0       ?roDataSectionEndArrayEnd  020a1bd0     DiskDrive_superObj.obj
 0002:00014bd4       ?codeBaseStartArray        020a1bd4     DiskDrive_superObj.obj
 0002:00014bd8       ?codeBaseStartArrayEnd     020a1bd8     DiskDrive_superObj.obj
 0002:00014bd8       ??_C@_04OJAHODMC@Text?$AA@ 020a1bd8     native.Full:EventDescriptor.obj
 0002:00014be0       ??_C@_07CPCPJPKL@version?$AA@ 020a1be0     native.Full:EventDescriptor.obj
 0002:00014be8       ??_C@_08FGCHIJMN@Provider?$AA@ 020a1be8     native.Full:EventDescriptor.obj
 0002:00014bf4       ??_C@_0CN@MCHNEOJN@?$HL0?$HN?3?$HL1?$HN?3?$HL2?$HN?3?$HL3?$HN?5?9?5?$CI?$HL4?$HN?0?$HL5?$HN?0?$HL6?$HN?0?$HL@ 020a1bf4     native.Full:EventDescriptor.obj
 0002:00014c24       ??_C@_0BI@MCHHPJCC@System?4MONITORING_ENTRY?$AA@ 020a1c24     native.Full:EventDescriptor.obj
 0002:00014c3c       ??_C@_07DANJEPLI@StrArg1?$AA@ 020a1c3c     native.Full:EventDescriptor.obj
 0002:00014c44       ??_C@_07CJMCHOPJ@StrArg0?$AA@ 020a1c44     native.Full:EventDescriptor.obj
 0002:00014c4c       ??_C@_04LDBACBBL@arg5?$AA@ 020a1c4c     native.Full:EventDescriptor.obj
 0002:00014c54       ??_C@_04KKALBAFK@arg4?$AA@ 020a1c54     native.Full:EventDescriptor.obj
 0002:00014c5c       ??_C@_04OFEKIGJN@arg3?$AA@ 020a1c5c     native.Full:EventDescriptor.obj
 0002:00014c64       ??_C@_04PMFBLHNM@arg2?$AA@ 020a1c64     native.Full:EventDescriptor.obj
 0002:00014c6c       ??_C@_04NHHMOEBP@arg1?$AA@ 020a1c6c     native.Full:EventDescriptor.obj
 0002:00014c74       ??_C@_04MOGHNFFO@arg0?$AA@ 020a1c74     native.Full:EventDescriptor.obj
 0002:00014c7c       ??_C@_03MLMOILGK@Msg?$AA@  020a1c7c     native.Full:EventDescriptor.obj
 0002:00014c80       ??_C@_03POOIBDAP@PID?$AA@  020a1c80     native.Full:EventDescriptor.obj
 0002:00014c84       ??_C@_08PHGLMIHD@severity?$AA@ 020a1c84     native.Full:EventDescriptor.obj
 0002:00014c90       ??_C@_0BB@CMJINLHH@Log?5?$HL0?$HN?3?$HL1?$HN?5?$HL3?$CK?$HN?$AA@ 020a1c90     native.Full:EventDescriptor.obj
 0002:00014ca4       ??_C@_0BI@OENOPLIK@System?4LEGACY_LOG_ENTRY?$AA@ 020a1ca4     native.Full:EventDescriptor.obj
 0002:00014cbc       ??_C@_05CALGBKNA@Roots?$AA@ 020a1cbc     native.Full:EventDescriptor.obj
 0002:00014cc4       ??_C@_0BA@HOFAOCFN@System?4GC_ROOTS?$AA@ 020a1cc4     native.Full:EventDescriptor.obj
 0002:00014cd4       ??_C@_0L@CKFPHHGA@Genrations?$AA@ 020a1cd4     native.Full:EventDescriptor.obj
 0002:00014ce0       ??_C@_0BG@JBMENCLG@System?4GC_GENERATIONS?$AA@ 020a1ce0     native.Full:EventDescriptor.obj
 0002:00014cf8       ??_C@_0O@MAFLGEBO@ParameterList?$AA@ 020a1cf8     native.Full:EventDescriptor.obj
 0002:00014d08       ??_C@_0BB@ENIHBHNB@System?4GC_OBJECT?$AA@ 020a1d08     native.Full:EventDescriptor.obj
 0002:00014d1c       ??_C@_07BPHJKENM@fncList?$AA@ 020a1d1c     native.Full:EventDescriptor.obj
 0002:00014d24       ??_C@_0BA@NJJBMNPE@System?4GC_STACK?$AA@ 020a1d24     native.Full:EventDescriptor.obj
 0002:00014d34       ??_C@_04FABLJDN@Name?$AA@  020a1d34     native.Full:EventDescriptor.obj
 0002:00014d3c       ??_C@_06BCNEEODO@TypeId?$AA@ 020a1d3c     native.Full:EventDescriptor.obj
 0002:00014d44       ??_C@_0P@KNGNNKPN@System?4GC_TYPE?$AA@ 020a1d44     native.Full:EventDescriptor.obj
 0002:00014d54       ??_C@_05NFMIDMMK@Delta?$AA@ 020a1d54     native.Full:EventDescriptor.obj
 0002:00014d5c       ??_C@_0BD@NCLJCGAP@System?4GC_INTERVAL?$AA@ 020a1d5c     native.Full:EventDescriptor.obj
 0002:00014d70       ??_C@_06ELFECKBG@Object?$AA@ 020a1d70     native.Full:EventDescriptor.obj
 0002:00014d78       ??_C@_05LMDDMFKK@StkNo?$AA@ 020a1d78     native.Full:EventDescriptor.obj
 0002:00014d80       ??_C@_0BF@DIODGDLN@System?4GC_ALLOCATION?$AA@ 020a1d80     native.Full:EventDescriptor.obj
 0002:00014d98       ??_C@_02MFEOMNPG@IP?$AA@   020a1d98     native.Full:EventDescriptor.obj
 0002:00014d9c       ??_C@_05PPBKPJLE@FnIdx?$AA@ 020a1d9c     native.Full:EventDescriptor.obj
 0002:00014da4       ??_C@_0BD@IGLEBJNP@System?4GC_FUNCTION?$AA@ 020a1da4     native.Full:EventDescriptor.obj
 0002:00014db8       ??_C@_0O@JCJIHLOH@ExceptionName?$AA@ 020a1db8     native.Full:EventDescriptor.obj
 0002:00014dc8       ??_C@_07DBMNFLDM@Handler?$AA@ 020a1dc8     native.Full:EventDescriptor.obj
 0002:00014dd0       ??_C@_09ELMAFJJG@ThrowFrom?$AA@ 020a1dd0     native.Full:EventDescriptor.obj
 0002:00014ddc       ??_C@_0BH@LPOFBINH@Throw?5?$HL0?$HN?0?5Handler?5?$HL1?$HN?$AA@ 020a1ddc     native.Full:EventDescriptor.obj
 0002:00014df4       ??_C@_0BF@OKDJFMJI@System?4LOG_EXCEPTION?$AA@ 020a1df4     native.Full:EventDescriptor.obj
 0002:00014e0c       ??_C@_05GCIPIGEI@Debug?$AA@ 020a1e0c     native.Full:EventDescriptor.obj
 0002:00014e14       ??_C@_05DBKMECD@Audit?$AA@ 020a1e14     native.Full:EventDescriptor.obj
 0002:00014e1c       ??_C@_05ILLBNNOP@Trace?$AA@ 020a1e1c     native.Full:EventDescriptor.obj
 0002:00014e24       ??_C@_06JHGCIHDH@Notice?$AA@ 020a1e24     native.Full:EventDescriptor.obj
 0002:00014e2c       ??_C@_07KGMMFLDN@Warning?$AA@ 020a1e2c     native.Full:EventDescriptor.obj
 0002:00014e34       ??_C@_05NAOIJFC@Error?$AA@ 020a1e34     native.Full:EventDescriptor.obj
 0002:00014e3c       ??_C@_05FHGOFLKH@Fatal?$AA@ 020a1e3c     native.Full:EventDescriptor.obj
 0002:00014e44       ??_C@_0BE@KACIDIKN@System?4LOG_SEVERITY?$AA@ 020a1e44     native.Full:EventDescriptor.obj
 0002:00014e58       ??_C@_03FBKDDCND@Cpu?$AA@  020a1e58     native.Full:EventDescriptor.obj
 0002:00014e5c       ??_C@_03HBIKIEFI@TID?$AA@  020a1e5c     native.Full:EventDescriptor.obj
 0002:00014e60       ??_C@_04KOACHJEN@Type?$AA@ 020a1e60     native.Full:EventDescriptor.obj
 0002:00014e68       ??_C@_09KDGENIOP@Timestamp?$AA@ 020a1e68     native.Full:EventDescriptor.obj
 0002:00014e74       ??_C@_05BOOEKJH@Flags?$AA@ 020a1e74     native.Full:EventDescriptor.obj
 0002:00014e7c       ??_C@_06GEMKPBPA@Offset?$AA@ 020a1e7c     native.Full:EventDescriptor.obj
 0002:00014e84       ??_C@_04CGLAFBGF@Link?$AA@ 020a1e84     native.Full:EventDescriptor.obj
 0002:00014e8c       ??_C@_04EBKMHHBE@Size?$AA@ 020a1e8c     native.Full:EventDescriptor.obj
 0002:00014e91       ??_C@_00CNPNBAHC@?$AA@     020a1e91     native.Full:EventDescriptor.obj
 0002:00014e94       ??_C@_0BF@HDPDLHJI@System?4MEMORY_HEADER?$AA@ 020a1e94     native.Full:EventDescriptor.obj
 0002:00014eac       __IMPORT_DESCRIPTOR_Singularity.V1 020a1eac     singularity.V1.Full:Singularity.V1.dll
 0002:00014ec0       __NULL_IMPORT_DESCRIPTOR   020a1ec0     singularity.V1.Full:Singularity.V1.dll
 0003:00000000       c_dataSectionBase@Class_System_GCs_StaticData 020a5000     DiskDrive.obj
 0003:00000010       ??_7System_Object@@6B@     020a5010     DiskDrive.obj
 0003:00000084       CorlibVersionInstance      020a5084     DiskDrive.obj
 0003:0000015c       CorlibassemblyNameInstance 020a515c     DiskDrive.obj
 0003:00000174       CorlibAssemblyInstance     020a5174     DiskDrive.obj
 0003:00000180       CorlibModuleInstance       020a5180     DiskDrive.obj
 0003:00000190       ?_type@Class_System_Object@@2UClass_System_RuntimeType@@A 020a5190     DiskDrive.obj
 0003:000001dc       ??_7System_VTable@@6B@     020a51dc     DiskDrive.obj
 0003:00000244       ?_type@Class_System_VTable@@2UClass_System_RuntimeType@@A 020a5244     DiskDrive.obj
 0003:00000290       ??_7System_Type@@6B@       020a5290     DiskDrive.obj
 0003:00000320       ?_type@Class_System_Type@@2UClass_System_RuntimeType@@A 020a5320     DiskDrive.obj
 0003:0000036c       ??_7System_RuntimeType@@6B@ 020a536c     DiskDrive.obj
 0003:000003fc       ?_type@Class_System_RuntimeType@@2U1@A 020a53fc     DiskDrive.obj
 0003:00000448       ??_7System_Globalization_NumberFormatInfo@@6B@ 020a5448     DiskDrive.obj
 0003:000004b0       ?_type@Class_System_Globalization_NumberFormatInfo@@2UClass_System_RuntimeType@@A 020a54b0     DiskDrive.obj
 0003:000004fc       ??_7Microsoft_Singularity_GCProfilerLogger_ProfilerBuffer@@6B@ 020a54fc     DiskDrive.obj
 0003:00000564       ?_type@Class_Microsoft_Singularity_GCProfilerLogger_ProfilerBuffer@@2UClass_System_RuntimeType@@A 020a5564     DiskDrive.obj
 0003:000005b0       ??_7Microsoft_Singularity_Configuration_CategoryDeclaration@@6B@ 020a55b0     DiskDrive.obj
 0003:00000618       ?_type@Class_Microsoft_Singularity_Configuration_CategoryDeclaration@@2UClass_System_RuntimeType@@A 020a5618     DiskDrive.obj
 0003:00000664       ??_7Microsoft_Singularity_Drivers_IDE_BusMasterDma@@6B@ 020a5664     DiskDrive.obj
 0003:000006cc       DiskDriveVersionInstance   020a56cc     DiskDrive.obj
 0003:000006f0       DiskDriveassemblyNameInstance 020a56f0     DiskDrive.obj
 0003:00000708       DiskDriveAssemblyInstance  020a5708     DiskDrive.obj
 0003:00000714       DiskDriveModuleInstance    020a5714     DiskDrive.obj
 0003:00000724       ?_type@Class_Microsoft_Singularity_Drivers_IDE_BusMasterDma@@2UClass_System_RuntimeType@@A 020a5724     DiskDrive.obj
 0003:00000770       ??_7System_ValueType@@6B@  020a5770     DiskDrive.obj
 0003:000007d8       ?_type@Class_System_ValueType@@2UClass_System_RuntimeType@@A 020a57d8     DiskDrive.obj
 0003:00000824       ??_7System_RuntimeFieldHandle@@6B@ 020a5824     DiskDrive.obj
 0003:0000088c       ?_type@Class_System_RuntimeFieldHandle@@2UClass_System_RuntimeType@@A 020a588c     DiskDrive.obj
 0003:000008d8       ??_7System_GCs_ObjectLayout_ObjectVisitor@@6B@ 020a58d8     DiskDrive.obj
 0003:00000944       ?_type@Class_System_GCs_ObjectLayout_ObjectVisitor@@2UClass_System_RuntimeType@@A 020a5944     DiskDrive.obj
 0003:00000990       ??_7System_Collections_IEnumerable@@6B@ 020a5990     DiskDrive.obj
 0003:000009e8       ?_type@Class_System_Collections_IEnumerable@@2UClass_System_RuntimeType@@A 020a59e8     DiskDrive.obj
 0003:00000a34       ??_7System_Collections_ICollection@@6B@ 020a5a34     DiskDrive.obj
 0003:00000a9c       ?_type@Class_System_Collections_ICollection@@2UClass_System_RuntimeType@@A 020a5a9c     DiskDrive.obj
 0003:00000ae8       ??_7System_Collections_IList@@6B@ 020a5ae8     DiskDrive.obj
 0003:00000b54       ?_type@Class_System_Collections_IList@@2UClass_System_RuntimeType@@A 020a5b54     DiskDrive.obj
 0003:00000ba0       ??_7System_ICloneable@@6B@ 020a5ba0     DiskDrive.obj
 0003:00000bf8       ?_type@Class_System_ICloneable@@2UClass_System_RuntimeType@@A 020a5bf8     DiskDrive.obj
 0003:00000c70       ??_7System_Array@@6B@      020a5c70     DiskDrive.obj
 0003:00000cf4       ?_type@Class_System_Array@@2UClass_System_RuntimeType@@A 020a5cf4     DiskDrive.obj
 0003:00000d40       ???_7vtable@ClassVector_int8@@2PAUClass_System_VTable@@A 020a5d40     DiskDrive.obj
 0003:00000da8       ?_type@ClassVector_int8@@2UClass_System_RuntimeType@@A 020a5da8     DiskDrive.obj
 0003:00000df4       ???_7vtable@ClassVector_int16@@2PAUClass_System_VTable@@A 020a5df4     DiskDrive.obj
 0003:00000e5c       ?_type@ClassVector_int16@@2UClass_System_RuntimeType@@A 020a5e5c     DiskDrive.obj
 0003:00000ea8       ??_7System_Exception@@6B@  020a5ea8     DiskDrive.obj
 0003:00000f14       ?_type@Class_System_Exception@@2UClass_System_RuntimeType@@A 020a5f14     DiskDrive.obj
 0003:00000f60       ??_7System_SystemException@@6B@ 020a5f60     DiskDrive.obj
 0003:00000fcc       ?_type@Class_System_SystemException@@2UClass_System_RuntimeType@@A 020a5fcc     DiskDrive.obj
 0003:00001018       ??_7System_ArgumentException@@6B@ 020a6018     DiskDrive.obj
 0003:00001084       ?_type@Class_System_ArgumentException@@2UClass_System_RuntimeType@@A 020a6084     DiskDrive.obj
 0003:000010d0       ??_7Microsoft_Singularity_V1_Services_EndpointCore@@6B@ 020a60d0     DiskDrive.obj
 0003:00001138       Singularity$_V1$_AppVersionInstance 020a6138     DiskDrive.obj
 0003:00001210       Singularity$_V1$_AppassemblyNameInstance 020a6210     DiskDrive.obj
 0003:00001228       Singularity$_V1$_AppAssemblyInstance 020a6228     DiskDrive.obj
 0003:00001234       Singularity$_V1$_AppModuleInstance 020a6234     DiskDrive.obj
 0003:00001244       ?_type@Class_Microsoft_Singularity_V1_Services_EndpointCore@@2UClass_System_RuntimeType@@A 020a6244     DiskDrive.obj
 0003:00001290       ??_7Microsoft_Singularity_Channels_ISelectable@@6B@ 020a6290     DiskDrive.obj
 0003:000012e8       ?_type@Class_Microsoft_Singularity_Channels_ISelectable@@2UClass_System_RuntimeType@@A 020a62e8     DiskDrive.obj
 0003:00001348       ??_7Microsoft_Singularity_Channels_Endpoint@@6B@ 020a6348     DiskDrive.obj
 0003:000013d0       Microsoft$_SingSharp$_RuntimeVersionInstance 020a63d0     DiskDrive.obj
 0003:000014a8       Microsoft$_SingSharp$_RuntimeassemblyNameInstance 020a64a8     DiskDrive.obj
 0003:000014c0       Microsoft$_SingSharp$_RuntimeAssemblyInstance 020a64c0     DiskDrive.obj
 0003:000014cc       Microsoft$_SingSharp$_RuntimeModuleInstance 020a64cc     DiskDrive.obj
 0003:000014dc       ?_type@Class_Microsoft_Singularity_Channels_Endpoint@@2UClass_System_RuntimeType@@A 020a64dc     DiskDrive.obj
 0003:00001528       ??_7Microsoft_Singularity_Io_DiskDeviceContract_Imp@@6B@ 020a6528     DiskDrive.obj
 0003:000015a0       Io$_ContractsVersionInstance 020a65a0     DiskDrive.obj
 0003:00001678       Io$_ContractsassemblyNameInstance 020a6678     DiskDrive.obj
 0003:00001690       Io$_ContractsAssemblyInstance 020a6690     DiskDrive.obj
 0003:0000169c       Io$_ContractsModuleInstance 020a669c     DiskDrive.obj
 0003:000016ac       ?_type@Class_Microsoft_Singularity_Io_DiskDeviceContract_Imp@@2UClass_System_RuntimeType@@A 020a66ac     DiskDrive.obj
 0003:000016f8       ??_7System_UpdateLog@@6B@  020a66f8     DiskDrive.obj
 0003:00001760       ?_type@Class_System_UpdateLog@@2UClass_System_RuntimeType@@A 020a6760     DiskDrive.obj
 0003:000017c0       ??_7System_Delegate@@6B@   020a67c0     DiskDrive.obj
 0003:00001838       ?_type@Class_System_Delegate@@2UClass_System_RuntimeType@@A 020a6838     DiskDrive.obj
 0003:00001884       ??_7System_MulticastDelegate@@6B@ 020a6884     DiskDrive.obj
 0003:000018ec       ?_type@Class_System_MulticastDelegate@@2UClass_System_RuntimeType@@A 020a68ec     DiskDrive.obj
 0003:00001938       ??_7System_Threading_ThreadStart@@6B@ 020a6938     DiskDrive.obj
 0003:000019ac       ?_type@Class_System_Threading_ThreadStart@@2UClass_System_RuntimeType@@A 020a69ac     DiskDrive.obj
 0003:000019f8       ??_7Microsoft_Singularity_Extending_ExtensionContract_Shutdown@@6B@ 020a69f8     DiskDrive.obj
 0003:00001a60       Directory$_ContractsVersionInstance 020a6a60     DiskDrive.obj
 0003:00001b38       Directory$_ContractsassemblyNameInstance 020a6b38     DiskDrive.obj
 0003:00001b50       Directory$_ContractsAssemblyInstance 020a6b50     DiskDrive.obj
 0003:00001b5c       Directory$_ContractsModuleInstance 020a6b5c     DiskDrive.obj
 0003:00001b6c       ?_type@Class_Microsoft_Singularity_Extending_ExtensionContract_Shutdown@@2UClass_System_RuntimeType@@A 020a6b6c     DiskDrive.obj
 0003:00001bb8       ??_7Microsoft_Singularity_Extending_ExtensionContract_Imp@@6B@ 020a6bb8     DiskDrive.obj
 0003:00001c30       ?_type@Class_Microsoft_Singularity_Extending_ExtensionContract_Imp@@2UClass_System_RuntimeType@@A 020a6c30     DiskDrive.obj
 0003:00001c7c       ??_7Microsoft_Singularity_Directory_ServiceContract@@6B@ 020a6c7c     DiskDrive.obj
 0003:00001ce4       ?_type@Class_Microsoft_Singularity_Directory_ServiceContract@@2UClass_System_RuntimeType@@A 020a6ce4     DiskDrive.obj
 0003:00001d30       ??_7Microsoft_Singularity_Io_VolumeManagerContract@@6B@ 020a6d30     DiskDrive.obj
 0003:00001d98       ?_type@Class_Microsoft_Singularity_Io_VolumeManagerContract@@2UClass_System_RuntimeType@@A 020a6d98     DiskDrive.obj
 0003:00001de4       ??_7System_Attribute@@6B@  020a6de4     DiskDrive.obj
 0003:00001e4c       ?_type@Class_System_Attribute@@2UClass_System_RuntimeType@@A 020a6e4c     DiskDrive.obj
 0003:00001e98       ??_7System_Runtime_CompilerServices_NoInlineAttribute@@6B@ 020a6e98     DiskDrive.obj
 0003:00001f00       ?_type@Class_System_Runtime_CompilerServices_NoInlineAttribute@@2UClass_System_RuntimeType@@A 020a6f00     DiskDrive.obj
 0003:00001f4c       ???_7vtable@ClassVector_Struct_System_TryAll@@2PAUClass_System_VTable@@A 020a6f4c     DiskDrive.obj
 0003:00001fb4       ?_type@ClassVector_Struct_System_TryAll@@2UClass_System_RuntimeType@@A 020a6fb4     DiskDrive.obj
 0003:00002000       ??_7Microsoft_Singularity_Isal_IX_uint128@@6B@ 020a7000     DiskDrive.obj
 0003:00002068       ?_type@Class_Microsoft_Singularity_Isal_IX_uint128@@2UClass_System_RuntimeType@@A 020a7068     DiskDrive.obj
 0003:000020b4       ??_7Microsoft_Singularity_Io_DeviceContract@@6B@ 020a70b4     DiskDrive.obj
 0003:0000211c       ?_type@Class_Microsoft_Singularity_Io_DeviceContract@@2UClass_System_RuntimeType@@A 020a711c     DiskDrive.obj
 0003:00002168       ??_7Microsoft_Singularity_Directory_ServiceContract_Exp@@6B@ 020a7168     DiskDrive.obj
 0003:000021e0       ?_type@Class_Microsoft_Singularity_Directory_ServiceContract_Exp@@2UClass_System_RuntimeType@@A 020a71e0     DiskDrive.obj
 0003:0000222c       ??_7Microsoft_Singularity_Extending_ExtensionContract_Exp@@6B@ 020a722c     DiskDrive.obj
 0003:000022a4       ?_type@Class_Microsoft_Singularity_Extending_ExtensionContract_Exp@@2UClass_System_RuntimeType@@A 020a72a4     DiskDrive.obj
 0003:000022f0       ??_7Microsoft_Singularity_AppRuntime@@6B@ 020a72f0     DiskDrive.obj
 0003:00002358       ?_type@Class_Microsoft_Singularity_AppRuntime@@2UClass_System_RuntimeType@@A 020a7358     DiskDrive.obj
 0003:000023a4       ??_7Microsoft_Singularity_PrivilegedGate@@6B@ 020a73a4     DiskDrive.obj
 0003:0000240c       ?_type@Class_Microsoft_Singularity_PrivilegedGate@@2UClass_System_RuntimeType@@A 020a740c     DiskDrive.obj
 0003:00002458       ??_7Microsoft_Singularity_Isal_IX_EFlags@@6B@ 020a7458     DiskDrive.obj
 0003:000024c0       ?_type@Class_Microsoft_Singularity_Isal_IX_EFlags@@2UClass_System_RuntimeType@@A 020a74c0     DiskDrive.obj
 0003:0000250c       ??_7System_IFormattable@@6B@ 020a750c     DiskDrive.obj
 0003:00002564       ?_type@Class_System_IFormattable@@2UClass_System_RuntimeType@@A 020a7564     DiskDrive.obj
 0003:000025c4       ??_7System_Enum@@6B@       020a75c4     DiskDrive.obj
 0003:00002644       ?_type@Class_System_Enum@@2UClass_System_RuntimeType@@A 020a7644     DiskDrive.obj
 0003:00002690       ??_7Microsoft_Bartok_Runtime_GCType@@6B@ 020a7690     DiskDrive.obj
 0003:00002700       ?_type@Class_Microsoft_Bartok_Runtime_GCType@@2UClass_System_RuntimeType@@A 020a7700     DiskDrive.obj
 0003:0000274c       ??_7System_Threading_ThreadQueueItem@@6B@ 020a774c     DiskDrive.obj
 0003:000027b4       ?_type@Class_System_Threading_ThreadQueueItem@@2UClass_System_RuntimeType@@A 020a77b4     DiskDrive.obj
 0003:00002800       ??_7System_GCs_PageTable@@6B@ 020a7800     DiskDrive.obj
 0003:00002868       ?_type@Class_System_GCs_PageTable@@2UClass_System_RuntimeType@@A 020a7868     DiskDrive.obj
 0003:000028b4       ??_7System_GCs_CalleeSaveRegisters@@6B@ 020a78b4     DiskDrive.obj
 0003:0000291c       ?_type@Class_System_GCs_CalleeSaveRegisters@@2UClass_System_RuntimeType@@A 020a791c     DiskDrive.obj
 0003:00002968       ??_7System_Single@@6B@     020a7968     DiskDrive.obj
 0003:000029d8       ?_type@Class_System_Single@@2UClass_System_RuntimeType@@A 020a79d8     DiskDrive.obj
 0003:00002a24       ??_7System_Text_Encoding@@6B@ 020a7a24     DiskDrive.obj
 0003:00002a8c       ?_type@Class_System_Text_Encoding@@2UClass_System_RuntimeType@@A 020a7a8c     DiskDrive.obj
 0003:00002ad8       ??_7System_Text_ASCIIEncoding@@6B@ 020a7ad8     DiskDrive.obj
 0003:00002b44       ?_type@Class_System_Text_ASCIIEncoding@@2UClass_System_RuntimeType@@A 020a7b44     DiskDrive.obj
 0003:00002b90       ??_7System_ArrayTypeMismatchException@@6B@ 020a7b90     DiskDrive.obj
 0003:00002bfc       ?_type@Class_System_ArrayTypeMismatchException@@2UClass_System_RuntimeType@@A 020a7bfc     DiskDrive.obj
 0003:00002c48       ??_7System_MultiUseWord@@6B@ 020a7c48     DiskDrive.obj
 0003:00002cb0       ?_type@Class_System_MultiUseWord@@2UClass_System_RuntimeType@@A 020a7cb0     DiskDrive.obj
 0003:00002cfc       ??_7System_StackHeight@@6B@ 020a7cfc     DiskDrive.obj
 0003:00002d64       ?_type@Class_System_StackHeight@@2UClass_System_RuntimeType@@A 020a7d64     DiskDrive.obj
 0003:00002db0       ??_7Microsoft_Singularity_Channels_StateStack@@6B@ 020a7db0     DiskDrive.obj
 0003:00002e18       ?_type@Class_Microsoft_Singularity_Channels_StateStack@@2UClass_System_RuntimeType@@A 020a7e18     DiskDrive.obj
 0003:00002e64       ??_7System_Threading_Thread@@6B@ 020a7e64     DiskDrive.obj
 0003:00002ecc       ?_type@Class_System_Threading_Thread@@2UClass_System_RuntimeType@@A 020a7ecc     DiskDrive.obj
 0003:00002f18       ??_7System_GCs_ReferenceVisitor@@6B@ 020a7f18     DiskDrive.obj
 0003:00002f8c       ?_type@Class_System_GCs_ReferenceVisitor@@2UClass_System_RuntimeType@@A 020a7f8c     DiskDrive.obj
 0003:00002fd8       ??_7System_GCs_DirectReferenceVisitor@@6B@ 020a7fd8     DiskDrive.obj
 0003:00003050       ?_type@Class_System_GCs_DirectReferenceVisitor@@2UClass_System_RuntimeType@@A 020a8050     DiskDrive.obj
 0003:0000309c       ??_7System_GCs_NonNullReferenceVisitor@@6B@ 020a809c     DiskDrive.obj
 0003:00003114       ?_type@Class_System_GCs_NonNullReferenceVisitor@@2UClass_System_RuntimeType@@A 020a8114     DiskDrive.obj
 0003:00003160       ??_7System_GCs_MarkSweepCollector_ThreadMarkReferenceVisitor@@6B@ 020a8160     DiskDrive.obj
 0003:000031d8       ?_type@Class_System_GCs_MarkSweepCollector_ThreadMarkReferenceVisitor@@2UClass_System_RuntimeType@@A 020a81d8     DiskDrive.obj
 0003:00003224       ??_7Microsoft_Singularity_Io_DiskDeviceContract_AckGetSectorCount@@6B@ 020a8224     DiskDrive.obj
 0003:0000328c       ?_type@Class_Microsoft_Singularity_Io_DiskDeviceContract_AckGetSectorCount@@2UClass_System_RuntimeType@@A 020a828c     DiskDrive.obj
 0003:000032d8       ??_7System_Globalization_CultureInfo@@6B@ 020a82d8     DiskDrive.obj
 0003:00003340       ?_type@Class_System_Globalization_CultureInfo@@2UClass_System_RuntimeType@@A 020a8340     DiskDrive.obj
 0003:0000338c       ???_7vtable@ClassVector_ClassVector_int32@@2PAUClass_System_VTable@@A 020a838c     DiskDrive.obj
 0003:000033f4       ?_type@ClassVector_ClassVector_int32@@2UClass_System_RuntimeType@@A 020a83f4     DiskDrive.obj
 0003:00003440       ??_7System_TryAllManager@@6B@ 020a8440     DiskDrive.obj
 0003:000034a8       ?_type@Class_System_TryAllManager@@2UClass_System_RuntimeType@@A 020a84a8     DiskDrive.obj
 0003:000034f4       ??_7Microsoft_Singularity_Isal_CpuRecord@@6B@ 020a84f4     DiskDrive.obj
 0003:0000355c       ?_type@Class_Microsoft_Singularity_Isal_CpuRecord@@2UClass_System_RuntimeType@@A 020a855c     DiskDrive.obj
 0003:000035a8       ??_7System_STMWord@@6B@    020a85a8     DiskDrive.obj
 0003:00003610       ?_type@Class_System_STMWord@@2UClass_System_RuntimeType@@A 020a8610     DiskDrive.obj
 0003:0000365c       ??_7Microsoft_Singularity_Isal_Isa_ICallback@@6B@ 020a865c     DiskDrive.obj
 0003:000036c8       ?_type@Class_Microsoft_Singularity_Isal_Isa_ICallback@@2UClass_System_RuntimeType@@A 020a86c8     DiskDrive.obj
 0003:00003714       ??_7Microsoft_Singularity_Io_DiskDeviceContract_Read@@6B@ 020a8714     DiskDrive.obj
 0003:0000377c       ?_type@Class_Microsoft_Singularity_Io_DiskDeviceContract_Read@@2UClass_System_RuntimeType@@A 020a877c     DiskDrive.obj
 0003:000037c8       ??_7Microsoft_Singularity_Io_DiskDeviceContract_GetDeviceName@@6B@ 020a87c8     DiskDrive.obj
 0003:00003830       ?_type@Class_Microsoft_Singularity_Io_DiskDeviceContract_GetDeviceName@@2UClass_System_RuntimeType@@A 020a8830     DiskDrive.obj
 0003:0000387c       ??_7System_Runtime_CompilerServices_ExternalEntryPointAttribute@@6B@ 020a887c     DiskDrive.obj
 0003:000038e4       ?_type@Class_System_Runtime_CompilerServices_ExternalEntryPointAttribute@@2UClass_System_RuntimeType@@A 020a88e4     DiskDrive.obj
 0003:00003930       ??_7Microsoft_Singularity_Eventing_EventSource@@6B@ 020a8930     DiskDrive.obj
 0003:0000399c       ?_type@Class_Microsoft_Singularity_Eventing_EventSource@@2UClass_System_RuntimeType@@A 020a899c     DiskDrive.obj
 0003:000039e8       ??_7Microsoft_Singularity_Eventing_ActiveSource@@6B@ 020a89e8     DiskDrive.obj
 0003:00003a54       ?_type@Class_Microsoft_Singularity_Eventing_ActiveSource@@2UClass_System_RuntimeType@@A 020a8a54     DiskDrive.obj
 0003:00003aa0       ??_7Microsoft_Singularity_Io_DiskDeviceContract_SystemId@@6B@ 020a8aa0     DiskDrive.obj
 0003:00003b08       ?_type@Class_Microsoft_Singularity_Io_DiskDeviceContract_SystemId@@2UClass_System_RuntimeType@@A 020a8b08     DiskDrive.obj
 0003:00003b54       ??_7System_GCs_Collector@@6B@ 020a8b54     DiskDrive.obj
 0003:00003c1c       ?_type@Class_System_GCs_Collector@@2UClass_System_RuntimeType@@A 020a8c1c     DiskDrive.obj
 0003:00003c68       ??_7System_GCs_BaseCollector@@6B@ 020a8c68     DiskDrive.obj
 0003:00003d40       ?_type@Class_System_GCs_BaseCollector@@2UClass_System_RuntimeType@@A 020a8d40     DiskDrive.obj
 0003:00003db0       ??_7System_Collections_Stack@@6B@ 020a8db0     DiskDrive.obj
 0003:00003e3c       ?_type@Class_System_Collections_Stack@@2UClass_System_RuntimeType@@A 020a8e3c     DiskDrive.obj
 0003:00003e88       ??_7Microsoft_Singularity_V1_Services_PlatformService@@6B@ 020a8e88     DiskDrive.obj
 0003:00003ef0       ?_type@Class_Microsoft_Singularity_V1_Services_PlatformService@@2UClass_System_RuntimeType@@A 020a8ef0     DiskDrive.obj
 0003:00003f3c       ??_7Microsoft_Singularity_Io_DiskDeviceContract_NoSystemId@@6B@ 020a8f3c     DiskDrive.obj
 0003:00003fa4       ?_type@Class_Microsoft_Singularity_Io_DiskDeviceContract_NoSystemId@@2UClass_System_RuntimeType@@A 020a8fa4     DiskDrive.obj
 0003:00003ff0       ??_7System_GCs_GCProfiler_OneObjectVisitor@@6B@ 020a8ff0     DiskDrive.obj
 0003:00004068       ?_type@Class_System_GCs_GCProfiler_OneObjectVisitor@@2UClass_System_RuntimeType@@A 020a9068     DiskDrive.obj
 0003:000040b4       ??_7System_Collections_Hashtable@@6B@ 020a90b4     DiskDrive.obj
 0003:00004134       ?_type@Class_System_Collections_Hashtable@@2UClass_System_RuntimeType@@A 020a9134     DiskDrive.obj
 0003:00004180       ??_7_Directory_Contracts_Microsoft_Singularity_Channels_TRef$_2$LMicrosoft_Singularity_Directory_ServiceProviderContract_Exp_Microsoft_Singularity_Directory_ServiceProviderContract_Start$G@@6B@ 020a9180     DiskDrive.obj
 0003:000041e8       ?_type@Class__Directory_Contracts_Microsoft_Singularity_Channels_TRef$_2$LMicrosoft_Singularity_Directory_ServiceProviderContract_Exp_Microsoft_Singularity_Directory_ServiceProviderContract_Start$G@@2UClass_System_RuntimeType@@A 020a91e8     DiskDrive.obj
 0003:00004234       ???_7vtable@ClassVector_Struct_System_UpdateLog_Entry@@2PAUClass_System_VTable@@A 020a9234     DiskDrive.obj
 0003:0000429c       ?_type@ClassVector_Struct_System_UpdateLog_Entry@@2UClass_System_RuntimeType@@A 020a929c     DiskDrive.obj
 0003:000042e8       ??_7System_ArithmeticException@@6B@ 020a92e8     DiskDrive.obj
 0003:00004354       ?_type@Class_System_ArithmeticException@@2UClass_System_RuntimeType@@A 020a9354     DiskDrive.obj
 0003:000043a0       ??_7System_OverflowException@@6B@ 020a93a0     DiskDrive.obj
 0003:0000440c       ?_type@Class_System_OverflowException@@2UClass_System_RuntimeType@@A 020a940c     DiskDrive.obj
 0003:00004458       ??_7System_ArgumentNullException@@6B@ 020a9458     DiskDrive.obj
 0003:000044c4       ?_type@Class_System_ArgumentNullException@@2UClass_System_RuntimeType@@A 020a94c4     DiskDrive.obj
 0003:00004510       ??_7Microsoft_Singularity_Memory_PhysicalAddress@@6B@ 020a9510     DiskDrive.obj
 0003:00004578       ?_type@Class_Microsoft_Singularity_Memory_PhysicalAddress@@2UClass_System_RuntimeType@@A 020a9578     DiskDrive.obj
 0003:000045c4       ??_7System_ApplicationException@@6B@ 020a95c4     DiskDrive.obj
 0003:00004630       ?_type@Class_System_ApplicationException@@2UClass_System_RuntimeType@@A 020a9630     DiskDrive.obj
 0003:0000467c       ??_7System_UpdateLog_EntryKind@@6B@ 020a967c     DiskDrive.obj
 0003:000046ec       ?_type@Class_System_UpdateLog_EntryKind@@2UClass_System_RuntimeType@@A 020a96ec     DiskDrive.obj
 0003:00004738       ???_7vtable@ClassVector_uintPtr@@2PAUClass_System_VTable@@A 020a9738     DiskDrive.obj
 0003:000047a0       ?_type@ClassVector_uintPtr@@2UClass_System_RuntimeType@@A 020a97a0     DiskDrive.obj
 0003:000047ec       ??_7Microsoft_Singularity_Isal_IX_Gdte64@@6B@ 020a97ec     DiskDrive.obj
 0003:00004854       ?_type@Class_Microsoft_Singularity_Isal_IX_Gdte64@@2UClass_System_RuntimeType@@A 020a9854     DiskDrive.obj
 0003:000048a0       ??_7System_Int32@@6B@      020a98a0     DiskDrive.obj
 0003:00004910       ?_type@Class_System_Int32@@2UClass_System_RuntimeType@@A 020a9910     DiskDrive.obj
 0003:0000495c       ??_7System_NotSupportedException@@6B@ 020a995c     DiskDrive.obj
 0003:000049c8       ?_type@Class_System_NotSupportedException@@2UClass_System_RuntimeType@@A 020a99c8     DiskDrive.obj
 0003:00004a14       ??_7System_GCs_MemoryAccounting_RuntimeTypeAccounting@@6B@ 020a9a14     DiskDrive.obj
 0003:00004a7c       ?_type@Class_System_GCs_MemoryAccounting_RuntimeTypeAccounting@@2UClass_System_RuntimeType@@A 020a9a7c     DiskDrive.obj
 0003:00004ac8       ??_7System_InvalidCastException@@6B@ 020a9ac8     DiskDrive.obj
 0003:00004b34       ?_type@Class_System_InvalidCastException@@2UClass_System_RuntimeType@@A 020a9b34     DiskDrive.obj
 0003:00004b80       ??_7Microsoft_Singularity_V1_Services_DeliveryHandle@@6B@ 020a9b80     DiskDrive.obj
 0003:00004be8       ?_type@Class_Microsoft_Singularity_V1_Services_DeliveryHandle@@2UClass_System_RuntimeType@@A 020a9be8     DiskDrive.obj
 0003:00004c34       ??_7Microsoft_Singularity_Isal_IX_Gdte@@6B@ 020a9c34     DiskDrive.obj
 0003:00004c9c       ?_type@Class_Microsoft_Singularity_Isal_IX_Gdte@@2UClass_System_RuntimeType@@A 020a9c9c     DiskDrive.obj
 0003:00004ce8       ??_7Microsoft_Singularity_Io_IoRange@@6B@ 020a9ce8     DiskDrive.obj
 0003:00004d50       ?_type@Class_Microsoft_Singularity_Io_IoRange@@2UClass_System_RuntimeType@@A 020a9d50     DiskDrive.obj
 0003:00004d9c       ??_7Microsoft_Singularity_Io_IoPortRange@@6B@ 020a9d9c     DiskDrive.obj
 0003:00004e04       ?_type@Class_Microsoft_Singularity_Io_IoPortRange@@2UClass_System_RuntimeType@@A 020a9e04     DiskDrive.obj
 0003:00004e50       ??_7Microsoft_Singularity_Monitoring@@6B@ 020a9e50     DiskDrive.obj
 0003:00004eb8       ?_type@Class_Microsoft_Singularity_Monitoring@@2UClass_System_RuntimeType@@A 020a9eb8     DiskDrive.obj
 0003:00004f04       ??_7Microsoft_Singularity_Eventing_Controller@@6B@ 020a9f04     DiskDrive.obj
 0003:00004f7c       ?_type@Class_Microsoft_Singularity_Eventing_Controller@@2UClass_System_RuntimeType@@A 020a9f7c     DiskDrive.obj
 0003:00004fc8       ??_7Microsoft_Singularity_Directory_ServiceProviderContract_NackConnect@@6B@ 020a9fc8     DiskDrive.obj
 0003:00005030       ?_type@Class_Microsoft_Singularity_Directory_ServiceProviderContract_NackConnect@@2UClass_System_RuntimeType@@A 020aa030     DiskDrive.obj
 0003:0000507c       ???_7vtable@ClassVector_Struct_System_Delegate_NativeDelegateRecord@@2PAUClass_System_VTable@@A 020aa07c     DiskDrive.obj
 0003:000050e4       ?_type@ClassVector_Struct_System_Delegate_NativeDelegateRecord@@2UClass_System_RuntimeType@@A 020aa0e4     DiskDrive.obj
 0003:00005130       ??_7System_TypeInfo@@6B@   020aa130     DiskDrive.obj
 0003:00005198       ?_type@Class_System_TypeInfo@@2UClass_System_RuntimeType@@A 020aa198     DiskDrive.obj
