 NetStack

 Timestamp is 62167214 (Wed Feb 23 18:42:44 2022)

 Preferred load address is 02000000

 Start         Length     Name                   Class
 0001:00000000 000fd8c2H .text                   CODE
 0002:00000000 00000134H .idata$5                DATA
 0002:00000140 0002ab29H .rdata                  DATA
 0002:0002ac6c 00000014H .idata$2                DATA
 0002:0002ac80 00000014H .idata$3                DATA
 0002:0002ac94 00000134H .idata$4                DATA
 0002:0002adc8 00001eaeH .idata$6                DATA
 0002:0002cc76 00000000H .edata                  DATA
 0002:0002cc78 0000007dH .rdata$debug            DATA
 0003:00000000 000563c0H .data                   DATA
 0003:000563c0 00000070H .bss                    DATA
 0004:00000000 00000004H .CRT$XCA                DATA
 0004:00000004 00000004H .CRT$XCZ                DATA
 0004:00000008 00000004H .CRT$XIA                DATA
 0004:0000000c 00000004H .CRT$XIZ                DATA
 0004:00000010 00000004H .CRT$XPA                DATA
 0004:00000014 00000004H .CRT$XPZ                DATA
 0004:00000018 00000004H .CRT$XTA                DATA
 0004:0000001c 00000004H .CRT$XTZ                DATA

  Address         Publics by Value              Rva+Base       Lib:Object

 0000:00000000       ___safe_se_handler_table   00000000     <absolute>
 0000:00000000       ___safe_se_handler_count   00000000     <absolute>
 0001:00000000       C:\Users\cc\source\repos\Singularity-OS\base.obj\AppNativeObj\Debug.x86.MarkSweep\NetStack_CodeBase 02001000     NetStack.obj
 0001:00000000       ?m_StructCopy@Struct_Microsoft_Singularity_Directory_DirectoryServiceContract_NakQueryACL@@SIXPAU1@0@Z 02001000 f   NetStack.obj
 0001:00000028       ?m_StructCopy@Struct_Microsoft_Singularity_Directory_DirectoryServiceContract_NakQueryACL@@SIXPAU1@PAU1@@Z 02001028 f   NetStack.obj
 0001:000000a0       ?m_Equals@Struct_Microsoft_Singularity_Directory_DirectoryServiceContract_NakQueryACL@@SI_NPAU1@PAUClass_System_Object@@@Z 020010a0 f   NetStack.obj
 0001:00000140       ?m_Equals@Struct_Microsoft_Singularity_Directory_DirectoryServiceContract_NakQueryACL@@SI_NPAUClass_Microsoft_Singularity_Directory_DirectoryServiceContract_NakQueryACL@@PAUClass_System_Object@@@Z 02001140 f   NetStack.obj
 0001:0000016c       ?m_StructCopy@Struct_Microsoft_Singularity_Directory_DirectoryServiceContract_AckDeleteLink@@SIXPAU1@0@Z 0200116c f   NetStack.obj
 0001:00000188       ?m_StructCopy@Struct_Microsoft_Singularity_Directory_DirectoryServiceContract_AckDeleteLink@@SIXPAU1@PAU1@@Z 02001188 f   NetStack.obj
 0001:000001dc       ?m_Equals@Struct_Microsoft_Singularity_Directory_DirectoryServiceContract_AckDeleteLink@@SI_NPAU1@PAUClass_System_Object@@@Z 020011dc f   NetStack.obj
 0001:00000214       ?m_Equals@Struct_Microsoft_Singularity_Directory_DirectoryServiceContract_AckDeleteLink@@SI_NPAUClass_Microsoft_Singularity_Directory_DirectoryServiceContract_AckDeleteLink@@PAUClass_System_Object@@@Z 02001214 f   NetStack.obj
 0001:00000240       ?m_StructCopy@Struct_Microsoft_Singularity_Directory_FileAttributesRecord@@SIXPAU1@0@Z 02001240 f   NetStack.obj
 0001:000002c8       ?m_StructCopy@Struct_Microsoft_Singularity_Directory_FileAttributesRecord@@SIXPAU1@PAU1@@Z 020012c8 f   NetStack.obj
 0001:00000460       ?m_Equals@Struct_Microsoft_Singularity_Directory_FileAttributesRecord@@SI_NPAU1@PAUClass_System_Object@@@Z 02001460 f   NetStack.obj
 0001:000005a8       ?m_Equals@Struct_Microsoft_Singularity_Directory_FileAttributesRecord@@SI_NPAUClass_Microsoft_Singularity_Directory_FileAttributesRecord@@PAUClass_System_Object@@@Z 020015a8 f   NetStack.obj
 0001:000005d4       ?m_StructCopy@Struct_Microsoft_Singularity_Directory_DirectoryServiceContract_AckDeleteFile@@SIXPAU1@0@Z 020015d4 f   NetStack.obj
 0001:000005f0       ?m_StructCopy@Struct_Microsoft_Singularity_Directory_DirectoryServiceContract_AckDeleteFile@@SIXPAU1@PAU1@@Z 020015f0 f   NetStack.obj
 0001:00000644       ?m_Equals@Struct_Microsoft_Singularity_Directory_DirectoryServiceContract_AckDeleteFile@@SI_NPAU1@PAUClass_System_Object@@@Z 02001644 f   NetStack.obj
 0001:0000067c       ?m_Equals@Struct_Microsoft_Singularity_Directory_DirectoryServiceContract_AckDeleteFile@@SI_NPAUClass_Microsoft_Singularity_Directory_DirectoryServiceContract_AckDeleteFile@@PAUClass_System_Object@@@Z 0200167c f   NetStack.obj
 0001:000006a8       ?m_StructCopy@Struct_NetStack_Contracts_UdpConnectionContract_Exp@@SIXPAU1@0@Z 020016a8 f   NetStack.obj
 0001:00000860       ?m_StructCopy@Struct_NetStack_Contracts_UdpConnectionContract_Exp@@SIXPAU1@PAU1@@Z 02001860 f   NetStack.obj
 0001:00000d88       ?m_SendReady@Struct_NetStack_Contracts_UdpConnectionContract_Exp@@SIXPAU1@@Z 02001d88 f   NetStack.obj
 0001:00000e7c       ?m_SendPort@Struct_NetStack_Contracts_UdpConnectionContract_Exp@@SIXPAU1@G@Z 02001e7c f   NetStack.obj
 0001:00001130       ?m_SendPollSelectResult@Struct_NetStack_Contracts_UdpConnectionContract_Exp@@SIXPAU1@_N@Z 02002130 f   NetStack.obj
 0001:00001504       ?m_SendOK@Struct_NetStack_Contracts_UdpConnectionContract_Exp@@SIXPAU1@@Z 02002504 f   NetStack.obj
 0001:00001924       ?m_SendNoData@Struct_NetStack_Contracts_UdpConnectionContract_Exp@@SIXPAU1@@Z 02002924 f   NetStack.obj
 0001:00001a98       ?m_SendIPAddress@Struct_NetStack_Contracts_UdpConnectionContract_Exp@@SIXPAU1@I@Z 02002a98 f   NetStack.obj
 0001:00001d40       ?m_SendInvalidEndPoint@Struct_NetStack_Contracts_UdpConnectionContract_Exp@@SIXPAU1@IG@Z 02002d40 f   NetStack.obj
 0001:00002170       ?m_SendDataTooLarge@Struct_NetStack_Contracts_UdpConnectionContract_Exp@@SIXPAU1@@Z 02003170 f   NetStack.obj
 0001:000023f8       ?m_SendData@Struct_NetStack_Contracts_UdpConnectionContract_Exp@@SIXPAU1@IGPAE@Z 020033f8 f   NetStack.obj
 0001:0000277c       ?m_Release@Struct_NetStack_Contracts_UdpConnectionContract_Exp@@SIXPAU1@@Z 0200377c f   NetStack.obj
 0001:00002798       ?m_RecvWriteTo@Struct_NetStack_Contracts_UdpConnectionContract_Exp@@SIXPAU1@PAIPAGPAPAE@Z 02003798 f   NetStack.obj
 0001:00002bc8       ?m_RecvWrite@Struct_NetStack_Contracts_UdpConnectionContract_Exp@@SIXPAU1@PAPAE@Z 02003bc8 f   NetStack.obj
 0001:00002d50       ?m_RecvRead@Struct_NetStack_Contracts_UdpConnectionContract_Exp@@SIXPAU1@@Z 02003d50 f   NetStack.obj
 0001:00002fe0       ?m_RecvPollSelectWrite@Struct_NetStack_Contracts_UdpConnectionContract_Exp@@SIXPAU1@PAH@Z 02003fe0 f   NetStack.obj
 0001:000033b0       ?m_RecvPollSelectRead@Struct_NetStack_Contracts_UdpConnectionContract_Exp@@SIXPAU1@PAH@Z 020043b0 f   NetStack.obj
 0001:00003780       ?m_RecvPollRead@Struct_NetStack_Contracts_UdpConnectionContract_Exp@@SIXPAU1@PAH@Z 02004780 f   NetStack.obj
 0001:00003a2c       ?m_RecvGetRemotePort@Struct_NetStack_Contracts_UdpConnectionContract_Exp@@SIXPAU1@@Z 02004a2c f   NetStack.obj
 0001:00003cbc       ?m_RecvGetRemoteAddress@Struct_NetStack_Contracts_UdpConnectionContract_Exp@@SIXPAU1@@Z 02004cbc f   NetStack.obj
 0001:00003f4c       ?m_RecvGetLocalPort@Struct_NetStack_Contracts_UdpConnectionContract_Exp@@SIXPAU1@@Z 02004f4c f   NetStack.obj
 0001:000041dc       ?m_RecvGetLocalAddress@Struct_NetStack_Contracts_UdpConnectionContract_Exp@@SIXPAU1@@Z 020051dc f   NetStack.obj
 0001:0000446c       ?m_RecvConnectWithAnyLocalEndPoint@Struct_NetStack_Contracts_UdpConnectionContract_Exp@@SIXPAU1@PAIPAG@Z 0200546c f   NetStack.obj
 0001:00004608       ?m_RecvConnect@Struct_NetStack_Contracts_UdpConnectionContract_Exp@@SIXPAU1@PAIPAG12@Z 02005608 f   NetStack.obj
 0001:00004914       ?m_RecvClose@Struct_NetStack_Contracts_UdpConnectionContract_Exp@@SIXPAU1@@Z 02005914 f   NetStack.obj
 0001:00004cb8       ?m_RecvBindLocalEndPoint@Struct_NetStack_Contracts_UdpConnectionContract_Exp@@SIXPAU1@PAIPAG@Z 02005cb8 f   NetStack.obj
 0001:00004e54       ?m_Peek@Struct_NetStack_Contracts_UdpConnectionContract_Exp@@SIHPAU1@@Z 02005e54 f   NetStack.obj
 0001:00005df0       ?m_InState@Struct_NetStack_Contracts_UdpConnectionContract_Exp@@SI_NPAU1@H@Z 02006df0 f   NetStack.obj
 0001:00005e80       ?m_HeadMatches@Struct_NetStack_Contracts_UdpConnectionContract_Exp@@SI_NPAU1@HPA_NPAPAUClass_System_Object@@@Z 02006e80 f   NetStack.obj
 0001:00005f40       ?m_HeadMatches@Struct_NetStack_Contracts_UdpConnectionContract_Exp@@SI_NPAUClass_NetStack_Contracts_UdpConnectionContract_Exp@@HPA_NPAPAUClass_System_Object@@@Z 02006f40 f   NetStack.obj
 0001:00005f78       ?m_Equals@Struct_NetStack_Contracts_UdpConnectionContract_Exp@@SI_NPAU1@PAUClass_System_Object@@@Z 02006f78 f   NetStack.obj
 0001:00006874       ?m_Equals@Struct_NetStack_Contracts_UdpConnectionContract_Exp@@SI_NPAUClass_NetStack_Contracts_UdpConnectionContract_Exp@@PAUClass_System_Object@@@Z 02007874 f   NetStack.obj
 0001:000068a0       ?m_Dispose@Struct_NetStack_Contracts_UdpConnectionContract_Exp@@SIXPAU1@@Z 020078a0 f   NetStack.obj
 0001:000068c4       ?m_Dispose@Struct_NetStack_Contracts_UdpConnectionContract_Exp@@SIXPAUClass_NetStack_Contracts_UdpConnectionContract_Exp@@@Z 020078c4 f   NetStack.obj
 0001:000068ec       ?m_CurrentState@Struct_NetStack_Contracts_UdpConnectionContract_Exp@@SIPAUClass_System_String@@PAU1@@Z 020078ec f   NetStack.obj
 0001:00006c28       ?m_Acquire@Struct_NetStack_Contracts_UdpConnectionContract_Exp@@SIXPAU1@@Z 02007c28 f   NetStack.obj
 0001:00006c44       ?m_MoveNext@Class_System_Collections_Hashtable_HashtableEnumerator@@SI_NPAU1@@Z 02007c44 f   NetStack.obj
 0001:00006d14       ?m_get$_Value@Class_System_Collections_Hashtable_HashtableEnumerator@@SIPAUClass_System_Object@@PAU1@@Z 02007d14 f   NetStack.obj
 0001:00006d98       ?m_get$_Current@Class_System_Collections_Hashtable_HashtableEnumerator@@SIPAUClass_System_Object@@PAU1@@Z 02007d98 f   NetStack.obj
 0001:00006e60       ?m__ctor@Class_System_Collections_Hashtable_HashtableEnumerator@@SIXPAU1@PAUClass_System_Collections_Hashtable@@H@Z 02007e60 f   NetStack.obj
 0001:00006eb4       ?m_StructCopy@Struct_Microsoft_Singularity_Directory_DirectoryServiceContract_NakNotifyReparse@@SIXPAU1@0@Z 02007eb4 f   NetStack.obj
 0001:00006f00       ?m_StructCopy@Struct_Microsoft_Singularity_Directory_DirectoryServiceContract_NakNotifyReparse@@SIXPAU1@PAU1@@Z 02007f00 f   NetStack.obj
 0001:00006fe4       ?m_Equals@Struct_Microsoft_Singularity_Directory_DirectoryServiceContract_NakNotifyReparse@@SI_NPAU1@PAUClass_System_Object@@@Z 02007fe4 f   NetStack.obj
 0001:0000705c       ?m_Equals@Struct_Microsoft_Singularity_Directory_DirectoryServiceContract_NakNotifyReparse@@SI_NPAUClass_Microsoft_Singularity_Directory_DirectoryServiceContract_NakNotifyReparse@@PAUClass_System_Object@@@Z 0200805c f   NetStack.obj
 0001:00007088       ?m_StructCopy@Struct_Microsoft_Singularity_Directory_DirectoryServiceContract_CreateAndBindFile@@SIXPAU1@0@Z 02008088 f   NetStack.obj
 0001:000070bc       ?m_StructCopy@Struct_Microsoft_Singularity_Directory_DirectoryServiceContract_CreateAndBindFile@@SIXPAU1@PAU1@@Z 020080bc f   NetStack.obj
 0001:00007158       ?m_Equals@Struct_Microsoft_Singularity_Directory_DirectoryServiceContract_CreateAndBindFile@@SI_NPAU1@PAUClass_System_Object@@@Z 02008158 f   NetStack.obj
 0001:000071b4       ?m_Equals@Struct_Microsoft_Singularity_Directory_DirectoryServiceContract_CreateAndBindFile@@SI_NPAUClass_Microsoft_Singularity_Directory_DirectoryServiceContract_CreateAndBindFile@@PAUClass_System_Object@@@Z 020081b4 f   NetStack.obj
 0001:000071e0       ?g_Parse@Class_NetStack_Protocols_DhcpMultiDWordOption@@SIPAUClass_NetStack_Protocols_IDhcpOption@@EEPAUClassVector_uint8@@H@Z 020081e0 f   NetStack.obj
 0001:00007478       ?m_Pack@Class_NetStack_Protocols_DhcpMultiDWordOption@@SIHPAU1@PAUClassVector_uint8@@PAH@Z 02008478 f   NetStack.obj
 0001:00007744       ?m_get$_PayloadLength@Class_NetStack_Protocols_DhcpMultiDWordOption@@SIHPAU1@@Z 02008744 f   NetStack.obj
 0001:00007788       ?m__ctor@Class_NetStack_Protocols_DhcpMultiDWordOption@@SIXPAU1@EPAUClassVector_uint32@@@Z 02008788 f   NetStack.obj
 0001:000077b8       ?g_WriterIsValid@Class_System_UpdateLog@@SI_NUStruct_System_UpdateLogWriter@@@Z 020087b8 f   NetStack.obj
 0001:000077d8       ?m_VisitWeakRefs@Class_System_UpdateLog@@SIXPAU1@PAUClass_System_TryAllManager@@PAUClass_System_GCs_DirectReferenceVisitor@@@Z 020087d8 f   NetStack.obj
 0001:00007c94       ?m_VisitStrongRefs@Class_System_UpdateLog@@SIXPAU1@PAUClass_System_TryAllManager@@PAUClass_System_GCs_DirectReferenceVisitor@@@Z 02008c94 f   NetStack.obj
 0001:00007eb8       ?g_SyncFromWriter@Class_System_UpdateLog@@SIXPAUClass_System_TryAllManager@@@Z 02008eb8 f   NetStack.obj
 0001:00007f3c       ?g_InitWriter@Class_System_UpdateLog@@SIXPAUClass_System_TryAllManager@@@Z 02008f3c f   NetStack.obj
 0001:00007fb8       ?m_get$_CurrentLocation@Class_System_UpdateLog@@SI?AUStruct_System_UpdateLog_Location@@PAU1@@Z 02008fb8 f   NetStack.obj
 0001:0000804c       ?m_AddrToIndex@Class_System_UpdateLog@@SIIPAU1@PAUStruct_System_UpdateLog_Entry@@@Z 0200904c f   NetStack.obj
 0001:000080dc       ?m_AddrOfEntry@Class_System_UpdateLog@@SIPAUStruct_System_UpdateLog_Entry@@PAU1@H@Z 020090dc f   NetStack.obj
 0001:0000817c       ?m__ctor@Class_System_UpdateLog@@SIXPAU1@@Z 0200917c f   NetStack.obj
 0001:000081e0       ?m_StructCopy@Struct_Microsoft_Singularity_Directory_ServiceProviderContract_NackConnect@@SIXPAU1@0@Z 020091e0 f   NetStack.obj
 0001:00008208       ?m_StructCopy@Struct_Microsoft_Singularity_Directory_ServiceProviderContract_NackConnect@@SIXPAU1@PAU1@@Z 02009208 f   NetStack.obj
 0001:00008280       ?m_MarshallContent@Struct_Microsoft_Singularity_Directory_ServiceProviderContract_NackConnect@@SIXPAU1@PAEPAUStruct_Microsoft_Singularity_Channels_Endpoint@@1PAH@Z 02009280 f   NetStack.obj
 0001:00008304       ?m_MarshallAll@Struct_Microsoft_Singularity_Directory_ServiceProviderContract_NackConnect@@SIXPAU1@PAEPAUStruct_Microsoft_Singularity_Channels_Endpoint@@PAH@Z 02009304 f   NetStack.obj
 0001:0000835c       ?m_Equals@Struct_Microsoft_Singularity_Directory_ServiceProviderContract_NackConnect@@SI_NPAU1@PAUClass_System_Object@@@Z 0200935c f   NetStack.obj
 0001:000083a4       ?m_Equals@Struct_Microsoft_Singularity_Directory_ServiceProviderContract_NackConnect@@SI_NPAUClass_Microsoft_Singularity_Directory_ServiceProviderContract_NackConnect@@PAUClass_System_Object@@@Z 020093a4 f   NetStack.obj
 0001:000083d0       ?m_StructCopy@Struct_NetStack_Contracts_DNSContract_Imp@@SIXPAU1@0@Z 020093d0 f   NetStack.obj
 0001:00008524       ?m_StructCopy@Struct_NetStack_Contracts_DNSContract_Imp@@SIXPAU1@PAU1@@Z 02009524 f   NetStack.obj
 0001:00008920       ?m_Peek@Struct_NetStack_Contracts_DNSContract_Imp@@SIHPAU1@@Z 02009920 f   NetStack.obj
 0001:00008d80       ?m_MarshallDeliverReady0@Struct_NetStack_Contracts_DNSContract_Imp@@SIXPAU1@PAUStruct_Microsoft_Singularity_Channels_Endpoint@@@Z 02009d80 f   NetStack.obj
 0001:00008dcc       ?m_MarshallDeliverNotFound0@Struct_NetStack_Contracts_DNSContract_Imp@@SIXPAU1@PAUStruct_Microsoft_Singularity_Channels_Endpoint@@@Z 02009dcc f   NetStack.obj
 0001:00008e18       ?m_MarshallDeliverIsValid0@Struct_NetStack_Contracts_DNSContract_Imp@@SIXPAU1@_NPAUStruct_Microsoft_Singularity_Channels_Endpoint@@@Z 02009e18 f   NetStack.obj
 0001:00008e68       ?m_MarshallDeliverDNSResults0@Struct_NetStack_Contracts_DNSContract_Imp@@SIXPAU1@PAIPAPA_WPAUStruct_Microsoft_Singularity_Channels_Endpoint@@@Z 02009e68 f   NetStack.obj
 0001:00008ebc       ?m_MarshallDeliverAddressList0@Struct_NetStack_Contracts_DNSContract_Imp@@SIXPAU1@PAIPAUStruct_Microsoft_Singularity_Channels_Endpoint@@@Z 02009ebc f   NetStack.obj
 0001:00008f0c       ?m_MarshallDeliverAddress0@Struct_NetStack_Contracts_DNSContract_Imp@@SIXPAU1@IPAUStruct_Microsoft_Singularity_Channels_Endpoint@@@Z 02009f0c f   NetStack.obj
 0001:00008f5c       ?m_MarshallDeliverAck0@Struct_NetStack_Contracts_DNSContract_Imp@@SIXPAU1@PAUStruct_Microsoft_Singularity_Channels_Endpoint@@@Z 02009f5c f   NetStack.obj
 0001:00008fa8       ?m_HeadMatches@Struct_NetStack_Contracts_DNSContract_Imp@@SI_NPAU1@HPA_NPAPAUClass_System_Object@@@Z 02009fa8 f   NetStack.obj
 0001:00009068       ?m_HeadMatches@Struct_NetStack_Contracts_DNSContract_Imp@@SI_NPAUClass_NetStack_Contracts_DNSContract_Imp@@HPA_NPAPAUClass_System_Object@@@Z 0200a068 f   NetStack.obj
 0001:000090a0       ?m_Equals@Struct_NetStack_Contracts_DNSContract_Imp@@SI_NPAU1@PAUClass_System_Object@@@Z 0200a0a0 f   NetStack.obj
 0001:00009668       ?m_Equals@Struct_NetStack_Contracts_DNSContract_Imp@@SI_NPAUClass_NetStack_Contracts_DNSContract_Imp@@PAUClass_System_Object@@@Z 0200a668 f   NetStack.obj
 0001:00009694       ?m_Dispose@Struct_NetStack_Contracts_DNSContract_Imp@@SIXPAU1@@Z 0200a694 f   NetStack.obj
 0001:000096b8       ?m_Dispose@Struct_NetStack_Contracts_DNSContract_Imp@@SIXPAUClass_NetStack_Contracts_DNSContract_Imp@@@Z 0200a6b8 f   NetStack.obj
 0001:000096e0       ?m_DeliverReady0@Struct_NetStack_Contracts_DNSContract_Imp@@SIXPAU1@@Z 0200a6e0 f   NetStack.obj
 0001:00009714       ?m_DeliverNotFound0@Struct_NetStack_Contracts_DNSContract_Imp@@SIXPAU1@@Z 0200a714 f   NetStack.obj
 0001:00009748       ?m_DeliverIsValid0@Struct_NetStack_Contracts_DNSContract_Imp@@SIXPAU1@_N@Z 0200a748 f   NetStack.obj
 0001:00009790       ?m_DeliverDNSResults0@Struct_NetStack_Contracts_DNSContract_Imp@@SIXPAU1@PAIPAPA_W@Z 0200a790 f   NetStack.obj
 0001:000097e0       ?m_DeliverAddressList0@Struct_NetStack_Contracts_DNSContract_Imp@@SIXPAU1@PAI@Z 0200a7e0 f   NetStack.obj
 0001:00009828       ?m_DeliverAddress0@Struct_NetStack_Contracts_DNSContract_Imp@@SIXPAU1@I@Z 0200a828 f   NetStack.obj
 0001:00009870       ?m_DeliverAck0@Struct_NetStack_Contracts_DNSContract_Imp@@SIXPAU1@@Z 0200a870 f   NetStack.obj
 0001:000098a4       ?g_WaitForPending@Struct_System_Finalizer@@SIXXZ 0200a8a4 f   NetStack.obj
 0001:000098d4       ?g_VisitBootstrapData@Struct_System_Finalizer@@SIXPAUClass_System_GCs_DirectReferenceVisitor@@@Z 0200a8d4 f   NetStack.obj
 0001:0000993c       ?g_VisitAllRunFinalizer@Struct_System_Finalizer@@SIXPAUClass_System_GCs_DirectReferenceVisitor@@_N1@Z 0200a93c f   NetStack.obj
 0001:00009ab4       ?g_ThreadLoop@Struct_System_Finalizer@@SIXXZ 0200aab4 f   NetStack.obj
 0001:00009b50       ?g_SuppressCandidate@Struct_System_Finalizer@@SIXPAUClass_System_Object@@@Z 0200ab50 f   NetStack.obj
 0001:00009d2c       ?m_StructCopy@Struct_System_Finalizer@@SIXPAU1@0@Z 0200ad2c f   NetStack.obj
 0001:00009d48       ?m_StructCopy@Struct_System_Finalizer@@SIXPAU1@PAU1@@Z 0200ad48 f   NetStack.obj
 0001:00009d9c       ?g_StartFinalizerThread@Struct_System_Finalizer@@SIXXZ 0200ad9c f   NetStack.obj
 0001:00009e7c       ?g_Shutdown@Struct_System_Finalizer@@SIXXZ 0200ae7c f   NetStack.obj
 0001:00009ff0       ?g_ResurrectCandidates@Struct_System_Finalizer@@SIXPAUClass_System_GCs_DirectReferenceVisitor@@0_N@Z 0200aff0 f   NetStack.obj
 0001:0000a590       ?g_ReleaseCollectFinalizers@Struct_System_Finalizer@@SIXXZ 0200b590 f   NetStack.obj
 0001:0000a5d8       ?g_RegisterCandidate@Struct_System_Finalizer@@SIXPAUClass_System_Object@@@Z 0200b5d8 f   NetStack.obj
 0001:0000a99c       ?g_PrepareCollectFinalizers@Struct_System_Finalizer@@SIXXZ 0200b99c f   NetStack.obj
 0001:0000aa88       ?g_LinkToIndex@Struct_System_Finalizer@@SIHH@Z 0200ba88 f   NetStack.obj
 0001:0000aab8       ?g_IsLink@Struct_System_Finalizer@@SI_NH@Z 0200bab8 f   NetStack.obj
 0001:0000aae0       ?g_IndexToLink@Struct_System_Finalizer@@SIHH@Z 0200bae0 f   NetStack.obj
 0001:0000ab04       ?g_GetObjectFromRun@Struct_System_Finalizer@@SIPAUClass_System_Object@@XZ 0200bb04 f   NetStack.obj
 0001:0000aca0       ?m_Equals@Struct_System_Finalizer@@SI_NPAU1@PAUClass_System_Object@@@Z 0200bca0 f   NetStack.obj
 0001:0000acd8       ?m_Equals@Struct_System_Finalizer@@SI_NPAUClass_System_Finalizer@@PAUClass_System_Object@@@Z 0200bcd8 f   NetStack.obj
 0001:0000ad04       ?g_CompactTables@Struct_System_Finalizer@@SIXXZ 0200bd04 f   NetStack.obj
 0001:0000ad18       ?g__cctor@Struct_System_Finalizer@@SIXXZ 0200bd18 f   NetStack.obj
 0001:0000aeac       ?m_StructCopy@Struct_NetStack_Contracts_IPContract_OK@@SIXPAU1@0@Z 0200beac f   NetStack.obj
 0001:0000aec8       ?m_StructCopy@Struct_NetStack_Contracts_IPContract_OK@@SIXPAU1@PAU1@@Z 0200bec8 f   NetStack.obj
 0001:0000af1c       ?m_MarshallContent@Struct_NetStack_Contracts_IPContract_OK@@SIXPAU1@PAEPAUStruct_Microsoft_Singularity_Channels_Endpoint@@1PAH@Z 0200bf1c f   NetStack.obj
 0001:0000af3c       ?m_MarshallAll@Struct_NetStack_Contracts_IPContract_OK@@SIXPAU1@PAEPAUStruct_Microsoft_Singularity_Channels_Endpoint@@PAH@Z 0200bf3c f   NetStack.obj
 0001:0000af94       ?m_Equals@Struct_NetStack_Contracts_IPContract_OK@@SI_NPAU1@PAUClass_System_Object@@@Z 0200bf94 f   NetStack.obj
 0001:0000afcc       ?m_Equals@Struct_NetStack_Contracts_IPContract_OK@@SI_NPAUClass_NetStack_Contracts_IPContract_OK@@PAUClass_System_Object@@@Z 0200bfcc f   NetStack.obj
 0001:0000aff8       ?m_MoveNext@Class_System_Array_ArrayEnumerator@@SI_NPAU1@@Z 0200bff8 f   NetStack.obj
 0001:0000b050       ?m_IncArray@Class_System_Array_ArrayEnumerator@@SIXPAU1@@Z 0200c050 f   NetStack.obj
 0001:0000b190       ?m_get$_Current@Class_System_Array_ArrayEnumerator@@SIPAUClass_System_Object@@PAU1@@Z 0200c190 f   NetStack.obj
 0001:0000b220       ?m__ctor@Class_System_Array_ArrayEnumerator@@SIXPAU1@PAUClass_System_Array@@HH@Z 0200c220 f   NetStack.obj
 0001:0000b33c       ?m_StructCopy@Struct_Microsoft_Singularity_Directory_DirectoryServiceContract_AckDeregister@@SIXPAU1@0@Z 0200c33c f   NetStack.obj
 0001:0000b364       ?m_StructCopy@Struct_Microsoft_Singularity_Directory_DirectoryServiceContract_AckDeregister@@SIXPAU1@PAU1@@Z 0200c364 f   NetStack.obj
 0001:0000b3dc       ?m_Equals@Struct_Microsoft_Singularity_Directory_DirectoryServiceContract_AckDeregister@@SI_NPAU1@PAUClass_System_Object@@@Z 0200c3dc f   NetStack.obj
 0001:0000b424       ?m_Equals@Struct_Microsoft_Singularity_Directory_DirectoryServiceContract_AckDeregister@@SI_NPAUClass_Microsoft_Singularity_Directory_DirectoryServiceContract_AckDeregister@@PAUClass_System_Object@@@Z 0200c424 f   NetStack.obj
 0001:0000b450       ?m__ctor@Class_System_Reflection_Assembly@@SIXPAU1@@Z 0200c450 f   NetStack.obj
 0001:0000b46c       ?g__cctor@Class_System_Reflection_Assembly@@SIXXZ 0200c46c f   NetStack.obj
 0001:0000b480       ?g_Allocate@Class_Microsoft_Singularity_Channels_ChannelHeap@@SIPAUvoid@@PAUClass_System_Type@@@Z 0200c480 f   NetStack.obj
 0001:0000b568       ?m__ctor@Class_Microsoft_Singularity_Channels_ChannelHeap@@SIXPAU1@@Z 0200c568 f   NetStack.obj
 0001:0000b580       ?m_StartScanOneObject@Class_Microsoft_Singularity_GCProfilerLogger@@SIXPAU1@PAUuintPtr@@PAUClass_System_Type@@1@Z 0200c580 f   NetStack.obj
 0001:0000b640       ?g_StartProfiling@Class_Microsoft_Singularity_GCProfilerLogger@@SIXXZ 0200c640 f   NetStack.obj
 0001:0000b748       ?m_Shutdown@Class_Microsoft_Singularity_GCProfilerLogger@@SIXPAU1@@Z 0200c748 f   NetStack.obj
 0001:0000b774       ?m_ScanOneRoot@Class_Microsoft_Singularity_GCProfilerLogger@@SIXPAU1@PAUuintPtr@@@Z 0200c774 f   NetStack.obj
 0001:0000b824       ?m_ScanOneObjectField@Class_Microsoft_Singularity_GCProfilerLogger@@SIXPAU1@PAUuintPtr@@@Z 0200c824 f   NetStack.obj
 0001:0000b898       ?m_PreGC@Class_Microsoft_Singularity_GCProfilerLogger@@SIXPAU1@H@Z 0200c898 f   NetStack.obj
 0001:0000b978       ?m_PostGC@Class_Microsoft_Singularity_GCProfilerLogger@@SIXPAU1@@Z 0200c978 f   NetStack.obj
 0001:0000ba50       ?m_Initialize@Class_Microsoft_Singularity_GCProfilerLogger@@SIXPAU1@_K1@Z 0200ca50 f   NetStack.obj
 0001:0000bc40       ?m_GetTypeId@Class_Microsoft_Singularity_GCProfilerLogger@@SIIPAU1@PAUClass_System_Type@@@Z 0200cc40 f   NetStack.obj
 0001:0000bd10       ?m_GetStackId@Class_Microsoft_Singularity_GCProfilerLogger@@SIIPAU1@PAUClass_System_Type@@PAUuintPtr@@PAUClassVector_uintPtr@@I@Z 0200cd10 f   NetStack.obj
 0001:0000c074       ?m_GetFunctionId@Class_Microsoft_Singularity_GCProfilerLogger@@SIIPAU1@PAUuintPtr@@@Z 0200d074 f   NetStack.obj
 0001:0000c178       ?m_EndScanOneObject@Class_Microsoft_Singularity_GCProfilerLogger@@SIXPAU1@@Z 0200d178 f   NetStack.obj
 0001:0000c1dc       ?m_Allocation@Class_Microsoft_Singularity_GCProfilerLogger@@SIXPAU1@PAUuintPtr@@PAUClass_System_Type@@1@Z 0200d1dc f   NetStack.obj
 0001:0000c36c       ?m__ctor@Class_Microsoft_Singularity_GCProfilerLogger@@SIXPAU1@@Z 0200d36c f   NetStack.obj
 0001:0000c390       ?g__cctor@Class_Microsoft_Singularity_GCProfilerLogger@@SIXXZ 0200d390 f   NetStack.obj
 0001:0000c3a4       ?m_StructCopy@Struct_NetStack_Contracts_IPContract_IsRunningDhcp@@SIXPAU1@0@Z 0200d3a4 f   NetStack.obj
 0001:0000c3cc       ?m_StructCopy@Struct_NetStack_Contracts_IPContract_IsRunningDhcp@@SIXPAU1@PAU1@@Z 0200d3cc f   NetStack.obj
 0001:0000c444       ?m_Equals@Struct_NetStack_Contracts_IPContract_IsRunningDhcp@@SI_NPAU1@PAUClass_System_Object@@@Z 0200d444 f   NetStack.obj
 0001:0000c48c       ?m_Equals@Struct_NetStack_Contracts_IPContract_IsRunningDhcp@@SI_NPAUClass_NetStack_Contracts_IPContract_IsRunningDhcp@@PAUClass_System_Object@@@Z 0200d48c f   NetStack.obj
 0001:0000c4b8       ?m_StructCopy@Struct_Microsoft_Singularity_Io_Net_NicDeviceContract_AckConfigureIO@@SIXPAU1@0@Z 0200d4b8 f   NetStack.obj
 0001:0000c4d4       ?m_StructCopy@Struct_Microsoft_Singularity_Io_Net_NicDeviceContract_AckConfigureIO@@SIXPAU1@PAU1@@Z 0200d4d4 f   NetStack.obj
 0001:0000c528       ?m_Equals@Struct_Microsoft_Singularity_Io_Net_NicDeviceContract_AckConfigureIO@@SI_NPAU1@PAUClass_System_Object@@@Z 0200d528 f   NetStack.obj
 0001:0000c560       ?m_Equals@Struct_Microsoft_Singularity_Io_Net_NicDeviceContract_AckConfigureIO@@SI_NPAUClass_Microsoft_Singularity_Io_Net_NicDeviceContract_AckConfigureIO@@PAUClass_System_Object@@@Z 0200d560 f   NetStack.obj
 0001:0000c58c       ?m_Push@Class_System_Collections_Stack@@SIXPAU1@PAUClass_System_Object@@@Z 0200d58c f   NetStack.obj
 0001:0000c638       ?m_Pop@Class_System_Collections_Stack@@SIPAUClass_System_Object@@PAU1@@Z 0200d638 f   NetStack.obj
 0001:0000c6d0       ?m_GetEnumerator@Class_System_Collections_Stack@@SIPAUClass_System_Collections_IEnumerator@@PAU1@@Z 0200d6d0 f   NetStack.obj
 0001:0000c714       ?m_get$_SyncRoot@Class_System_Collections_Stack@@SIPAUClass_System_Object@@PAU1@@Z 0200d714 f   NetStack.obj
 0001:0000c734       ?m_get$_Count@Class_System_Collections_Stack@@SIHPAU1@@Z 0200d734 f   NetStack.obj
 0001:0000c754       ?m_CopyTo@Class_System_Collections_Stack@@SIXPAU1@PAUClass_System_Array@@H@Z 0200d754 f   NetStack.obj
 0001:0000c968       ?m__ctor@Class_System_Collections_Stack@@SIXPAU1@@Z 0200d968 f   NetStack.obj
 0001:0000c9ac       ?m_StructCopy@Struct_NetStack_Contracts_TcpConnectionContract_CouldNotConnect@@SIXPAU1@0@Z 0200d9ac f   NetStack.obj
 0001:0000c9d4       ?m_StructCopy@Struct_NetStack_Contracts_TcpConnectionContract_CouldNotConnect@@SIXPAU1@PAU1@@Z 0200d9d4 f   NetStack.obj
 0001:0000ca4c       ?m_MarshallContent@Struct_NetStack_Contracts_TcpConnectionContract_CouldNotConnect@@SIXPAU1@PAEPAUStruct_Microsoft_Singularity_Channels_Endpoint@@1PAH@Z 0200da4c f   NetStack.obj
 0001:0000ca6c       ?m_MarshallAll@Struct_NetStack_Contracts_TcpConnectionContract_CouldNotConnect@@SIXPAU1@PAEPAUStruct_Microsoft_Singularity_Channels_Endpoint@@PAH@Z 0200da6c f   NetStack.obj
 0001:0000cac4       ?m_Equals@Struct_NetStack_Contracts_TcpConnectionContract_CouldNotConnect@@SI_NPAU1@PAUClass_System_Object@@@Z 0200dac4 f   NetStack.obj
 0001:0000cb64       ?m_Equals@Struct_NetStack_Contracts_TcpConnectionContract_CouldNotConnect@@SI_NPAUClass_NetStack_Contracts_TcpConnectionContract_CouldNotConnect@@PAUClass_System_Object@@@Z 0200db64 f   NetStack.obj
 0001:0000cb90       ?m_StructCopy@Struct_System_GCs_BumpAllocator@@SIXPAU1@0@Z 0200db90 f   NetStack.obj
 0001:0000cbe8       ?m_StructCopy@Struct_System_GCs_BumpAllocator@@SIXPAU1@PAU1@@Z 0200dbe8 f   NetStack.obj
 0001:0000ccf0       ?m_Equals@Struct_System_GCs_BumpAllocator@@SI_NPAU1@PAUClass_System_Object@@@Z 0200dcf0 f   NetStack.obj
 0001:0000cdc8       ?m_Equals@Struct_System_GCs_BumpAllocator@@SI_NPAUClass_System_GCs_BumpAllocator@@PAUClass_System_Object@@@Z 0200ddc8 f   NetStack.obj
 0001:0000cdf4       ?g_StableState@Class_NetStack_Contracts_TcpContract@@SIHPAUStruct_Microsoft_Singularity_Channels_StateStack@@@Z 0200ddf4 f   NetStack.obj
 0001:0000ce70       ?m__ctor@Class_NetStack_Contracts_TcpContract@@SIXPAU1@@Z 0200de70 f   NetStack.obj
 0001:0000ce88       ?m_VisitReferenceFields@Class_System_GCs_MarkSweepCollector_MarkAndProcessReferenceVisitor@@SIPAUuintPtr@@PAU1@PAUClass_System_Object@@@Z 0200de88 f   NetStack.obj
 0001:0000cef0       ?m_Visit@Class_System_GCs_MarkSweepCollector_MarkAndProcessReferenceVisitor@@SIXPAU1@PAPAUuintPtr@@@Z 0200def0 f   NetStack.obj
 0001:0000cf28       ?m__ctor@Class_System_GCs_MarkSweepCollector_MarkAndProcessReferenceVisitor@@SIXPAU1@@Z 0200df28 f   NetStack.obj
 0001:0000cf4c       ?g_VisitWeakRefsPhase2@Class_System_TryAllManager@@SIXPAU1@PAUClass_System_GCs_DirectReferenceVisitor@@@Z 0200df4c f   NetStack.obj
 0001:0000cfc4       ?g_VisitWeakRefsPhase1@Class_System_TryAllManager@@SIXPAU1@PAUClass_System_GCs_DirectReferenceVisitor@@@Z 0200dfc4 f   NetStack.obj
 0001:0000d008       ?g_VisitWeakRefs@Class_System_TryAllManager@@SIXPAUClass_System_GCs_DirectReferenceVisitor@@@Z 0200e008 f   NetStack.obj
 0001:0000d034       ?g_VisitStrongRefs@Class_System_TryAllManager@@SIXPAU1@PAUClass_System_GCs_DirectReferenceVisitor@@@Z 0200e034 f   NetStack.obj
 0001:0000d080       ?g_VisitStrongRefs@Class_System_TryAllManager@@SIXPAUClass_System_GCs_DirectReferenceVisitor@@@Z 0200e080 f   NetStack.obj
 0001:0000d0ac       ?m_startNestedTryAllHelper@Class_System_TryAllManager@@SIXPAU1@_NH@Z 0200e0ac f   NetStack.obj
 0001:0000d2c4       ?m_Shake@Class_System_TryAllManager@@SIXPAU1@_N@Z 0200e2c4 f   NetStack.obj
 0001:0000d2e0       ?g_SetDuringGC@Class_System_TryAllManager@@SIX_N@Z 0200e2e0 f   NetStack.obj
 0001:0000d2fc       ?g_ReplenishTokens@Class_System_TryAllManager@@SIXXZ 0200e2fc f   NetStack.obj
 0001:0000d3d4       ?g_RemoveCache@Class_System_TryAllManager@@SIXPAU1@@Z 0200e3d4 f   NetStack.obj
 0001:0000d3f8       ?g_ReadBarrier@Class_System_TryAllManager@@SIPAUClass_System_Object@@PAUClass_System_GCs_DirectReferenceVisitor@@PAU2@@Z 0200e3f8 f   NetStack.obj
 0001:0000d458       ?g_PreGCHookTryAll@Class_System_TryAllManager@@SIXXZ 0200e458 f   NetStack.obj
 0001:0000d47c       ?g_PostGCHookTryAll@Class_System_TryAllManager@@SIXXZ 0200e47c f   NetStack.obj
 0001:0000d4a0       ?m_InitLocallyAllocatedSTMWords@Class_System_TryAllManager@@SIXPAU1@@Z 0200e4a0 f   NetStack.obj
 0001:0000d618       ?g_EnsureCache@Class_System_TryAllManager@@SIXPAU1@@Z 0200e618 f   NetStack.obj
 0001:0000d674       ?g_DumpPerCallSiteStats@Class_System_TryAllManager@@SIXXZ 0200e674 f   NetStack.obj
 0001:0000d688       ?g_doVisitWeakRefs@Class_System_TryAllManager@@SIXPAUClass_System_GCs_DirectReferenceVisitor@@@Z 0200e688 f   NetStack.obj
 0001:0000d7d0       ?g_doVisitStrongRefs@Class_System_TryAllManager@@SIXPAUClass_System_GCs_DirectReferenceVisitor@@@Z 0200e7d0 f   NetStack.obj
 0001:0000d8a8       ?g_doPreGCHook@Class_System_TryAllManager@@SIXXZ 0200e8a8 f   NetStack.obj
 0001:0000d994       ?g_doPostGCHook@Class_System_TryAllManager@@SIXXZ 0200e994 f   NetStack.obj
 0001:0000dc10       ?m_becomeInvalid@Class_System_TryAllManager@@SIXPAU1@_N@Z 0200ec10 f   NetStack.obj
 0001:0000dc88       ?m_AllocLocallyAllocatedSTMWords@Class_System_TryAllManager@@SIXPAU1@@Z 0200ec88 f   NetStack.obj
 0001:0000dd38       ?m__ctor@Class_System_TryAllManager@@SIXPAU1@@Z 0200ed38 f   NetStack.obj
 0001:0000e104       ?g__cctor@Class_System_TryAllManager@@SIXXZ 0200f104 f   NetStack.obj
 0001:0000e134       ?m_StructCopy@Struct_Microsoft_Singularity_Directory_DirectoryServiceContract_AckDeleteDirectory@@SIXPAU1@0@Z 0200f134 f   NetStack.obj
 0001:0000e150       ?m_StructCopy@Struct_Microsoft_Singularity_Directory_DirectoryServiceContract_AckDeleteDirectory@@SIXPAU1@PAU1@@Z 0200f150 f   NetStack.obj
 0001:0000e1a4       ?m_Equals@Struct_Microsoft_Singularity_Directory_DirectoryServiceContract_AckDeleteDirectory@@SI_NPAU1@PAUClass_System_Object@@@Z 0200f1a4 f   NetStack.obj
 0001:0000e1dc       ?m_Equals@Struct_Microsoft_Singularity_Directory_DirectoryServiceContract_AckDeleteDirectory@@SI_NPAUClass_Microsoft_Singularity_Directory_DirectoryServiceContract_AckDeleteDirectory@@PAUClass_System_Object@@@Z 0200f1dc f   NetStack.obj
 0001:0000e208       ?m_Compare@Class_System_Collections_Comparer@@SIHPAU1@PAUClass_System_Object@@1@Z 0200f208 f   NetStack.obj
 0001:0000e39c       ?m__ctor@Class_System_Collections_Comparer@@SIXPAU1@@Z 0200f39c f   NetStack.obj
 0001:0000e3b8       ?g__cctor@Class_System_Collections_Comparer@@SIXXZ 0200f3b8 f   NetStack.obj
 0001:0000e3f8       ?m_StructCopy@Struct_NetStack_Contracts_IPContract_Exp@@SIXPAU1@0@Z 0200f3f8 f   NetStack.obj
 0001:0000e580       ?m_StructCopy@Struct_NetStack_Contracts_IPContract_Exp@@SIXPAU1@PAU1@@Z 0200f580 f   NetStack.obj
 0001:0000ea18       ?m_SendRunning@Struct_NetStack_Contracts_IPContract_Exp@@SIXPAU1@_N@Z 0200fa18 f   NetStack.obj
 0001:0000eb14       ?m_SendReady@Struct_NetStack_Contracts_IPContract_Exp@@SIXPAU1@@Z 0200fb14 f   NetStack.obj
 0001:0000ec08       ?m_SendOK@Struct_NetStack_Contracts_IPContract_Exp@@SIXPAU1@@Z 0200fc08 f   NetStack.obj
 0001:0000ef18       ?m_SendIsLocal@Struct_NetStack_Contracts_IPContract_Exp@@SIXPAU1@_N@Z 0200ff18 f   NetStack.obj
 0001:0000f014       ?m_SendInterfaceState@Struct_NetStack_Contracts_IPContract_Exp@@SIXPAU1@UStruct_NetStack_Contracts_InterfaceInfo@@@Z 02010014 f   NetStack.obj
 0001:0000f140       ?m_SendInterfaceNotFound@Struct_NetStack_Contracts_IPContract_Exp@@SIXPAU1@@Z 02010140 f   NetStack.obj
 0001:0000f450       ?m_SendInterfaceList@Struct_NetStack_Contracts_IPContract_Exp@@SIXPAU1@PAPA_W@Z 02010450 f   NetStack.obj
 0001:0000f600       ?m_SendHostName@Struct_NetStack_Contracts_IPContract_Exp@@SIXPAU1@PA_W@Z 02010600 f   NetStack.obj
 0001:0000f714       ?m_SendErr@Struct_NetStack_Contracts_IPContract_Exp@@SIXPAU1@@Z 02010714 f   NetStack.obj
 0001:0000f914       ?m_SendDomainName@Struct_NetStack_Contracts_IPContract_Exp@@SIXPAU1@PA_W@Z 02010914 f   NetStack.obj
 0001:0000fa28       ?m_RecvStopDhcp@Struct_NetStack_Contracts_IPContract_Exp@@SIXPAU1@PAPA_W@Z 02010a28 f   NetStack.obj
 0001:0000fbb0       ?m_RecvStartDhcp@Struct_NetStack_Contracts_IPContract_Exp@@SIXPAU1@PAPA_W@Z 02010bb0 f   NetStack.obj
 0001:0000fd38       ?m_RecvSetInterfaceState@Struct_NetStack_Contracts_IPContract_Exp@@SIXPAU1@PAPA_WPAI22@Z 02010d38 f   NetStack.obj
 0001:0000fef0       ?m_RecvSetHostName@Struct_NetStack_Contracts_IPContract_Exp@@SIXPAU1@PAPA_W@Z 02010ef0 f   NetStack.obj
 0001:00010078       ?m_RecvSetDomainName@Struct_NetStack_Contracts_IPContract_Exp@@SIXPAU1@PAPA_W@Z 02011078 f   NetStack.obj
 0001:00010200       ?m_RecvIsRunningDhcp@Struct_NetStack_Contracts_IPContract_Exp@@SIXPAU1@PAPA_W@Z 02011200 f   NetStack.obj
 0001:00010388       ?m_RecvIsLocalAddress@Struct_NetStack_Contracts_IPContract_Exp@@SIXPAU1@PAI@Z 02011388 f   NetStack.obj
 0001:00010510       ?m_RecvGetInterfaceState@Struct_NetStack_Contracts_IPContract_Exp@@SIXPAU1@PAPA_W@Z 02011510 f   NetStack.obj
 0001:00010698       ?m_RecvGetInterfaces@Struct_NetStack_Contracts_IPContract_Exp@@SIXPAU1@@Z 02011698 f   NetStack.obj
 0001:00010810       ?m_RecvGetHostName@Struct_NetStack_Contracts_IPContract_Exp@@SIXPAU1@@Z 02011810 f   NetStack.obj
 0001:00010988       ?m_RecvGetDomainName@Struct_NetStack_Contracts_IPContract_Exp@@SIXPAU1@@Z 02011988 f   NetStack.obj
 0001:00010b00       ?m_Peek@Struct_NetStack_Contracts_IPContract_Exp@@SIHPAU1@@Z 02011b00 f   NetStack.obj
 0001:00011134       ?m_HeadMatches@Struct_NetStack_Contracts_IPContract_Exp@@SI_NPAU1@HPA_NPAPAUClass_System_Object@@@Z 02012134 f   NetStack.obj
 0001:000111f4       ?m_HeadMatches@Struct_NetStack_Contracts_IPContract_Exp@@SI_NPAUClass_NetStack_Contracts_IPContract_Exp@@HPA_NPAPAUClass_System_Object@@@Z 020121f4 f   NetStack.obj
 0001:0001122c       ?m_Equals@Struct_NetStack_Contracts_IPContract_Exp@@SI_NPAU1@PAUClass_System_Object@@@Z 0201222c f   NetStack.obj
 0001:0001198c       ?m_Equals@Struct_NetStack_Contracts_IPContract_Exp@@SI_NPAUClass_NetStack_Contracts_IPContract_Exp@@PAUClass_System_Object@@@Z 0201298c f   NetStack.obj
 0001:000119b8       ?m_Dispose@Struct_NetStack_Contracts_IPContract_Exp@@SIXPAU1@@Z 020129b8 f   NetStack.obj
 0001:000119dc       ?m_Dispose@Struct_NetStack_Contracts_IPContract_Exp@@SIXPAUClass_NetStack_Contracts_IPContract_Exp@@@Z 020129dc f   NetStack.obj
 0001:00011a04       ?m_CurrentState@Struct_NetStack_Contracts_IPContract_Exp@@SIPAUClass_System_String@@PAU1@@Z 02012a04 f   NetStack.obj
 0001:00011c04       ?m__ctor@Class_System_InvalidOperationException@@SIXPAU1@@Z 02012c04 f   NetStack.obj
 0001:00011c2c       ?m__ctor@Class_System_InvalidOperationException@@SIXPAU1@PAUClass_System_String@@@Z 02012c2c f   NetStack.obj
 0001:00011c54       ?m__ctor@Class_System_InvalidOperationException@@SIXPAU1@PAUClass_System_String@@PAUClass_System_Exception@@@Z 02012c54 f   NetStack.obj
 0001:00011c84       ?m_StructCopy@Struct_Microsoft_Singularity_V1_Threads_AutoResetEventHandle@@SIXPAU1@0@Z 02012c84 f   NetStack.obj
 0001:00011cac       ?m_StructCopy@Struct_Microsoft_Singularity_V1_Threads_AutoResetEventHandle@@SIXPAU1@PAU1@@Z 02012cac f   NetStack.obj
 0001:00011d24       ?m_Equals@Struct_Microsoft_Singularity_V1_Threads_AutoResetEventHandle@@SI_NPAU1@PAUClass_System_Object@@@Z 02012d24 f   NetStack.obj
 0001:00011d6c       ?m_Equals@Struct_Microsoft_Singularity_V1_Threads_AutoResetEventHandle@@SI_NPAUClass_Microsoft_Singularity_V1_Threads_AutoResetEventHandle@@PAUClass_System_Object@@@Z 02012d6c f   NetStack.obj
 0001:00011d98       ?g_Create@Struct_Microsoft_Singularity_V1_Threads_AutoResetEventHandle@@SI_N_NPAU1@@Z 02012d98 f   NetStack.obj
 0001:00011de4       ?m_StructCopy@Struct_System_GCs_MemoryAccounting_RuntimeTypeAccounting@@SIXPAU1@0@Z 02012de4 f   NetStack.obj
 0001:00011e34       ?m_StructCopy@Struct_System_GCs_MemoryAccounting_RuntimeTypeAccounting@@SIXPAU1@PAU1@@Z 02012e34 f   NetStack.obj
 0001:00011f24       ?m_Equals@Struct_System_GCs_MemoryAccounting_RuntimeTypeAccounting@@SI_NPAU1@PAUClass_System_Object@@@Z 02012f24 f   NetStack.obj
 0001:00012004       ?m_Equals@Struct_System_GCs_MemoryAccounting_RuntimeTypeAccounting@@SI_NPAUClass_System_GCs_MemoryAccounting_RuntimeTypeAccounting@@PAUClass_System_Object@@@Z 02013004 f   NetStack.obj
 0001:00012030       ?m_StructCopy@Struct_Microsoft_Singularity_Io_Net_NicDeviceContract_UnsupportedChecksumProperties@@SIXPAU1@0@Z 02013030 f   NetStack.obj
 0001:0001204c       ?m_StructCopy@Struct_Microsoft_Singularity_Io_Net_NicDeviceContract_UnsupportedChecksumProperties@@SIXPAU1@PAU1@@Z 0201304c f   NetStack.obj
 0001:000120a0       ?m_Equals@Struct_Microsoft_Singularity_Io_Net_NicDeviceContract_UnsupportedChecksumProperties@@SI_NPAU1@PAUClass_System_Object@@@Z 020130a0 f   NetStack.obj
 0001:000120d8       ?m_Equals@Struct_Microsoft_Singularity_Io_Net_NicDeviceContract_UnsupportedChecksumProperties@@SI_NPAUClass_Microsoft_Singularity_Io_Net_NicDeviceContract_UnsupportedChecksumProperties@@PAUClass_System_Object@@@Z 020130d8 f   NetStack.obj
 0001:00012104       ?m_Finalize@Class__Netstack_Channels_Private_Microsoft_Singularity_Channels_TRef$_2$LNetStack_Contracts_DNSContract_Exp_NetStack_Contracts_DNSContract_ReadyState$G@@SIXPAU1@@Z 02013104 f   NetStack.obj
 0001:00012190       ?m_Acquire@Class__Netstack_Channels_Private_Microsoft_Singularity_Channels_TRef$_2$LNetStack_Contracts_DNSContract_Exp_NetStack_Contracts_DNSContract_ReadyState$G@@SIPAUStruct_NetStack_Contracts_DNSContract_Exp@@PAU1@@Z 02013190 f   NetStack.obj
 0001:0001222c       ?m__ctor@Class__Netstack_Channels_Private_Microsoft_Singularity_Channels_TRef$_2$LNetStack_Contracts_DNSContract_Exp_NetStack_Contracts_DNSContract_ReadyState$G@@SIXPAU1@PAUStruct_NetStack_Contracts_DNSContract_Exp@@@Z 0201322c f   NetStack.obj
 0001:000122d0       ?m_StructCopy@Struct_NetStack_Contracts_TcpContract_Exp@@SIXPAU1@0@Z 020132d0 f   NetStack.obj
 0001:000123ac       ?m_StructCopy@Struct_NetStack_Contracts_TcpContract_Exp@@SIXPAU1@PAU1@@Z 020133ac f   NetStack.obj
 0001:00012640       ?m_SendReady@Struct_NetStack_Contracts_TcpContract_Exp@@SIXPAU1@@Z 02013640 f   NetStack.obj
 0001:00012734       ?m_SendAck@Struct_NetStack_Contracts_TcpContract_Exp@@SIXPAU1@@Z 02013734 f   NetStack.obj
 0001:00012828       ?m_RecvCreateTcpSession@Struct_NetStack_Contracts_TcpContract_Exp@@SIXPAU1@PAPAUStruct_NetStack_Contracts_TcpConnectionContract_Exp@@@Z 02013828 f   NetStack.obj
 0001:000129b0       ?m_Peek@Struct_NetStack_Contracts_TcpContract_Exp@@SIHPAU1@@Z 020139b0 f   NetStack.obj
 0001:00012b58       ?m_HeadMatches@Struct_NetStack_Contracts_TcpContract_Exp@@SI_NPAU1@HPA_NPAPAUClass_System_Object@@@Z 02013b58 f   NetStack.obj
 0001:00012c18       ?m_HeadMatches@Struct_NetStack_Contracts_TcpContract_Exp@@SI_NPAUClass_NetStack_Contracts_TcpContract_Exp@@HPA_NPAPAUClass_System_Object@@@Z 02013c18 f   NetStack.obj
 0001:00012c50       ?m_Equals@Struct_NetStack_Contracts_TcpContract_Exp@@SI_NPAU1@PAUClass_System_Object@@@Z 02013c50 f   NetStack.obj
 0001:00012f2c       ?m_Equals@Struct_NetStack_Contracts_TcpContract_Exp@@SI_NPAUClass_NetStack_Contracts_TcpContract_Exp@@PAUClass_System_Object@@@Z 02013f2c f   NetStack.obj
 0001:00012f58       ?m_Dispose@Struct_NetStack_Contracts_TcpContract_Exp@@SIXPAU1@@Z 02013f58 f   NetStack.obj
 0001:00012f7c       ?m_Dispose@Struct_NetStack_Contracts_TcpContract_Exp@@SIXPAUClass_NetStack_Contracts_TcpContract_Exp@@@Z 02013f7c f   NetStack.obj
 0001:00012fa4       ?m_CurrentState@Struct_NetStack_Contracts_TcpContract_Exp@@SIPAUClass_System_String@@PAU1@@Z 02013fa4 f   NetStack.obj
 0001:00013044       ?m_StructCopy@Struct_Microsoft_Singularity_Directory_DirectoryServiceContract_AckCreateDirectory@@SIXPAU1@0@Z 02014044 f   NetStack.obj
 0001:00013060       ?m_StructCopy@Struct_Microsoft_Singularity_Directory_DirectoryServiceContract_AckCreateDirectory@@SIXPAU1@PAU1@@Z 02014060 f   NetStack.obj
 0001:000130b4       ?m_Equals@Struct_Microsoft_Singularity_Directory_DirectoryServiceContract_AckCreateDirectory@@SI_NPAU1@PAUClass_System_Object@@@Z 020140b4 f   NetStack.obj
 0001:000130ec       ?m_Equals@Struct_Microsoft_Singularity_Directory_DirectoryServiceContract_AckCreateDirectory@@SI_NPAUClass_Microsoft_Singularity_Directory_DirectoryServiceContract_AckCreateDirectory@@PAUClass_System_Object@@@Z 020140ec f   NetStack.obj
 0001:00013118       ?m_Finalize@Class__NetStack_Channels_Nic_Microsoft_Singularity_Channels_TRef$_2$LMicrosoft_Singularity_Io_Net_NicDeviceEventContract_Imp_Microsoft_Singularity_Io_Net_NicDeviceEventContract_READY$G@@SIXPAU1@@Z 02014118 f   NetStack.obj
 0001:000131a4       ?m_Acquire@Class__NetStack_Channels_Nic_Microsoft_Singularity_Channels_TRef$_2$LMicrosoft_Singularity_Io_Net_NicDeviceEventContract_Imp_Microsoft_Singularity_Io_Net_NicDeviceEventContract_READY$G@@SIPAUStruct_Microsoft_Singularity_Io_Net_NicDeviceEventContract_Imp@@PAU1@@Z 020141a4 f   NetStack.obj
 0001:00013240       ?m__ctor@Class__NetStack_Channels_Nic_Microsoft_Singularity_Channels_TRef$_2$LMicrosoft_Singularity_Io_Net_NicDeviceEventContract_Imp_Microsoft_Singularity_Io_Net_NicDeviceEventContract_READY$G@@SIXPAU1@PAUStruct_Microsoft_Singularity_Io_Net_NicDeviceEventContract_Imp@@@Z 02014240 f   NetStack.obj
 0001:000132e4       ?m_StructCopy@Struct_Microsoft_Singularity_Directory_DirectoryServiceContract_NakCreateFileReparse@@SIXPAU1@0@Z 020142e4 f   NetStack.obj
 0001:00013324       ?m_StructCopy@Struct_Microsoft_Singularity_Directory_DirectoryServiceContract_NakCreateFileReparse@@SIXPAU1@PAU1@@Z 02014324 f   NetStack.obj
 0001:000133e4       ?m_Equals@Struct_Microsoft_Singularity_Directory_DirectoryServiceContract_NakCreateFileReparse@@SI_NPAU1@PAUClass_System_Object@@@Z 020143e4 f   NetStack.obj
 0001:0001344c       ?m_Equals@Struct_Microsoft_Singularity_Directory_DirectoryServiceContract_NakCreateFileReparse@@SI_NPAUClass_Microsoft_Singularity_Directory_DirectoryServiceContract_NakCreateFileReparse@@PAUClass_System_Object@@@Z 0201444c f   NetStack.obj
 0001:00013478       ?m_HeadMatches@Class_Microsoft_Singularity_Channels_ESet$_2$LNetStack_Contracts_RoutingContract_Exp_NetStack_Contracts_RoutingContract_ReadyState$G@@SI_NPAU1@HPA_NPAPAUClass_System_Object@@@Z 02014478 f   NetStack.obj
 0001:000135f0       ?m_GetWaitHandle@Class_Microsoft_Singularity_Channels_ESet$_2$LNetStack_Contracts_RoutingContract_Exp_NetStack_Contracts_RoutingContract_ReadyState$G@@SI?AUStruct_Microsoft_Singularity_V1_Threads_SyncHandle@@PAU1@@Z 020145f0 f   NetStack.obj
 0001:0001365c       ?m_GetFreshNode@Class_Microsoft_Singularity_Channels_ESet$_2$LNetStack_Contracts_RoutingContract_Exp_NetStack_Contracts_RoutingContract_ReadyState$G@@SIPAUClass_Microsoft_Singularity_Channels_ESet$_2$LNetStack_Contracts_RoutingContract_Exp_NetStack_Contracts_RoutingContract_ReadyState$G_Node@@PAU1@PAUStruct_NetStack_Contracts_RoutingContract_Exp@@0@Z 0201465c f   NetStack.obj
 0001:00013700       ?m_get$_NextScanStart@Class_Microsoft_Singularity_Channels_ESet$_2$LNetStack_Contracts_RoutingContract_Exp_NetStack_Contracts_RoutingContract_ReadyState$G@@SIPAUClass_Microsoft_Singularity_Channels_ESet$_2$LNetStack_Contracts_RoutingContract_Exp_NetStack_Contracts_RoutingContract_ReadyState$G_Node@@PAU1@@Z 02014700 f   NetStack.obj
 0001:00013768       ?m_Extract@Class_Microsoft_Singularity_Channels_ESet$_2$LNetStack_Contracts_RoutingContract_Exp_NetStack_Contracts_RoutingContract_ReadyState$G@@SIPAUStruct_NetStack_Contracts_RoutingContract_Exp@@PAU1@PAUClass_System_Object@@@Z 02014768 f   NetStack.obj
 0001:00013820       ?m_Dispose@Class_Microsoft_Singularity_Channels_ESet$_2$LNetStack_Contracts_RoutingContract_Exp_NetStack_Contracts_RoutingContract_ReadyState$G@@SIXPAU1@@Z 02014820 f   NetStack.obj
 0001:0001390c       ?m_Add@Class_Microsoft_Singularity_Channels_ESet$_2$LNetStack_Contracts_RoutingContract_Exp_NetStack_Contracts_RoutingContract_ReadyState$G@@SIXPAU1@PAUStruct_NetStack_Contracts_RoutingContract_Exp@@@Z 0201490c f   NetStack.obj
 0001:0001393c       ?m__ctor@Class_Microsoft_Singularity_Channels_ESet$_2$LNetStack_Contracts_RoutingContract_Exp_NetStack_Contracts_RoutingContract_ReadyState$G@@SIXPAU1@@Z 0201493c f   NetStack.obj
 0001:000139c8       ?m_StructCopy@Struct_NetStack_Contracts_TcpContract_CreateTcpSession@@SIXPAU1@0@Z 020149c8 f   NetStack.obj
 0001:000139f0       ?m_StructCopy@Struct_NetStack_Contracts_TcpContract_CreateTcpSession@@SIXPAU1@PAU1@@Z 020149f0 f   NetStack.obj
 0001:00013a68       ?m_Equals@Struct_NetStack_Contracts_TcpContract_CreateTcpSession@@SI_NPAU1@PAUClass_System_Object@@@Z 02014a68 f   NetStack.obj
 0001:00013ab0       ?m_Equals@Struct_NetStack_Contracts_TcpContract_CreateTcpSession@@SI_NPAUClass_NetStack_Contracts_TcpContract_CreateTcpSession@@PAUClass_System_Object@@@Z 02014ab0 f   NetStack.obj
 0001:00013adc       ?m_StructCopy@Struct_NetStack_Contracts_UdpContract_Ready@@SIXPAU1@0@Z 02014adc f   NetStack.obj
 0001:00013af8       ?m_StructCopy@Struct_NetStack_Contracts_UdpContract_Ready@@SIXPAU1@PAU1@@Z 02014af8 f   NetStack.obj
 0001:00013b4c       ?m_MarshallContent@Struct_NetStack_Contracts_UdpContract_Ready@@SIXPAU1@PAEPAUStruct_Microsoft_Singularity_Channels_Endpoint@@1PAH@Z 02014b4c f   NetStack.obj
 0001:00013b6c       ?m_MarshallAll@Struct_NetStack_Contracts_UdpContract_Ready@@SIXPAU1@PAEPAUStruct_Microsoft_Singularity_Channels_Endpoint@@PAH@Z 02014b6c f   NetStack.obj
 0001:00013bc4       ?m_Equals@Struct_NetStack_Contracts_UdpContract_Ready@@SI_NPAU1@PAUClass_System_Object@@@Z 02014bc4 f   NetStack.obj
 0001:00013bfc       ?m_Equals@Struct_NetStack_Contracts_UdpContract_Ready@@SI_NPAUClass_NetStack_Contracts_UdpContract_Ready@@PAUClass_System_Object@@@Z 02014bfc f   NetStack.obj
 0001:00013c28       ?g_WriteLine@Class_Microsoft_Singularity_DebugStub@@SIXPAUClass_System_String@@@Z 02014c28 f   NetStack.obj
 0001:00013c8c       ?g_WriteLine@Class_Microsoft_Singularity_DebugStub@@SIXPAUClass_System_String@@UStruct_System_VarargList@@@Z 02014c8c f   NetStack.obj
 0001:00013cf4       ?g_WriteLine@Class_Microsoft_Singularity_DebugStub@@SIXPAUClass_System_String@@UStruct_System_ArgIterator@@@Z 02014cf4 f   NetStack.obj
 0001:00013eec       ?g_Write@Class_Microsoft_Singularity_DebugStub@@SIXPAUClass_System_String@@@Z 02014eec f   NetStack.obj
 0001:00013f50       ?g_Print@Class_Microsoft_Singularity_DebugStub@@SIXPAUClass_System_String@@@Z 02014f50 f   NetStack.obj
 0001:00013fb4       ?g_Print@Class_Microsoft_Singularity_DebugStub@@SIXPAUClass_System_String@@UStruct_System_VarargList@@@Z 02014fb4 f   NetStack.obj
 0001:0001401c       ?g_Print@Class_Microsoft_Singularity_DebugStub@@SIXPAUClass_System_String@@UStruct_System_ArgIterator@@@Z 0201501c f   NetStack.obj
 0001:00014054       ?g_InsertFormat@Class_Microsoft_Singularity_DebugStub@@SIXPA_WPAHHPAUClass_System_String@@UStruct_System_VarargList@@@Z 02015054 f   NetStack.obj
 0001:000140f4       ?g_failAssert@Class_Microsoft_Singularity_DebugStub@@SIXPAUClass_System_String@@@Z 020150f4 f   NetStack.obj
 0001:0001411c       ?g_Assert@Class_Microsoft_Singularity_DebugStub@@SIX_N@Z 0201511c f   NetStack.obj
 0001:0001414c       ?g_AddToPerfCounter@Class_Microsoft_Singularity_DebugStub@@SI_NI_K@Z 0201514c f   NetStack.obj
 0001:00014184       ?g_AddLineHeader@Class_Microsoft_Singularity_DebugStub@@SIXPA_WPAHH@Z 02015184 f   NetStack.obj
 0001:00014384       ?m__ctor@Class_Microsoft_Singularity_DebugStub@@SIXPAU1@@Z 02015384 f   NetStack.obj
 0001:000143a0       ?m_FieldOffset@Class_System_GCs_Barrier_ZeroFieldsVisitor@@SIXPAU1@PAUuintPtr@@PAUStruct_System_GCs_ReferenceVisitor_ObjectDescriptor@@@Z 020153a0 f   NetStack.obj
 0001:0001443c       ?m__ctor@Class_System_GCs_Barrier_ZeroFieldsVisitor@@SIXPAU1@@Z 0201543c f   NetStack.obj
 0001:00014460       ?m_StructCopy@Struct_Microsoft_Singularity_Isal_IX_EFlags@@SIXPAU1@0@Z 02015460 f   NetStack.obj
 0001:0001447c       ?m_StructCopy@Struct_Microsoft_Singularity_Isal_IX_EFlags@@SIXPAU1@PAU1@@Z 0201547c f   NetStack.obj
 0001:000144d0       ?m_Equals@Struct_Microsoft_Singularity_Isal_IX_EFlags@@SI_NPAU1@PAUClass_System_Object@@@Z 020154d0 f   NetStack.obj
 0001:00014508       ?m_Equals@Struct_Microsoft_Singularity_Isal_IX_EFlags@@SI_NPAUClass_Microsoft_Singularity_Isal_IX_EFlags@@PAUClass_System_Object@@@Z 02015508 f   NetStack.obj
 0001:00014534       ?g_WriteUdpPacket@Class_NetStack_Protocols_UdpFormat@@SIXPAUClassVector_uint8@@HUStruct_System_Net_IP_IPv4@@G1GPAEHH@Z 02015534 f   NetStack.obj
 0001:00014630       ?g_WriteUdpPacket@Class_NetStack_Protocols_UdpFormat@@SIXPAUClassVector_uint8@@HUStruct_System_Net_IP_IPv4@@G1G0HH@Z 02015630 f   NetStack.obj
 0001:0001472c       ?g_WriteUdpPacket@Class_NetStack_Protocols_UdpFormat@@SIXPAUClassVector_uint8@@HPAUClass_NetStack_Protocols_IPFormat_IPHeader@@PAUStruct_NetStack_Protocols_UdpFormat_UdpHeader@@PAEHH@Z 0201572c f   NetStack.obj
 0001:000147a4       ?g_WriteUdpPacket@Class_NetStack_Protocols_UdpFormat@@SIXPAUClassVector_uint8@@HPAUClass_NetStack_Protocols_IPFormat_IPHeader@@PAUStruct_NetStack_Protocols_UdpFormat_UdpHeader@@0HH@Z 020157a4 f   NetStack.obj
 0001:00014834       ?g_WriteUdpHeader@Class_NetStack_Protocols_UdpFormat@@SIHPAUClassVector_uint8@@HPAUStruct_NetStack_Protocols_UdpFormat_UdpHeader@@@Z 02015834 f   NetStack.obj
 0001:00014a88       ?g_SumHeader@Class_NetStack_Protocols_UdpFormat@@SIGUStruct_NetStack_Protocols_UdpFormat_UdpHeader@@@Z 02015a88 f   NetStack.obj
 0001:00014afc       ?g_SetUdpChecksum@Class_NetStack_Protocols_UdpFormat@@SIXPAUClassVector_uint8@@HPAUStruct_NetStack_Protocols_UdpFormat_UdpHeader@@@Z 02015afc f   NetStack.obj
 0001:00014c94       ?g_ReadUdpHeader@Class_NetStack_Protocols_UdpFormat@@SI_NPAUClass_NetStack_Common_IBuffer@@PAUStruct_NetStack_Protocols_UdpFormat_UdpHeader@@@Z 02015c94 f   NetStack.obj
 0001:00014d98       ?g_IsChecksumValid@Class_NetStack_Protocols_UdpFormat@@SI_NPAUClass_NetStack_Protocols_IPFormat_IPHeader@@UStruct_NetStack_Protocols_UdpFormat_UdpHeader@@PAUClass_NetStack_Common_NetPacket@@@Z 02015d98 f   NetStack.obj
 0001:00015008       ?m__ctor@Class_NetStack_Protocols_UdpFormat@@SIXPAU1@@Z 02016008 f   NetStack.obj
 0001:00015020       ?m_Release@Class_Microsoft_Singularity_Channels_VContainer$_1$LSystem_Byte$G@@SIXPAU1@PAE@Z 02016020 f   NetStack.obj
 0001:00015094       ?m_Finalize@Class_Microsoft_Singularity_Channels_VContainer$_1$LSystem_Byte$G@@SIXPAU1@@Z 02016094 f   NetStack.obj
 0001:00015110       ?m_Acquire@Class_Microsoft_Singularity_Channels_VContainer$_1$LSystem_Byte$G@@SIPAEPAU1@@Z 02016110 f   NetStack.obj
 0001:0001519c       ?m__ctor@Class_Microsoft_Singularity_Channels_VContainer$_1$LSystem_Byte$G@@SIXPAU1@PAE@Z 0201619c f   NetStack.obj
 0001:00015230       ?m_StructCopy@Struct_System_UpdateLogWriter@@SIXPAU1@0@Z 02016230 f   NetStack.obj
 0001:00015264       ?m_StructCopy@Struct_System_UpdateLogWriter@@SIXPAU1@PAU1@@Z 02016264 f   NetStack.obj
 0001:00015300       ?m_Equals@Struct_System_UpdateLogWriter@@SI_NPAU1@PAUClass_System_Object@@@Z 02016300 f   NetStack.obj
 0001:0001535c       ?m_Equals@Struct_System_UpdateLogWriter@@SI_NPAUClass_System_UpdateLogWriter@@PAUClass_System_Object@@@Z 0201635c f   NetStack.obj
 0001:00015388       ?m_StructCopy@Struct_Microsoft_Singularity_Directory_DirectoryServiceContract_NakStoreACLReparse@@SIXPAU1@0@Z 02016388 f   NetStack.obj
 0001:000153c8       ?m_StructCopy@Struct_Microsoft_Singularity_Directory_DirectoryServiceContract_NakStoreACLReparse@@SIXPAU1@PAU1@@Z 020163c8 f   NetStack.obj
 0001:00015488       ?m_Equals@Struct_Microsoft_Singularity_Directory_DirectoryServiceContract_NakStoreACLReparse@@SI_NPAU1@PAUClass_System_Object@@@Z 02016488 f   NetStack.obj
 0001:000154f0       ?m_Equals@Struct_Microsoft_Singularity_Directory_DirectoryServiceContract_NakStoreACLReparse@@SI_NPAUClass_Microsoft_Singularity_Directory_DirectoryServiceContract_NakStoreACLReparse@@PAUClass_System_Object@@@Z 020164f0 f   NetStack.obj
 0001:0001551c       ?m__ctor@Class_System_NotSupportedException@@SIXPAU1@@Z 0201651c f   NetStack.obj
 0001:00015544       ?m__ctor@Class_System_NotSupportedException@@SIXPAU1@PAUClass_System_String@@@Z 02016544 f   NetStack.obj
 0001:0001556c       ?m_Visit@Class_System_GCs_GCProfiler_RootVisitor@@SIXPAU1@PAPAUuintPtr@@@Z 0201656c f   NetStack.obj
 0001:00015598       ?m__ctor@Class_System_GCs_GCProfiler_RootVisitor@@SIXPAU1@PAUClass_System_GCs_GCProfiler@@@Z 02016598 f   NetStack.obj
 0001:000155c8       ?m_StructCopy@Struct_System_InterfaceInfo@@SIXPAU1@0@Z 020165c8 f   NetStack.obj
 0001:000155fc       ?m_StructCopy@Struct_System_InterfaceInfo@@SIXPAU1@PAU1@@Z 020165fc f   NetStack.obj
 0001:00015698       ?m_Equals@Struct_System_InterfaceInfo@@SI_NPAU1@PAUClass_System_Object@@@Z 02016698 f   NetStack.obj
 0001:000156f8       ?m_Equals@Struct_System_InterfaceInfo@@SI_NPAUClass_System_InterfaceInfo@@PAUClass_System_Object@@@Z 020166f8 f   NetStack.obj
 0001:00015724       ?m_StructCopy@Struct_NetStack_Contracts_TcpConnectionContract_GetLocalAddress@@SIXPAU1@0@Z 02016724 f   NetStack.obj
 0001:00015740       ?m_StructCopy@Struct_NetStack_Contracts_TcpConnectionContract_GetLocalAddress@@SIXPAU1@PAU1@@Z 02016740 f   NetStack.obj
 0001:00015794       ?m_Equals@Struct_NetStack_Contracts_TcpConnectionContract_GetLocalAddress@@SI_NPAU1@PAUClass_System_Object@@@Z 02016794 f   NetStack.obj
 0001:000157cc       ?m_Equals@Struct_NetStack_Contracts_TcpConnectionContract_GetLocalAddress@@SI_NPAUClass_NetStack_Contracts_TcpConnectionContract_GetLocalAddress@@PAUClass_System_Object@@@Z 020167cc f   NetStack.obj
 0001:000157f8       ?g_QuickScanLongerString@Class_System_Globalization_CompareInfo@@SIHPAUClass_System_String@@HHHHHHH@Z 020167f8 f   NetStack.obj
 0001:000158c0       ?g_GetUnicode@Class_System_Globalization_CompareInfo@@SIG_W@Z 020168c0 f   NetStack.obj
 0001:00015968       ?g_GetDiacritic@Class_System_Globalization_CompareInfo@@SIE_W@Z 02016968 f   NetStack.obj
 0001:00015a0c       ?g_GetCase@Class_System_Globalization_CompareInfo@@SIE_W@Z 02016a0c f   NetStack.obj
 0001:00015ab0       ?g_GET$_SCRIPT$_MEMBER@Class_System_Globalization_CompareInfo@@SIEG@Z 02016ab0 f   NetStack.obj
 0001:00015adc       ?g_GET$_ALPHA$_NUMERIC@Class_System_Globalization_CompareInfo@@SIEG@Z 02016adc f   NetStack.obj
 0001:00015b04       ?g_CompareString@Class_System_Globalization_CompareInfo@@SIHUStruct_System_Globalization_CompareOptions@@PAUClass_System_String@@HH1HH@Z 02016b04 f   NetStack.obj
 0001:000161fc       ?g_CompareOrdinal@Class_System_Globalization_CompareInfo@@SIHPAUClass_System_String@@HH0HH@Z 020171fc f   NetStack.obj
 0001:000162f8       ?g_Compare@Class_System_Globalization_CompareInfo@@SIHPAUClass_System_String@@0@Z 020172f8 f   NetStack.obj
 0001:00016324       ?g_Compare@Class_System_Globalization_CompareInfo@@SIHPAUClass_System_String@@0UStruct_System_Globalization_CompareOptions@@@Z 02017324 f   NetStack.obj
 0001:00016454       ?m__ctor@Class_System_Globalization_CompareInfo@@SIXPAU1@@Z 02017454 f   NetStack.obj
 0001:0001646c       ?g__cctor@Class_System_Globalization_CompareInfo@@SIXXZ 0201746c f   NetStack.obj
 0001:00016480       ?m_StructCopy@Struct_System_UpdateLog_Location@@SIXPAU1@0@Z 02017480 f   NetStack.obj
 0001:000164b4       ?m_StructCopy@Struct_System_UpdateLog_Location@@SIXPAU1@PAU1@@Z 020174b4 f   NetStack.obj
 0001:00016550       ?m_Equals@Struct_System_UpdateLog_Location@@SI_NPAU1@PAUClass_System_Object@@@Z 02017550 f   NetStack.obj
 0001:000165b0       ?m_Equals@Struct_System_UpdateLog_Location@@SI_NPAUClass_System_UpdateLog_Location@@PAUClass_System_Object@@@Z 020175b0 f   NetStack.obj
 0001:000165dc       ?m__ctor@Struct_System_UpdateLog_Location@@SIXPAU1@PAUClass_System_UpdateLog_LogChunk@@H@Z 020175dc f   NetStack.obj
 0001:0001660c       ?m_StructCopy@Struct_NetStack_Contracts_IPContract_SetHostName@@SIXPAU1@0@Z 0201760c f   NetStack.obj
 0001:00016634       ?m_StructCopy@Struct_NetStack_Contracts_IPContract_SetHostName@@SIXPAU1@PAU1@@Z 02017634 f   NetStack.obj
 0001:000166ac       ?m_Equals@Struct_NetStack_Contracts_IPContract_SetHostName@@SI_NPAU1@PAUClass_System_Object@@@Z 020176ac f   NetStack.obj
 0001:000166f4       ?m_Equals@Struct_NetStack_Contracts_IPContract_SetHostName@@SI_NPAUClass_NetStack_Contracts_IPContract_SetHostName@@PAUClass_System_Object@@@Z 020176f4 f   NetStack.obj
 0001:00016720       ?m__ctor@Class_NetStack_Runtime_Core_AdapterArgs@@SIXPAU1@PAUClass_NetStack_Common_IAdapter@@PAUClass_System_String@@H@Z 02017720 f   NetStack.obj
 0001:0001675c       ?m_StructCopy@Struct_NetStack_Runtime_TcpSessionEventsSource_ReceivedPacketEntry@@SIXPAU1@0@Z 0201775c f   NetStack.obj
 0001:000167ac       ?m_StructCopy@Struct_NetStack_Runtime_TcpSessionEventsSource_ReceivedPacketEntry@@SIXPAU1@PAU1@@Z 020177ac f   NetStack.obj
 0001:0001689c       ?m_Equals@Struct_NetStack_Runtime_TcpSessionEventsSource_ReceivedPacketEntry@@SI_NPAU1@PAUClass_System_Object@@@Z 0201789c f   NetStack.obj
 0001:00016918       ?m_Equals@Struct_NetStack_Runtime_TcpSessionEventsSource_ReceivedPacketEntry@@SI_NPAUClass_NetStack_Runtime_TcpSessionEventsSource_ReceivedPacketEntry@@PAUClass_System_Object@@@Z 02017918 f   NetStack.obj
 0001:00016944       ?m__ctor@Struct_NetStack_Runtime_TcpSessionEventsSource_ReceivedPacketEntry@@SIXPAU1@IUStruct_NetStack_Runtime_TcpStateEnum@@II@Z 02017944 f   NetStack.obj
 0001:00016994       ?m_Visit@Class_System_GCs_Verifier_GenericThreadReferenceVisitor@@SIXPAU1@PAPAUuintPtr@@@Z 02017994 f   NetStack.obj
 0001:00016c98       ?m__ctor@Class_System_GCs_Verifier_GenericThreadReferenceVisitor@@SIXPAU1@@Z 02017c98 f   NetStack.obj
 0001:00016cbc       ?m_StructCopy@Struct_NetStack_Contracts_UdpConnectionContract_Connect@@SIXPAU1@0@Z 02017cbc f   NetStack.obj
 0001:00016d0c       ?m_StructCopy@Struct_NetStack_Contracts_UdpConnectionContract_Connect@@SIXPAU1@PAU1@@Z 02017d0c f   NetStack.obj
 0001:00016dfc       ?m_Equals@Struct_NetStack_Contracts_UdpConnectionContract_Connect@@SI_NPAU1@PAUClass_System_Object@@@Z 02017dfc f   NetStack.obj
 0001:00016e78       ?m_Equals@Struct_NetStack_Contracts_UdpConnectionContract_Connect@@SI_NPAUClass_NetStack_Contracts_UdpConnectionContract_Connect@@PAUClass_System_Object@@@Z 02017e78 f   NetStack.obj
 0001:00016ea4       ?m_StructCopy@Struct_System_GCs_ReferenceVisitor_ObjectDescriptor@@SIXPAU1@0@Z 02017ea4 f   NetStack.obj
 0001:00016f08       ?m_StructCopy@Struct_System_GCs_ReferenceVisitor_ObjectDescriptor@@SIXPAU1@PAU1@@Z 02017f08 f   NetStack.obj
 0001:00017034       ?m_Equals@Struct_System_GCs_ReferenceVisitor_ObjectDescriptor@@SI_NPAU1@PAUClass_System_Object@@@Z 02018034 f   NetStack.obj
 0001:000170d4       ?m_Equals@Struct_System_GCs_ReferenceVisitor_ObjectDescriptor@@SI_NPAUClass_System_GCs_ReferenceVisitor_ObjectDescriptor@@PAUClass_System_Object@@@Z 020180d4 f   NetStack.obj
 0001:00017100       ?m__ctor@Struct_System_GCs_ReferenceVisitor_ObjectDescriptor@@SIXPAU1@PAUClass_System_VTable@@PAUuintPtr@@@Z 02018100 f   NetStack.obj
 0001:00017178       ?m__ctor@Struct_System_GCs_ReferenceVisitor_ObjectDescriptor@@SIXPAU1@PAUClass_System_VTable@@PAUuintPtr@@2@Z 02018178 f   NetStack.obj
 0001:000171f0       ?m__ctor@Struct_System_GCs_ReferenceVisitor_ObjectDescriptor@@SIXPAU1@PAUClass_System_VTable@@PAUuintPtr@@22@Z 020181f0 f   NetStack.obj
 0001:00017268       ?m__ctor@Struct_System_GCs_ReferenceVisitor_ObjectDescriptor@@SIXPAU1@PAUClass_System_VTable@@PAUuintPtr@@22PAUClass_System_Object@@3@Z 02018268 f   NetStack.obj
 0001:000172c0       ?g_get$_OffsetToStringData@Class_System_Runtime_CompilerServices_RuntimeHelpers@@SIHXZ 020182c0 f   NetStack.obj
 0001:000172d8       ?m__ctor@Class_System_Runtime_CompilerServices_RuntimeHelpers@@SIXPAU1@@Z 020182d8 f   NetStack.obj
 0001:000172f0       ?g_ConvertToLong@Class_System_RuntimeTypeHash@@SI_JPAUClassVector_uint8@@H@Z 020182f0 f   NetStack.obj
 0001:000173c4       ?g_ComputeHashAndReturnName@Class_System_RuntimeTypeHash@@SIPAUClassVector_uint8@@PAUClass_System_String@@PA_J1@Z 020183c4 f   NetStack.obj
 0001:00017434       ?g_ComputeHash@Class_System_RuntimeTypeHash@@SIXPAUClassVector_uint8@@PA_J1@Z 02018434 f   NetStack.obj
 0001:000174d4       ?m__ctor@Class_System_RuntimeTypeHash@@SIXPAU1@@Z 020184d4 f   NetStack.obj
 0001:000174ec       ?m_Finalize@Class__NetStackLib_Microsoft_Singularity_Channels_TRef$_2$LNetStack_Runtime_StopThreadContract_Imp_NetStack_Runtime_StopThreadContract_Ready$G@@SIXPAU1@@Z 020184ec f   NetStack.obj
 0001:00017578       ?m_Acquire@Class__NetStackLib_Microsoft_Singularity_Channels_TRef$_2$LNetStack_Runtime_StopThreadContract_Imp_NetStack_Runtime_StopThreadContract_Ready$G@@SIPAUStruct_NetStack_Runtime_StopThreadContract_Imp@@PAU1@@Z 02018578 f   NetStack.obj
 0001:00017614       ?m__ctor@Class__NetStackLib_Microsoft_Singularity_Channels_TRef$_2$LNetStack_Runtime_StopThreadContract_Imp_NetStack_Runtime_StopThreadContract_Ready$G@@SIXPAU1@PAUStruct_NetStack_Runtime_StopThreadContract_Imp@@@Z 02018614 f   NetStack.obj
 0001:000176b8       ?m_StructCopy@Struct_System_UpdateEnlistmentLog_Location@@SIXPAU1@0@Z 020186b8 f   NetStack.obj
 0001:000176ec       ?m_StructCopy@Struct_System_UpdateEnlistmentLog_Location@@SIXPAU1@PAU1@@Z 020186ec f   NetStack.obj
 0001:00017788       ?m_Equals@Struct_System_UpdateEnlistmentLog_Location@@SI_NPAU1@PAUClass_System_Object@@@Z 02018788 f   NetStack.obj
 0001:000177e8       ?m_Equals@Struct_System_UpdateEnlistmentLog_Location@@SI_NPAUClass_System_UpdateEnlistmentLog_Location@@PAUClass_System_Object@@@Z 020187e8 f   NetStack.obj
 0001:00017814       ?m__ctor@Struct_System_UpdateEnlistmentLog_Location@@SIXPAU1@PAUClass_System_UpdateEnlistmentLog_LogChunk@@H@Z 02018814 f   NetStack.obj
 0001:00017844       ?m_StructCopy@Struct_NetStack_Contracts_TcpConnectionContract_Listen@@SIXPAU1@0@Z 02018844 f   NetStack.obj
 0001:0001786c       ?m_StructCopy@Struct_NetStack_Contracts_TcpConnectionContract_Listen@@SIXPAU1@PAU1@@Z 0201886c f   NetStack.obj
 0001:000178e4       ?m_Equals@Struct_NetStack_Contracts_TcpConnectionContract_Listen@@SI_NPAU1@PAUClass_System_Object@@@Z 020188e4 f   NetStack.obj
 0001:0001792c       ?m_Equals@Struct_NetStack_Contracts_TcpConnectionContract_Listen@@SI_NPAUClass_NetStack_Contracts_TcpConnectionContract_Listen@@PAUClass_System_Object@@@Z 0201892c f   NetStack.obj
 0001:00017958       ?g_StructSize@Class_System_Runtime_InteropServices_Marshal@@SIHPAUClass_System_Type@@@Z 02018958 f   NetStack.obj
 0001:00017a18       ?m__ctor@Class_System_Runtime_InteropServices_Marshal@@SIXPAU1@@Z 02018a18 f   NetStack.obj
 0001:00017a30       ?m__ctor@Class_System_Runtime_CompilerServices_CalledRarelyAttribute@@SIXPAU1@@Z 02018a30 f   NetStack.obj
 0001:00017a54       ?g_Truncate@Class_System_GCs_BootstrapMemory@@SIXXZ 02018a54 f   NetStack.obj
 0001:00017bb8       ?g_Initialize@Class_System_GCs_BootstrapMemory@@SIXPAUuintPtr@@@Z 02018bb8 f   NetStack.obj
 0001:00017bfc       ?g_AllocateBlock@Class_System_GCs_BootstrapMemory@@SIPAUuintPtr@@PAU2@I@Z 02018bfc f   NetStack.obj
 0001:00017d2c       ?g_Allocate@Class_System_GCs_BootstrapMemory@@SIPAUClass_System_Object@@PAUClass_System_VTable@@@Z 02018d2c f   NetStack.obj
 0001:00017de4       ?g_Allocate@Class_System_GCs_BootstrapMemory@@SIPAUClass_System_Object@@PAUClass_System_VTable@@I@Z 02018de4 f   NetStack.obj
 0001:00017e5c       ?g_Allocate@Class_System_GCs_BootstrapMemory@@SIPAUClass_System_Object@@PAUClass_System_Type@@@Z 02018e5c f   NetStack.obj
 0001:00017e80       ?g_Allocate@Class_System_GCs_BootstrapMemory@@SIPAUClass_System_Object@@PAUClass_System_Type@@I@Z 02018e80 f   NetStack.obj
 0001:00017eac       ?g_Allocate@Class_System_GCs_BootstrapMemory@@SIPAUClass_System_Object@@PAUClass_System_RuntimeType@@@Z 02018eac f   NetStack.obj
 0001:00017ed0       ?g_Allocate@Class_System_GCs_BootstrapMemory@@SIPAUClass_System_Object@@PAUClass_System_RuntimeType@@I@Z 02018ed0 f   NetStack.obj
 0001:00017efc       ?m__ctor@Class_System_GCs_BootstrapMemory@@SIXPAU1@@Z 02018efc f   NetStack.obj
 0001:00017f14       ?m_StructCopy@Struct_NetStack_Contracts_TcpConnectionContract_Imp@@SIXPAU1@0@Z 02018f14 f   NetStack.obj
 0001:000180cc       ?m_StructCopy@Struct_NetStack_Contracts_TcpConnectionContract_Imp@@SIXPAU1@PAU1@@Z 020190cc f   NetStack.obj
 0001:000185f4       ?m_Peek@Struct_NetStack_Contracts_TcpConnectionContract_Imp@@SIHPAU1@@Z 020195f4 f   NetStack.obj
 0001:0001999c       ?m_MarshallDeliverSessionIsAvailable0@Struct_NetStack_Contracts_TcpConnectionContract_Imp@@SIXPAU1@_NPAUStruct_Microsoft_Singularity_Channels_Endpoint@@@Z 0201a99c f   NetStack.obj
 0001:000199ec       ?m_MarshallDeliverReady0@Struct_NetStack_Contracts_TcpConnectionContract_Imp@@SIXPAU1@PAUStruct_Microsoft_Singularity_Channels_Endpoint@@@Z 0201a9ec f   NetStack.obj
 0001:00019a38       ?m_MarshallDeliverPort0@Struct_NetStack_Contracts_TcpConnectionContract_Imp@@SIXPAU1@GPAUStruct_Microsoft_Singularity_Channels_Endpoint@@@Z 0201aa38 f   NetStack.obj
 0001:00019a8c       ?m_MarshallDeliverOK0@Struct_NetStack_Contracts_TcpConnectionContract_Imp@@SIXPAU1@PAUStruct_Microsoft_Singularity_Channels_Endpoint@@@Z 0201aa8c f   NetStack.obj
 0001:00019ad8       ?m_MarshallDeliverNoMoreData0@Struct_NetStack_Contracts_TcpConnectionContract_Imp@@SIXPAU1@PAUStruct_Microsoft_Singularity_Channels_Endpoint@@@Z 0201aad8 f   NetStack.obj
 0001:00019b24       ?m_MarshallDeliverNoData0@Struct_NetStack_Contracts_TcpConnectionContract_Imp@@SIXPAU1@PAUStruct_Microsoft_Singularity_Channels_Endpoint@@@Z 0201ab24 f   NetStack.obj
 0001:00019b70       ?m_MarshallDeliverIPAddress0@Struct_NetStack_Contracts_TcpConnectionContract_Imp@@SIXPAU1@IPAUStruct_Microsoft_Singularity_Channels_Endpoint@@@Z 0201ab70 f   NetStack.obj
 0001:00019bc0       ?m_MarshallDeliverInvalidEndPoint0@Struct_NetStack_Contracts_TcpConnectionContract_Imp@@SIXPAU1@PAUStruct_Microsoft_Singularity_Channels_Endpoint@@@Z 0201abc0 f   NetStack.obj
 0001:00019c0c       ?m_MarshallDeliverDataIsAvailable0@Struct_NetStack_Contracts_TcpConnectionContract_Imp@@SIXPAU1@_NPAUStruct_Microsoft_Singularity_Channels_Endpoint@@@Z 0201ac0c f   NetStack.obj
 0001:00019c5c       ?m_MarshallDeliverData0@Struct_NetStack_Contracts_TcpConnectionContract_Imp@@SIXPAU1@PAEPAUStruct_Microsoft_Singularity_Channels_Endpoint@@@Z 0201ac5c f   NetStack.obj
 0001:00019cac       ?m_MarshallDeliverCouldNotListen0@Struct_NetStack_Contracts_TcpConnectionContract_Imp@@SIXPAU1@PAUStruct_Microsoft_Singularity_Channels_Endpoint@@@Z 0201acac f   NetStack.obj
 0001:00019cf8       ?m_MarshallDeliverCouldNotConnect0@Struct_NetStack_Contracts_TcpConnectionContract_Imp@@SIXPAU1@UStruct_NetStack_Contracts_TcpError@@PAUStruct_Microsoft_Singularity_Channels_Endpoint@@@Z 0201acf8 f   NetStack.obj
 0001:00019d48       ?m_MarshallDeliverConnectionClosed0@Struct_NetStack_Contracts_TcpConnectionContract_Imp@@SIXPAU1@PAUStruct_Microsoft_Singularity_Channels_Endpoint@@@Z 0201ad48 f   NetStack.obj
 0001:00019d94       ?m_MarshallDeliverCantSend0@Struct_NetStack_Contracts_TcpConnectionContract_Imp@@SIXPAU1@PAUStruct_Microsoft_Singularity_Channels_Endpoint@@@Z 0201ad94 f   NetStack.obj
 0001:00019de0       ?m_HeadMatches@Struct_NetStack_Contracts_TcpConnectionContract_Imp@@SI_NPAU1@HPA_NPAPAUClass_System_Object@@@Z 0201ade0 f   NetStack.obj
 0001:00019ea0       ?m_HeadMatches@Struct_NetStack_Contracts_TcpConnectionContract_Imp@@SI_NPAUClass_NetStack_Contracts_TcpConnectionContract_Imp@@HPA_NPAPAUClass_System_Object@@@Z 0201aea0 f   NetStack.obj
 0001:00019ed8       ?m_Equals@Struct_NetStack_Contracts_TcpConnectionContract_Imp@@SI_NPAU1@PAUClass_System_Object@@@Z 0201aed8 f   NetStack.obj
 0001:0001a6ec       ?m_Equals@Struct_NetStack_Contracts_TcpConnectionContract_Imp@@SI_NPAUClass_NetStack_Contracts_TcpConnectionContract_Imp@@PAUClass_System_Object@@@Z 0201b6ec f   NetStack.obj
 0001:0001a718       ?m_Dispose@Struct_NetStack_Contracts_TcpConnectionContract_Imp@@SIXPAU1@@Z 0201b718 f   NetStack.obj
 0001:0001a73c       ?m_Dispose@Struct_NetStack_Contracts_TcpConnectionContract_Imp@@SIXPAUClass_NetStack_Contracts_TcpConnectionContract_Imp@@@Z 0201b73c f   NetStack.obj
 0001:0001a764       ?m_DeliverSessionIsAvailable0@Struct_NetStack_Contracts_TcpConnectionContract_Imp@@SIXPAU1@_N@Z 0201b764 f   NetStack.obj
 0001:0001a7ac       ?m_DeliverReady0@Struct_NetStack_Contracts_TcpConnectionContract_Imp@@SIXPAU1@@Z 0201b7ac f   NetStack.obj
 0001:0001a7e0       ?m_DeliverPort0@Struct_NetStack_Contracts_TcpConnectionContract_Imp@@SIXPAU1@G@Z 0201b7e0 f   NetStack.obj
 0001:0001a82c       ?m_DeliverOK0@Struct_NetStack_Contracts_TcpConnectionContract_Imp@@SIXPAU1@@Z 0201b82c f   NetStack.obj
 0001:0001a860       ?m_DeliverNoMoreData0@Struct_NetStack_Contracts_TcpConnectionContract_Imp@@SIXPAU1@@Z 0201b860 f   NetStack.obj
 0001:0001a894       ?m_DeliverNoData0@Struct_NetStack_Contracts_TcpConnectionContract_Imp@@SIXPAU1@@Z 0201b894 f   NetStack.obj
 0001:0001a8c8       ?m_DeliverIPAddress0@Struct_NetStack_Contracts_TcpConnectionContract_Imp@@SIXPAU1@I@Z 0201b8c8 f   NetStack.obj
 0001:0001a910       ?m_DeliverInvalidEndPoint0@Struct_NetStack_Contracts_TcpConnectionContract_Imp@@SIXPAU1@@Z 0201b910 f   NetStack.obj
 0001:0001a944       ?m_DeliverDataIsAvailable0@Struct_NetStack_Contracts_TcpConnectionContract_Imp@@SIXPAU1@_N@Z 0201b944 f   NetStack.obj
 0001:0001a98c       ?m_DeliverData0@Struct_NetStack_Contracts_TcpConnectionContract_Imp@@SIXPAU1@PAE@Z 0201b98c f   NetStack.obj
 0001:0001a9d4       ?m_DeliverCouldNotListen0@Struct_NetStack_Contracts_TcpConnectionContract_Imp@@SIXPAU1@@Z 0201b9d4 f   NetStack.obj
 0001:0001aa08       ?m_DeliverCouldNotConnect0@Struct_NetStack_Contracts_TcpConnectionContract_Imp@@SIXPAU1@UStruct_NetStack_Contracts_TcpError@@@Z 0201ba08 f   NetStack.obj
 0001:0001aa50       ?m_DeliverConnectionClosed0@Struct_NetStack_Contracts_TcpConnectionContract_Imp@@SIXPAU1@@Z 0201ba50 f   NetStack.obj
 0001:0001aa84       ?m_DeliverCantSend0@Struct_NetStack_Contracts_TcpConnectionContract_Imp@@SIXPAU1@@Z 0201ba84 f   NetStack.obj
 0001:0001aab8       ?g_StableState@Class_Microsoft_Singularity_Directory_NotifyContract@@SIHPAUStruct_Microsoft_Singularity_Channels_StateStack@@@Z 0201bab8 f   NetStack.obj
 0001:0001ab14       ?m__ctor@Class_Microsoft_Singularity_Directory_NotifyContract@@SIXPAU1@@Z 0201bb14 f   NetStack.obj
 0001:0001ab2c       ?m_StructCopy@Struct_Microsoft_Singularity_Io_Net_NicDeviceContract_RegisterForEvents@@SIXPAU1@0@Z 0201bb2c f   NetStack.obj
 0001:0001ab54       ?m_StructCopy@Struct_Microsoft_Singularity_Io_Net_NicDeviceContract_RegisterForEvents@@SIXPAU1@PAU1@@Z 0201bb54 f   NetStack.obj
 0001:0001abcc       ?m_MarshallContent@Struct_Microsoft_Singularity_Io_Net_NicDeviceContract_RegisterForEvents@@SIXPAU1@PAEPAUStruct_Microsoft_Singularity_Channels_Endpoint@@1PAH@Z 0201bbcc f   NetStack.obj
 0001:0001ac50       ?m_MarshallAll@Struct_Microsoft_Singularity_Io_Net_NicDeviceContract_RegisterForEvents@@SIXPAU1@PAEPAUStruct_Microsoft_Singularity_Channels_Endpoint@@PAH@Z 0201bc50 f   NetStack.obj
 0001:0001aca8       ?m_Equals@Struct_Microsoft_Singularity_Io_Net_NicDeviceContract_RegisterForEvents@@SI_NPAU1@PAUClass_System_Object@@@Z 0201bca8 f   NetStack.obj
 0001:0001acf0       ?m_Equals@Struct_Microsoft_Singularity_Io_Net_NicDeviceContract_RegisterForEvents@@SI_NPAUClass_Microsoft_Singularity_Io_Net_NicDeviceContract_RegisterForEvents@@PAUClass_System_Object@@@Z 0201bcf0 f   NetStack.obj
 0001:0001ad1c       ?g_PutBytes@Class_NetStack_Protocols_Dns_LabelEncoding@@SIHPAUClass_System_String@@PAUClassVector_uint8@@H@Z 0201bd1c f   NetStack.obj
 0001:0001af00       ?g_GetString@Class_NetStack_Protocols_Dns_LabelEncoding@@SIHPAUClassVector_uint8@@HPAPAUClass_System_String@@@Z 0201bf00 f   NetStack.obj
 0001:0001b130       ?g_GetByteCount@Class_NetStack_Protocols_Dns_LabelEncoding@@SIHPAUClass_System_String@@@Z 0201c130 f   NetStack.obj
 0001:0001b184       ?m__ctor@Class_NetStack_Protocols_Dns_LabelEncoding@@SIXPAU1@@Z 0201c184 f   NetStack.obj
 0001:0001b19c       ?g__cctor@Class_NetStack_Protocols_Dns_LabelEncoding@@SIXXZ 0201c19c f   NetStack.obj
 0001:0001b1f4       ?g_get$_TickCount@Class_System_Environment@@SIHXZ 0201c1f4 f   NetStack.obj
 0001:0001b260       ?g_get$_NewLine@Class_System_Environment@@SIPAUClass_System_String@@XZ 0201c260 f   NetStack.obj
 0001:0001b278       ?m__ctor@Class_System_Environment@@SIXPAU1@@Z 0201c278 f   NetStack.obj
 0001:0001b290       ?m_InvokeStaticStub@Class_NetStack_Protocols_ParseDhcpOption@@SIPAUClass_NetStack_Protocols_IDhcpOption@@PAU1@EEPAUClassVector_uint8@@H@Z 0201c290 f   NetStack.obj
 0001:0001b2d0       ?m_Invoke@Class_NetStack_Protocols_ParseDhcpOption@@SIPAUClass_NetStack_Protocols_IDhcpOption@@PAU1@EEPAUClassVector_uint8@@H@Z 0201c2d0 f   NetStack.obj
 0001:0001b354       ?m_EndInvoke@Class_NetStack_Protocols_ParseDhcpOption@@SIPAUClass_NetStack_Protocols_IDhcpOption@@PAU1@PAUClass_System_IAsyncResult@@@Z 0201c354 f   NetStack.obj
 0001:0001b370       ?m_BeginInvoke@Class_NetStack_Protocols_ParseDhcpOption@@SIPAUClass_System_IAsyncResult@@PAU1@EEPAUClassVector_uint8@@HPAUClass_System_AsyncCallback@@PAUClass_System_Object@@@Z 0201c370 f   NetStack.obj
 0001:0001b390       ?m__ctor@Class_NetStack_Protocols_ParseDhcpOption@@SIXPAU1@PAUClass_System_Object@@PAUintPtr@@@Z 0201c390 f   NetStack.obj
 0001:0001b3d0       ?m_ToString@Class_NetStack_Runtime_ArpTable@@SIPAUClass_System_String@@PAU1@@Z 0201c3d0 f   NetStack.obj
 0001:0001b6a0       ?m_System_Object_Object_ToString@Class_NetStack_Runtime_ArpTable@@SIPAUClass_System_String@@PAU1@@Z 0201c6a0 f   NetStack.obj
 0001:0001b6e0       ?m_RemoveEntry@Class_NetStack_Runtime_ArpTable@@SIXPAU1@PAUClass_NetStack_Runtime_ArpEntry@@@Z 0201c6e0 f   NetStack.obj
 0001:0001b74c       ?m_PurgeLRUEntry@Class_NetStack_Runtime_ArpTable@@SIXPAU1@@Z 0201c74c f   NetStack.obj
 0001:0001b864       ?m_Lookup@Class_NetStack_Runtime_ArpTable@@SIPAUClass_NetStack_Runtime_ArpEntry@@PAU1@UStruct_System_Net_IP_IPv4@@@Z 0201c864 f   NetStack.obj
 0001:0001b8ec       ?m_Lookup@Class_NetStack_Runtime_ArpTable@@SI_NPAU1@UStruct_System_Net_IP_IPv4@@PAUStruct_Drivers_Net_EthernetAddress@@@Z 0201c8ec f   NetStack.obj
 0001:0001b9f4       ?m_get$_Age@Class_NetStack_Runtime_ArpTable@@SIHPAU1@@Z 0201c9f4 f   NetStack.obj
 0001:0001ba30       ?m_AgeTable@Class_NetStack_Runtime_ArpTable@@SI_NPAU1@@Z 0201ca30 f   NetStack.obj
 0001:0001bc94       ?m_AddEntry@Class_NetStack_Runtime_ArpTable@@SI_NPAU1@PAUClass_NetStack_Runtime_ArpEntry@@@Z 0201cc94 f   NetStack.obj
 0001:0001bd4c       ?m__ctor@Class_NetStack_Runtime_ArpTable@@SIXPAU1@HHPAUClass_NetStack_Runtime_ArpModule@@@Z 0201cd4c f   NetStack.obj
 0001:0001bdb4       ?g__cctor@Class_NetStack_Runtime_ArpTable@@SIXXZ 0201cdb4 f   NetStack.obj
 0001:0001be00       ?m_StructCopy@Struct_NetStack_Contracts_RoutingContract_NoRouteFound@@SIXPAU1@0@Z 0201ce00 f   NetStack.obj
 0001:0001be1c       ?m_StructCopy@Struct_NetStack_Contracts_RoutingContract_NoRouteFound@@SIXPAU1@PAU1@@Z 0201ce1c f   NetStack.obj
 0001:0001be70       ?m_MarshallContent@Struct_NetStack_Contracts_RoutingContract_NoRouteFound@@SIXPAU1@PAEPAUStruct_Microsoft_Singularity_Channels_Endpoint@@1PAH@Z 0201ce70 f   NetStack.obj
 0001:0001be90       ?m_MarshallAll@Struct_NetStack_Contracts_RoutingContract_NoRouteFound@@SIXPAU1@PAEPAUStruct_Microsoft_Singularity_Channels_Endpoint@@PAH@Z 0201ce90 f   NetStack.obj
 0001:0001bee8       ?m_Equals@Struct_NetStack_Contracts_RoutingContract_NoRouteFound@@SI_NPAU1@PAUClass_System_Object@@@Z 0201cee8 f   NetStack.obj
 0001:0001bf20       ?m_Equals@Struct_NetStack_Contracts_RoutingContract_NoRouteFound@@SI_NPAUClass_NetStack_Contracts_RoutingContract_NoRouteFound@@PAUClass_System_Object@@@Z 0201cf20 f   NetStack.obj
 0001:0001bf4c       ?m_Visit@Class_System_GCs_GCProfiler_OneObjectVisitor@@SIXPAU1@PAPAUuintPtr@@@Z 0201cf4c f   NetStack.obj
 0001:0001bf78       ?m__ctor@Class_System_GCs_GCProfiler_OneObjectVisitor@@SIXPAU1@PAUClass_System_GCs_GCProfiler@@@Z 0201cf78 f   NetStack.obj
 0001:0001bfa8       ?g_StableState@Class_Microsoft_Singularity_Directory_FileContract@@SIHPAUStruct_Microsoft_Singularity_Channels_StateStack@@@Z 0201cfa8 f   NetStack.obj
 0001:0001c024       ?m__ctor@Class_Microsoft_Singularity_Directory_FileContract@@SIXPAU1@@Z 0201d024 f   NetStack.obj
 0001:0001c03c       ?m_StructCopy@Struct_NetStack_Contracts_UdpConnectionContract_Write@@SIXPAU1@0@Z 0201d03c f   NetStack.obj
 0001:0001c064       ?m_StructCopy@Struct_NetStack_Contracts_UdpConnectionContract_Write@@SIXPAU1@PAU1@@Z 0201d064 f   NetStack.obj
 0001:0001c0dc       ?m_Equals@Struct_NetStack_Contracts_UdpConnectionContract_Write@@SI_NPAU1@PAUClass_System_Object@@@Z 0201d0dc f   NetStack.obj
 0001:0001c124       ?m_Equals@Struct_NetStack_Contracts_UdpConnectionContract_Write@@SI_NPAUClass_NetStack_Contracts_UdpConnectionContract_Write@@PAUClass_System_Object@@@Z 0201d124 f   NetStack.obj
 0001:0001c150       ?m_StateTimeoutEvent@Class_NetStack_Runtime_DhcpClientStateSelecting@@SIXPAU1@@Z 0201d150 f   NetStack.obj
 0001:0001c1bc       ?m_ReceiveEvent@Class_NetStack_Runtime_DhcpClientStateSelecting@@SIXPAU1@PAUClass_NetStack_Protocols_DhcpFormat@@@Z 0201d1bc f   NetStack.obj
 0001:0001c4d0       ?m_EnterEvent@Class_NetStack_Runtime_DhcpClientStateSelecting@@SIXPAU1@@Z 0201d4d0 f   NetStack.obj
 0001:0001c594       ?m__ctor@Class_NetStack_Runtime_DhcpClientStateSelecting@@SIXPAU1@PAUClass_NetStack_Runtime_DhcpClient@@@Z 0201d594 f   NetStack.obj
 0001:0001c5f8       ?m_StructCopy@Struct_NetStack_Contracts_RoutingContract_Ready@@SIXPAU1@0@Z 0201d5f8 f   NetStack.obj
 0001:0001c614       ?m_StructCopy@Struct_NetStack_Contracts_RoutingContract_Ready@@SIXPAU1@PAU1@@Z 0201d614 f   NetStack.obj
 0001:0001c668       ?m_MarshallContent@Struct_NetStack_Contracts_RoutingContract_Ready@@SIXPAU1@PAEPAUStruct_Microsoft_Singularity_Channels_Endpoint@@1PAH@Z 0201d668 f   NetStack.obj
 0001:0001c688       ?m_MarshallAll@Struct_NetStack_Contracts_RoutingContract_Ready@@SIXPAU1@PAEPAUStruct_Microsoft_Singularity_Channels_Endpoint@@PAH@Z 0201d688 f   NetStack.obj
 0001:0001c6e0       ?m_Equals@Struct_NetStack_Contracts_RoutingContract_Ready@@SI_NPAU1@PAUClass_System_Object@@@Z 0201d6e0 f   NetStack.obj
 0001:0001c718       ?m_Equals@Struct_NetStack_Contracts_RoutingContract_Ready@@SI_NPAUClass_NetStack_Contracts_RoutingContract_Ready@@PAUClass_System_Object@@@Z 0201d718 f   NetStack.obj
 0001:0001c744       ?m_Finalize@Class__NetStack_Microsoft_Singularity_Channels_TRef$_2$LMicrosoft_Singularity_ServiceManager_ServiceProcessContract_Exp_Microsoft_Singularity_ServiceManager_ServiceProcessContract_Starting$G@@SIXPAU1@@Z 0201d744 f   NetStack.obj
 0001:0001c7d0       ?m_Acquire@Class__NetStack_Microsoft_Singularity_Channels_TRef$_2$LMicrosoft_Singularity_ServiceManager_ServiceProcessContract_Exp_Microsoft_Singularity_ServiceManager_ServiceProcessContract_Starting$G@@SIPAUStruct_Microsoft_Singularity_ServiceManager_ServiceProcessContract_Exp@@PAU1@@Z 0201d7d0 f   NetStack.obj
 0001:0001c86c       ?m__ctor@Class__NetStack_Microsoft_Singularity_Channels_TRef$_2$LMicrosoft_Singularity_ServiceManager_ServiceProcessContract_Exp_Microsoft_Singularity_ServiceManager_ServiceProcessContract_Starting$G@@SIXPAU1@PAUStruct_Microsoft_Singularity_ServiceManager_ServiceProcessContract_Exp@@@Z 0201d86c f   NetStack.obj
 0001:0001c910       ?m_StructCopy@Struct_NetStack_Contracts_RoutingContract_FindSpecificHostRoute@@SIXPAU1@0@Z 0201d910 f   NetStack.obj
 0001:0001c938       ?m_StructCopy@Struct_NetStack_Contracts_RoutingContract_FindSpecificHostRoute@@SIXPAU1@PAU1@@Z 0201d938 f   NetStack.obj
 0001:0001c9b0       ?m_Equals@Struct_NetStack_Contracts_RoutingContract_FindSpecificHostRoute@@SI_NPAU1@PAUClass_System_Object@@@Z 0201d9b0 f   NetStack.obj
 0001:0001c9f8       ?m_Equals@Struct_NetStack_Contracts_RoutingContract_FindSpecificHostRoute@@SI_NPAUClass_NetStack_Contracts_RoutingContract_FindSpecificHostRoute@@PAUClass_System_Object@@@Z 0201d9f8 f   NetStack.obj
 0001:0001ca24       ?m_StructCopy@Struct_Microsoft_Singularity_V1_Services_ProcessService@@SIXPAU1@0@Z 0201da24 f   NetStack.obj
 0001:0001ca40       ?m_StructCopy@Struct_Microsoft_Singularity_V1_Services_ProcessService@@SIXPAU1@PAU1@@Z 0201da40 f   NetStack.obj
 0001:0001ca94       ?g_GetSharedSourceHandles@Struct_Microsoft_Singularity_V1_Services_ProcessService@@SI_NIPAPAUuintPtr@@00@Z 0201da94 f   NetStack.obj
 0001:0001cb18       ?m_Equals@Struct_Microsoft_Singularity_V1_Services_ProcessService@@SI_NPAU1@PAUClass_System_Object@@@Z 0201db18 f   NetStack.obj
 0001:0001cb50       ?m_Equals@Struct_Microsoft_Singularity_V1_Services_ProcessService@@SI_NPAUClass_Microsoft_Singularity_V1_Services_ProcessService@@PAUClass_System_Object@@@Z 0201db50 f   NetStack.obj
 0001:0001cb7c       ?g_UnderGCControl@Class_System_GCs_Transitions@@SI_NH@Z 0201db7c f   NetStack.obj
 0001:0001cc30       ?g_TransferMutatorControl@Class_System_GCs_Transitions@@SIXPAUStruct_Microsoft_Singularity_ThreadContext@@@Z 0201dc30 f   NetStack.obj
 0001:0001cd70       ?g_TransferMutatorControl@Class_System_GCs_Transitions@@SIXPAHH@Z 0201dd70 f   NetStack.obj
 0001:0001ce84       ?g_ThreadStart@Class_System_GCs_Transitions@@SIXXZ 0201de84 f   NetStack.obj
 0001:0001d06c       ?g_ThreadEnd@Class_System_GCs_Transitions@@SIXH@Z 0201e06c f   NetStack.obj
 0001:0001d298       ?g_TakeMutatorControlSlowNoGC@Class_System_GCs_Transitions@@SIXPAHH@Z 0201e298 f   NetStack.obj
 0001:0001d2c4       ?g_TakeMutatorControlSlow@Class_System_GCs_Transitions@@SIXPAHH@Z 0201e2c4 f   NetStack.obj
 0001:0001d2f0       ?g_TakeMutatorControlSlow@Class_System_GCs_Transitions@@SIXPAHH_N1@Z 0201e2f0 f   NetStack.obj
 0001:0001d4bc       ?g_TakeMutatorControlNoGC@Class_System_GCs_Transitions@@SIXPAUStruct_Microsoft_Singularity_ThreadContext@@@Z 0201e4bc f   NetStack.obj
 0001:0001d620       ?g_TakeMutatorControlNoGC@Class_System_GCs_Transitions@@SIXPAHH@Z 0201e620 f   NetStack.obj
 0001:0001d75c       ?g_TakeMutatorControlNoGC@Class_System_GCs_Transitions@@SIXH@Z 0201e75c f   NetStack.obj
 0001:0001d94c       ?g_TakeMutatorControl@Class_System_GCs_Transitions@@SIXPAUStruct_Microsoft_Singularity_ThreadContext@@@Z 0201e94c f   NetStack.obj
 0001:0001dab0       ?g_TakeMutatorControl@Class_System_GCs_Transitions@@SIXPAHH@Z 0201eab0 f   NetStack.obj
 0001:0001dbec       ?g_TakeMutatorControl@Class_System_GCs_Transitions@@SIXH@Z 0201ebec f   NetStack.obj
 0001:0001dddc       ?g_TakeGCControl@Class_System_GCs_Transitions@@SI_NPAH@Z 0201eddc f   NetStack.obj
 0001:0001dea0       ?g_TakeGCControl@Class_System_GCs_Transitions@@SI_NH@Z 0201eea0 f   NetStack.obj
 0001:0001e01c       ?g_TakeDormantControlNoGC@Class_System_GCs_Transitions@@SIXPAH@Z 0201f01c f   NetStack.obj
 0001:0001e0c8       ?g_TakeDormantControlNoGC@Class_System_GCs_Transitions@@SIXH@Z 0201f0c8 f   NetStack.obj
 0001:0001e21c       ?g_TakeDormantControl@Class_System_GCs_Transitions@@SIXPAUStruct_Microsoft_Singularity_ThreadContext@@@Z 0201f21c f   NetStack.obj
 0001:0001e328       ?g_TakeDormantControl@Class_System_GCs_Transitions@@SIXPAHH@Z 0201f328 f   NetStack.obj
 0001:0001e3fc       ?g_TakeDormantControl@Class_System_GCs_Transitions@@SIXH@Z 0201f3fc f   NetStack.obj
 0001:0001e564       ?g_SwitchToMutatorStateWithGCRequest@Class_System_GCs_Transitions@@SI_NPAH@Z 0201f564 f   NetStack.obj
 0001:0001e5d0       ?g_SwitchToMutatorState@Class_System_GCs_Transitions@@SI_NPAH@Z 0201f5d0 f   NetStack.obj
 0001:0001e680       ?g_RuntimeInitialized@Class_System_GCs_Transitions@@SIXXZ 0201f680 f   NetStack.obj
 0001:0001e69c       ?g_ReturnToManagedSpace@Class_System_GCs_Transitions@@SIXPAUStruct_Microsoft_Singularity_ThreadContext@@@Z 0201f69c f   NetStack.obj
 0001:0001e87c       ?g_ReturnFromManagedSpaceNoCallerTransition@Class_System_GCs_Transitions@@SIXXZ 0201f87c f   NetStack.obj
 0001:0001e990       ?g_ReturnFromManagedSpace@Class_System_GCs_Transitions@@SIXXZ 0201f990 f   NetStack.obj
 0001:0001ead8       ?g_RestoreMutatorControlIfNeeded@Class_System_GCs_Transitions@@SIXXZ 0201fad8 f   NetStack.obj
 0001:0001ec10       ?g_ReleaseGCControl@Class_System_GCs_Transitions@@SIXPAHH@Z 0201fc10 f   NetStack.obj
 0001:0001ecd4       ?g_ReleaseGCControl@Class_System_GCs_Transitions@@SIXH@Z 0201fcd4 f   NetStack.obj
 0001:0001ee34       ?g_NewThreadNotification@Class_System_GCs_Transitions@@SIXH_N@Z 0201fe34 f   NetStack.obj
 0001:0001efd4       ?g_MakeGCRequests@Class_System_GCs_Transitions@@SIXH@Z 0201ffd4 f   NetStack.obj
 0001:0001f0fc       ?g_MakeGCRequest@Class_System_GCs_Transitions@@SIXPAHH@Z 020200fc f   NetStack.obj
 0001:0001f160       ?g_MakeGCRequest@Class_System_GCs_Transitions@@SIXH@Z 02020160 f   NetStack.obj
 0001:0001f204       ?g_LeaveManagedSpace@Class_System_GCs_Transitions@@SIXPAUStruct_Microsoft_Singularity_ThreadContext@@@Z 02020204 f   NetStack.obj
 0001:0001f344       ?g_LeaveLoadFunctionStub@Class_System_GCs_Transitions@@SIXXZ 02020344 f   NetStack.obj
 0001:0001f4b0       ?g_InMutatorState@Class_System_GCs_Transitions@@SI_NPAUStruct_Microsoft_Singularity_ThreadContext@@@Z 020204b0 f   NetStack.obj
 0001:0001f500       ?g_InMutatorState@Class_System_GCs_Transitions@@SI_NH@Z 02020500 f   NetStack.obj
 0001:0001f5bc       ?g_Initialize@Class_System_GCs_Transitions@@SIXXZ 020205bc f   NetStack.obj
 0001:0001f5d0       ?g_InDormantState@Class_System_GCs_Transitions@@SI_NH@Z 020205d0 f   NetStack.obj
 0001:0001f680       ?g_HasGCRequest@Class_System_GCs_Transitions@@SI_NH@Z 02020680 f   NetStack.obj
 0001:0001f730       ?g_GetThreadContext@Class_System_GCs_Transitions@@SIPAUStruct_Microsoft_Singularity_ThreadContext@@H@Z 02020730 f   NetStack.obj
 0001:0001f780       ?g_GetCurrentThreadContext@Class_System_GCs_Transitions@@SIPAUStruct_Microsoft_Singularity_ThreadContext@@H@Z 02020780 f   NetStack.obj
 0001:0001f808       ?g_fUnderGCControl@Class_System_GCs_Transitions@@SI_NH@Z 02020808 f   NetStack.obj
 0001:0001f830       ?g_fInMutatorState@Class_System_GCs_Transitions@@SI_NH@Z 02020830 f   NetStack.obj
 0001:0001f858       ?g_fInDormantState@Class_System_GCs_Transitions@@SI_NH@Z 02020858 f   NetStack.obj
 0001:0001f880       ?g_fHasGCRequest@Class_System_GCs_Transitions@@SI_NH@Z 02020880 f   NetStack.obj
 0001:0001f8a8       ?g_EntryIntoManagedSpace@Class_System_GCs_Transitions@@SIXXZ 020208a8 f   NetStack.obj
 0001:0001fa90       ?g_EnterLoadFunctionStub@Class_System_GCs_Transitions@@SIXXZ 02020a90 f   NetStack.obj
 0001:0001fc88       ?g_EnsureMutatorControlNoGC@Class_System_GCs_Transitions@@SIXPAUStruct_Microsoft_Singularity_ThreadContext@@@Z 02020c88 f   NetStack.obj
 0001:0001fe68       ?g_EnsureMutatorControlNoGC@Class_System_GCs_Transitions@@SIXPAHH@Z 02020e68 f   NetStack.obj
 0001:00020020       ?g_EnsureMutatorControl@Class_System_GCs_Transitions@@SIXPAUStruct_Microsoft_Singularity_ThreadContext@@@Z 02021020 f   NetStack.obj
 0001:00020200       ?g_EnsureMutatorControl@Class_System_GCs_Transitions@@SIXPAHH@Z 02021200 f   NetStack.obj
 0001:000203b8       ?g_DeadThreadNotification@Class_System_GCs_Transitions@@SIXH@Z 020213b8 f   NetStack.obj
 0001:00020568       ?g_CompareAndSwap@Class_System_GCs_Transitions@@SI_NPAHHH@Z 02021568 f   NetStack.obj
 0001:0002059c       ?g_ClearGCRequest@Class_System_GCs_Transitions@@SIXPAHH@Z 0202159c f   NetStack.obj
 0001:00020648       ?g_ClearGCRequest@Class_System_GCs_Transitions@@SIXH@Z 02021648 f   NetStack.obj
 0001:000206ec       ?m__ctor@Class_System_GCs_Transitions@@SIXPAU1@@Z 020216ec f   NetStack.obj
 0001:00020708       ?m_InvokeStaticStub@Class_NetStack_Runtime_ArpRequestCallback@@SIXPAU1@UStruct_System_Net_IP_IPv4@@UStruct_Drivers_Net_EthernetAddress@@PAUClass_System_Object@@@Z 02021708 f   NetStack.obj
 0001:00020754       ?m_Invoke@Class_NetStack_Runtime_ArpRequestCallback@@SIXPAU1@UStruct_System_Net_IP_IPv4@@UStruct_Drivers_Net_EthernetAddress@@PAUClass_System_Object@@@Z 02021754 f   NetStack.obj
 0001:000207ec       ?m_EndInvoke@Class_NetStack_Runtime_ArpRequestCallback@@SIXPAU1@PAUClass_System_IAsyncResult@@@Z 020217ec f   NetStack.obj
 0001:00020808       ?m_BeginInvoke@Class_NetStack_Runtime_ArpRequestCallback@@SIPAUClass_System_IAsyncResult@@PAU1@UStruct_System_Net_IP_IPv4@@UStruct_Drivers_Net_EthernetAddress@@PAUClass_System_Object@@PAUClass_System_AsyncCallback@@3@Z 02021808 f   NetStack.obj
 0001:00020828       ?m__ctor@Class_NetStack_Runtime_ArpRequestCallback@@SIXPAU1@PAUClass_System_Object@@PAUintPtr@@@Z 02021828 f   NetStack.obj
 0001:0002088c       ?m_StructCopy@Struct_Microsoft_Singularity_Directory_DirectoryServiceContract_Notify@@SIXPAU1@0@Z 0202188c f   NetStack.obj
 0001:000208d8       ?m_StructCopy@Struct_Microsoft_Singularity_Directory_DirectoryServiceContract_Notify@@SIXPAU1@PAU1@@Z 020218d8 f   NetStack.obj
 0001:000209bc       ?m_Equals@Struct_Microsoft_Singularity_Directory_DirectoryServiceContract_Notify@@SI_NPAU1@PAUClass_System_Object@@@Z 020219bc f   NetStack.obj
 0001:00020a34       ?m_Equals@Struct_Microsoft_Singularity_Directory_DirectoryServiceContract_Notify@@SI_NPAUClass_Microsoft_Singularity_Directory_DirectoryServiceContract_Notify@@PAUClass_System_Object@@@Z 02021a34 f   NetStack.obj
 0001:00020a60       ?m_ToString@Struct_System_Net_IP_IPv4Network@@SIPAUClass_System_String@@PAU1@@Z 02021a60 f   NetStack.obj
 0001:00020b04       ?m_System_ValueType_ValueType_ToString@Struct_System_Net_IP_IPv4Network@@SIPAUClass_System_String@@PAU1@@Z 02021b04 f   NetStack.obj
 0001:00020b44       ?m_System_ValueType_ValueType_ToString@Struct_System_Net_IP_IPv4Network@@SIPAUClass_System_String@@PAUClass_System_Net_IP_IPv4Network@@@Z 02021b44 f   NetStack.obj
 0001:00020b8c       ?m_StructCopy@Struct_System_Net_IP_IPv4Network@@SIXPAU1@0@Z 02021b8c f   NetStack.obj
 0001:00020bc4       ?m_StructCopy@Struct_System_Net_IP_IPv4Network@@SIXPAU1@PAU1@@Z 02021bc4 f   NetStack.obj
 0001:00020c6c       ?g_op$_Equality@Struct_System_Net_IP_IPv4Network@@SI_NU1@0@Z 02021c6c f   NetStack.obj
 0001:00020cf0       ?m_IsMoreSpecificThan@Struct_System_Net_IP_IPv4Network@@SI_NPAU1@U1@@Z 02021cf0 f   NetStack.obj
 0001:00020d38       ?m_IsLessSpecificThan@Struct_System_Net_IP_IPv4Network@@SI_NPAU1@U1@@Z 02021d38 f   NetStack.obj
 0001:00020d80       ?m_GetHashCode@Struct_System_Net_IP_IPv4Network@@SIHPAU1@@Z 02021d80 f   NetStack.obj
 0001:00020dec       ?m_GetHashCode@Struct_System_Net_IP_IPv4Network@@SIHPAUClass_System_Net_IP_IPv4Network@@@Z 02021dec f   NetStack.obj
 0001:00020e34       ?m_get$_Network@Struct_System_Net_IP_IPv4Network@@SI?AUStruct_System_Net_IP_IPv4@@PAU1@@Z 02021e34 f   NetStack.obj
 0001:00020e70       ?m_get$_NetMask@Struct_System_Net_IP_IPv4Network@@SI?AUStruct_System_Net_IP_IPv4@@PAU1@@Z 02021e70 f   NetStack.obj
 0001:00020ed0       ?m_get$_MaskLength@Struct_System_Net_IP_IPv4Network@@SIHPAU1@@Z 02021ed0 f   NetStack.obj
 0001:00020f0c       ?m_get$_LowerBound@Struct_System_Net_IP_IPv4Network@@SI?AUStruct_System_Net_IP_IPv4@@PAU1@@Z 02021f0c f   NetStack.obj
 0001:00020f48       ?m_Equals@Struct_System_Net_IP_IPv4Network@@SI_NPAU1@PAUClass_System_Object@@@Z 02021f48 f   NetStack.obj
 0001:00021004       ?m_Equals@Struct_System_Net_IP_IPv4Network@@SI_NPAUClass_System_Net_IP_IPv4Network@@PAUClass_System_Object@@@Z 02022004 f   NetStack.obj
 0001:00021050       ?m_Contains@Struct_System_Net_IP_IPv4Network@@SI_NPAU1@U1@@Z 02022050 f   NetStack.obj
 0001:000210e8       ?m_Contains@Struct_System_Net_IP_IPv4Network@@SI_NPAU1@UStruct_System_Net_IP_IPv4@@@Z 020220e8 f   NetStack.obj
 0001:00021160       ?m__ctor@Struct_System_Net_IP_IPv4Network@@SIXPAU1@UStruct_System_Net_IP_IPv4@@1@Z 02022160 f   NetStack.obj
 0001:000211c4       ?m__ctor@Struct_System_Net_IP_IPv4Network@@SIXPAU1@UStruct_System_Net_IP_IPv4@@H@Z 020221c4 f   NetStack.obj
 0001:00021254       ?g__cctor@Struct_System_Net_IP_IPv4Network@@SIXXZ 02022254 f   NetStack.obj
 0001:000212e8       ?m_StructCopy@Struct_Microsoft_Singularity_Io_Net_NicDeviceContract_SetChecksumProperties@@SIXPAU1@0@Z 020222e8 f   NetStack.obj
 0001:00021310       ?m_StructCopy@Struct_Microsoft_Singularity_Io_Net_NicDeviceContract_SetChecksumProperties@@SIXPAU1@PAU1@@Z 02022310 f   NetStack.obj
 0001:00021388       ?m_MarshallContent@Struct_Microsoft_Singularity_Io_Net_NicDeviceContract_SetChecksumProperties@@SIXPAU1@PAEPAUStruct_Microsoft_Singularity_Channels_Endpoint@@1PAH@Z 02022388 f   NetStack.obj
 0001:000213a8       ?m_MarshallAll@Struct_Microsoft_Singularity_Io_Net_NicDeviceContract_SetChecksumProperties@@SIXPAU1@PAEPAUStruct_Microsoft_Singularity_Channels_Endpoint@@PAH@Z 020223a8 f   NetStack.obj
 0001:00021400       ?m_Equals@Struct_Microsoft_Singularity_Io_Net_NicDeviceContract_SetChecksumProperties@@SI_NPAU1@PAUClass_System_Object@@@Z 02022400 f   NetStack.obj
 0001:000214a0       ?m_Equals@Struct_Microsoft_Singularity_Io_Net_NicDeviceContract_SetChecksumProperties@@SI_NPAUClass_Microsoft_Singularity_Io_Net_NicDeviceContract_SetChecksumProperties@@PAUClass_System_Object@@@Z 020224a0 f   NetStack.obj
 0001:000214cc       ?m_HeadMatches@Class_Microsoft_Singularity_Channels_ESet$_2$LNetStack_Contracts_UdpContract_Exp_NetStack_Contracts_UdpContract_ReadyState$G@@SI_NPAU1@HPA_NPAPAUClass_System_Object@@@Z 020224cc f   NetStack.obj
 0001:00021644       ?m_GetWaitHandle@Class_Microsoft_Singularity_Channels_ESet$_2$LNetStack_Contracts_UdpContract_Exp_NetStack_Contracts_UdpContract_ReadyState$G@@SI?AUStruct_Microsoft_Singularity_V1_Threads_SyncHandle@@PAU1@@Z 02022644 f   NetStack.obj
 0001:000216b0       ?m_GetFreshNode@Class_Microsoft_Singularity_Channels_ESet$_2$LNetStack_Contracts_UdpContract_Exp_NetStack_Contracts_UdpContract_ReadyState$G@@SIPAUClass_Microsoft_Singularity_Channels_ESet$_2$LNetStack_Contracts_UdpContract_Exp_NetStack_Contracts_UdpContract_ReadyState$G_Node@@PAU1@PAUStruct_NetStack_Contracts_UdpContract_Exp@@0@Z 020226b0 f   NetStack.obj
 0001:00021754       ?m_get$_NextScanStart@Class_Microsoft_Singularity_Channels_ESet$_2$LNetStack_Contracts_UdpContract_Exp_NetStack_Contracts_UdpContract_ReadyState$G@@SIPAUClass_Microsoft_Singularity_Channels_ESet$_2$LNetStack_Contracts_UdpContract_Exp_NetStack_Contracts_UdpContract_ReadyState$G_Node@@PAU1@@Z 02022754 f   NetStack.obj
 0001:000217bc       ?m_Extract@Class_Microsoft_Singularity_Channels_ESet$_2$LNetStack_Contracts_UdpContract_Exp_NetStack_Contracts_UdpContract_ReadyState$G@@SIPAUStruct_NetStack_Contracts_UdpContract_Exp@@PAU1@PAUClass_System_Object@@@Z 020227bc f   NetStack.obj
 0001:00021874       ?m_Dispose@Class_Microsoft_Singularity_Channels_ESet$_2$LNetStack_Contracts_UdpContract_Exp_NetStack_Contracts_UdpContract_ReadyState$G@@SIXPAU1@@Z 02022874 f   NetStack.obj
 0001:00021960       ?m_Add@Class_Microsoft_Singularity_Channels_ESet$_2$LNetStack_Contracts_UdpContract_Exp_NetStack_Contracts_UdpContract_ReadyState$G@@SIXPAU1@PAUStruct_NetStack_Contracts_UdpContract_Exp@@@Z 02022960 f   NetStack.obj
 0001:00021990       ?m__ctor@Class_Microsoft_Singularity_Channels_ESet$_2$LNetStack_Contracts_UdpContract_Exp_NetStack_Contracts_UdpContract_ReadyState$G@@SIXPAU1@@Z 02022990 f   NetStack.obj
 0001:00021a1c       ?m_StructCopy@Struct_NetStack_Contracts_TcpConnectionContract_DoneReceiving@@SIXPAU1@0@Z 02022a1c f   NetStack.obj
 0001:00021a38       ?m_StructCopy@Struct_NetStack_Contracts_TcpConnectionContract_DoneReceiving@@SIXPAU1@PAU1@@Z 02022a38 f   NetStack.obj
 0001:00021a8c       ?m_Equals@Struct_NetStack_Contracts_TcpConnectionContract_DoneReceiving@@SI_NPAU1@PAUClass_System_Object@@@Z 02022a8c f   NetStack.obj
 0001:00021ac4       ?m_Equals@Struct_NetStack_Contracts_TcpConnectionContract_DoneReceiving@@SI_NPAUClass_NetStack_Contracts_TcpConnectionContract_DoneReceiving@@PAUClass_System_Object@@@Z 02022ac4 f   NetStack.obj
 0001:00021af0       ?g_Parse@Class_NetStack_Protocols_DhcpByteOption@@SIPAUClass_NetStack_Protocols_IDhcpOption@@EEPAUClassVector_uint8@@H@Z 02022af0 f   NetStack.obj
 0001:00021b80       ?m_Pack@Class_NetStack_Protocols_DhcpByteOption@@SIHPAU1@PAUClassVector_uint8@@PAH@Z 02022b80 f   NetStack.obj
 0001:00021ca0       ?m_get$_Value@Class_NetStack_Protocols_DhcpByteOption@@SIEPAU1@@Z 02022ca0 f   NetStack.obj
 0001:00021cd4       ?m_get$_PayloadLength@Class_NetStack_Protocols_DhcpByteOption@@SIHPAU1@@Z 02022cd4 f   NetStack.obj
 0001:00021d14       ?m__ctor@Class_NetStack_Protocols_DhcpByteOption@@SIXPAU1@EE@Z 02022d14 f   NetStack.obj
 0001:00021d44       ?m_TryAcquire@Struct_System_Threading_SpinLockBase@@SI_NPAU1@H@Z 02022d44 f   NetStack.obj
 0001:00021d9c       ?m_StructCopy@Struct_System_Threading_SpinLockBase@@SIXPAU1@0@Z 02022d9c f   NetStack.obj
 0001:00021dd0       ?m_StructCopy@Struct_System_Threading_SpinLockBase@@SIXPAU1@PAU1@@Z 02022dd0 f   NetStack.obj
 0001:00021e6c       ?m_SpinToAcquire@Struct_System_Threading_SpinLockBase@@SIXPAU1@H@Z 02022e6c f   NetStack.obj
 0001:00021f50       ?m_Release@Struct_System_Threading_SpinLockBase@@SIXPAU1@H@Z 02022f50 f   NetStack.obj
 0001:00021f90       ?m_get$_Type@Struct_System_Threading_SpinLockBase@@SIHPAU1@@Z 02022f90 f   NetStack.obj
 0001:00021fb0       ?m_Equals@Struct_System_Threading_SpinLockBase@@SI_NPAU1@PAUClass_System_Object@@@Z 02022fb0 f   NetStack.obj
 0001:0002200c       ?m_Equals@Struct_System_Threading_SpinLockBase@@SI_NPAUClass_System_Threading_SpinLockBase@@PAUClass_System_Object@@@Z 0202300c f   NetStack.obj
 0001:00022038       ?m_Acquire@Struct_System_Threading_SpinLockBase@@SIXPAU1@H@Z 02023038 f   NetStack.obj
 0001:000220b4       ?m_StructCopy@Struct_Microsoft_Singularity_Directory_ServiceProviderContract_Connect@@SIXPAU1@0@Z 020230b4 f   NetStack.obj
 0001:000220dc       ?m_StructCopy@Struct_Microsoft_Singularity_Directory_ServiceProviderContract_Connect@@SIXPAU1@PAU1@@Z 020230dc f   NetStack.obj
 0001:00022154       ?m_Equals@Struct_Microsoft_Singularity_Directory_ServiceProviderContract_Connect@@SI_NPAU1@PAUClass_System_Object@@@Z 02023154 f   NetStack.obj
 0001:0002219c       ?m_Equals@Struct_Microsoft_Singularity_Directory_ServiceProviderContract_Connect@@SI_NPAUClass_Microsoft_Singularity_Directory_ServiceProviderContract_Connect@@PAUClass_System_Object@@@Z 0202319c f   NetStack.obj
 0001:000221c8       ?g_TopLevelException@Class_Microsoft_Singularity_AppRuntime@@SIXPAUClass_System_Exception@@@Z 020231c8 f   NetStack.obj
 0001:000222f0       ?g_InitializeConsole@Class_Microsoft_Singularity_AppRuntime@@SIXXZ 020232f0 f   NetStack.obj
 0001:00022304       ?g_get$_AppName@Class_Microsoft_Singularity_AppRuntime@@SIPAUClass_System_String@@XZ 02023304 f   NetStack.obj
 0001:0002231c       ?g_FinalizeConsole@Class_Microsoft_Singularity_AppRuntime@@SIXXZ 0202331c f   NetStack.obj
 0001:00022330       ?g_AppStart@Class_Microsoft_Singularity_AppRuntime@@SIHPAUClass_System_Type@@@Z 02023330 f   NetStack.obj
 0001:000227c8       ?m__ctor@Class_Microsoft_Singularity_AppRuntime@@SIXPAU1@@Z 020237c8 f   NetStack.obj
 0001:000227e4       ?m__ctor@Class_System_Runtime_CompilerServices_InlineAttribute@@SIXPAU1@@Z 020237e4 f   NetStack.obj
 0001:00022808       ?m_StructCopy@Struct_System_ReadEnlistmentLog_Entry@@SIXPAU1@0@Z 02023808 f   NetStack.obj
 0001:00022844       ?m_StructCopy@Struct_System_ReadEnlistmentLog_Entry@@SIXPAU1@PAU1@@Z 02023844 f   NetStack.obj
 0001:000228f8       ?m_Equals@Struct_System_ReadEnlistmentLog_Entry@@SI_NPAU1@PAUClass_System_Object@@@Z 020238f8 f   NetStack.obj
 0001:00022a10       ?m_Equals@Struct_System_ReadEnlistmentLog_Entry@@SI_NPAUClass_System_ReadEnlistmentLog_Entry@@PAUClass_System_Object@@@Z 02023a10 f   NetStack.obj
 0001:00022a3c       ?m_UnsetFragmentLengths@Struct_Microsoft_Singularity_Io_Net_Packet@@SIXPAU1@@Z 02023a3c f   NetStack.obj
 0001:00022adc       ?m_UnsetFragmentLength@Struct_Microsoft_Singularity_Io_Net_Packet@@SIXPAU1@H@Z 02023adc f   NetStack.obj
 0001:00022bc8       ?m_UnExpose@Struct_Microsoft_Singularity_Io_Net_Packet@@SIXPAU1@@Z 02023bc8 f   NetStack.obj
 0001:00022be4       ?g_TransferOwnership@Struct_Microsoft_Singularity_Io_Net_Packet@@SIXPAUStruct_Microsoft_Singularity_Channels_Endpoint@@PAU1@@Z 02023be4 f   NetStack.obj
 0001:00022c28       ?m_TransferContentsOwnership@Struct_Microsoft_Singularity_Io_Net_Packet@@SIXPAU1@PAUStruct_Microsoft_Singularity_Channels_Endpoint@@@Z 02023c28 f   NetStack.obj
 0001:00022c54       ?m_ToByteArray@Struct_Microsoft_Singularity_Io_Net_Packet@@SIXPAU1@PAUClassVector_uint8@@@Z 02023c54 f   NetStack.obj
 0001:00022d90       ?m_StructCopy@Struct_Microsoft_Singularity_Io_Net_Packet@@SIXPAU1@0@Z 02023d90 f   NetStack.obj
 0001:00022dd4       ?m_StructCopy@Struct_Microsoft_Singularity_Io_Net_Packet@@SIXPAU1@PAU1@@Z 02023dd4 f   NetStack.obj
 0001:00022ea0       ?m_SetFragment@Struct_Microsoft_Singularity_Io_Net_Packet@@SIXPAU1@HPAUClassVector_uint8@@HH@Z 02023ea0 f   NetStack.obj
 0001:00022f7c       ?m_MarshallContent@Struct_Microsoft_Singularity_Io_Net_Packet@@SIXPAU1@PAEPAUStruct_Microsoft_Singularity_Channels_Endpoint@@1@Z 02023f7c f   NetStack.obj
 0001:00022fe4       ?m_GetLength@Struct_Microsoft_Singularity_Io_Net_Packet@@SIHPAU1@@Z 02023fe4 f   NetStack.obj
 0001:00023154       ?m_get$_FromDeviceFlags@Struct_Microsoft_Singularity_Io_Net_Packet@@SI?AUStruct_Microsoft_Singularity_Io_Net_FromDeviceFlags@@PAU1@@Z 02024154 f   NetStack.obj
 0001:00023194       ?m_get$_FragmentCount@Struct_Microsoft_Singularity_Io_Net_Packet@@SIHPAU1@@Z 02024194 f   NetStack.obj
 0001:00023214       ?m_Expose@Struct_Microsoft_Singularity_Io_Net_Packet@@SIXPAU1@@Z 02024214 f   NetStack.obj
 0001:00023230       ?m_Equals@Struct_Microsoft_Singularity_Io_Net_Packet@@SI_NPAU1@PAUClass_System_Object@@@Z 02024230 f   NetStack.obj
 0001:00023348       ?m_Equals@Struct_Microsoft_Singularity_Io_Net_Packet@@SI_NPAUClass_Microsoft_Singularity_Io_Net_Packet@@PAUClass_System_Object@@@Z 02024348 f   NetStack.obj
 0001:00023374       ?m_Dispose@Struct_Microsoft_Singularity_Io_Net_Packet@@SIXPAU1@@Z 02024374 f   NetStack.obj
 0001:0002344c       ?m_Dispose@Struct_Microsoft_Singularity_Io_Net_Packet@@SIXPAUClass_Microsoft_Singularity_Io_Net_Packet@@@Z 0202444c f   NetStack.obj
 0001:00023474       ?m__ctor@Struct_Microsoft_Singularity_Io_Net_Packet@@SIXPAU1@PAE@Z 02024474 f   NetStack.obj
 0001:00023530       ?m__ctor@Struct_Microsoft_Singularity_Io_Net_Packet@@SIXPAU1@H@Z 02024530 f   NetStack.obj
 0001:00023578       ?m__ctor@Class_Microsoft_Singularity_Channels_ChannelClosedException@@SIXPAU1@@Z 02024578 f   NetStack.obj
 0001:0002359c       ?m_GetController@Class_Microsoft_Singularity_Eventing_GlobalStorage@@SIPAUClass_Microsoft_Singularity_Eventing_Controller@@PAU1@@Z 0202459c f   NetStack.obj
 0001:000235d0       ?m_Finalize@Class_Microsoft_Singularity_Eventing_GlobalStorage@@SIXPAU1@@Z 020245d0 f   NetStack.obj
 0001:00023614       ?m_Destroy@Class_Microsoft_Singularity_Eventing_GlobalStorage@@SIXPAU1@@Z 02024614 f   NetStack.obj
 0001:00023648       ?m_StructCopy@Struct_Microsoft_Singularity_Isal_IX_Gdte64@@SIXPAU1@0@Z 02024648 f   NetStack.obj
 0001:000236c8       ?m_StructCopy@Struct_Microsoft_Singularity_Isal_IX_Gdte64@@SIXPAU1@PAU1@@Z 020246c8 f   NetStack.obj
 0001:00023848       ?m_Equals@Struct_Microsoft_Singularity_Isal_IX_Gdte64@@SI_NPAU1@PAUClass_System_Object@@@Z 02024848 f   NetStack.obj
 0001:000238f8       ?m_Equals@Struct_Microsoft_Singularity_Isal_IX_Gdte64@@SI_NPAUClass_Microsoft_Singularity_Isal_IX_Gdte64@@PAUClass_System_Object@@@Z 020248f8 f   NetStack.obj
 0001:00023924       ?m_StructCopy@Struct_NetStack_Contracts_IPContract_InterfaceList@@SIXPAU1@0@Z 02024924 f   NetStack.obj
 0001:0002394c       ?m_StructCopy@Struct_NetStack_Contracts_IPContract_InterfaceList@@SIXPAU1@PAU1@@Z 0202494c f   NetStack.obj
 0001:000239c4       ?m_MarshallContent@Struct_NetStack_Contracts_IPContract_InterfaceList@@SIXPAU1@PAEPAUStruct_Microsoft_Singularity_Channels_Endpoint@@1PAH@Z 020249c4 f   NetStack.obj
 0001:00023b94       ?m_MarshallAll@Struct_NetStack_Contracts_IPContract_InterfaceList@@SIXPAU1@PAEPAUStruct_Microsoft_Singularity_Channels_Endpoint@@PAH@Z 02024b94 f   NetStack.obj
 0001:00023bec       ?m_Equals@Struct_NetStack_Contracts_IPContract_InterfaceList@@SI_NPAU1@PAUClass_System_Object@@@Z 02024bec f   NetStack.obj
 0001:00023c34       ?m_Equals@Struct_NetStack_Contracts_IPContract_InterfaceList@@SI_NPAUClass_NetStack_Contracts_IPContract_InterfaceList@@PAUClass_System_Object@@@Z 02024c34 f   NetStack.obj
 0001:00023c60       ?m_StructCopy@Struct_NetStack_Contracts_RoutingContract_FindHostRoute@@SIXPAU1@0@Z 02024c60 f   NetStack.obj
 0001:00023c88       ?m_StructCopy@Struct_NetStack_Contracts_RoutingContract_FindHostRoute@@SIXPAU1@PAU1@@Z 02024c88 f   NetStack.obj
 0001:00023d00       ?m_Equals@Struct_NetStack_Contracts_RoutingContract_FindHostRoute@@SI_NPAU1@PAUClass_System_Object@@@Z 02024d00 f   NetStack.obj
 0001:00023d48       ?m_Equals@Struct_NetStack_Contracts_RoutingContract_FindHostRoute@@SI_NPAUClass_NetStack_Contracts_RoutingContract_FindHostRoute@@PAUClass_System_Object@@@Z 02024d48 f   NetStack.obj
 0001:00023d74       ?m_StructCopy@Struct_Microsoft_Singularity_Directory_DirectoryServiceContract_NakDeleteDirectory@@SIXPAU1@0@Z 02024d74 f   NetStack.obj
 0001:00023d9c       ?m_StructCopy@Struct_Microsoft_Singularity_Directory_DirectoryServiceContract_NakDeleteDirectory@@SIXPAU1@PAU1@@Z 02024d9c f   NetStack.obj
 0001:00023e14       ?m_Equals@Struct_Microsoft_Singularity_Directory_DirectoryServiceContract_NakDeleteDirectory@@SI_NPAU1@PAUClass_System_Object@@@Z 02024e14 f   NetStack.obj
 0001:00023eb4       ?m_Equals@Struct_Microsoft_Singularity_Directory_DirectoryServiceContract_NakDeleteDirectory@@SI_NPAUClass_Microsoft_Singularity_Directory_DirectoryServiceContract_NakDeleteDirectory@@PAUClass_System_Object@@@Z 02024eb4 f   NetStack.obj
 0001:00023ee0       ?m_StructCopy@Struct_NetStack_Contracts_TcpConnectionContract_GetRemoteAddress@@SIXPAU1@0@Z 02024ee0 f   NetStack.obj
 0001:00023efc       ?m_StructCopy@Struct_NetStack_Contracts_TcpConnectionContract_GetRemoteAddress@@SIXPAU1@PAU1@@Z 02024efc f   NetStack.obj
 0001:00023f50       ?m_Equals@Struct_NetStack_Contracts_TcpConnectionContract_GetRemoteAddress@@SI_NPAU1@PAUClass_System_Object@@@Z 02024f50 f   NetStack.obj
 0001:00023f88       ?m_Equals@Struct_NetStack_Contracts_TcpConnectionContract_GetRemoteAddress@@SI_NPAUClass_NetStack_Contracts_TcpConnectionContract_GetRemoteAddress@@PAUClass_System_Object@@@Z 02024f88 f   NetStack.obj
 0001:00023fb4       ?m_StructCopy@Struct_Microsoft_Singularity_ProcessorContext@@SIXPAU1@0@Z 02024fb4 f   NetStack.obj
 0001:0002404c       ?m_StructCopy@Struct_Microsoft_Singularity_ProcessorContext@@SIXPAU1@PAU1@@Z 0202504c f   NetStack.obj
 0001:00024214       ?m_Equals@Struct_Microsoft_Singularity_ProcessorContext@@SI_NPAU1@PAUClass_System_Object@@@Z 02025214 f   NetStack.obj
 0001:00024358       ?m_Equals@Struct_Microsoft_Singularity_ProcessorContext@@SI_NPAUClass_Microsoft_Singularity_ProcessorContext@@PAUClass_System_Object@@@Z 02025358 f   NetStack.obj
 0001:00024384       ?m_WaitOneNoGC@Class_System_Threading_AutoResetEvent@@SI_NPAU1@@Z 02025384 f   NetStack.obj
 0001:000243ec       ?m_WaitOne@Class_System_Threading_AutoResetEvent@@SI_NPAU1@@Z 020253ec f   NetStack.obj
 0001:00024460       ?m_WaitOne@Class_System_Threading_AutoResetEvent@@SI_NPAU1@UStruct_System_TimeSpan@@@Z 02025460 f   NetStack.obj
 0001:000244e8       ?m_WaitOne@Class_System_Threading_AutoResetEvent@@SI_NPAU1@UStruct_System_SchedulerTime@@@Z 020254e8 f   NetStack.obj
 0001:00024570       ?m_SetNoGC@Class_System_Threading_AutoResetEvent@@SIXPAU1@@Z 02025570 f   NetStack.obj
 0001:000245a0       ?m_Set@Class_System_Threading_AutoResetEvent@@SIXPAU1@@Z 020255a0 f   NetStack.obj
 0001:000245d8       ?m_get$_Handle@Class_System_Threading_AutoResetEvent@@SI?AUStruct_Microsoft_Singularity_V1_Threads_SyncHandle@@PAU1@@Z 020255d8 f   NetStack.obj
 0001:00024624       ?m_Finalize@Class_System_Threading_AutoResetEvent@@SIXPAU1@@Z 02025624 f   NetStack.obj
 0001:00024688       ?m_Dispose@Class_System_Threading_AutoResetEvent@@SIXPAU1@_N@Z 02025688 f   NetStack.obj
 0001:000246d4       ?m__ctor@Class_System_Threading_AutoResetEvent@@SIXPAU1@_N@Z 020256d4 f   NetStack.obj
 0001:00024740       ?m_ZeroIfMustBeQuiescent@Struct_System_MultiUseWord_STMSnapshot@@SIIPAU1@@Z 02025740 f   NetStack.obj
 0001:00024768       ?m_Visit@Struct_System_MultiUseWord_STMSnapshot@@SIXPAU1@PAUClass_System_GCs_DirectReferenceVisitor@@@Z 02025768 f   NetStack.obj
 0001:00024924       ?m_StructCopy@Struct_System_MultiUseWord_STMSnapshot@@SIXPAU1@0@Z 02025924 f   NetStack.obj
 0001:0002494c       ?m_StructCopy@Struct_System_MultiUseWord_STMSnapshot@@SIXPAU1@PAU1@@Z 0202594c f   NetStack.obj
 0001:000249c4       ?m_GetSTMWord@Struct_System_MultiUseWord_STMSnapshot@@SI?AUStruct_System_STMWord@@PAU1@@Z 020259c4 f   NetStack.obj
 0001:00024a70       ?m_Equals@Struct_System_MultiUseWord_STMSnapshot@@SI_NPAU1@PAUClass_System_Object@@@Z 02025a70 f   NetStack.obj
 0001:00024ab8       ?m_Equals@Struct_System_MultiUseWord_STMSnapshot@@SI_NPAUClass_System_MultiUseWord_STMSnapshot@@PAUClass_System_Object@@@Z 02025ab8 f   NetStack.obj
 0001:00024ae4       ?m_Eq@Struct_System_MultiUseWord_STMSnapshot@@SI_NPAU1@U1@@Z 02025ae4 f   NetStack.obj
 0001:00024b10       ?m__ctor@Struct_System_MultiUseWord_STMSnapshot@@SIXPAU1@UStruct_System_MultiUseWord@@@Z 02025b10 f   NetStack.obj
 0001:00024b38       ?m_Unlink@Class_Microsoft_Singularity_Channels_ESet$_2$LNetStack_Contracts_UdpContract_Exp_NetStack_Contracts_UdpContract_ReadyState$G_Node@@SIPAUStruct_NetStack_Contracts_UdpContract_Exp@@PAU1@PAUClass_Microsoft_Singularity_Channels_ESet$_2$LNetStack_Contracts_UdpContract_Exp_NetStack_Contracts_UdpContract_ReadyState$G@@@Z 02025b38 f   NetStack.obj
 0001:00024c4c       ?m_LinkAsNext@Class_Microsoft_Singularity_Channels_ESet$_2$LNetStack_Contracts_UdpContract_Exp_NetStack_Contracts_UdpContract_ReadyState$G_Node@@SIXPAU1@PAUStruct_NetStack_Contracts_UdpContract_Exp@@PAUClass_Microsoft_Singularity_Channels_ESet$_2$LNetStack_Contracts_UdpContract_Exp_NetStack_Contracts_UdpContract_ReadyState$G@@@Z 02025c4c f   NetStack.obj
 0001:00024cc8       ?m_Init@Class_Microsoft_Singularity_Channels_ESet$_2$LNetStack_Contracts_UdpContract_Exp_NetStack_Contracts_UdpContract_ReadyState$G_Node@@SIXPAU1@PAUStruct_NetStack_Contracts_UdpContract_Exp@@PAUClass_Microsoft_Singularity_Channels_ESet$_2$LNetStack_Contracts_UdpContract_Exp_NetStack_Contracts_UdpContract_ReadyState$G@@@Z 02025cc8 f   NetStack.obj
 0001:00024cf8       ?m__ctor@Class_Microsoft_Singularity_Channels_ESet$_2$LNetStack_Contracts_UdpContract_Exp_NetStack_Contracts_UdpContract_ReadyState$G_Node@@SIXPAU1@PAUStruct_NetStack_Contracts_UdpContract_Exp@@PAUClass_Microsoft_Singularity_Channels_ESet$_2$LNetStack_Contracts_UdpContract_Exp_NetStack_Contracts_UdpContract_ReadyState$G@@@Z 02025cf8 f   NetStack.obj
 0001:00024d3c       ?m__ctor@Class_Microsoft_Singularity_Channels_ESet$_2$LNetStack_Contracts_UdpContract_Exp_NetStack_Contracts_UdpContract_ReadyState$G_Node@@SIXPAU1@PAUClass_Microsoft_Singularity_Channels_ESet$_2$LNetStack_Contracts_UdpContract_Exp_NetStack_Contracts_UdpContract_ReadyState$G@@@Z 02025d3c f   NetStack.obj
 0001:00024d70       ?g_ToUInt32@Class_Drivers_Net_NetworkBitConverter@@SIIPAUClassVector_uint8@@H@Z 02025d70 f   NetStack.obj
 0001:00024dbc       ?g_ToUInt16@Class_Drivers_Net_NetworkBitConverter@@SIGPAUClassVector_uint8@@H@Z 02025dbc f   NetStack.obj
 0001:00024e0c       ?g_ToInt16@Class_Drivers_Net_NetworkBitConverter@@SIFPAUClassVector_uint8@@H@Z 02025e0c f   NetStack.obj
 0001:00024e5c       ?g_PutBytes@Class_Drivers_Net_NetworkBitConverter@@SIHIPAUClassVector_uint8@@H@Z 02025e5c f   NetStack.obj
 0001:00024f30       ?g_PutBytes@Class_Drivers_Net_NetworkBitConverter@@SIHGPAUClassVector_uint8@@H@Z 02025f30 f   NetStack.obj
 0001:00024fbc       ?m__ctor@Class_Drivers_Net_NetworkBitConverter@@SIXPAU1@@Z 02025fbc f   NetStack.obj
 0001:00024fd4       ?m_Start@Class_NetStack_Channels_Private_TcpConnectionExpThread@@SIXPAU1@@Z 02025fd4 f   NetStack.obj
 0001:0002505c       ?m_RunInternal@Class_NetStack_Channels_Private_TcpConnectionExpThread@@SIXPAU1@@Z 0202605c f   NetStack.obj
 0001:00025bbc       ?m_Run@Class_NetStack_Channels_Private_TcpConnectionExpThread@@SIXPAU1@@Z 02026bbc f   NetStack.obj
 0001:00025c38       ?m__ctor@Class_NetStack_Channels_Private_TcpConnectionExpThread@@SIXPAU1@PAUStruct_NetStack_Contracts_TcpConnectionContract_Exp@@@Z 02026c38 f   NetStack.obj
 0001:00025ce0       ?m__ctor@Class_NetStack_Channels_Private_TcpConnectionExpThread@@SIXPAU1@PAUStruct_NetStack_Contracts_TcpConnectionContract_Exp@@PAUClass_NetStack_Runtime_TcpSession@@@Z 02026ce0 f   NetStack.obj
 0001:00025d3c       ?g__cctor@Class_NetStack_Channels_Private_TcpConnectionExpThread@@SIXXZ 02026d3c f   NetStack.obj
 0001:00025f6c       ?m_StructCopy@Struct_NetStack_Runtime_StopThreadContract_Exp@@SIXPAU1@0@Z 02026f6c f   NetStack.obj
 0001:00026048       ?m_StructCopy@Struct_NetStack_Runtime_StopThreadContract_Exp@@SIXPAU1@PAU1@@Z 02027048 f   NetStack.obj
 0001:000262dc       ?m_SendAckTerminate@Struct_NetStack_Runtime_StopThreadContract_Exp@@SIXPAU1@@Z 020272dc f   NetStack.obj
 0001:000263d0       ?m_Release@Struct_NetStack_Runtime_StopThreadContract_Exp@@SIXPAU1@@Z 020273d0 f   NetStack.obj
 0001:000263ec       ?m_RecvTerminate@Struct_NetStack_Runtime_StopThreadContract_Exp@@SIXPAU1@@Z 020273ec f   NetStack.obj
 0001:00026564       ?m_Peek@Struct_NetStack_Runtime_StopThreadContract_Exp@@SIHPAU1@@Z 02027564 f   NetStack.obj
 0001:00026698       ?m_MarshallDeliverTerminate0@Struct_NetStack_Runtime_StopThreadContract_Exp@@SIXPAU1@PAUStruct_Microsoft_Singularity_Channels_Endpoint@@@Z 02027698 f   NetStack.obj
 0001:000266e4       ?m_HeadMatches@Struct_NetStack_Runtime_StopThreadContract_Exp@@SI_NPAU1@HPA_NPAPAUClass_System_Object@@@Z 020276e4 f   NetStack.obj
 0001:000267a4       ?m_HeadMatches@Struct_NetStack_Runtime_StopThreadContract_Exp@@SI_NPAUClass_NetStack_Runtime_StopThreadContract_Exp@@HPA_NPAPAUClass_System_Object@@@Z 020277a4 f   NetStack.obj
 0001:000267dc       ?m_Equals@Struct_NetStack_Runtime_StopThreadContract_Exp@@SI_NPAU1@PAUClass_System_Object@@@Z 020277dc f   NetStack.obj
 0001:00026ab0       ?m_Equals@Struct_NetStack_Runtime_StopThreadContract_Exp@@SI_NPAUClass_NetStack_Runtime_StopThreadContract_Exp@@PAUClass_System_Object@@@Z 02027ab0 f   NetStack.obj
 0001:00026adc       ?m_Dispose@Struct_NetStack_Runtime_StopThreadContract_Exp@@SIXPAU1@@Z 02027adc f   NetStack.obj
 0001:00026b00       ?m_Dispose@Struct_NetStack_Runtime_StopThreadContract_Exp@@SIXPAUClass_NetStack_Runtime_StopThreadContract_Exp@@@Z 02027b00 f   NetStack.obj
 0001:00026b28       ?m_DeliverTerminate0@Struct_NetStack_Runtime_StopThreadContract_Exp@@SIXPAU1@@Z 02027b28 f   NetStack.obj
 0001:00026b5c       ?m_CurrentState@Struct_NetStack_Runtime_StopThreadContract_Exp@@SIPAUClass_System_String@@PAU1@@Z 02027b5c f   NetStack.obj
 0001:00026be8       ?m_Acquire@Struct_NetStack_Runtime_StopThreadContract_Exp@@SIXPAU1@@Z 02027be8 f   NetStack.obj
 0001:00026c04       ?m__ctor@Struct_NetStack_Runtime_StopThreadContract_Exp@@SIXPAU1@H@Z 02027c04 f   NetStack.obj
 0001:00026c30       ?g_get$_NullMessage@Class_System_ArgumentNullException@@SIPAUClass_System_String@@XZ 02027c30 f   NetStack.obj
 0001:00026c5c       ?m__ctor@Class_System_ArgumentNullException@@SIXPAU1@@Z 02027c5c f   NetStack.obj
 0001:00026c84       ?m__ctor@Class_System_ArgumentNullException@@SIXPAU1@PAUClass_System_String@@@Z 02027c84 f   NetStack.obj
 0001:00026cb4       ?m__ctor@Class_System_ArgumentNullException@@SIXPAU1@PAUClass_System_String@@1@Z 02027cb4 f   NetStack.obj
 0001:00026ce4       ?g__cctor@Class_System_ArgumentNullException@@SIXXZ 02027ce4 f   NetStack.obj
 0001:00026cf8       ?m_OnStateEnter@Class_NetStack_Runtime_TCPFSM_TCPStateListen@@SIXPAU1@PAUClass_NetStack_Runtime_TcpSession@@@Z 02027cf8 f   NetStack.obj
 0001:00026d14       ?m_OnPacketReceive@Class_NetStack_Runtime_TCPFSM_TCPStateListen@@SI?AUStruct_NetStack_Runtime_NetStatus@@PAU1@PAUClass_NetStack_Runtime_TcpSession@@PAUClass_NetStack_Common_NetPacket@@PAUClass_System_Object@@@Z 02027d14 f   NetStack.obj
 0001:000270cc       ?g_Instance@Class_NetStack_Runtime_TCPFSM_TCPStateListen@@SIPAU1@XZ 020280cc f   NetStack.obj
 0001:00027104       ?m_GetStateEnum@Class_NetStack_Runtime_TCPFSM_TCPStateListen@@SI?AUStruct_NetStack_Runtime_TcpStateEnum@@PAU1@@Z 02028104 f   NetStack.obj
 0001:00027144       ?m__ctor@Class_NetStack_Runtime_TCPFSM_TCPStateListen@@SIXPAU1@@Z 02028144 f   NetStack.obj
 0001:00027168       ?g__cctor@Class_NetStack_Runtime_TCPFSM_TCPStateListen@@SIXXZ 02028168 f   NetStack.obj
 0001:000271c0       ?m_Visit@Struct_System_MultiUseWord_STMHandle@@SI_NPAU1@PAUClass_System_GCs_DirectReferenceVisitor@@@Z 020281c0 f   NetStack.obj
 0001:00027214       ?m_StructCopy@Struct_System_MultiUseWord_STMHandle@@SIXPAU1@0@Z 02028214 f   NetStack.obj
 0001:0002723c       ?m_StructCopy@Struct_System_MultiUseWord_STMHandle@@SIXPAU1@PAU1@@Z 0202823c f   NetStack.obj
 0001:000272b4       ?m_SetSTMWordAtGC@Struct_System_MultiUseWord_STMHandle@@SIXPAU1@PAUClass_System_GCs_DirectReferenceVisitor@@UStruct_System_STMWord@@@Z 020282b4 f   NetStack.obj
 0001:000273ac       ?m_SetMark@Struct_System_MultiUseWord_STMHandle@@SIXPAU1@_N@Z 020283ac f   NetStack.obj
 0001:00027440       ?m_IsMarked@Struct_System_MultiUseWord_STMHandle@@SI_NPAU1@@Z 02028440 f   NetStack.obj
 0001:00027484       ?m_GetSTMSnapshot@Struct_System_MultiUseWord_STMHandle@@SI?AUStruct_System_MultiUseWord_STMSnapshot@@PAU1@@Z 02028484 f   NetStack.obj
 0001:000274d0       ?m_Equals@Struct_System_MultiUseWord_STMHandle@@SI_NPAU1@PAUClass_System_Object@@@Z 020284d0 f   NetStack.obj
 0001:00027518       ?m_Equals@Struct_System_MultiUseWord_STMHandle@@SI_NPAUClass_System_MultiUseWord_STMHandle@@PAUClass_System_Object@@@Z 02028518 f   NetStack.obj
 0001:00027544       ?m__ctor@Class_System_Runtime_CompilerServices_NoInlineAttribute@@SIXPAU1@@Z 02028544 f   NetStack.obj
 0001:00027568       ?m_StructCopy@Struct_NetStack_Contracts_TcpConnectionContract_Exp@@SIXPAU1@0@Z 02028568 f   NetStack.obj
 0001:00027888       ?m_StructCopy@Struct_NetStack_Contracts_TcpConnectionContract_Exp@@SIXPAU1@PAU1@@Z 02028888 f   NetStack.obj
 0001:000281e8       ?m_SendSessionIsAvailable@Struct_NetStack_Contracts_TcpConnectionContract_Exp@@SIXPAU1@_N@Z 020291e8 f   NetStack.obj
 0001:000282e4       ?m_SendReady@Struct_NetStack_Contracts_TcpConnectionContract_Exp@@SIXPAU1@@Z 020292e4 f   NetStack.obj
 0001:00028458       ?m_SendPort@Struct_NetStack_Contracts_TcpConnectionContract_Exp@@SIXPAU1@G@Z 02029458 f   NetStack.obj
 0001:000288f0       ?m_SendOK@Struct_NetStack_Contracts_TcpConnectionContract_Exp@@SIXPAU1@@Z 020298f0 f   NetStack.obj
 0001:00028c84       ?m_SendNoMoreData@Struct_NetStack_Contracts_TcpConnectionContract_Exp@@SIXPAU1@@Z 02029c84 f   NetStack.obj
 0001:00028f0c       ?m_SendNoData@Struct_NetStack_Contracts_TcpConnectionContract_Exp@@SIXPAU1@@Z 02029f0c f   NetStack.obj
 0001:00029080       ?m_SendIPAddress@Struct_NetStack_Contracts_TcpConnectionContract_Exp@@SIXPAU1@I@Z 0202a080 f   NetStack.obj
 0001:00029504       ?m_SendInvalidEndPoint@Struct_NetStack_Contracts_TcpConnectionContract_Exp@@SIXPAU1@@Z 0202a504 f   NetStack.obj
 0001:000295f8       ?m_SendDataIsAvailable@Struct_NetStack_Contracts_TcpConnectionContract_Exp@@SIXPAU1@_N@Z 0202a5f8 f   NetStack.obj
 0001:00029788       ?m_SendData@Struct_NetStack_Contracts_TcpConnectionContract_Exp@@SIXPAU1@PAE@Z 0202a788 f   NetStack.obj
 0001:00029a94       ?m_SendCouldNotListen@Struct_NetStack_Contracts_TcpConnectionContract_Exp@@SIXPAU1@@Z 0202aa94 f   NetStack.obj
 0001:00029b88       ?m_SendCouldNotConnect@Struct_NetStack_Contracts_TcpConnectionContract_Exp@@SIXPAU1@UStruct_NetStack_Contracts_TcpError@@@Z 0202ab88 f   NetStack.obj
 0001:00029c84       ?m_SendConnectionClosed@Struct_NetStack_Contracts_TcpConnectionContract_Exp@@SIXPAU1@@Z 0202ac84 f   NetStack.obj
 0001:00029df8       ?m_SendCantSend@Struct_NetStack_Contracts_TcpConnectionContract_Exp@@SIXPAU1@@Z 0202adf8 f   NetStack.obj
 0001:00029f6c       ?m_Release@Struct_NetStack_Contracts_TcpConnectionContract_Exp@@SIXPAU1@@Z 0202af6c f   NetStack.obj
 0001:00029f88       ?m_RecvWrite@Struct_NetStack_Contracts_TcpConnectionContract_Exp@@SIXPAU1@PAPAE@Z 0202af88 f   NetStack.obj
 0001:0002a234       ?m_RecvRead@Struct_NetStack_Contracts_TcpConnectionContract_Exp@@SIXPAU1@@Z 0202b234 f   NetStack.obj
 0001:0002a4c4       ?m_RecvPollRead@Struct_NetStack_Contracts_TcpConnectionContract_Exp@@SIXPAU1@PAH@Z 0202b4c4 f   NetStack.obj
 0001:0002a770       ?m_RecvListen@Struct_NetStack_Contracts_TcpConnectionContract_Exp@@SIXPAU1@PAH@Z 0202b770 f   NetStack.obj
 0001:0002a8f8       ?m_RecvIsSessionAvailable@Struct_NetStack_Contracts_TcpConnectionContract_Exp@@SIXPAU1@@Z 0202b8f8 f   NetStack.obj
 0001:0002aa70       ?m_RecvIsDataAvailable@Struct_NetStack_Contracts_TcpConnectionContract_Exp@@SIXPAU1@@Z 0202ba70 f   NetStack.obj
 0001:0002ad00       ?m_RecvGetRemotePort@Struct_NetStack_Contracts_TcpConnectionContract_Exp@@SIXPAU1@@Z 0202bd00 f   NetStack.obj
 0001:0002b0a4       ?m_RecvGetRemoteAddress@Struct_NetStack_Contracts_TcpConnectionContract_Exp@@SIXPAU1@@Z 0202c0a4 f   NetStack.obj
 0001:0002b448       ?m_RecvGetLocalPort@Struct_NetStack_Contracts_TcpConnectionContract_Exp@@SIXPAU1@@Z 0202c448 f   NetStack.obj
 0001:0002b904       ?m_RecvGetLocalAddress@Struct_NetStack_Contracts_TcpConnectionContract_Exp@@SIXPAU1@@Z 0202c904 f   NetStack.obj
 0001:0002bdc0       ?m_RecvDoneSending@Struct_NetStack_Contracts_TcpConnectionContract_Exp@@SIXPAU1@@Z 0202cdc0 f   NetStack.obj
 0001:0002c050       ?m_RecvDoneReceiving@Struct_NetStack_Contracts_TcpConnectionContract_Exp@@SIXPAU1@@Z 0202d050 f   NetStack.obj
 0001:0002c2e0       ?m_RecvConnect@Struct_NetStack_Contracts_TcpConnectionContract_Exp@@SIXPAU1@PAIPAG@Z 0202d2e0 f   NetStack.obj
 0001:0002c5ac       ?m_RecvClose@Struct_NetStack_Contracts_TcpConnectionContract_Exp@@SIXPAU1@@Z 0202d5ac f   NetStack.obj
 0001:0002cd94       ?m_RecvBindLocalEndPoint@Struct_NetStack_Contracts_TcpConnectionContract_Exp@@SIXPAU1@PAIPAG@Z 0202dd94 f   NetStack.obj
 0001:0002cf30       ?m_RecvAccept@Struct_NetStack_Contracts_TcpConnectionContract_Exp@@SIXPAU1@PAPAU1@@Z 0202df30 f   NetStack.obj
 0001:0002d0b8       ?m_RecvAbort@Struct_NetStack_Contracts_TcpConnectionContract_Exp@@SIXPAU1@@Z 0202e0b8 f   NetStack.obj
 0001:0002d574       ?m_Peek@Struct_NetStack_Contracts_TcpConnectionContract_Exp@@SIHPAU1@@Z 0202e574 f   NetStack.obj
 0001:0002e91c       ?m_InState@Struct_NetStack_Contracts_TcpConnectionContract_Exp@@SI_NPAU1@H@Z 0202f91c f   NetStack.obj
 0001:0002e9ac       ?m_HeadMatches@Struct_NetStack_Contracts_TcpConnectionContract_Exp@@SI_NPAU1@HPA_NPAPAUClass_System_Object@@@Z 0202f9ac f   NetStack.obj
 0001:0002ea6c       ?m_HeadMatches@Struct_NetStack_Contracts_TcpConnectionContract_Exp@@SI_NPAUClass_NetStack_Contracts_TcpConnectionContract_Exp@@HPA_NPAPAUClass_System_Object@@@Z 0202fa6c f   NetStack.obj
 0001:0002eaa4       ?m_Equals@Struct_NetStack_Contracts_TcpConnectionContract_Exp@@SI_NPAU1@PAUClass_System_Object@@@Z 0202faa4 f   NetStack.obj
 0001:0002fa78       ?m_Equals@Struct_NetStack_Contracts_TcpConnectionContract_Exp@@SI_NPAUClass_NetStack_Contracts_TcpConnectionContract_Exp@@PAUClass_System_Object@@@Z 02030a78 f   NetStack.obj
 0001:0002faa4       ?m_Dispose@Struct_NetStack_Contracts_TcpConnectionContract_Exp@@SIXPAU1@@Z 02030aa4 f   NetStack.obj
 0001:0002fac8       ?m_Dispose@Struct_NetStack_Contracts_TcpConnectionContract_Exp@@SIXPAUClass_NetStack_Contracts_TcpConnectionContract_Exp@@@Z 02030ac8 f   NetStack.obj
 0001:0002faf0       ?m_CurrentState@Struct_NetStack_Contracts_TcpConnectionContract_Exp@@SIPAUClass_System_String@@PAU1@@Z 02030af0 f   NetStack.obj
 0001:0002fe6c       ?m_Acquire@Struct_NetStack_Contracts_TcpConnectionContract_Exp@@SIXPAU1@@Z 02030e6c f   NetStack.obj
 0001:0002fe88       ?m_StructCopy@Struct_Microsoft_Singularity_Directory_DirectoryServiceContract_BeginEnumeration@@SIXPAU1@0@Z 02030e88 f   NetStack.obj
 0001:0002fea4       ?m_StructCopy@Struct_Microsoft_Singularity_Directory_DirectoryServiceContract_BeginEnumeration@@SIXPAU1@PAU1@@Z 02030ea4 f   NetStack.obj
 0001:0002fef8       ?m_Equals@Struct_Microsoft_Singularity_Directory_DirectoryServiceContract_BeginEnumeration@@SI_NPAU1@PAUClass_System_Object@@@Z 02030ef8 f   NetStack.obj
 0001:0002ff30       ?m_Equals@Struct_Microsoft_Singularity_Directory_DirectoryServiceContract_BeginEnumeration@@SI_NPAUClass_Microsoft_Singularity_Directory_DirectoryServiceContract_BeginEnumeration@@PAUClass_System_Object@@@Z 02030f30 f   NetStack.obj
 0001:0002ff5c       ?g_Process@Class_System_WeakReference@@SIXPAUClass_System_GCs_DirectReferenceVisitor@@_N1@Z 02030f5c f   NetStack.obj
 0001:00030094       ?m__ctor@Class_System_WeakReference@@SIXPAU1@@Z 02031094 f   NetStack.obj
 0001:000300b0       ?g__cctor@Class_System_WeakReference@@SIXXZ 020310b0 f   NetStack.obj
 0001:000300f0       ?m_StructCopy@Struct_Microsoft_Singularity_Io_Net_NicDeviceContract_GiveRxPacketsToDevice@@SIXPAU1@0@Z 020310f0 f   NetStack.obj
 0001:00030118       ?m_StructCopy@Struct_Microsoft_Singularity_Io_Net_NicDeviceContract_GiveRxPacketsToDevice@@SIXPAU1@PAU1@@Z 02031118 f   NetStack.obj
 0001:00030190       ?m_MarshallContent@Struct_Microsoft_Singularity_Io_Net_NicDeviceContract_GiveRxPacketsToDevice@@SIXPAU1@PAEPAUStruct_Microsoft_Singularity_Channels_Endpoint@@1PAH@Z 02031190 f   NetStack.obj
 0001:00030214       ?m_MarshallAll@Struct_Microsoft_Singularity_Io_Net_NicDeviceContract_GiveRxPacketsToDevice@@SIXPAU1@PAEPAUStruct_Microsoft_Singularity_Channels_Endpoint@@PAH@Z 02031214 f   NetStack.obj
 0001:0003026c       ?m_Equals@Struct_Microsoft_Singularity_Io_Net_NicDeviceContract_GiveRxPacketsToDevice@@SI_NPAU1@PAUClass_System_Object@@@Z 0203126c f   NetStack.obj
 0001:000302b4       ?m_Equals@Struct_Microsoft_Singularity_Io_Net_NicDeviceContract_GiveRxPacketsToDevice@@SI_NPAUClass_Microsoft_Singularity_Io_Net_NicDeviceContract_GiveRxPacketsToDevice@@PAUClass_System_Object@@@Z 020312b4 f   NetStack.obj
 0001:000302e0       ?m_StructCopy@Struct_Microsoft_Singularity_Directory_DirectoryServiceContract_NakGetAttributes@@SIXPAU1@0@Z 020312e0 f   NetStack.obj
 0001:00030308       ?m_StructCopy@Struct_Microsoft_Singularity_Directory_DirectoryServiceContract_NakGetAttributes@@SIXPAU1@PAU1@@Z 02031308 f   NetStack.obj
 0001:00030380       ?m_Equals@Struct_Microsoft_Singularity_Directory_DirectoryServiceContract_NakGetAttributes@@SI_NPAU1@PAUClass_System_Object@@@Z 02031380 f   NetStack.obj
 0001:00030420       ?m_Equals@Struct_Microsoft_Singularity_Directory_DirectoryServiceContract_NakGetAttributes@@SI_NPAUClass_Microsoft_Singularity_Directory_DirectoryServiceContract_NakGetAttributes@@PAUClass_System_Object@@@Z 02031420 f   NetStack.obj
 0001:0003044c       ?m_OnStateEnter@Class_NetStack_Runtime_TCPFSM_TCPLastAck@@SIXPAU1@PAUClass_NetStack_Runtime_TcpSession@@@Z 0203144c f   NetStack.obj
 0001:00030494       ?m_OnPacketReceive@Class_NetStack_Runtime_TCPFSM_TCPLastAck@@SI?AUStruct_NetStack_Runtime_NetStatus@@PAU1@PAUClass_NetStack_Runtime_TcpSession@@PAUClass_NetStack_Common_NetPacket@@PAUClass_System_Object@@@Z 02031494 f   NetStack.obj
 0001:0003070c       ?g_Instance@Class_NetStack_Runtime_TCPFSM_TCPLastAck@@SIPAU1@XZ 0203170c f   NetStack.obj
 0001:00030744       ?m_GetStateEnum@Class_NetStack_Runtime_TCPFSM_TCPLastAck@@SI?AUStruct_NetStack_Runtime_TcpStateEnum@@PAU1@@Z 02031744 f   NetStack.obj
 0001:00030784       ?m__ctor@Class_NetStack_Runtime_TCPFSM_TCPLastAck@@SIXPAU1@@Z 02031784 f   NetStack.obj
 0001:000307a8       ?g__cctor@Class_NetStack_Runtime_TCPFSM_TCPLastAck@@SIXXZ 020317a8 f   NetStack.obj
 0001:00030800       ?g_TransferOwnership@Struct_Microsoft_Singularity_Directory_ServiceProviderContract_Imp@@SIXPAUStruct_Microsoft_Singularity_Channels_Endpoint@@PAU1@@Z 02031800 f   NetStack.obj
 0001:00030844       ?m_TransferContentsOwnership@Struct_Microsoft_Singularity_Directory_ServiceProviderContract_Imp@@SIXPAU1@PAUStruct_Microsoft_Singularity_Channels_Endpoint@@@Z 02031844 f   NetStack.obj
 0001:00030870       ?m_StructCopy@Struct_Microsoft_Singularity_Directory_ServiceProviderContract_Imp@@SIXPAU1@0@Z 02031870 f   NetStack.obj
 0001:0003095c       ?m_StructCopy@Struct_Microsoft_Singularity_Directory_ServiceProviderContract_Imp@@SIXPAU1@PAU1@@Z 0203195c f   NetStack.obj
 0001:00030c20       ?m_Peek@Struct_Microsoft_Singularity_Directory_ServiceProviderContract_Imp@@SIHPAU1@@Z 02031c20 f   NetStack.obj
 0001:00030d54       ?m_MarshallDeliverNackConnect0@Struct_Microsoft_Singularity_Directory_ServiceProviderContract_Imp@@SIXPAU1@PAUStruct_Microsoft_Singularity_Directory_ServiceContract_Exp@@PAUStruct_Microsoft_Singularity_Channels_Endpoint@@@Z 02031d54 f   NetStack.obj
 0001:00030da4       ?m_MarshallDeliverAckConnect0@Struct_Microsoft_Singularity_Directory_ServiceProviderContract_Imp@@SIXPAU1@PAUStruct_Microsoft_Singularity_Channels_Endpoint@@@Z 02031da4 f   NetStack.obj
 0001:00030df0       ?m_MarshallContent@Struct_Microsoft_Singularity_Directory_ServiceProviderContract_Imp@@SIXPAU1@PAEPAUStruct_Microsoft_Singularity_Channels_Endpoint@@1@Z 02031df0 f   NetStack.obj
 0001:00030e10       ?m_InState@Struct_Microsoft_Singularity_Directory_ServiceProviderContract_Imp@@SI_NPAU1@H@Z 02031e10 f   NetStack.obj
 0001:00030ea0       ?m_HeadMatches@Struct_Microsoft_Singularity_Directory_ServiceProviderContract_Imp@@SI_NPAU1@HPA_NPAPAUClass_System_Object@@@Z 02031ea0 f   NetStack.obj
 0001:00030f60       ?m_HeadMatches@Struct_Microsoft_Singularity_Directory_ServiceProviderContract_Imp@@SI_NPAUClass_Microsoft_Singularity_Directory_ServiceProviderContract_Imp@@HPA_NPAPAUClass_System_Object@@@Z 02031f60 f   NetStack.obj
 0001:00030f98       ?m_Equals@Struct_Microsoft_Singularity_Directory_ServiceProviderContract_Imp@@SI_NPAU1@PAUClass_System_Object@@@Z 02031f98 f   NetStack.obj
 0001:000312d0       ?m_Equals@Struct_Microsoft_Singularity_Directory_ServiceProviderContract_Imp@@SI_NPAUClass_Microsoft_Singularity_Directory_ServiceProviderContract_Imp@@PAUClass_System_Object@@@Z 020322d0 f   NetStack.obj
 0001:000312fc       ?m_Dispose@Struct_Microsoft_Singularity_Directory_ServiceProviderContract_Imp@@SIXPAU1@@Z 020322fc f   NetStack.obj
 0001:00031320       ?m_Dispose@Struct_Microsoft_Singularity_Directory_ServiceProviderContract_Imp@@SIXPAUClass_Microsoft_Singularity_Directory_ServiceProviderContract_Imp@@@Z 02032320 f   NetStack.obj
 0001:00031348       ?m_DeliverNackConnect0@Struct_Microsoft_Singularity_Directory_ServiceProviderContract_Imp@@SIXPAU1@PAUStruct_Microsoft_Singularity_Directory_ServiceContract_Exp@@@Z 02032348 f   NetStack.obj
 0001:00031390       ?m_DeliverAckConnect0@Struct_Microsoft_Singularity_Directory_ServiceProviderContract_Imp@@SIXPAU1@@Z 02032390 f   NetStack.obj
 0001:000313c4       ?m_CurrentState@Struct_Microsoft_Singularity_Directory_ServiceProviderContract_Imp@@SIPAUClass_System_String@@PAU1@@Z 020323c4 f   NetStack.obj
 0001:00031440       ?m__ctor@Struct_Microsoft_Singularity_Directory_ServiceProviderContract_Imp@@SIXPAU1@H@Z 02032440 f   NetStack.obj
 0001:0003146c       ?m_MoveNext@Class_System_Array_SZArrayEnumerator@@SI_NPAU1@@Z 0203246c f   NetStack.obj
 0001:000314b0       ?m_get$_Current@Class_System_Array_SZArrayEnumerator@@SIPAUClass_System_Object@@PAU1@@Z 020324b0 f   NetStack.obj
 0001:00031534       ?m__ctor@Class_System_Array_SZArrayEnumerator@@SIXPAU1@PAUClass_System_Array@@@Z 02032534 f   NetStack.obj
 0001:000315ac       ?m_StructCopy@Struct_Microsoft_Singularity_Directory_DirectoryServiceContract_NakDeregister@@SIXPAU1@0@Z 020325ac f   NetStack.obj
 0001:000315d4       ?m_StructCopy@Struct_Microsoft_Singularity_Directory_DirectoryServiceContract_NakDeregister@@SIXPAU1@PAU1@@Z 020325d4 f   NetStack.obj
 0001:0003164c       ?m_Equals@Struct_Microsoft_Singularity_Directory_DirectoryServiceContract_NakDeregister@@SI_NPAU1@PAUClass_System_Object@@@Z 0203264c f   NetStack.obj
 0001:000316ec       ?m_Equals@Struct_Microsoft_Singularity_Directory_DirectoryServiceContract_NakDeregister@@SI_NPAUClass_Microsoft_Singularity_Directory_DirectoryServiceContract_NakDeregister@@PAUClass_System_Object@@@Z 020326ec f   NetStack.obj
 0001:00031718       ?m_StructCopy@Struct_NetStack_Runtime_StopThreadContract_Imp@@SIXPAU1@0@Z 02032718 f   NetStack.obj
 0001:000317f4       ?m_StructCopy@Struct_NetStack_Runtime_StopThreadContract_Imp@@SIXPAU1@PAU1@@Z 020327f4 f   NetStack.obj
 0001:00031a88       ?m_SendTerminate@Struct_NetStack_Runtime_StopThreadContract_Imp@@SIXPAU1@@Z 02032a88 f   NetStack.obj
 0001:00031b7c       ?m_Release@Struct_NetStack_Runtime_StopThreadContract_Imp@@SIXPAU1@@Z 02032b7c f   NetStack.obj
 0001:00031b98       ?m_RecvAckTerminate@Struct_NetStack_Runtime_StopThreadContract_Imp@@SIXPAU1@@Z 02032b98 f   NetStack.obj
 0001:00031d10       ?m_Peek@Struct_NetStack_Runtime_StopThreadContract_Imp@@SIHPAU1@@Z 02032d10 f   NetStack.obj
 0001:00031e44       ?m_MarshallDeliverAckTerminate0@Struct_NetStack_Runtime_StopThreadContract_Imp@@SIXPAU1@PAUStruct_Microsoft_Singularity_Channels_Endpoint@@@Z 02032e44 f   NetStack.obj
 0001:00031e90       ?m_HeadMatches@Struct_NetStack_Runtime_StopThreadContract_Imp@@SI_NPAU1@HPA_NPAPAUClass_System_Object@@@Z 02032e90 f   NetStack.obj
 0001:00031f50       ?m_HeadMatches@Struct_NetStack_Runtime_StopThreadContract_Imp@@SI_NPAUClass_NetStack_Runtime_StopThreadContract_Imp@@HPA_NPAPAUClass_System_Object@@@Z 02032f50 f   NetStack.obj
 0001:00031f88       ?m_Equals@Struct_NetStack_Runtime_StopThreadContract_Imp@@SI_NPAU1@PAUClass_System_Object@@@Z 02032f88 f   NetStack.obj
 0001:0003225c       ?m_Equals@Struct_NetStack_Runtime_StopThreadContract_Imp@@SI_NPAUClass_NetStack_Runtime_StopThreadContract_Imp@@PAUClass_System_Object@@@Z 0203325c f   NetStack.obj
 0001:00032288       ?m_Dispose@Struct_NetStack_Runtime_StopThreadContract_Imp@@SIXPAU1@@Z 02033288 f   NetStack.obj
 0001:000322ac       ?m_Dispose@Struct_NetStack_Runtime_StopThreadContract_Imp@@SIXPAUClass_NetStack_Runtime_StopThreadContract_Imp@@@Z 020332ac f   NetStack.obj
 0001:000322d4       ?m_DeliverAckTerminate0@Struct_NetStack_Runtime_StopThreadContract_Imp@@SIXPAU1@@Z 020332d4 f   NetStack.obj
 0001:00032308       ?m_CurrentState@Struct_NetStack_Runtime_StopThreadContract_Imp@@SIPAUClass_System_String@@PAU1@@Z 02033308 f   NetStack.obj
 0001:00032394       ?m_Acquire@Struct_NetStack_Runtime_StopThreadContract_Imp@@SIXPAU1@@Z 02033394 f   NetStack.obj
 0001:000323b0       ?m__ctor@Struct_NetStack_Runtime_StopThreadContract_Imp@@SIXPAU1@H@Z 020333b0 f   NetStack.obj
 0001:000323dc       ?m_StructCopy@Struct_NetStack_Contracts_IPContract_IsLocalAddress@@SIXPAU1@0@Z 020333dc f   NetStack.obj
 0001:00032404       ?m_StructCopy@Struct_NetStack_Contracts_IPContract_IsLocalAddress@@SIXPAU1@PAU1@@Z 02033404 f   NetStack.obj
 0001:0003247c       ?m_Equals@Struct_NetStack_Contracts_IPContract_IsLocalAddress@@SI_NPAU1@PAUClass_System_Object@@@Z 0203347c f   NetStack.obj
 0001:000324c4       ?m_Equals@Struct_NetStack_Contracts_IPContract_IsLocalAddress@@SI_NPAUClass_NetStack_Contracts_IPContract_IsLocalAddress@@PAUClass_System_Object@@@Z 020334c4 f   NetStack.obj
 0001:000324f0       ?m_StructCopy@Struct_Microsoft_Singularity_Directory_NotifyContract_AckChangeNotification@@SIXPAU1@0@Z 020334f0 f   NetStack.obj
 0001:0003250c       ?m_StructCopy@Struct_Microsoft_Singularity_Directory_NotifyContract_AckChangeNotification@@SIXPAU1@PAU1@@Z 0203350c f   NetStack.obj
 0001:00032560       ?m_Equals@Struct_Microsoft_Singularity_Directory_NotifyContract_AckChangeNotification@@SI_NPAU1@PAUClass_System_Object@@@Z 02033560 f   NetStack.obj
 0001:00032598       ?m_Equals@Struct_Microsoft_Singularity_Directory_NotifyContract_AckChangeNotification@@SI_NPAUClass_Microsoft_Singularity_Directory_NotifyContract_AckChangeNotification@@PAUClass_System_Object@@@Z 02033598 f   NetStack.obj
 0001:000325c4       ?m_OnReceive@Class_NetStack_Runtime_IcmpSession@@SI?AUStruct_NetStack_Runtime_NetStatus@@PAU1@PAUClass_System_Object@@PAUClass_NetStack_Common_NetPacket@@1@Z 020335c4 f   NetStack.obj
 0001:00032658       ?m__ctor@Class_NetStack_Runtime_IcmpSession@@SIXPAU1@PAUClass_NetStack_Runtime_IProtocol@@@Z 02033658 f   NetStack.obj
 0001:00032684       ?g__cctor@Class_NetStack_Runtime_IcmpSession@@SIXXZ 02033684 f   NetStack.obj
 0001:000326ac       ?m__ctor@Class_System_LocalDataStoreMgr@@SIXPAU1@@Z 020336ac f   NetStack.obj
 0001:0003273c       ?m_ToString@int64@@SIPAUClass_System_String@@PA_J@Z 0203373c f   NetStack.obj
 0001:00032764       ?m_ToString@int64@@SIPAUClass_System_String@@PA_JPAU2@@Z 02033764 f   NetStack.obj
 0001:000327b8       ?m_ToString@int64@@SIPAUClass_System_String@@PAUClass_System_Int64@@@Z 020337b8 f   NetStack.obj
 0001:000327e0       ?m_ToString@int64@@SIPAUClass_System_String@@PAUClass_System_Int64@@PAU2@@Z 020337e0 f   NetStack.obj
 0001:0003280c       ?m_GetHashCode@int64@@SIHPA_J@Z 0203380c f   NetStack.obj
 0001:00032840       ?m_GetHashCode@int64@@SIHPAUClass_System_Int64@@@Z 02033840 f   NetStack.obj
 0001:00032868       ?m_Equals@int64@@SI_NPA_JPAUClass_System_Object@@@Z 02033868 f   NetStack.obj
 0001:000328d8       ?m_Equals@int64@@SI_NPAUClass_System_Int64@@PAUClass_System_Object@@@Z 020338d8 f   NetStack.obj
 0001:00032904       ?m_CompareTo@int64@@SIHPA_JPAUClass_System_Object@@@Z 02033904 f   NetStack.obj
 0001:000329f8       ?m_CompareTo@int64@@SIHPAUClass_System_Int64@@PAUClass_System_Object@@@Z 020339f8 f   NetStack.obj
 0001:00032a24       ?m_StructCopy@Struct_System_GCs_SegregatedFreeList_PageHeader@@SIXPAU1@0@Z 02033a24 f   NetStack.obj
 0001:00032a80       ?m_StructCopy@Struct_System_GCs_SegregatedFreeList_PageHeader@@SIXPAU1@PAU1@@Z 02033a80 f   NetStack.obj
 0001:00032b94       ?g_get$_Size@Struct_System_GCs_SegregatedFreeList_PageHeader@@SIHXZ 02033b94 f   NetStack.obj
 0001:00032bac       ?m_Equals@Struct_System_GCs_SegregatedFreeList_PageHeader@@SI_NPAU1@PAUClass_System_Object@@@Z 02033bac f   NetStack.obj
 0001:00032c34       ?m_Equals@Struct_System_GCs_SegregatedFreeList_PageHeader@@SI_NPAUClass_System_GCs_SegregatedFreeList_PageHeader@@PAUClass_System_Object@@@Z 02033c34 f   NetStack.obj
 0001:00032c60       ?g_UInt64BitsToDouble@Class_System_BitConverter@@SIN_K@Z 02033c60 f   NetStack.obj
 0001:00032c84       ?g_ToUInt32@Class_System_BitConverter@@SIIPAUClassVector_uint8@@H@Z 02033c84 f   NetStack.obj
 0001:00032cac       ?g_ToUInt16@Class_System_BitConverter@@SIGPAUClassVector_uint8@@H@Z 02033cac f   NetStack.obj
 0001:00032cd4       ?g_ToInt32@Class_System_BitConverter@@SIHPAUClassVector_uint8@@H@Z 02033cd4 f   NetStack.obj
 0001:00032e84       ?g_ToInt16@Class_System_BitConverter@@SIFPAUClassVector_uint8@@H@Z 02033e84 f   NetStack.obj
 0001:00032fdc       ?g_SingleToUInt32Bits@Class_System_BitConverter@@SIIM@Z 02033fdc f   NetStack.obj
 0001:00032ff8       ?g_GetBytes@Class_System_BitConverter@@SIPAUClassVector_uint8@@F@Z 02033ff8 f   NetStack.obj
 0001:00033040       ?g_GetBytes@Class_System_BitConverter@@SIXFPAUClassVector_uint8@@H@Z 02034040 f   NetStack.obj
 0001:00033104       ?g_DoubleToUInt64Bits@Class_System_BitConverter@@SI_KN@Z 02034104 f   NetStack.obj
 0001:00033124       ?m__ctor@Class_System_BitConverter@@SIXPAU1@@Z 02034124 f   NetStack.obj
 0001:00033140       ?g__cctor@Class_System_BitConverter@@SIXXZ 02034140 f   NetStack.obj
 0001:00033194       ?m_StructCopy@Struct_NetStack_Contracts_UdpConnectionContract_PollSelectWrite@@SIXPAU1@0@Z 02034194 f   NetStack.obj
 0001:000331bc       ?m_StructCopy@Struct_NetStack_Contracts_UdpConnectionContract_PollSelectWrite@@SIXPAU1@PAU1@@Z 020341bc f   NetStack.obj
 0001:00033234       ?m_Equals@Struct_NetStack_Contracts_UdpConnectionContract_PollSelectWrite@@SI_NPAU1@PAUClass_System_Object@@@Z 02034234 f   NetStack.obj
 0001:0003327c       ?m_Equals@Struct_NetStack_Contracts_UdpConnectionContract_PollSelectWrite@@SI_NPAUClass_NetStack_Contracts_UdpConnectionContract_PollSelectWrite@@PAUClass_System_Object@@@Z 0203427c f   NetStack.obj
 0001:000332a8       ?m_TrimHelper@Class_System_String@@SIPAU1@PAU1@PAUClassVector_bartok_char@@H@Z 020342a8 f   NetStack.obj
 0001:00033380       ?m_TrimHelper@Class_System_String@@SIXPAU1@PAUClassVector_bartok_char@@HPAH2@Z 02034380 f   NetStack.obj
 0001:000334b0       ?m_Trim@Class_System_String@@SIPAU1@PAU1@@Z 020344b0 f   NetStack.obj
 0001:000334f0       ?m_Trim@Class_System_String@@SIPAU1@PAU1@PAUClassVector_bartok_char@@@Z 020344f0 f   NetStack.obj
 0001:0003355c       ?m_ToString@Class_System_String@@SIPAU1@PAU1@@Z 0203455c f   NetStack.obj
 0001:0003357c       ?m_ToCharArray@Class_System_String@@SIPAUClassVector_bartok_char@@PAU1@HH@Z 0203457c f   NetStack.obj
 0001:00033664       ?m_System_Collections_IEnumerable_GetEnumerator@Class_System_String@@SIPAUClass_System_Collections_IEnumerator@@PAU1@@Z 02034664 f   NetStack.obj
 0001:000336a8       ?m_Substring@Class_System_String@@SIPAU1@PAU1@H@Z 020346a8 f   NetStack.obj
 0001:000336e0       ?m_Substring@Class_System_String@@SIPAU1@PAU1@HH@Z 020346e0 f   NetStack.obj
 0001:000337e0       ?g_StringCTOR@Class_System_String@@SIPAU1@PA_WHH@Z 020347e0 f   NetStack.obj
 0001:000338b8       ?g_StringCTOR@Class_System_String@@SIPAU1@PAUClassVector_bartok_char@@@Z 020348b8 f   NetStack.obj
 0001:00033934       ?g_StringCTOR@Class_System_String@@SIPAU1@PAUClassVector_bartok_char@@HH@Z 02034934 f   NetStack.obj
 0001:00033a30       ?m_Split@Class_System_String@@SIPAUClassVector_Class_System_String@@PAU1@PAUClassVector_bartok_char@@@Z 02034a30 f   NetStack.obj
 0001:00033a5c       ?m_Split@Class_System_String@@SIPAUClassVector_Class_System_String@@PAU1@PAUClassVector_bartok_char@@H@Z 02034a5c f   NetStack.obj
 0001:00033cd8       ?m_SetLength@Class_System_String@@SIXPAU1@H@Z 02034cd8 f   NetStack.obj
 0001:00033d18       ?m_PadRight@Class_System_String@@SIPAU1@PAU1@H_W@Z 02034d18 f   NetStack.obj
 0001:00033d4c       ?m_PadLeft@Class_System_String@@SIPAU1@PAU1@H_W@Z 02034d4c f   NetStack.obj
 0001:00033d80       ?m_PadHelper@Class_System_String@@SIPAU1@PAU1@H_W_N@Z 02034d80 f   NetStack.obj
 0001:00033e6c       ?g_op$_Inequality@Class_System_String@@SI_NPAU1@0@Z 02034e6c f   NetStack.obj
 0001:00033e98       ?m_NullTerminate@Class_System_String@@SIXPAU1@@Z 02034e98 f   NetStack.obj
 0001:00033ef0       ?g_MakeSeparatorList@Class_System_String@@SIHPAU1@PAUClassVector_bartok_char@@PAUClassVector_int32@@H@Z 02034ef0 f   NetStack.obj
 0001:00034094       ?g_LimitedFormatTo@Class_System_String@@SIHPAU1@UStruct_System_ArgIterator@@PA_WH@Z 02035094 f   NetStack.obj
 0001:00034870       ?m_LastIndexOf@Class_System_String@@SIHPAU1@_W@Z 02035870 f   NetStack.obj
 0001:000348b8       ?m_LastIndexOf@Class_System_String@@SIHPAU1@_WHH@Z 020358b8 f   NetStack.obj
 0001:00034a30       ?m_InternalLength@Class_System_String@@SIHPAU1@@Z 02035a30 f   NetStack.obj
 0001:00034a50       ?m_InternalGetChar@Class_System_String@@SI_WPAU1@H@Z 02035a50 f   NetStack.obj
 0001:00034acc       ?m_InternalCopyTo@Class_System_String@@SIXPAU1@HPAUClassVector_bartok_char@@HH@Z 02035acc f   NetStack.obj
 0001:00034bf0       ?g_InternalCopy@Class_System_String@@SIPAU1@PAU1@@Z 02035bf0 f   NetStack.obj
 0001:00034c50       ?g_InternalCopy@Class_System_String@@SIXPAU1@PAUClassVector_uint8@@H@Z 02035c50 f   NetStack.obj
 0001:00034d18       ?m_InitializeStringLength@Class_System_String@@SIXPAU1@H@Z 02035d18 f   NetStack.obj
 0001:00034d4c       ?m_IndexOf@Class_System_String@@SIHPAU1@_W@Z 02035d4c f   NetStack.obj
 0001:00034d80       ?m_IndexOf@Class_System_String@@SIHPAU1@_WH@Z 02035d80 f   NetStack.obj
 0001:00034dc0       ?m_IndexOf@Class_System_String@@SIHPAU1@_WHH@Z 02035dc0 f   NetStack.obj
 0001:00034f2c       ?g_GetStringForStringBuilder@Class_System_String@@SIPAU1@PAU1@H@Z 02035f2c f   NetStack.obj
 0001:00034fd4       ?m_GetHashCode@Class_System_String@@SIHPAU1@@Z 02035fd4 f   NetStack.obj
 0001:000350d0       ?m_get$_Length@Class_System_String@@SIHPAU1@@Z 020360d0 f   NetStack.obj
 0001:000350f4       ?m_get$_Item@Class_System_String@@SI_WPAU1@H@Z 020360f4 f   NetStack.obj
 0001:0003511c       ?m_get$_Capacity@Class_System_String@@SIHPAU1@@Z 0203611c f   NetStack.obj
 0001:00035140       ?m_get$_ArrayLength@Class_System_String@@SIHPAU1@@Z 02036140 f   NetStack.obj
 0001:00035160       ?g_Format@Class_System_String@@SIPAU1@PAU1@PAUClassVector_Class_System_Object@@@Z 02036160 f   NetStack.obj
 0001:00035258       ?g_Format@Class_System_String@@SIPAU1@PAU1@PAUClass_System_Object@@@Z 02036258 f   NetStack.obj
 0001:000352b0       ?g_Format@Class_System_String@@SIPAU1@PAU1@PAUClass_System_Object@@1@Z 020362b0 f   NetStack.obj
 0001:00035314       ?g_FillSubstring@Class_System_String@@SIXPAU1@H0HH@Z 02036314 f   NetStack.obj
 0001:00035378       ?g_FillStringEx@Class_System_String@@SIXPAU1@H0H@Z 02036378 f   NetStack.obj
 0001:000353d4       ?g_FillStringChecked@Class_System_String@@SIXPAU1@H0@Z 020363d4 f   NetStack.obj
 0001:00035474       ?g_FillStringCharPtr@Class_System_String@@SIXPAU1@HPA_WH@Z 02036474 f   NetStack.obj
 0001:000354e8       ?g_FillStringChar@Class_System_String@@SIXPAU1@H_WH@Z 020364e8 f   NetStack.obj
 0001:00035604       ?g_FillStringArray@Class_System_String@@SIXPAU1@HPAUClassVector_bartok_char@@HH@Z 02036604 f   NetStack.obj
 0001:00035670       ?g_FillString@Class_System_String@@SIXPAU1@H0@Z 02036670 f   NetStack.obj
 0001:000356d0       ?g_FastAllocateString@Class_System_String@@SIPAU1@H@Z 020366d0 f   NetStack.obj
 0001:000357d4       ?g_Equals@Class_System_String@@SI_NPAU1@0@Z 020367d4 f   NetStack.obj
 0001:00035834       ?m_Equals@Class_System_String@@SI_NPAU1@0@Z 02036834 f   NetStack.obj
 0001:00035934       ?m_Equals@Class_System_String@@SI_NPAU1@PAUClass_System_Object@@@Z 02036934 f   NetStack.obj
 0001:00035984       ?g_CreateStringFromASCII@Class_System_String@@SIPAU1@PAUClassVector_uint8@@HH@Z 02036984 f   NetStack.obj
 0001:00035ae4       ?g_CountDigits@Class_System_String@@SIH_KI@Z 02036ae4 f   NetStack.obj
 0001:00035b7c       ?g_ConcatArray@Class_System_String@@SIPAU1@PAUClassVector_Class_System_String@@H@Z 02036b7c f   NetStack.obj
 0001:00035c5c       ?g_Concat@Class_System_String@@SIPAU1@PAUClassVector_Class_System_String@@@Z 02036c5c f   NetStack.obj
 0001:00035da8       ?g_Concat@Class_System_String@@SIPAU1@PAUClassVector_Class_System_Object@@@Z 02036da8 f   NetStack.obj
 0001:00035f00       ?g_Concat@Class_System_String@@SIPAU1@PAU1@0@Z 02036f00 f   NetStack.obj
 0001:00035fa4       ?g_Concat@Class_System_String@@SIPAU1@PAU1@00@Z 02036fa4 f   NetStack.obj
 0001:000360e4       ?g_Concat@Class_System_String@@SIPAU1@PAU1@000@Z 020370e4 f   NetStack.obj
 0001:00036284       ?g_Concat@Class_System_String@@SIPAU1@PAUClass_System_Object@@@Z 02037284 f   NetStack.obj
 0001:000362b8       ?g_Concat@Class_System_String@@SIPAU1@PAUClass_System_Object@@0@Z 020372b8 f   NetStack.obj
 0001:00036320       ?g_Concat@Class_System_String@@SIPAU1@PAUClass_System_Object@@00@Z 02037320 f   NetStack.obj
 0001:000363ac       ?m_CompareTo@Class_System_String@@SIHPAU1@PAUClass_System_Object@@@Z 020373ac f   NetStack.obj
 0001:00036430       ?g_Compare@Class_System_String@@SIHPAU1@0@Z 02037430 f   NetStack.obj
 0001:00036470       ?g_Compare@Class_System_String@@SIHPAU1@0_N@Z 02037470 f   NetStack.obj
 0001:000364e4       ?m_ClearPostNullChar@Class_System_String@@SIXPAU1@@Z 020374e4 f   NetStack.obj
 0001:0003655c       ?g_ArrayContains@Class_System_String@@SIH_WPAUClassVector_bartok_char@@@Z 0203755c f   NetStack.obj
 0001:000365ec       ?m_AppendInPlace@Class_System_String@@SIXPAU1@PAUClassVector_bartok_char@@HHH@Z 020375ec f   NetStack.obj
 0001:00036688       ?m_AppendInPlace@Class_System_String@@SIXPAU1@0H@Z 02037688 f   NetStack.obj
 0001:00036710       ?m_AppendInPlace@Class_System_String@@SIXPAU1@_WH@Z 02037710 f   NetStack.obj
 0001:000367a8       ?m_AppendInPlace@Class_System_String@@SIXPAU1@_WHH@Z 020377a8 f   NetStack.obj
 0001:00036874       ?g_AddString@Class_System_String@@SIPA_WPA_W00HH@Z 02037874 f   NetStack.obj
 0001:00036990       ?g_AddString@Class_System_String@@SIPA_WPA_W0PAU1@H@Z 02037990 f   NetStack.obj
 0001:000369ec       ?g_AddNumber@Class_System_String@@SIPA_WPA_W0_KHI_W2@Z 020379ec f   NetStack.obj
 0001:00036c98       ?g_AddChar@Class_System_String@@SIPA_WPA_W0_WH@Z 02037c98 f   NetStack.obj
 0001:00036d88       ?g__cctor@Class_System_String@@SIXXZ 02037d88 f   NetStack.obj
 0001:00036d9c       ?m_StructCopy@Struct_NetStack_Contracts_TcpConnectionContract_IsDataAvailable@@SIXPAU1@0@Z 02037d9c f   NetStack.obj
 0001:00036db8       ?m_StructCopy@Struct_NetStack_Contracts_TcpConnectionContract_IsDataAvailable@@SIXPAU1@PAU1@@Z 02037db8 f   NetStack.obj
 0001:00036e0c       ?m_Equals@Struct_NetStack_Contracts_TcpConnectionContract_IsDataAvailable@@SI_NPAU1@PAUClass_System_Object@@@Z 02037e0c f   NetStack.obj
 0001:00036e44       ?m_Equals@Struct_NetStack_Contracts_TcpConnectionContract_IsDataAvailable@@SI_NPAUClass_NetStack_Contracts_TcpConnectionContract_IsDataAvailable@@PAUClass_System_Object@@@Z 02037e44 f   NetStack.obj
 0001:00036e70       ?m_InvokeStaticStub@Class_System_TryAllManager_GCHookMethod@@SIXPAU1@@Z 02037e70 f   NetStack.obj
 0001:00036e98       ?m_Invoke@Class_System_TryAllManager_GCHookMethod@@SIXPAU1@@Z 02037e98 f   NetStack.obj
 0001:00036eec       ?m_EndInvoke@Class_System_TryAllManager_GCHookMethod@@SIXPAU1@PAUClass_System_IAsyncResult@@@Z 02037eec f   NetStack.obj
 0001:00036f08       ?m_BeginInvoke@Class_System_TryAllManager_GCHookMethod@@SIPAUClass_System_IAsyncResult@@PAU1@PAUClass_System_AsyncCallback@@PAUClass_System_Object@@@Z 02037f08 f   NetStack.obj
 0001:00036f28       ?m__ctor@Class_System_TryAllManager_GCHookMethod@@SIXPAU1@PAUClass_System_Object@@PAUintPtr@@@Z 02037f28 f   NetStack.obj
 0001:00036f68       ?m_StructCopy@Struct_NetStack_Contracts_TcpConnectionContract_BindLocalEndPoint@@SIXPAU1@0@Z 02037f68 f   NetStack.obj
 0001:00036f9c       ?m_StructCopy@Struct_NetStack_Contracts_TcpConnectionContract_BindLocalEndPoint@@SIXPAU1@PAU1@@Z 02037f9c f   NetStack.obj
 0001:00037038       ?m_Equals@Struct_NetStack_Contracts_TcpConnectionContract_BindLocalEndPoint@@SI_NPAU1@PAUClass_System_Object@@@Z 02038038 f   NetStack.obj
 0001:00037098       ?m_Equals@Struct_NetStack_Contracts_TcpConnectionContract_BindLocalEndPoint@@SI_NPAUClass_NetStack_Contracts_TcpConnectionContract_BindLocalEndPoint@@PAUClass_System_Object@@@Z 02038098 f   NetStack.obj
 0001:000370c4       ?m__ctor@Class_System_IndexOutOfRangeException@@SIXPAU1@@Z 020380c4 f   NetStack.obj
 0001:000370ec       ?m__ctor@Class_System_IndexOutOfRangeException@@SIXPAU1@PAUClass_System_String@@@Z 020380ec f   NetStack.obj
 0001:00037114       ?m__ctor@Class_System_IndexOutOfRangeException@@SIXPAU1@PAUClass_System_String@@PAUClass_System_Exception@@@Z 02038114 f   NetStack.obj
 0001:00037144       ?m_StructCopy@Struct_Microsoft_Singularity_V1_Types_SystemType@@SIXPAU1@0@Z 02038144 f   NetStack.obj
 0001:0003716c       ?m_StructCopy@Struct_Microsoft_Singularity_V1_Types_SystemType@@SIXPAU1@PAU1@@Z 0203816c f   NetStack.obj
 0001:000371e4       ?g_IsNull@Struct_Microsoft_Singularity_V1_Types_SystemType@@SI_NU1@@Z 020381e4 f   NetStack.obj
 0001:00037208       ?m_get$_TypeId@Struct_Microsoft_Singularity_V1_Types_SystemType@@SIPAUuintPtr@@PAU1@@Z 02038208 f   NetStack.obj
 0001:00037228       ?m_Equals@Struct_Microsoft_Singularity_V1_Types_SystemType@@SI_NPAU1@PAUClass_System_Object@@@Z 02038228 f   NetStack.obj
 0001:00037270       ?m_Equals@Struct_Microsoft_Singularity_V1_Types_SystemType@@SI_NPAUClass_Microsoft_Singularity_V1_Types_SystemType@@PAUClass_System_Object@@@Z 02038270 f   NetStack.obj
 0001:0003729c       ?g_VerifyPages@Class_System_GCs_Verifier@@SIXPAUClass_System_GCs_ObjectLayout_ObjectVisitor@@@Z 0203829c f   NetStack.obj
 0001:000376c0       ?m_VerifyHeap@Class_System_GCs_Verifier@@SIXPAU1@@Z 020386c0 f   NetStack.obj
 0001:00037968       ?g_VerifyAllThreadsGCControlled@Class_System_GCs_Verifier@@SIXPAUClass_System_Threading_Thread@@@Z 02038968 f   NetStack.obj
 0001:000379f0       ?m__ctor@Class_System_GCs_Verifier@@SIXPAU1@PAUClass_System_GCs_NonNullReferenceVisitor@@1PAUClass_System_GCs_ObjectLayout_ObjectVisitor@@PAUClass_System_GCs_Verifier_StackVerifier@@@Z 020389f0 f   NetStack.obj
 0001:00037a34       ?g__cctor@Class_System_GCs_Verifier@@SIXXZ 02038a34 f   NetStack.obj
 0001:00037b58       ?m_GetSegmentLength@Class_NetStack_Runtime_TcpSegment@@SIIPAU1@@Z 02038b58 f   NetStack.obj
 0001:00037ba0       ?m_GetRTT@Class_NetStack_Runtime_TcpSegment@@SIIPAU1@_K@Z 02038ba0 f   NetStack.obj
 0001:00037c7c       ?m__ctor@Class_NetStack_Runtime_TcpSegment@@SIXPAU1@PAUClassVector_uint8@@PAUClass_NetStack_Runtime_TcpSession@@I_N@Z 02038c7c f   NetStack.obj
 0001:00037ce0       ?m_StructCopy@Struct_Microsoft_Singularity_Isal_IX_EFlagsShift@@SIXPAU1@0@Z 02038ce0 f   NetStack.obj
 0001:00037cfc       ?m_StructCopy@Struct_Microsoft_Singularity_Isal_IX_EFlagsShift@@SIXPAU1@PAU1@@Z 02038cfc f   NetStack.obj
 0001:00037d50       ?m_Equals@Struct_Microsoft_Singularity_Isal_IX_EFlagsShift@@SI_NPAU1@PAUClass_System_Object@@@Z 02038d50 f   NetStack.obj
 0001:00037d88       ?m_Equals@Struct_Microsoft_Singularity_Isal_IX_EFlagsShift@@SI_NPAUClass_Microsoft_Singularity_Isal_IX_EFlagsShift@@PAUClass_System_Object@@@Z 02038d88 f   NetStack.obj
 0001:00037db4       ?m_RenewalTimeoutEvent@Class_NetStack_Runtime_DhcpClientStateBound@@SIXPAU1@@Z 02038db4 f   NetStack.obj
 0001:00037dd0       ?m_ReceiveEvent@Class_NetStack_Runtime_DhcpClientStateBound@@SIXPAU1@PAUClass_NetStack_Protocols_DhcpFormat@@@Z 02038dd0 f   NetStack.obj
 0001:00037dec       ?m_EnterEvent@Class_NetStack_Runtime_DhcpClientStateBound@@SIXPAU1@@Z 02038dec f   NetStack.obj
 0001:000381b4       ?m__ctor@Class_NetStack_Runtime_DhcpClientStateBound@@SIXPAU1@PAUClass_NetStack_Runtime_DhcpClient@@UStruct_System_Net_IP_IPv4@@2PAUClass_System_Collections_SortedList@@@Z 020391b4 f   NetStack.obj
 0001:00038208       ?m_Visit@Class_System_GCs_MemoryAccounting_InstanceReckoner@@SIPAUuintPtr@@PAU1@PAUClass_System_Object@@@Z 02039208 f   NetStack.obj
 0001:00038224       ?m_Initialize@Class_System_GCs_MemoryAccounting_InstanceReckoner@@SIXPAU1@PAUClassVector_Struct_System_GCs_MemoryAccounting_RuntimeTypeAccounting@@@Z 02039224 f   NetStack.obj
 0001:00038240       ?m__ctor@Class_System_GCs_MemoryAccounting_InstanceReckoner@@SIXPAU1@@Z 02039240 f   NetStack.obj
 0001:00038258       ?m__ctor@Class_System_ReadEnlistmentLog_LogChunk@@SIXPAU1@PAUClassVector_Struct_System_ReadEnlistmentLog_Entry@@0@Z 02039258 f   NetStack.obj
 0001:0003828c       ?m_StructCopy@Struct_NetStack_Runtime_TcpSession_TCB@@SIXPAU1@0@Z 0203928c f   NetStack.obj
 0001:000382c8       ?m_StructCopy@Struct_NetStack_Runtime_TcpSession_TCB@@SIXPAU1@PAU1@@Z 020392c8 f   NetStack.obj
 0001:0003837c       ?m_Equals@Struct_NetStack_Runtime_TcpSession_TCB@@SI_NPAU1@PAUClass_System_Object@@@Z 0203937c f   NetStack.obj
 0001:000384d4       ?m_Equals@Struct_NetStack_Runtime_TcpSession_TCB@@SI_NPAUClass_NetStack_Runtime_TcpSession_TCB@@PAUClass_System_Object@@@Z 020394d4 f   NetStack.obj
 0001:00038500       ?m_Write@Class_NetStack_Protocols_Dns_Query@@SIHPAU1@PAUClassVector_uint8@@PAH@Z 02039500 f   NetStack.obj
 0001:000385cc       ?g_Parse@Class_NetStack_Protocols_Dns_Query@@SIPAU1@PAUClassVector_uint8@@PAH@Z 020395cc f   NetStack.obj
 0001:00038724       ?g_op$_Equality@Class_NetStack_Protocols_Dns_Query@@SI_NPAU1@0@Z 02039724 f   NetStack.obj
 0001:000387d8       ?m_GetHashCode@Class_NetStack_Protocols_Dns_Query@@SIHPAU1@@Z 020397d8 f   NetStack.obj
 0001:00038838       ?m_get$_Size@Class_NetStack_Protocols_Dns_Query@@SIHPAU1@@Z 02039838 f   NetStack.obj
 0001:0003889c       ?m_Equals@Class_NetStack_Protocols_Dns_Query@@SI_NPAU1@PAUClass_System_Object@@@Z 0203989c f   NetStack.obj
 0001:00038914       ?m__ctor@Class_NetStack_Protocols_Dns_Query@@SIXPAU1@PAUClass_System_String@@UStruct_NetStack_Protocols_Dns_Type@@UStruct_NetStack_Protocols_Dns_Class@@@Z 02039914 f   NetStack.obj
 0001:00038998       ?m_StructCopy@Struct_NetStack_Runtime_StopThreadContract_AckTerminate@@SIXPAU1@0@Z 02039998 f   NetStack.obj
 0001:000389b4       ?m_StructCopy@Struct_NetStack_Runtime_StopThreadContract_AckTerminate@@SIXPAU1@PAU1@@Z 020399b4 f   NetStack.obj
 0001:00038a08       ?m_MarshallContent@Struct_NetStack_Runtime_StopThreadContract_AckTerminate@@SIXPAU1@PAEPAUStruct_Microsoft_Singularity_Channels_Endpoint@@1PAH@Z 02039a08 f   NetStack.obj
 0001:00038a28       ?m_MarshallAll@Struct_NetStack_Runtime_StopThreadContract_AckTerminate@@SIXPAU1@PAEPAUStruct_Microsoft_Singularity_Channels_Endpoint@@PAH@Z 02039a28 f   NetStack.obj
 0001:00038a80       ?m_Equals@Struct_NetStack_Runtime_StopThreadContract_AckTerminate@@SI_NPAU1@PAUClass_System_Object@@@Z 02039a80 f   NetStack.obj
 0001:00038ab8       ?m_Equals@Struct_NetStack_Runtime_StopThreadContract_AckTerminate@@SI_NPAUClass_NetStack_Runtime_StopThreadContract_AckTerminate@@PAUClass_System_Object@@@Z 02039ab8 f   NetStack.obj
 0001:00038ae4       ?m_StructCopy@Struct_NetStack_Runtime_TcpSession_TCB_RCVValues@@SIXPAU1@0@Z 02039ae4 f   NetStack.obj
 0001:00038b30       ?m_StructCopy@Struct_NetStack_Runtime_TcpSession_TCB_RCVValues@@SIXPAU1@PAU1@@Z 02039b30 f   NetStack.obj
 0001:00038c14       ?m_Equals@Struct_NetStack_Runtime_TcpSession_TCB_RCVValues@@SI_NPAU1@PAUClass_System_Object@@@Z 02039c14 f   NetStack.obj
 0001:00038c8c       ?m_Equals@Struct_NetStack_Runtime_TcpSession_TCB_RCVValues@@SI_NPAUClass_NetStack_Runtime_TcpSession_TCB_RCVValues@@PAUClass_System_Object@@@Z 02039c8c f   NetStack.obj
 0001:00038cb8       ?m_StructCopy@Struct_System_GCs_SegregatedFreeList_TempList@@SIXPAU1@0@Z 02039cb8 f   NetStack.obj
 0001:00038ce0       ?m_StructCopy@Struct_System_GCs_SegregatedFreeList_TempList@@SIXPAU1@PAU1@@Z 02039ce0 f   NetStack.obj
 0001:00038d58       ?m_GetList@Struct_System_GCs_SegregatedFreeList_TempList@@SIPAUuintPtr@@PAU1@@Z 02039d58 f   NetStack.obj
 0001:00038d8c       ?m_Equals@Struct_System_GCs_SegregatedFreeList_TempList@@SI_NPAU1@PAUClass_System_Object@@@Z 02039d8c f   NetStack.obj
 0001:00038dd4       ?m_Equals@Struct_System_GCs_SegregatedFreeList_TempList@@SI_NPAUClass_System_GCs_SegregatedFreeList_TempList@@PAUClass_System_Object@@@Z 02039dd4 f   NetStack.obj
 0001:00038e00       ?m_Add@Struct_System_GCs_SegregatedFreeList_TempList@@SIXPAU1@PAUuintPtr@@@Z 02039e00 f   NetStack.obj
 0001:00038e30       ?m_WaitForMonitor@Class_System_Threading_Thread@@SI_NPAU1@UStruct_System_SchedulerTime@@@Z 02039e30 f   NetStack.obj
 0001:00038e78       ?g_WaitForGCEvent@Class_System_Threading_Thread@@SI_NH@Z 02039e78 f   NetStack.obj
 0001:00038ec8       ?g_VisitBootstrapData@Class_System_Threading_Thread@@SIXPAUClass_System_GCs_ReferenceVisitor@@@Z 02039ec8 f   NetStack.obj
 0001:00038f04       ?g_ThreadStub@Class_System_Threading_Thread@@SIXH@Z 02039f04 f   NetStack.obj
 0001:0003937c       ?m_Start@Class_System_Threading_Thread@@SIXPAU1@@Z 0203a37c f   NetStack.obj
 0001:00039480       ?m_SignalMonitor@Class_System_Threading_Thread@@SIXPAU1@@Z 0203a480 f   NetStack.obj
 0001:000394a8       ?g_SignalGCEvent@Class_System_Threading_Thread@@SIXH@Z 0203a4a8 f   NetStack.obj
 0001:00039500       ?m_SetIgnoredByJoinAll@Class_System_Threading_Thread@@SIXPAU1@@Z 0203a500 f   NetStack.obj
 0001:00039520       ?m_set$_DebugName@Class_System_Threading_Thread@@SIXPAU1@PAUClass_System_String@@@Z 0203a520 f   NetStack.obj
 0001:00039548       ?g_RemoveThread@Class_System_Threading_Thread@@SIXH@Z 0203a548 f   NetStack.obj
 0001:000395fc       ?m_PushSelectSyncHandles@Class_System_Threading_Thread@@SIXPAU1@PAUClassVector_Struct_Microsoft_Singularity_V1_Threads_SyncHandle@@@Z 0203a5fc f   NetStack.obj
 0001:00039678       ?m_PushSelectObjects@Class_System_Threading_Thread@@SIXPAU1@PAUClassVector_Class_Microsoft_Singularity_Channels_ISelectable@@@Z 0203a678 f   NetStack.obj
 0001:000396f0       ?m_PushSelectBools@Class_System_Threading_Thread@@SIXPAU1@PAUClassVector_bool@@@Z 0203a6f0 f   NetStack.obj
 0001:00039720       ?m_PopSelectSyncHandles@Class_System_Threading_Thread@@SIPAUClassVector_Struct_Microsoft_Singularity_V1_Threads_SyncHandle@@PAU1@H@Z 0203a720 f   NetStack.obj
 0001:000397d8       ?m_PopSelectObjects@Class_System_Threading_Thread@@SIPAUClassVector_Class_Microsoft_Singularity_Channels_ISelectable@@PAU1@H@Z 0203a7d8 f   NetStack.obj
 0001:00039890       ?m_PopSelectBools@Class_System_Threading_Thread@@SIPAUClassVector_bool@@PAU1@H@Z 0203a890 f   NetStack.obj
 0001:00039948       ?m_NotifySpinLockReleased@Class_System_Threading_Thread@@SIXPAU1@H@Z 0203a948 f   NetStack.obj
 0001:00039964       ?m_NotifySpinLockAboutToAcquire@Class_System_Threading_Thread@@SIXPAU1@H@Z 0203a964 f   NetStack.obj
 0001:00039980       ?g_NotifyServiceThreads@Class_System_Threading_Thread@@SIXXZ 0203a980 f   NetStack.obj
 0001:00039a78       ?g_JoinAll@Class_System_Threading_Thread@@SI_NXZ 0203aa78 f   NetStack.obj
 0001:00039bdc       ?m_Join@Class_System_Threading_Thread@@SIXPAU1@@Z 0203abdc f   NetStack.obj
 0001:00039c3c       ?m_Join@Class_System_Threading_Thread@@SI_NPAU1@UStruct_System_TimeSpan@@@Z 0203ac3c f   NetStack.obj
 0001:00039ca8       ?m_Join@Class_System_Threading_Thread@@SI_NPAU1@UStruct_System_SchedulerTime@@@Z 0203aca8 f   NetStack.obj
 0001:00039d14       ?m_GetThreadId@Class_System_Threading_Thread@@SIHPAU1@@Z 0203ad14 f   NetStack.obj
 0001:00039d34       ?m_GetSyncHandles@Class_System_Threading_Thread@@SIPAUClassVector_Struct_Microsoft_Singularity_V1_Threads_SyncHandle@@PAU1@H@Z 0203ad34 f   NetStack.obj
 0001:00039d90       ?g_GetCurrentThreadNative@Class_System_Threading_Thread@@SIPAU1@XZ 0203ad90 f   NetStack.obj
 0001:00039da8       ?g_GetCurrentThreadIndex@Class_System_Threading_Thread@@SIHXZ 0203ada8 f   NetStack.obj
 0001:00039dc4       ?m_get$_DebugName@Class_System_Threading_Thread@@SIPAUClass_System_String@@PAU1@@Z 0203adc4 f   NetStack.obj
 0001:00039de4       ?g_get$_CurrentThread@Class_System_Threading_Thread@@SIPAU1@XZ 0203ade4 f   NetStack.obj
 0001:00039dfc       ?g_FinishInitializeThread@Class_System_Threading_Thread@@SIXXZ 0203adfc f   NetStack.obj
 0001:00039f6c       ?m_Finalize@Class_System_Threading_Thread@@SIXPAU1@@Z 0203af6c f   NetStack.obj
 0001:00039fd0       ?g_CheckKernelProcessBoundary@Class_System_Threading_Thread@@SIPAUuintPtr@@PAU2@0PAUClass_System_Exception@@@Z 0203afd0 f   NetStack.obj
 0001:0003a084       ?g_AddThread@Class_System_Threading_Thread@@SI_NH@Z 0203b084 f   NetStack.obj
 0001:0003a158       ?m__ctor@Class_System_Threading_Thread@@SIXPAU1@@Z 0203b158 f   NetStack.obj
 0001:0003a174       ?m__ctor@Class_System_Threading_Thread@@SIXPAU1@PAUClass_System_Threading_ThreadStart@@@Z 0203b174 f   NetStack.obj
 0001:0003a480       ?g__cctor@Class_System_Threading_Thread@@SIXXZ 0203b480 f   NetStack.obj
 0001:0003a53c       ?m_RemoveAt@Class_System_Collections_SortedList_ValueList@@SIXPAU1@H@Z 0203b53c f   NetStack.obj
 0001:0003a57c       ?m_IndexOf@Class_System_Collections_SortedList_ValueList@@SIHPAU1@PAUClass_System_Object@@@Z 0203b57c f   NetStack.obj
 0001:0003a5bc       ?m_GetEnumerator@Class_System_Collections_SortedList_ValueList@@SIPAUClass_System_Collections_IEnumerator@@PAU1@@Z 0203b5bc f   NetStack.obj
 0001:0003a620       ?m_get$_SyncRoot@Class_System_Collections_SortedList_ValueList@@SIPAUClass_System_Object@@PAU1@@Z 0203b620 f   NetStack.obj
 0001:0003a648       ?m_get$_Item@Class_System_Collections_SortedList_ValueList@@SIPAUClass_System_Object@@PAU1@H@Z 0203b648 f   NetStack.obj
 0001:0003a678       ?m_get$_Count@Class_System_Collections_SortedList_ValueList@@SIHPAU1@@Z 0203b678 f   NetStack.obj
 0001:0003a69c       ?m_CopyTo@Class_System_Collections_SortedList_ValueList@@SIXPAU1@PAUClass_System_Array@@H@Z 0203b69c f   NetStack.obj
 0001:0003a730       ?m_Add@Class_System_Collections_SortedList_ValueList@@SIHPAU1@PAUClass_System_Object@@@Z 0203b730 f   NetStack.obj
 0001:0003a770       ?m__ctor@Class_System_Collections_SortedList_ValueList@@SIXPAU1@PAUClass_System_Collections_SortedList@@@Z 0203b770 f   NetStack.obj
 0001:0003a798       ?m_RegisterTypeHandler@Class_NetStack_Runtime_PacketTypes@@SI_NPAU1@GPAUClass_NetStack_Runtime_IProtocol@@@Z 0203b798 f   NetStack.obj
 0001:0003a89c       ?m_GetHandler@Class_NetStack_Runtime_PacketTypes@@SIPAUClass_NetStack_Runtime_IProtocol@@PAU1@G@Z 0203b89c f   NetStack.obj
 0001:0003a95c       ?m__ctor@Class_NetStack_Runtime_PacketTypes@@SIXPAU1@@Z 0203b95c f   NetStack.obj
 0001:0003a9e0       ?m_StructCopy@Struct_Microsoft_Singularity_V1_Services_SharedHeapService@@SIXPAU1@0@Z 0203b9e0 f   NetStack.obj
 0001:0003a9fc       ?m_StructCopy@Struct_Microsoft_Singularity_V1_Services_SharedHeapService@@SIXPAU1@PAU1@@Z 0203b9fc f   NetStack.obj
 0001:0003aa50       ?g_GetType@Struct_Microsoft_Singularity_V1_Services_SharedHeapService@@SIPAUuintPtr@@PAUStruct_Microsoft_Singularity_V1_Services_SharedHeapService_Allocation@@@Z 0203ba50 f   NetStack.obj
 0001:0003aa70       ?g_GetSize@Struct_Microsoft_Singularity_V1_Services_SharedHeapService@@SIPAUuintPtr@@PAUStruct_Microsoft_Singularity_V1_Services_SharedHeapService_Allocation@@@Z 0203ba70 f   NetStack.obj
 0001:0003aa90       ?g_GetData@Struct_Microsoft_Singularity_V1_Services_SharedHeapService@@SIPAUuintPtr@@PAUStruct_Microsoft_Singularity_V1_Services_SharedHeapService_Allocation@@@Z 0203ba90 f   NetStack.obj
 0001:0003aab0       ?m_Equals@Struct_Microsoft_Singularity_V1_Services_SharedHeapService@@SI_NPAU1@PAUClass_System_Object@@@Z 0203bab0 f   NetStack.obj
 0001:0003aae8       ?m_Equals@Struct_Microsoft_Singularity_V1_Services_SharedHeapService@@SI_NPAUClass_Microsoft_Singularity_V1_Services_SharedHeapService@@PAUClass_System_Object@@@Z 0203bae8 f   NetStack.obj
 0001:0003ab14       ?m__ctor@Class_NetStack_Runtime_Dispatcher_Timer@@SIXPAU1@PAUClass_NetStack_Runtime_Dispatcher_Callback@@PAUClass_NetStack_Runtime_Dispatcher_CallbackArgs@@_K@Z 0203bb14 f   NetStack.obj
 0001:0003ab54       ?m_StructCopy@Struct_NetStack_Contracts_RoutingContract_FindNetRoute@@SIXPAU1@0@Z 0203bb54 f   NetStack.obj
 0001:0003ab80       ?m_StructCopy@Struct_NetStack_Contracts_RoutingContract_FindNetRoute@@SIXPAU1@PAU1@@Z 0203bb80 f   NetStack.obj
 0001:0003ac04       ?m_Equals@Struct_NetStack_Contracts_RoutingContract_FindNetRoute@@SI_NPAU1@PAUClass_System_Object@@@Z 0203bc04 f   NetStack.obj
 0001:0003acc8       ?m_Equals@Struct_NetStack_Contracts_RoutingContract_FindNetRoute@@SI_NPAUClass_NetStack_Contracts_RoutingContract_FindNetRoute@@PAUClass_System_Object@@@Z 0203bcc8 f   NetStack.obj
 0001:0003acf4       ?m_StructCopy@Struct_System_GCs_OverflowFrameDescriptor@@SIXPAU1@0@Z 0203bcf4 f   NetStack.obj
 0001:0003ad28       ?m_StructCopy@Struct_System_GCs_OverflowFrameDescriptor@@SIXPAU1@PAU1@@Z 0203bd28 f   NetStack.obj
 0001:0003adc4       ?m_Equals@Struct_System_GCs_OverflowFrameDescriptor@@SI_NPAU1@PAUClass_System_Object@@@Z 0203bdc4 f   NetStack.obj
 0001:0003ae20       ?m_Equals@Struct_System_GCs_OverflowFrameDescriptor@@SI_NPAUClass_System_GCs_OverflowFrameDescriptor@@PAUClass_System_Object@@@Z 0203be20 f   NetStack.obj
 0001:0003ae4c       ?m_StructCopy@Struct_NetStack_Contracts_UdpConnectionContract_PollSelectRead@@SIXPAU1@0@Z 0203be4c f   NetStack.obj
 0001:0003ae74       ?m_StructCopy@Struct_NetStack_Contracts_UdpConnectionContract_PollSelectRead@@SIXPAU1@PAU1@@Z 0203be74 f   NetStack.obj
 0001:0003aeec       ?m_Equals@Struct_NetStack_Contracts_UdpConnectionContract_PollSelectRead@@SI_NPAU1@PAUClass_System_Object@@@Z 0203beec f   NetStack.obj
 0001:0003af34       ?m_Equals@Struct_NetStack_Contracts_UdpConnectionContract_PollSelectRead@@SI_NPAUClass_NetStack_Contracts_UdpConnectionContract_PollSelectRead@@PAUClass_System_Object@@@Z 0203bf34 f   NetStack.obj
 0001:0003af60       ?g_wcslen@Class_System_Number@@SIHPAUClassVector_bartok_char@@H@Z 0203bf60 f   NetStack.obj
 0001:0003afd4       ?g_UInt64ToDecString@Class_System_Number@@SIPAUClass_System_String@@_KH@Z 0203bfd4 f   NetStack.obj
 0001:0003b0d4       ?g_UInt32ToDecString@Class_System_Number@@SIPAUClass_System_String@@IH@Z 0203c0d4 f   NetStack.obj
 0001:0003b168       ?m_ToStringFormat@Class_System_Number@@SIPAUClass_System_String@@PAU1@PAU2@@Z 0203c168 f   NetStack.obj
 0001:0003c84c       ?m_ToString@Class_System_Number@@SIPAUClass_System_String@@PAU1@_WH@Z 0203d84c f   NetStack.obj
 0001:0003d18c       ?m_RoundNumber@Class_System_Number@@SIXPAU1@H@Z 0203e18c f   NetStack.obj
 0001:0003d398       ?m_ParseNumber@Class_System_Number@@SI_NPAU1@PAUClass_System_String@@UStruct_System_Globalization_NumberStyles@@@Z 0203e398 f   NetStack.obj
 0001:0003dc68       ?g_ParseInt32@Class_System_Number@@SIHPAUClass_System_String@@UStruct_System_Globalization_NumberStyles@@@Z 0203ec68 f   NetStack.obj
 0001:0003dd40       ?g_ParseFormatSpecifier@Class_System_Number@@SI_WPAUClass_System_String@@PAH@Z 0203ed40 f   NetStack.obj
 0001:0003dee4       ?g_NumberToInt32@Class_System_Number@@SI_NPAU1@PAH@Z 0203eee4 f   NetStack.obj
 0001:0003e028       ?g_NumberToDouble@Class_System_Number@@SIXPAU1@PAN@Z 0203f028 f   NetStack.obj
 0001:0003e2dc       ?g_MatchChars@Class_System_Number@@SIHPAUClass_System_String@@H0@Z 0203f2dc f   NetStack.obj
 0001:0003e3cc       ?g_LO32@Class_System_Number@@SII_K@Z 0203f3cc f   NetStack.obj
 0001:0003e3e4       ?m_ISWHITE@Class_System_Number@@SI_NPAU1@_W@Z 0203f3e4 f   NetStack.obj
 0001:0003e430       ?g_Int64ToHexString@Class_System_Number@@SIPAUClass_System_String@@_K_WH@Z 0203f430 f   NetStack.obj
 0001:0003e4c0       ?g_Int64ToHexChars@Class_System_Number@@SIHPAUClassVector_bartok_char@@H_K_WH@Z 0203f4c0 f   NetStack.obj
 0001:0003e584       ?g_Int64ToDecString@Class_System_Number@@SIPAUClass_System_String@@_JHPAU2@@Z 0203f584 f   NetStack.obj
 0001:0003e774       ?g_Int64ToDecChars@Class_System_Number@@SIXPAUClassVector_bartok_char@@PAH_KH@Z 0203f774 f   NetStack.obj
 0001:0003e824       ?g_Int64DivMod1E9@Class_System_Number@@SI_K_KPAI@Z 0203f824 f   NetStack.obj
 0001:0003e880       ?g_Int32ToHexString@Class_System_Number@@SIPAUClass_System_String@@I_WH@Z 0203f880 f   NetStack.obj
 0001:0003e90c       ?g_Int32ToHexChars@Class_System_Number@@SIHPAUClassVector_bartok_char@@HI_WH@Z 0203f90c f   NetStack.obj
 0001:0003e9ac       ?g_Int32ToDecString@Class_System_Number@@SIPAUClass_System_String@@HHPAU2@@Z 0203f9ac f   NetStack.obj
 0001:0003eb08       ?g_Int32ToDecChars@Class_System_Number@@SIXPAUClassVector_bartok_char@@PAHIH@Z 0203fb08 f   NetStack.obj
 0001:0003eb9c       ?g_HI32@Class_System_Number@@SII_K@Z 0203fb9c f   NetStack.obj
 0001:0003ebc0       ?g_HexNumberToUInt32@Class_System_Number@@SI_NPAU1@PAI@Z 0203fbc0 f   NetStack.obj
 0001:0003ee04       ?g_Get@Class_System_Number@@SI_WPAUClass_System_String@@H@Z 0203fe04 f   NetStack.obj
 0001:0003ee4c       ?g_FPNumberToString@Class_System_Number@@SIPAUClass_System_String@@PAU1@PAU2@@Z 0203fe4c f   NetStack.obj
 0001:0003ef3c       ?g_FormatUInt64@Class_System_Number@@SIPAUClass_System_String@@_KPAU2@@Z 0203ff3c f   NetStack.obj
 0001:0003f050       ?g_FormatUInt32@Class_System_Number@@SIPAUClass_System_String@@IPAU2@@Z 02040050 f   NetStack.obj
 0001:0003f154       ?g_FormatSingle@Class_System_Number@@SIPAUClass_System_String@@MPAU2@@Z 02040154 f   NetStack.obj
 0001:0003f3e0       ?m_FormatScientific@Class_System_Number@@SIHPAU1@PAUClassVector_bartok_char@@HH_W@Z 020403e0 f   NetStack.obj
 0001:0003f5a8       ?m_FormatPercent@Class_System_Number@@SIHPAU1@PAUClassVector_bartok_char@@HH@Z 020405a8 f   NetStack.obj
 0001:0003f774       ?m_FormatNumber@Class_System_Number@@SIHPAU1@PAUClassVector_bartok_char@@HH@Z 02040774 f   NetStack.obj
 0001:0003f908       ?g_FormatInt64@Class_System_Number@@SIPAUClass_System_String@@_JPAU2@@Z 02040908 f   NetStack.obj
 0001:0003fa40       ?g_FormatInt32@Class_System_Number@@SIPAUClass_System_String@@HPAU2@@Z 02040a40 f   NetStack.obj
 0001:0003fb68       ?m_FormatGeneral@Class_System_Number@@SIHPAU1@PAUClassVector_bartok_char@@HH_W@Z 02040b68 f   NetStack.obj
 0001:0003fe10       ?m_FormatFixed@Class_System_Number@@SIHPAU1@PAUClassVector_bartok_char@@HHPAUClassVector_int32@@PAUClass_System_String@@3@Z 02040e10 f   NetStack.obj
 0001:00040390       ?m_FormatExponent@Class_System_Number@@SIHPAU1@PAUClassVector_bartok_char@@HH_WPAUClass_System_String@@3H@Z 02041390 f   NetStack.obj
 0001:000404e8       ?g_FormatDouble@Class_System_Number@@SIPAUClass_System_String@@NPAU2@@Z 020414e8 f   NetStack.obj
 0001:00040724       ?g_FormatDecimal@Class_System_Number@@SIPAUClass_System_String@@UStruct_System_Decimal@@PAU2@@Z 02041724 f   NetStack.obj
 0001:000407bc       ?g_FindSection@Class_System_Number@@SIHPAUClass_System_String@@H@Z 020417bc f   NetStack.obj
 0001:00040910       ?g_EndString@Class_System_Number@@SI_NPAUClass_System_String@@H@Z 02041910 f   NetStack.obj
 0001:00040960       ?m_DecDivMod1E9@Class_System_Number@@SIIPAU1@PAUStruct_System_Decimal@@@Z 02041960 f   NetStack.obj
 0001:00040a38       ?m_D32DivMod1E9@Class_System_Number@@SIIPAU1@IIPAI@Z 02041a38 f   NetStack.obj
 0001:00040ab4       ?g_AddStringRef@Class_System_Number@@SIHPAUClassVector_bartok_char@@HPAUClass_System_String@@@Z 02041ab4 f   NetStack.obj
 0001:00040b4c       ?m__ctor@Class_System_Number@@SIXPAU1@@Z 02041b4c f   NetStack.obj
 0001:00040b7c       ?m__ctor@Class_System_Number@@SIXPAU1@_K@Z 02041b7c f   NetStack.obj
 0001:00040c8c       ?m__ctor@Class_System_Number@@SIXPAU1@I@Z 02041c8c f   NetStack.obj
 0001:00040d98       ?m__ctor@Class_System_Number@@SIXPAU1@PAUStruct_System_Decimal@@@Z 02041d98 f   NetStack.obj
 0001:00040f28       ?m__ctor@Class_System_Number@@SIXPAU1@_J@Z 02041f28 f   NetStack.obj
 0001:00041088       ?m__ctor@Class_System_Number@@SIXPAU1@H@Z 02042088 f   NetStack.obj
 0001:000411b4       ?m__ctor@Class_System_Number@@SIXPAU1@NH@Z 020421b4 f   NetStack.obj
 0001:00041218       ?m__ctor@Class_System_Number@@SIXPAU1@PAUClass_System_String@@UStruct_System_Globalization_NumberStyles@@@Z 02042218 f   NetStack.obj
 0001:000412e4       ?g__cctor@Class_System_Number@@SIXXZ 020422e4 f   NetStack.obj
 0001:00041420       ?m__ctor@Class_System_Globalization_CultureInfo@@SIXPAU1@@Z 02042420 f   NetStack.obj
 0001:0004143c       ?g__cctor@Class_System_Globalization_CultureInfo@@SIXXZ 0204243c f   NetStack.obj
 0001:00041944       ?m_StructCopy@Struct_Microsoft_Singularity_Directory_DirectoryServiceContract_NakGetLinkValueReparse@@SIXPAU1@0@Z 02042944 f   NetStack.obj
 0001:00041984       ?m_StructCopy@Struct_Microsoft_Singularity_Directory_DirectoryServiceContract_NakGetLinkValueReparse@@SIXPAU1@PAU1@@Z 02042984 f   NetStack.obj
 0001:00041a44       ?m_Equals@Struct_Microsoft_Singularity_Directory_DirectoryServiceContract_NakGetLinkValueReparse@@SI_NPAU1@PAUClass_System_Object@@@Z 02042a44 f   NetStack.obj
 0001:00041aac       ?m_Equals@Struct_Microsoft_Singularity_Directory_DirectoryServiceContract_NakGetLinkValueReparse@@SI_NPAUClass_Microsoft_Singularity_Directory_DirectoryServiceContract_NakGetLinkValueReparse@@PAUClass_System_Object@@@Z 02042aac f   NetStack.obj
 0001:00041ad8       ?m_StructCopy@Struct_Microsoft_Singularity_Directory_ServiceProviderContract_AckConnect@@SIXPAU1@0@Z 02042ad8 f   NetStack.obj
 0001:00041af4       ?m_StructCopy@Struct_Microsoft_Singularity_Directory_ServiceProviderContract_AckConnect@@SIXPAU1@PAU1@@Z 02042af4 f   NetStack.obj
 0001:00041b48       ?m_MarshallContent@Struct_Microsoft_Singularity_Directory_ServiceProviderContract_AckConnect@@SIXPAU1@PAEPAUStruct_Microsoft_Singularity_Channels_Endpoint@@1PAH@Z 02042b48 f   NetStack.obj
 0001:00041b68       ?m_MarshallAll@Struct_Microsoft_Singularity_Directory_ServiceProviderContract_AckConnect@@SIXPAU1@PAEPAUStruct_Microsoft_Singularity_Channels_Endpoint@@PAH@Z 02042b68 f   NetStack.obj
 0001:00041bc0       ?m_Equals@Struct_Microsoft_Singularity_Directory_ServiceProviderContract_AckConnect@@SI_NPAU1@PAUClass_System_Object@@@Z 02042bc0 f   NetStack.obj
 0001:00041bf8       ?m_Equals@Struct_Microsoft_Singularity_Directory_ServiceProviderContract_AckConnect@@SI_NPAUClass_Microsoft_Singularity_Directory_ServiceProviderContract_AckConnect@@PAUClass_System_Object@@@Z 02042bf8 f   NetStack.obj
 0001:00041c24       ?g_VisitSmallObjects@Struct_System_GCs_SegregatedFreeList@@SIXPAUuintPtr@@PAUClass_System_GCs_SegregatedFreeList_ObjectVisitor@@@Z 02042c24 f   NetStack.obj
 0001:00042208       ?g_VisitObjects@Struct_System_GCs_SegregatedFreeList@@SIXPAUuintPtr@@0PAUClass_System_GCs_SegregatedFreeList_ObjectVisitor@@@Z 02043208 f   NetStack.obj
 0001:0004297c       ?g_VisitObjects@Struct_System_GCs_SegregatedFreeList@@SIXPAUuintPtr@@0PAUClass_System_GCs_ObjectLayout_ObjectVisitor@@@Z 0204397c f   NetStack.obj
 0001:00043144       ?g_VisitLargeObject@Struct_System_GCs_SegregatedFreeList@@SIPAUuintPtr@@PAU2@PAUClass_System_GCs_SegregatedFreeList_ObjectVisitor@@@Z 02044144 f   NetStack.obj
 0001:000433f0       ?g_VisitAllObjects@Struct_System_GCs_SegregatedFreeList@@SIXPAUClass_System_GCs_SegregatedFreeList_ObjectVisitor@@@Z 020443f0 f   NetStack.obj
 0001:00043b88       ?g_VerifySimpleList@Struct_System_GCs_SegregatedFreeList@@SIPAUStruct_System_GCs_SegregatedFreeList_PageHeader@@PAU2@@Z 02044b88 f   NetStack.obj
 0001:00043c6c       ?g_SubSmallPage@Struct_System_GCs_SegregatedFreeList@@SIXPAUStruct_System_GCs_SegregatedFreeList_PageHeader@@@Z 02044c6c f   NetStack.obj
 0001:00043d18       ?g_SubSmallBytes@Struct_System_GCs_SegregatedFreeList@@SIXPAUuintPtr@@@Z 02044d18 f   NetStack.obj
 0001:00043d44       ?g_SubLargePages@Struct_System_GCs_SegregatedFreeList@@SIXPAUuintPtr@@@Z 02044d44 f   NetStack.obj
 0001:00043d70       ?m_StructCopy@Struct_System_GCs_SegregatedFreeList@@SIXPAU1@0@Z 02044d70 f   NetStack.obj
 0001:00043da4       ?m_StructCopy@Struct_System_GCs_SegregatedFreeList@@SIXPAU1@PAU1@@Z 02044da4 f   NetStack.obj
 0001:00043e40       ?g_SplitList@Struct_System_GCs_SegregatedFreeList@@SI_NPAUStruct_System_GCs_SegregatedFreeList_PageHeader@@HHPAUClass_System_GCs_SegregatedFreeList_PartialFreePageVisitor@@PAUStruct_System_GCs_SegregatedFreeList_PageSeparation@@@Z 02044e40 f   NetStack.obj
 0001:000442e0       ?m_ReleaseLocalPage@Struct_System_GCs_SegregatedFreeList@@SIXPAU1@I@Z 020452e0 f   NetStack.obj
 0001:000444b4       ?g_RecycleGlobalPagesPhase2@Struct_System_GCs_SegregatedFreeList@@SIXPAUClass_System_GCs_SegregatedFreeList_PartialFreePageVisitor@@@Z 020454b4 f   NetStack.obj
 0001:00044870       ?g_RecycleGlobalPagesPhase2@Struct_System_GCs_SegregatedFreeList@@SIXXZ 02045870 f   NetStack.obj
 0001:00044890       ?g_RecycleGlobalPagesPhase1@Struct_System_GCs_SegregatedFreeList@@SIXPAUClass_System_GCs_SegregatedFreeList_PartialFreePageVisitor@@@Z 02045890 f   NetStack.obj
 0001:00044ab8       ?g_RecycleGlobalPagesPhase1@Struct_System_GCs_SegregatedFreeList@@SIXXZ 02045ab8 f   NetStack.obj
 0001:00044ad8       ?g_RecycleGlobalPages@Struct_System_GCs_SegregatedFreeList@@SIXXZ 02045ad8 f   NetStack.obj
 0001:00044af8       ?g_NewThreadNotification@Struct_System_GCs_SegregatedFreeList@@SIXPAUClass_System_Threading_Thread@@_N@Z 02045af8 f   NetStack.obj
 0001:00044bd8       ?m_NewLocalPage@Struct_System_GCs_SegregatedFreeList@@SIPAUStruct_System_GCs_SegregatedFreeList_PageHeader@@PAU1@IPAUClass_System_Threading_Thread@@@Z 02045bd8 f   NetStack.obj
 0001:00044f5c       ?g_MixinThread@Struct_System_GCs_SegregatedFreeList@@SIPAUClass_System_Threading_Thread@@PAU2@@Z 02045f5c f   NetStack.obj
 0001:00044f78       ?g_Initialize@Struct_System_GCs_SegregatedFreeList@@SIXXZ 02045f78 f   NetStack.obj
 0001:00045048       ?g_GetSizeClass@Struct_System_GCs_SegregatedFreeList@@SIIPAUuintPtr@@@Z 02046048 f   NetStack.obj
 0001:000450d8       ?m_GetLocalPage@Struct_System_GCs_SegregatedFreeList@@SIPAUStruct_System_GCs_SegregatedFreeList_PageHeader@@PAU1@IPAUClass_System_Threading_Thread@@@Z 020460d8 f   NetStack.obj
 0001:00045160       ?g_GetCellSize@Struct_System_GCs_SegregatedFreeList@@SIII@Z 02046160 f   NetStack.obj
 0001:00045208       ?g_get$_TotalBytes@Struct_System_GCs_SegregatedFreeList@@SIPAUuintPtr@@XZ 02046208 f   NetStack.obj
 0001:00045238       ?g_get$_SIZE$_CLASSES@Struct_System_GCs_SegregatedFreeList@@SIIXZ 02046238 f   NetStack.obj
 0001:0004525c       ?g_get$_LazyMemClear@Struct_System_GCs_SegregatedFreeList@@SI_NXZ 0204625c f   NetStack.obj
 0001:00045274       ?g_get$_LargeBytes@Struct_System_GCs_SegregatedFreeList@@SIPAUuintPtr@@XZ 02046274 f   NetStack.obj
 0001:000452b0       ?g_get$_LARGE$_OBJECT$_THRESHOLD@Struct_System_GCs_SegregatedFreeList@@SIPAUuintPtr@@XZ 020462b0 f   NetStack.obj
 0001:000452d0       ?g_get$_fVerifyLists@Struct_System_GCs_SegregatedFreeList@@SI_NXZ 020462d0 f   NetStack.obj
 0001:000452e8       ?g_get$_EagerMemClear@Struct_System_GCs_SegregatedFreeList@@SI_NXZ 020462e8 f   NetStack.obj
 0001:00045300       ?g_get$_BLOCK$_SIZE@Struct_System_GCs_SegregatedFreeList@@SIHXZ 02046300 f   NetStack.obj
 0001:00045324       ?g_FreeSmallList@Struct_System_GCs_SegregatedFreeList@@SIXPAUStruct_System_GCs_SegregatedFreeList_TempList@@@Z 02046324 f   NetStack.obj
 0001:000454e8       ?g_FreeListContains@Struct_System_GCs_SegregatedFreeList@@SI_NPAUuintPtr@@0@Z 020464e8 f   NetStack.obj
 0001:00045538       ?g_FreeLarge@Struct_System_GCs_SegregatedFreeList@@SIXPAUClass_System_Object@@@Z 02046538 f   NetStack.obj
 0001:00045944       ?g_FindSmallCell@Struct_System_GCs_SegregatedFreeList@@SIPAUuintPtr@@PAU2@@Z 02046944 f   NetStack.obj
 0001:00045a54       ?g_FindSmall@Struct_System_GCs_SegregatedFreeList@@SIPAUuintPtr@@PAU2@@Z 02046a54 f   NetStack.obj
 0001:00045b18       ?g_FindLarge@Struct_System_GCs_SegregatedFreeList@@SIPAUuintPtr@@PAU2@@Z 02046b18 f   NetStack.obj
 0001:00045d9c       ?g_Find@Struct_System_GCs_SegregatedFreeList@@SIPAUuintPtr@@PAU2@@Z 02046d9c f   NetStack.obj
 0001:00045ebc       ?m_Equals@Struct_System_GCs_SegregatedFreeList@@SI_NPAU1@PAUClass_System_Object@@@Z 02046ebc f   NetStack.obj
 0001:00045f24       ?m_Equals@Struct_System_GCs_SegregatedFreeList@@SI_NPAUClass_System_GCs_SegregatedFreeList@@PAUClass_System_Object@@@Z 02046f24 f   NetStack.obj
 0001:00045f50       ?g_DoLazyMemClear@Struct_System_GCs_SegregatedFreeList@@SIXPAUuintPtr@@I@Z 02046f50 f   NetStack.obj
 0001:00045f94       ?g_DeadThreadNotification@Struct_System_GCs_SegregatedFreeList@@SIXPAUClass_System_Threading_Thread@@@Z 02046f94 f   NetStack.obj
 0001:0004602c       ?g_CountListElements@Struct_System_GCs_SegregatedFreeList@@SIHPAUuintPtr@@@Z 0204702c f   NetStack.obj
 0001:00046164       ?g_CompilerAllocateMarkSweep@Struct_System_GCs_SegregatedFreeList@@SIPAUClass_System_Object@@PAUClass_System_VTable@@PAUClass_System_Threading_Thread@@PAUuintPtr@@I@Z 02047164 f   NetStack.obj
 0001:000464b0       ?g_CommitFreedData@Struct_System_GCs_SegregatedFreeList@@SIXXZ 020474b0 f   NetStack.obj
 0001:00046518       ?g_AtomicSwitchChains@Struct_System_GCs_SegregatedFreeList@@SIPAUStruct_System_GCs_SegregatedFreeList_PageHeader@@PAPAUuintPtr@@PAU2@@Z 02047518 f   NetStack.obj
 0001:0004653c       ?g_AtomicPushIncrementList@Struct_System_GCs_SegregatedFreeList@@SIXPAPAUuintPtr@@UStruct_System_GCs_SegregatedFreeList_PageHeaderList@@@Z 0204753c f   NetStack.obj
 0001:000465d8       ?g_AtomicPushDecrementList@Struct_System_GCs_SegregatedFreeList@@SIPAUStruct_System_GCs_SegregatedFreeList_PageHeader@@PAPAUuintPtr@@UStruct_System_GCs_SegregatedFreeList_PageHeaderList@@@Z 020475d8 f   NetStack.obj
 0001:00046674       ?g_AtomicPush@Struct_System_GCs_SegregatedFreeList@@SIXPAPAUuintPtr@@PAUStruct_System_GCs_SegregatedFreeList_PageHeader@@@Z 02047674 f   NetStack.obj
 0001:000466d4       ?g_AtomicPopChain@Struct_System_GCs_SegregatedFreeList@@SIPAUStruct_System_GCs_SegregatedFreeList_PageHeader@@PAPAUuintPtr@@@Z 020476d4 f   NetStack.obj
 0001:000466f8       ?g_AtomicPop@Struct_System_GCs_SegregatedFreeList@@SIPAUStruct_System_GCs_SegregatedFreeList_PageHeader@@PAPAUuintPtr@@@Z 020476f8 f   NetStack.obj
 0001:0004675c       ?g_AtomicAdd@Struct_System_GCs_SegregatedFreeList@@SIXPAHH@Z 0204775c f   NetStack.obj
 0001:000467b4       ?m_AllocateSmallSlow@Struct_System_GCs_SegregatedFreeList@@SIPAUuintPtr@@PAU1@IPAUClass_System_Threading_Thread@@@Z 020477b4 f   NetStack.obj
 0001:00046a64       ?m_AllocateSmallFast@Struct_System_GCs_SegregatedFreeList@@SIPAUuintPtr@@PAU1@I@Z 02047a64 f   NetStack.obj
 0001:00046ac8       ?m_AllocateSmall@Struct_System_GCs_SegregatedFreeList@@SIPAUuintPtr@@PAU1@IPAUClass_System_Threading_Thread@@@Z 02047ac8 f   NetStack.obj
 0001:00046b38       ?m_AllocateSlow@Struct_System_GCs_SegregatedFreeList@@SIPAUuintPtr@@PAU1@PAU2@IPAUClass_System_Threading_Thread@@@Z 02047b38 f   NetStack.obj
 0001:00046e5c       ?g_AllocateSlow@Struct_System_GCs_SegregatedFreeList@@SIPAUuintPtr@@PAUClass_System_Threading_Thread@@PAU2@I@Z 02047e5c f   NetStack.obj
 0001:00046eb0       ?g_AllocateLarge@Struct_System_GCs_SegregatedFreeList@@SIPAUuintPtr@@IPAU2@PAUClass_System_Threading_Thread@@@Z 02047eb0 f   NetStack.obj
 0001:0004750c       ?m_AllocateFast@Struct_System_GCs_SegregatedFreeList@@SIPAUuintPtr@@PAU1@PAU2@I@Z 0204850c f   NetStack.obj
 0001:00047834       ?g_AllocateFast@Struct_System_GCs_SegregatedFreeList@@SIPAUuintPtr@@PAUClass_System_Threading_Thread@@PAU2@I@Z 02048834 f   NetStack.obj
 0001:00047bc0       ?g_AddSmallPage@Struct_System_GCs_SegregatedFreeList@@SIXPAUStruct_System_GCs_SegregatedFreeList_PageHeader@@@Z 02048bc0 f   NetStack.obj
 0001:00047c74       ?g_AddSmallBytes@Struct_System_GCs_SegregatedFreeList@@SIXPAUuintPtr@@@Z 02048c74 f   NetStack.obj
 0001:00047ca8       ?g_AddLargePages@Struct_System_GCs_SegregatedFreeList@@SIXPAUuintPtr@@@Z 02048ca8 f   NetStack.obj
 0001:00047d04       ?m_StructCopy@Struct_Microsoft_Singularity_ServiceManager_ServiceProcessContract_Alive@@SIXPAU1@0@Z 02048d04 f   NetStack.obj
 0001:00047d20       ?m_StructCopy@Struct_Microsoft_Singularity_ServiceManager_ServiceProcessContract_Alive@@SIXPAU1@PAU1@@Z 02048d20 f   NetStack.obj
 0001:00047d74       ?m_MarshallContent@Struct_Microsoft_Singularity_ServiceManager_ServiceProcessContract_Alive@@SIXPAU1@PAEPAUStruct_Microsoft_Singularity_Channels_Endpoint@@1PAH@Z 02048d74 f   NetStack.obj
 0001:00047d94       ?m_MarshallAll@Struct_Microsoft_Singularity_ServiceManager_ServiceProcessContract_Alive@@SIXPAU1@PAEPAUStruct_Microsoft_Singularity_Channels_Endpoint@@PAH@Z 02048d94 f   NetStack.obj
 0001:00047dec       ?m_Equals@Struct_Microsoft_Singularity_ServiceManager_ServiceProcessContract_Alive@@SI_NPAU1@PAUClass_System_Object@@@Z 02048dec f   NetStack.obj
 0001:00047e24       ?m_Equals@Struct_Microsoft_Singularity_ServiceManager_ServiceProcessContract_Alive@@SI_NPAUClass_Microsoft_Singularity_ServiceManager_ServiceProcessContract_Alive@@PAUClass_System_Object@@@Z 02048e24 f   NetStack.obj
 0001:00047e50       ?m_Run@Class_NetStack_Channels_Private_UdpExpManager@@SIXPAU1@PAUStruct_NetStack_Runtime_StopThreadContract_Exp@@@Z 02048e50 f   NetStack.obj
 0001:0004843c       ?m__ctor@Class_NetStack_Channels_Private_UdpExpManager@@SIXPAU1@@Z 0204943c f   NetStack.obj
 0001:00048460       ?g__cctor@Class_NetStack_Channels_Private_UdpExpManager@@SIXXZ 02049460 f   NetStack.obj
 0001:00048604       ?m_StructCopy@Struct_Microsoft_Singularity_Memory_PhysicalAddress@@SIXPAU1@0@Z 02049604 f   NetStack.obj
 0001:00048638       ?m_StructCopy@Struct_Microsoft_Singularity_Memory_PhysicalAddress@@SIXPAU1@PAU1@@Z 02049638 f   NetStack.obj
 0001:000486d4       ?g_op$_Equality@Struct_Microsoft_Singularity_Memory_PhysicalAddress@@SI_NU1@0@Z 020496d4 f   NetStack.obj
 0001:0004871c       ?m_GetHashCode@Struct_Microsoft_Singularity_Memory_PhysicalAddress@@SIHPAU1@@Z 0204971c f   NetStack.obj
 0001:00048740       ?m_GetHashCode@Struct_Microsoft_Singularity_Memory_PhysicalAddress@@SIHPAUClass_Microsoft_Singularity_Memory_PhysicalAddress@@@Z 02049740 f   NetStack.obj
 0001:00048768       ?m_get$_Value@Struct_Microsoft_Singularity_Memory_PhysicalAddress@@SI_KPAU1@@Z 02049768 f   NetStack.obj
 0001:0004878c       ?m_Equals@Struct_Microsoft_Singularity_Memory_PhysicalAddress@@SI_NPAU1@PAUClass_System_Object@@@Z 0204978c f   NetStack.obj
 0001:00048820       ?m_Equals@Struct_Microsoft_Singularity_Memory_PhysicalAddress@@SI_NPAUClass_Microsoft_Singularity_Memory_PhysicalAddress@@PAUClass_System_Object@@@Z 02049820 f   NetStack.obj
 0001:0004884c       ?m__ctor@Struct_Microsoft_Singularity_Memory_PhysicalAddress@@SIXPAU1@PAUuintPtr@@@Z 0204984c f   NetStack.obj
 0001:0004887c       ?m_StructCopy@Struct_Microsoft_Singularity_ServiceManager_ServiceProcessContract_StartFailed@@SIXPAU1@0@Z 0204987c f   NetStack.obj
 0001:000488a4       ?m_StructCopy@Struct_Microsoft_Singularity_ServiceManager_ServiceProcessContract_StartFailed@@SIXPAU1@PAU1@@Z 020498a4 f   NetStack.obj
 0001:0004891c       ?m_MarshallContent@Struct_Microsoft_Singularity_ServiceManager_ServiceProcessContract_StartFailed@@SIXPAU1@PAEPAUStruct_Microsoft_Singularity_Channels_Endpoint@@1PAH@Z 0204991c f   NetStack.obj
 0001:0004893c       ?m_MarshallAll@Struct_Microsoft_Singularity_ServiceManager_ServiceProcessContract_StartFailed@@SIXPAU1@PAEPAUStruct_Microsoft_Singularity_Channels_Endpoint@@PAH@Z 0204993c f   NetStack.obj
 0001:00048994       ?m_Equals@Struct_Microsoft_Singularity_ServiceManager_ServiceProcessContract_StartFailed@@SI_NPAU1@PAUClass_System_Object@@@Z 02049994 f   NetStack.obj
 0001:00048a34       ?m_Equals@Struct_Microsoft_Singularity_ServiceManager_ServiceProcessContract_StartFailed@@SI_NPAUClass_Microsoft_Singularity_ServiceManager_ServiceProcessContract_StartFailed@@PAUClass_System_Object@@@Z 02049a34 f   NetStack.obj
 0001:00048a60       ?m_StructCopy@Struct_Microsoft_Singularity_Directory_DirectoryServiceContract_NakCreateDirectory@@SIXPAU1@0@Z 02049a60 f   NetStack.obj
 0001:00048a88       ?m_StructCopy@Struct_Microsoft_Singularity_Directory_DirectoryServiceContract_NakCreateDirectory@@SIXPAU1@PAU1@@Z 02049a88 f   NetStack.obj
 0001:00048b00       ?m_Equals@Struct_Microsoft_Singularity_Directory_DirectoryServiceContract_NakCreateDirectory@@SI_NPAU1@PAUClass_System_Object@@@Z 02049b00 f   NetStack.obj
 0001:00048ba0       ?m_Equals@Struct_Microsoft_Singularity_Directory_DirectoryServiceContract_NakCreateDirectory@@SI_NPAUClass_Microsoft_Singularity_Directory_DirectoryServiceContract_NakCreateDirectory@@PAUClass_System_Object@@@Z 02049ba0 f   NetStack.obj
 0001:00048bcc       ?g_StableState@Class_NetStack_Contracts_UdpContract@@SIHPAUStruct_Microsoft_Singularity_Channels_StateStack@@@Z 02049bcc f   NetStack.obj
 0001:00048c48       ?m__ctor@Class_NetStack_Contracts_UdpContract@@SIXPAU1@@Z 02049c48 f   NetStack.obj
 0001:00048c60       ?g_Stop@Class_NetStack_Runtime_StaticConfiguration@@SIXXZ 02049c60 f   NetStack.obj
 0001:00048ea0       ?g_Start@Class_NetStack_Runtime_StaticConfiguration@@SIXXZ 02049ea0 f   NetStack.obj
 0001:00048ef8       ?g_Initialize@Class_NetStack_Runtime_StaticConfiguration@@SIXXZ 02049ef8 f   NetStack.obj
 0001:0004923c       ?m__ctor@Class_NetStack_Runtime_StaticConfiguration@@SIXPAU1@@Z 0204a23c f   NetStack.obj
 0001:00049254       ?g__cctor@Class_NetStack_Runtime_StaticConfiguration@@SIXXZ 0204a254 f   NetStack.obj
 0001:00049268       ?g_IsWhiteSpace@Class_System_Globalization_CharacterInfo@@SI_N_W@Z 0204a268 f   NetStack.obj
 0001:000492d8       ?g_GetUnicodeCategory@Class_System_Globalization_CharacterInfo@@SI?AUStruct_System_Globalization_UnicodeCategory@@_W@Z 0204a2d8 f   NetStack.obj
 0001:00049380       ?m__ctor@Class_System_Globalization_CharacterInfo@@SIXPAU1@@Z 0204a380 f   NetStack.obj
 0001:00049398       ?g__cctor@Class_System_Globalization_CharacterInfo@@SIXXZ 0204a398 f   NetStack.obj
 0001:000493ac       ?m_Visit@Class_System_GCs_MarkSweepCollector_ThreadMarkReferenceVisitor@@SIXPAU1@PAPAUuintPtr@@@Z 0204a3ac f   NetStack.obj
 0001:0004979c       ?m__ctor@Class_System_GCs_MarkSweepCollector_ThreadMarkReferenceVisitor@@SIXPAU1@@Z 0204a79c f   NetStack.obj
 0001:000497c0       ?m_StructCopy@Struct_NetStack_Protocols_IcmpFormat_IcmpHeader@@SIXPAU1@0@Z 0204a7c0 f   NetStack.obj
 0001:0004981c       ?m_StructCopy@Struct_NetStack_Protocols_IcmpFormat_IcmpHeader@@SIXPAU1@PAU1@@Z 0204a81c f   NetStack.obj
 0001:00049930       ?m_Equals@Struct_NetStack_Protocols_IcmpFormat_IcmpHeader@@SI_NPAU1@PAUClass_System_Object@@@Z 0204a930 f   NetStack.obj
 0001:000499bc       ?m_Equals@Struct_NetStack_Protocols_IcmpFormat_IcmpHeader@@SI_NPAUClass_NetStack_Protocols_IcmpFormat_IcmpHeader@@PAUClass_System_Object@@@Z 0204a9bc f   NetStack.obj
 0001:000499e8       ?m_StructCopy@Struct_NetStack_Contracts_DNSContract_GetNameServers@@SIXPAU1@0@Z 0204a9e8 f   NetStack.obj
 0001:00049a04       ?m_StructCopy@Struct_NetStack_Contracts_DNSContract_GetNameServers@@SIXPAU1@PAU1@@Z 0204aa04 f   NetStack.obj
 0001:00049a58       ?m_Equals@Struct_NetStack_Contracts_DNSContract_GetNameServers@@SI_NPAU1@PAUClass_System_Object@@@Z 0204aa58 f   NetStack.obj
 0001:00049a90       ?m_Equals@Struct_NetStack_Contracts_DNSContract_GetNameServers@@SI_NPAUClass_NetStack_Contracts_DNSContract_GetNameServers@@PAUClass_System_Object@@@Z 0204aa90 f   NetStack.obj
 0001:00049abc       ?m__ctor@Class_System_Runtime_CompilerServices_SelfPointAttribute@@SIXPAU1@@Z 0204aabc f   NetStack.obj
 0001:00049ae0       ?m_StructCopy@Struct_Microsoft_Singularity_Isal_IX_TSS@@SIXPAU1@0@Z 0204aae0 f   NetStack.obj
 0001:00049cf4       ?m_StructCopy@Struct_Microsoft_Singularity_Isal_IX_TSS@@SIXPAU1@PAU1@@Z 0204acf4 f   NetStack.obj
 0001:0004a330       ?m_Equals@Struct_Microsoft_Singularity_Isal_IX_TSS@@SI_NPAU1@PAUClass_System_Object@@@Z 0204b330 f   NetStack.obj
 0001:0004a620       ?m_Equals@Struct_Microsoft_Singularity_Isal_IX_TSS@@SI_NPAUClass_Microsoft_Singularity_Isal_IX_TSS@@PAUClass_System_Object@@@Z 0204b620 f   NetStack.obj
 0001:0004a64c       ?g_WalkStackFrame@Class_System_GCs_CallStack@@SI_NPAPAPAUuintPtr@@0PAUStruct_System_GCs_CalleeSaveLocations@@PAPAU2@PAUClass_System_GCs_NonNullReferenceVisitor@@3UStruct_System_GCs_CompressedFrameDescriptor@@PAUStruct_System_GCs_CallStack_TransitionRecord@@PAUClass_System_Threading_Thread@@@Z 0204b64c f   NetStack.obj
 0001:0004aff4       ?g_VisitIfNotContext@Class_System_GCs_CallStack@@SIXPAUClass_System_Threading_Thread@@PAUClass_System_GCs_NonNullReferenceVisitor@@PAPAUuintPtr@@@Z 0204bff4 f   NetStack.obj
 0001:0004b050       ?g_SkipUnlinkStackFrame@Class_System_GCs_CallStack@@SIPAUuintPtr@@PAPAPAU2@0@Z 0204c050 f   NetStack.obj
 0001:0004b084       ?g_SkipLinkStackStubFrame@Class_System_GCs_CallStack@@SIPAUuintPtr@@PAPAPAU2@0@Z 0204c084 f   NetStack.obj
 0001:0004b0c4       ?g_SkipLinkStackFrame@Class_System_GCs_CallStack@@SIPAUuintPtr@@PAPAPAU2@0@Z 0204c0c4 f   NetStack.obj
 0001:0004b104       ?g_ScanStackSegment@Class_System_GCs_CallStack@@SIIPAUStruct_System_GCs_CalleeSaveLocations@@PAUuintPtr@@PAPAU3@2PAUStruct_System_GCs_CallStack_TransitionRecord@@PAUClass_System_GCs_NonNullReferenceVisitor@@4PAUClass_System_Threading_Thread@@@Z 0204c104 f   NetStack.obj
 0001:0004b36c       ?g_ScanStacks@Class_System_GCs_CallStack@@SIHPAUClass_System_GCs_NonNullReferenceVisitor@@0@Z 0204c36c f   NetStack.obj
 0001:0004b420       ?g_ScanStack@Class_System_GCs_CallStack@@SIIPAUClass_System_Threading_Thread@@PAUClass_System_GCs_NonNullReferenceVisitor@@1@Z 0204c420 f   NetStack.obj
 0001:0004b624       ?g_Initialize@Class_System_GCs_CallStack@@SIXXZ 0204c624 f   NetStack.obj
 0001:0004b794       ?g_FrameContainsTransitionRecord@Class_System_GCs_CallStack@@SI_NPAPAUuintPtr@@0PAUStruct_System_GCs_CallStack_TransitionRecord@@@Z 0204c794 f   NetStack.obj
 0001:0004b7ec       ?g_CountBits@Class_System_GCs_CallStack@@SIHPAUuintPtr@@@Z 0204c7ec f   NetStack.obj
 0001:0004b854       ?g_CallSiteTableNumber@Class_System_GCs_CallStack@@SIHPAUuintPtr@@@Z 0204c854 f   NetStack.obj
 0001:0004b95c       ?g_CallSiteSetNumber@Class_System_GCs_CallStack@@SIHPAUuintPtr@@H@Z 0204c95c f   NetStack.obj
 0001:0004ba68       ?m__ctor@Class_System_GCs_CallStack@@SIXPAU1@@Z 0204ca68 f   NetStack.obj
 0001:0004ba84       ?m_StructCopy@Struct_System_UpdateEnlistmentLog_Entry@@SIXPAU1@0@Z 0204ca84 f   NetStack.obj
 0001:0004bb08       ?m_StructCopy@Struct_System_UpdateEnlistmentLog_Entry@@SIXPAU1@PAU1@@Z 0204cb08 f   NetStack.obj
 0001:0004bc94       ?m_Equals@Struct_System_UpdateEnlistmentLog_Entry@@SI_NPAU1@PAUClass_System_Object@@@Z 0204cc94 f   NetStack.obj
 0001:0004be0c       ?m_Equals@Struct_System_UpdateEnlistmentLog_Entry@@SI_NPAUClass_System_UpdateEnlistmentLog_Entry@@PAUClass_System_Object@@@Z 0204ce0c f   NetStack.obj
 0001:0004be38       ?m_StructCopy@Struct_NetStack_Contracts_UdpContract_Exp@@SIXPAU1@0@Z 0204ce38 f   NetStack.obj
 0001:0004bf14       ?m_StructCopy@Struct_NetStack_Contracts_UdpContract_Exp@@SIXPAU1@PAU1@@Z 0204cf14 f   NetStack.obj
 0001:0004c1a8       ?m_SendReady@Struct_NetStack_Contracts_UdpContract_Exp@@SIXPAU1@@Z 0204d1a8 f   NetStack.obj
 0001:0004c29c       ?m_SendAck@Struct_NetStack_Contracts_UdpContract_Exp@@SIXPAU1@@Z 0204d29c f   NetStack.obj
 0001:0004c390       ?m_RecvCreateUdpSession@Struct_NetStack_Contracts_UdpContract_Exp@@SIXPAU1@PAPAUStruct_NetStack_Contracts_UdpConnectionContract_Exp@@@Z 0204d390 f   NetStack.obj
 0001:0004c518       ?m_Peek@Struct_NetStack_Contracts_UdpContract_Exp@@SIHPAU1@@Z 0204d518 f   NetStack.obj
 0001:0004c6c0       ?m_HeadMatches@Struct_NetStack_Contracts_UdpContract_Exp@@SI_NPAU1@HPA_NPAPAUClass_System_Object@@@Z 0204d6c0 f   NetStack.obj
 0001:0004c780       ?m_HeadMatches@Struct_NetStack_Contracts_UdpContract_Exp@@SI_NPAUClass_NetStack_Contracts_UdpContract_Exp@@HPA_NPAPAUClass_System_Object@@@Z 0204d780 f   NetStack.obj
 0001:0004c7b8       ?m_Equals@Struct_NetStack_Contracts_UdpContract_Exp@@SI_NPAU1@PAUClass_System_Object@@@Z 0204d7b8 f   NetStack.obj
 0001:0004ca94       ?m_Equals@Struct_NetStack_Contracts_UdpContract_Exp@@SI_NPAUClass_NetStack_Contracts_UdpContract_Exp@@PAUClass_System_Object@@@Z 0204da94 f   NetStack.obj
 0001:0004cac0       ?m_Dispose@Struct_NetStack_Contracts_UdpContract_Exp@@SIXPAU1@@Z 0204dac0 f   NetStack.obj
 0001:0004cae4       ?m_Dispose@Struct_NetStack_Contracts_UdpContract_Exp@@SIXPAUClass_NetStack_Contracts_UdpContract_Exp@@@Z 0204dae4 f   NetStack.obj
 0001:0004cb0c       ?m_CurrentState@Struct_NetStack_Contracts_UdpContract_Exp@@SIPAUClass_System_String@@PAU1@@Z 0204db0c f   NetStack.obj
 0001:0004cbac       ?m_Stop@Class_NetStack_NetStackApplication@@SIXPAU1@@Z 0204dbac f   NetStack.obj
 0001:0004cc4c       ?m_Start@Class_NetStack_NetStackApplication@@SI_NPAU1@@Z 0204dc4c f   NetStack.obj
 0001:0004cd18       ?m_ServiceMain@Class_NetStack_NetStackApplication@@SIXPAU1@@Z 0204dd18 f   NetStack.obj
 0001:0004cff0       ?m_Run@Class_NetStack_NetStackApplication@@SIHPAU1@@Z 0204dff0 f   NetStack.obj
 0001:0004d0e4       ?m_Microsoft_SingSharp_ITracked_UnExpose@Class_NetStack_NetStackApplication@@SIXPAU1@@Z 0204e0e4 f   NetStack.obj
 0001:0004d100       ?m_Microsoft_SingSharp_ITracked_Expose@Class_NetStack_NetStackApplication@@SIXPAU1@@Z 0204e100 f   NetStack.obj
 0001:0004d11c       ?m_Microsoft_SingSharp_ITracked_Dispose@Class_NetStack_NetStackApplication@@SIXPAU1@@Z 0204e11c f   NetStack.obj
 0001:0004d198       ?g_Dbg@Class_NetStack_NetStackApplication@@SIXPAUClass_System_String@@@Z 0204e198 f   NetStack.obj
 0001:0004d1bc       ?g_AppMain@Class_NetStack_NetStackApplication@@SIHPAUClass_NetStack_ServiceParameters@@@Z 0204e1bc f   NetStack.obj
 0001:0004d2e0       ?m__ctor@Class_NetStack_NetStackApplication@@SIXPAU1@PAUStruct_Microsoft_Singularity_ServiceManager_ServiceProcessContract_Exp@@PAUStruct_Microsoft_Singularity_ServiceManager_ServiceEventContract_Imp@@@Z 0204e2e0 f   NetStack.obj
 0001:0004d444       ?g__cctor@Class_NetStack_NetStackApplication@@SIXXZ 0204e444 f   NetStack.obj
 0001:0004d4ec       ?m_InitializeFromExistingHandle@Class_Microsoft_Singularity_Eventing_MemoryStorage@@SI_NPAU1@@Z 0204e4ec f   NetStack.obj
 0001:0004d594       ?m_Initialize@Class_Microsoft_Singularity_Eventing_MemoryStorage@@SI_NPAU1@_K@Z 0204e594 f   NetStack.obj
 0001:0004d6d8       ?m_Finalize@Class_Microsoft_Singularity_Eventing_MemoryStorage@@SIXPAU1@@Z 0204e6d8 f   NetStack.obj
 0001:0004d71c       ?m_Destroy@Class_Microsoft_Singularity_Eventing_MemoryStorage@@SIXPAU1@@Z 0204e71c f   NetStack.obj
 0001:0004d74c       ?m_AddBuffer@Class_Microsoft_Singularity_Eventing_MemoryStorage@@SI_NPAU1@_K@Z 0204e74c f   NetStack.obj
 0001:0004d818       ?m__ctor@Class_Microsoft_Singularity_Eventing_MemoryStorage@@SIXPAU1@@Z 0204e818 f   NetStack.obj
 0001:0004d844       ?m__ctor@Class_System_UndoLog@@SIXPAU1@@Z 0204e844 f   NetStack.obj
 0001:0004d874       ?m_StructCopy@Struct_NetStack_Contracts_IPContract_HostName@@SIXPAU1@0@Z 0204e874 f   NetStack.obj
 0001:0004d89c       ?m_StructCopy@Struct_NetStack_Contracts_IPContract_HostName@@SIXPAU1@PAU1@@Z 0204e89c f   NetStack.obj
 0001:0004d914       ?m_MarshallContent@Struct_NetStack_Contracts_IPContract_HostName@@SIXPAU1@PAEPAUStruct_Microsoft_Singularity_Channels_Endpoint@@1PAH@Z 0204e914 f   NetStack.obj
 0001:0004d9d4       ?m_MarshallAll@Struct_NetStack_Contracts_IPContract_HostName@@SIXPAU1@PAEPAUStruct_Microsoft_Singularity_Channels_Endpoint@@PAH@Z 0204e9d4 f   NetStack.obj
 0001:0004da2c       ?m_Equals@Struct_NetStack_Contracts_IPContract_HostName@@SI_NPAU1@PAUClass_System_Object@@@Z 0204ea2c f   NetStack.obj
 0001:0004da74       ?m_Equals@Struct_NetStack_Contracts_IPContract_HostName@@SI_NPAUClass_NetStack_Contracts_IPContract_HostName@@PAUClass_System_Object@@@Z 0204ea74 f   NetStack.obj
 0001:0004daa0       ?m_System_Collections_IEnumerator_get$_Current@Class_System_CharEnumerator@@SIPAUClass_System_Object@@PAU1@@Z 0204eaa0 f   NetStack.obj
 0001:0004db40       ?m_MoveNext@Class_System_CharEnumerator@@SI_NPAU1@@Z 0204eb40 f   NetStack.obj
 0001:0004dbb0       ?m__ctor@Class_System_CharEnumerator@@SIXPAU1@PAUClass_System_String@@@Z 0204ebb0 f   NetStack.obj
 0001:0004dbe0       ?m_Release@Class__Directory_Contracts_Microsoft_Singularity_Channels_TRef$_2$LMicrosoft_Singularity_Directory_DirectoryServiceContract_Imp_Microsoft_Singularity_Directory_DirectoryServiceContract_Ready$G@@SIXPAU1@PAUStruct_Microsoft_Singularity_Directory_DirectoryServiceContract_Imp@@@Z 0204ebe0 f   NetStack.obj
 0001:0004dc64       ?m_Finalize@Class__Directory_Contracts_Microsoft_Singularity_Channels_TRef$_2$LMicrosoft_Singularity_Directory_DirectoryServiceContract_Imp_Microsoft_Singularity_Directory_DirectoryServiceContract_Ready$G@@SIXPAU1@@Z 0204ec64 f   NetStack.obj
 0001:0004dcf0       ?m_Acquire@Class__Directory_Contracts_Microsoft_Singularity_Channels_TRef$_2$LMicrosoft_Singularity_Directory_DirectoryServiceContract_Imp_Microsoft_Singularity_Directory_DirectoryServiceContract_Ready$G@@SIPAUStruct_Microsoft_Singularity_Directory_DirectoryServiceContract_Imp@@PAU1@@Z 0204ecf0 f   NetStack.obj
 0001:0004dd8c       ?m__ctor@Class__Directory_Contracts_Microsoft_Singularity_Channels_TRef$_2$LMicrosoft_Singularity_Directory_DirectoryServiceContract_Imp_Microsoft_Singularity_Directory_DirectoryServiceContract_Ready$G@@SIXPAU1@PAUStruct_Microsoft_Singularity_Directory_DirectoryServiceContract_Imp@@@Z 0204ed8c f   NetStack.obj
 0001:0004de30       ?m_WorkerMain@Class_NetStack_Runtime_DhcpClient@@SIXPAU1@@Z 0204ee30 f   NetStack.obj
 0001:0004e224       ?m_UninstallDhcpOptions@Class_NetStack_Runtime_DhcpClient@@SIXPAU1@@Z 0204f224 f   NetStack.obj
 0001:0004e520       ?m_Stop@Class_NetStack_Runtime_DhcpClient@@SIXPAU1@@Z 0204f520 f   NetStack.obj
 0001:0004e5b8       ?m_StartNewTransaction@Class_NetStack_Runtime_DhcpClient@@SIXPAU1@@Z 0204f5b8 f   NetStack.obj
 0001:0004e624       ?m_Start@Class_NetStack_Runtime_DhcpClient@@SI_NPAU1@@Z 0204f624 f   NetStack.obj
 0001:0004e7ec       ?m_SetTimeout@Class_NetStack_Runtime_DhcpClient@@SI_NPAU1@PAUStruct_System_DateTime@@U2@@Z 0204f7ec f   NetStack.obj
 0001:0004e88c       ?m_SetStateTimeout@Class_NetStack_Runtime_DhcpClient@@SIXPAU1@UStruct_System_DateTime@@@Z 0204f88c f   NetStack.obj
 0001:0004e8d4       ?m_SetRenewalTimeout@Class_NetStack_Runtime_DhcpClient@@SIXPAU1@UStruct_System_DateTime@@@Z 0204f8d4 f   NetStack.obj
 0001:0004e91c       ?m_SetRebindTimeout@Class_NetStack_Runtime_DhcpClient@@SIXPAU1@UStruct_System_DateTime@@@Z 0204f91c f   NetStack.obj
 0001:0004e964       ?m_Send@Class_NetStack_Runtime_DhcpClient@@SI_NPAU1@UStruct_Drivers_Net_EthernetAddress@@PAUClass_NetStack_Protocols_DhcpFormat@@@Z 0204f964 f   NetStack.obj
 0001:0004ebf0       ?m_ResetAdapterIPInfo@Class_NetStack_Runtime_DhcpClient@@SIXPAU1@@Z 0204fbf0 f   NetStack.obj
 0001:0004ec0c       ?m_InstallDhcpOptions@Class_NetStack_Runtime_DhcpClient@@SI_NPAU1@PAUClass_System_Collections_SortedList@@@Z 0204fc0c f   NetStack.obj
 0001:0004f12c       ?m_get$_TransactionSeconds@Class_NetStack_Runtime_DhcpClient@@SIGPAU1@@Z 0205012c f   NetStack.obj
 0001:0004f200       ?m_get$_TransactionID@Class_NetStack_Runtime_DhcpClient@@SIIPAU1@@Z 02050200 f   NetStack.obj
 0001:0004f23c       ?m_get$_MacAddress@Class_NetStack_Runtime_DhcpClient@@SI?AUStruct_Drivers_Net_EthernetAddress@@PAU1@@Z 0205023c f   NetStack.obj
 0001:0004f2cc       ?m_get$_Adapter@Class_NetStack_Runtime_DhcpClient@@SIPAUClass_NetStack_Common_IAdapter@@PAU1@@Z 020502cc f   NetStack.obj
 0001:0004f308       ?m_Finalize@Class_NetStack_Runtime_DhcpClient@@SIXPAU1@@Z 02050308 f   NetStack.obj
 0001:0004f358       ?m_ChangeState@Class_NetStack_Runtime_DhcpClient@@SIXPAU1@PAUClass_NetStack_Runtime_DhcpClientState@@@Z 02050358 f   NetStack.obj
 0001:0004f3bc       ?m_CancelTimeouts@Class_NetStack_Runtime_DhcpClient@@SIXPAU1@@Z 020503bc f   NetStack.obj
 0001:0004f3f0       ?m_CancelStateTimeout@Class_NetStack_Runtime_DhcpClient@@SIXPAU1@@Z 020503f0 f   NetStack.obj
 0001:0004f440       ?m_CancelRenewalTimeout@Class_NetStack_Runtime_DhcpClient@@SIXPAU1@@Z 02050440 f   NetStack.obj
 0001:0004f490       ?m_CancelRebindTimeout@Class_NetStack_Runtime_DhcpClient@@SIXPAU1@@Z 02050490 f   NetStack.obj
 0001:0004f4e0       ?m__ctor@Class_NetStack_Runtime_DhcpClient@@SIXPAU1@PAUClass_NetStack_Common_IAdapter@@@Z 020504e0 f   NetStack.obj
 0001:0004f538       ?g__cctor@Class_NetStack_Runtime_DhcpClient@@SIXXZ 02050538 f   NetStack.obj
 0001:0004f5d0       ?m__ctor@Class_NetStack_Protocols_InvalidDhcpOptionLength@@SIXPAU1@@Z 020505d0 f   NetStack.obj
 0001:0004f5f4       ?m_StructCopy@Struct_NetStack_Contracts_IPContract_Err@@SIXPAU1@0@Z 020505f4 f   NetStack.obj
 0001:0004f610       ?m_StructCopy@Struct_NetStack_Contracts_IPContract_Err@@SIXPAU1@PAU1@@Z 02050610 f   NetStack.obj
 0001:0004f664       ?m_MarshallContent@Struct_NetStack_Contracts_IPContract_Err@@SIXPAU1@PAEPAUStruct_Microsoft_Singularity_Channels_Endpoint@@1PAH@Z 02050664 f   NetStack.obj
 0001:0004f684       ?m_MarshallAll@Struct_NetStack_Contracts_IPContract_Err@@SIXPAU1@PAEPAUStruct_Microsoft_Singularity_Channels_Endpoint@@PAH@Z 02050684 f   NetStack.obj
 0001:0004f6dc       ?m_Equals@Struct_NetStack_Contracts_IPContract_Err@@SI_NPAU1@PAUClass_System_Object@@@Z 020506dc f   NetStack.obj
 0001:0004f714       ?m_Equals@Struct_NetStack_Contracts_IPContract_Err@@SI_NPAUClass_NetStack_Contracts_IPContract_Err@@PAUClass_System_Object@@@Z 02050714 f   NetStack.obj
 0001:0004f740       ?m_StructCopy@Struct_NetStack_Contracts_TcpConnectionContract_Write@@SIXPAU1@0@Z 02050740 f   NetStack.obj
 0001:0004f768       ?m_StructCopy@Struct_NetStack_Contracts_TcpConnectionContract_Write@@SIXPAU1@PAU1@@Z 02050768 f   NetStack.obj
 0001:0004f7e0       ?m_Equals@Struct_NetStack_Contracts_TcpConnectionContract_Write@@SI_NPAU1@PAUClass_System_Object@@@Z 020507e0 f   NetStack.obj
 0001:0004f828       ?m_Equals@Struct_NetStack_Contracts_TcpConnectionContract_Write@@SI_NPAUClass_NetStack_Contracts_TcpConnectionContract_Write@@PAUClass_System_Object@@@Z 02050828 f   NetStack.obj
 0001:0004f854       ?m_HeadMatches@Class_SurrogateNetStack_Contracts_TcpConnectionContract_Exp@@SI_NPAU1@HPA_NPAPAUClass_System_Object@@@Z 02050854 f   NetStack.obj
 0001:0004f888       ?m_GetWaitHandle@Class_SurrogateNetStack_Contracts_TcpConnectionContract_Exp@@SI?AUStruct_Microsoft_Singularity_V1_Threads_SyncHandle@@PAU1@@Z 02050888 f   NetStack.obj
 0001:0004f8ac       ?m_Dispose@Class_SurrogateNetStack_Contracts_TcpConnectionContract_Exp@@SIXPAU1@@Z 020508ac f   NetStack.obj
 0001:0004f8d0       ?g__ctor@Class_SurrogateNetStack_Contracts_TcpConnectionContract_Exp@@SIXPAU1@PAUStruct_NetStack_Contracts_TcpConnectionContract_Exp@@@Z 020508d0 f   NetStack.obj
 0001:0004f8f8       ?m_StructCopy@Struct_NetStack_Contracts_TcpConnectionContract_PollRead@@SIXPAU1@0@Z 020508f8 f   NetStack.obj
 0001:0004f920       ?m_StructCopy@Struct_NetStack_Contracts_TcpConnectionContract_PollRead@@SIXPAU1@PAU1@@Z 02050920 f   NetStack.obj
 0001:0004f998       ?m_Equals@Struct_NetStack_Contracts_TcpConnectionContract_PollRead@@SI_NPAU1@PAUClass_System_Object@@@Z 02050998 f   NetStack.obj
 0001:0004f9e0       ?m_Equals@Struct_NetStack_Contracts_TcpConnectionContract_PollRead@@SI_NPAUClass_NetStack_Contracts_TcpConnectionContract_PollRead@@PAUClass_System_Object@@@Z 020509e0 f   NetStack.obj
 0001:0004fa0c       ?m_TxProvision@Class_NetStack_Channels_Nic_Nic@@SIXPAU1@@Z 02050a0c f   NetStack.obj
 0001:0004fafc       ?m_TxExchange@Class_NetStack_Channels_Nic_Nic@@SIXPAU1@@Z 02050afc f   NetStack.obj
 0001:0004fc50       ?m_ThreadMain@Class_NetStack_Channels_Nic_Nic@@SIXPAU1@@Z 02050c50 f   NetStack.obj
 0001:0004fc7c       ?m_StartIO@Class_NetStack_Channels_Nic_Nic@@SI_NPAU1@@Z 02050c7c f   NetStack.obj
 0001:0004fd4c       ?m_RxProvision@Class_NetStack_Channels_Nic_Nic@@SIXPAU1@@Z 02050d4c f   NetStack.obj
 0001:0004fe84       ?m_RxExchangeInternal@Class_NetStack_Channels_Nic_Nic@@SIXPAU1@PAUStruct_Microsoft_Singularity_Io_Net_NicDeviceContract_Imp@@@Z 02050e84 f   NetStack.obj
 0001:0004ffcc       ?m_RxExchange@Class_NetStack_Channels_Nic_Nic@@SIXPAU1@@Z 02050fcc f   NetStack.obj
 0001:00050034       ?m_NetStack_Common_IAdapter_PopulateTxRing@Class_NetStack_Channels_Nic_Nic@@SIXPAU1@PAUClassVector_Class_NetStack_Common_NetPacket@@I@Z 02051034 f   NetStack.obj
 0001:00050234       ?m_NetStack_Common_IAdapter_PopulateRxRing@Class_NetStack_Channels_Nic_Nic@@SIXPAU1@PAUClass_NetStack_Common_NetPacket@@@Z 02051234 f   NetStack.obj
 0001:00050308       ?m_NetStack_Common_IAdapter_GetWriteHandle@Class_NetStack_Channels_Nic_Nic@@SIPAUClass_System_Threading_WaitHandle@@PAU1@@Z 02051308 f   NetStack.obj
 0001:00050344       ?m_NetStack_Common_IAdapter_GetTransmittedPackets@Class_NetStack_Channels_Nic_Nic@@SIIPAU1@@Z 02051344 f   NetStack.obj
 0001:00050460       ?m_NetStack_Common_IAdapter_GetReceivedPackets@Class_NetStack_Channels_Nic_Nic@@SIXPAU1@PAUClass_System_Collections_Queue@@@Z 02051460 f   NetStack.obj
 0001:00050694       ?m_NetStack_Common_IAdapter_GetReadHandle@Class_NetStack_Channels_Nic_Nic@@SIPAUClass_System_Threading_WaitHandle@@PAU1@@Z 02051694 f   NetStack.obj
 0001:000506d0       ?m_NetStack_Common_IAdapter_get$_TxSlotsFree@Class_NetStack_Channels_Nic_Nic@@SIHPAU1@@Z 020516d0 f   NetStack.obj
 0001:00050788       ?m_NetStack_Common_IAdapter_get$_LinkSpeed@Class_NetStack_Channels_Nic_Nic@@SIIPAU1@@Z 02051788 f   NetStack.obj
 0001:000507c8       ?m_NetStack_Common_IAdapter_get$_HardwareAddress@Class_NetStack_Channels_Nic_Nic@@SI?AUStruct_Drivers_Net_EthernetAddress@@PAU1@@Z 020517c8 f   NetStack.obj
 0001:00050880       ?m_NetStack_Common_IAdapter_get$_DriverVersion@Class_NetStack_Channels_Nic_Nic@@SIPAUClass_System_String@@PAU1@@Z 02051880 f   NetStack.obj
 0001:000508bc       ?m_NetStack_Common_IAdapter_get$_DriverName@Class_NetStack_Channels_Nic_Nic@@SIPAUClass_System_String@@PAU1@@Z 020518bc f   NetStack.obj
 0001:000508f8       ?g_GetNicProperties@Class_NetStack_Channels_Nic_Nic@@SIPAUStruct_Microsoft_Singularity_Io_Net_NicDeviceProperties@@PAUStruct_Microsoft_Singularity_Io_Net_NicDeviceContract_Imp@@@Z 020518f8 f   NetStack.obj
 0001:000509c0       ?m_get$_MaxRxPackets@Class_NetStack_Channels_Nic_Nic@@SIHPAU1@@Z 020519c0 f   NetStack.obj
 0001:000509fc       ?m_EventMessagePump@Class_NetStack_Channels_Nic_Nic@@SIXPAU1@@Z 020519fc f   NetStack.obj
 0001:00050bf8       ?g_CreateAndRegister@Class_NetStack_Channels_Nic_Nic@@SI_NPAUStruct_Microsoft_Singularity_Io_Net_NicDeviceContract_Imp@@PAUClass_System_String@@@Z 02051bf8 f   NetStack.obj
 0001:00050e24       ?m_ConfigureEventChannel@Class_NetStack_Channels_Nic_Nic@@SI_NPAU1@PAUStruct_Microsoft_Singularity_Io_Net_NicDeviceContract_Imp@@@Z 02051e24 f   NetStack.obj
 0001:00050fc8       ?m_ConfigureChecksumProperties@Class_NetStack_Channels_Nic_Nic@@SI_NPAU1@PAUStruct_Microsoft_Singularity_Io_Net_NicDeviceContract_Imp@@@Z 02051fc8 f   NetStack.obj
 0001:000510f0       ?m_Configure@Class_NetStack_Channels_Nic_Nic@@SI_NPAU1@@Z 020520f0 f   NetStack.obj
 0001:00051200       ?m__ctor@Class_NetStack_Channels_Nic_Nic@@SIXPAU1@PAUStruct_Microsoft_Singularity_Io_Net_NicDeviceContract_Imp@@PAUStruct_Microsoft_Singularity_Io_Net_NicDeviceProperties@@@Z 02052200 f   NetStack.obj
 0001:00051600       ?g__cctor@Class_NetStack_Channels_Nic_Nic@@SIXXZ 02052600 f   NetStack.obj
 0001:000516c0       ?g_StableState@Class_NetStack_Contracts_DNSContract@@SIHPAUStruct_Microsoft_Singularity_Channels_StateStack@@@Z 020526c0 f   NetStack.obj
 0001:00051760       ?m__ctor@Class_NetStack_Contracts_DNSContract@@SIXPAU1@@Z 02052760 f   NetStack.obj
 0001:00051778       ?m__ctor@Class_System_Runtime_CompilerServices_NoStackOverflowCheckAttribute@@SIXPAU1@@Z 02052778 f   NetStack.obj
 0001:0005179c       ?m_ToString@Struct_System_Decimal@@SIPAUClass_System_String@@PAU1@@Z 0205279c f   NetStack.obj
 0001:000517c4       ?m_ToString@Struct_System_Decimal@@SIPAUClass_System_String@@PAU1@PAU2@@Z 020527c4 f   NetStack.obj
 0001:00051848       ?m_ToString@Struct_System_Decimal@@SIPAUClass_System_String@@PAUClass_System_Decimal@@@Z 02052848 f   NetStack.obj
 0001:00051890       ?m_ToString@Struct_System_Decimal@@SIPAUClass_System_String@@PAUClass_System_Decimal@@PAU2@@Z 02052890 f   NetStack.obj
 0001:000518dc       ?m_StructCopy@Struct_System_Decimal@@SIXPAU1@0@Z 020528dc f   NetStack.obj
 0001:00051928       ?m_StructCopy@Struct_System_Decimal@@SIXPAU1@PAU1@@Z 02052928 f   NetStack.obj
 0001:00051a0c       ?m_set$_mid32@Struct_System_Decimal@@SIXPAU1@I@Z 02052a0c f   NetStack.obj
 0001:00051a34       ?m_set$_lo32@Struct_System_Decimal@@SIXPAU1@I@Z 02052a34 f   NetStack.obj
 0001:00051a5c       ?m_set$_hi32@Struct_System_Decimal@@SIXPAU1@I@Z 02052a5c f   NetStack.obj
 0001:00051a84       ?m_GetHashCode@Struct_System_Decimal@@SIHPAU1@@Z 02052a84 f   NetStack.obj
 0001:00051ae4       ?m_GetHashCode@Struct_System_Decimal@@SIHPAUClass_System_Decimal@@@Z 02052ae4 f   NetStack.obj
 0001:00051b2c       ?m_get$_scale@Struct_System_Decimal@@SIEPAU1@@Z 02052b2c f   NetStack.obj
 0001:00051b50       ?m_get$_negative@Struct_System_Decimal@@SI_NPAU1@@Z 02052b50 f   NetStack.obj
 0001:00051b74       ?m_get$_mid32@Struct_System_Decimal@@SIIPAU1@@Z 02052b74 f   NetStack.obj
 0001:00051b94       ?m_get$_lo32@Struct_System_Decimal@@SIIPAU1@@Z 02052b94 f   NetStack.obj
 0001:00051bb4       ?m_get$_hi32@Struct_System_Decimal@@SIIPAU1@@Z 02052bb4 f   NetStack.obj
 0001:00051bd4       ?m_Equals@Struct_System_Decimal@@SI_NPAU1@PAUClass_System_Object@@@Z 02052bd4 f   NetStack.obj
 0001:00051ca8       ?m_Equals@Struct_System_Decimal@@SI_NPAUClass_System_Decimal@@PAUClass_System_Object@@@Z 02052ca8 f   NetStack.obj
 0001:00051cf4       ?m_CompareTo@Struct_System_Decimal@@SIHPAU1@PAUClass_System_Object@@@Z 02052cf4 f   NetStack.obj
 0001:00051df8       ?m_CompareTo@Struct_System_Decimal@@SIHPAUClass_System_Decimal@@PAUClass_System_Object@@@Z 02052df8 f   NetStack.obj
 0001:00051e44       ?g_Compare@Struct_System_Decimal@@SIHU1@0@Z 02052e44 f   NetStack.obj
 0001:00051e68       ?m__ctor@Struct_System_Decimal@@SIXPAU1@H@Z 02052e68 f   NetStack.obj
 0001:00051ec8       ?m__ctor@Struct_System_Decimal@@SIXPAU1@HHH_NE@Z 02052ec8 f   NetStack.obj
 0001:00051f58       ?g__cctor@Struct_System_Decimal@@SIXXZ 02052f58 f   NetStack.obj
 0001:000520e8       ?m_StructCopy@Struct_Microsoft_Singularity_Isal_SpillContext@@SIXPAU1@0@Z 020530e8 f   NetStack.obj
 0001:000521c4       ?m_StructCopy@Struct_Microsoft_Singularity_Isal_SpillContext@@SIXPAU1@PAU1@@Z 020531c4 f   NetStack.obj
 0001:00052458       ?m_Equals@Struct_Microsoft_Singularity_Isal_SpillContext@@SI_NPAU1@PAUClass_System_Object@@@Z 02053458 f   NetStack.obj
 0001:00052608       ?m_Equals@Struct_Microsoft_Singularity_Isal_SpillContext@@SI_NPAUClass_Microsoft_Singularity_Isal_SpillContext@@PAUClass_System_Object@@@Z 02053608 f   NetStack.obj
 0001:00052634       ?m_StructCopy@Struct_Microsoft_Singularity_Isal_IX_Gdtp@@SIXPAU1@0@Z 02053634 f   NetStack.obj
 0001:00052678       ?m_StructCopy@Struct_Microsoft_Singularity_Isal_IX_Gdtp@@SIXPAU1@PAU1@@Z 02053678 f   NetStack.obj
 0001:00052744       ?m_Equals@Struct_Microsoft_Singularity_Isal_IX_Gdtp@@SI_NPAU1@PAUClass_System_Object@@@Z 02053744 f   NetStack.obj
 0001:000527b4       ?m_Equals@Struct_Microsoft_Singularity_Isal_IX_Gdtp@@SI_NPAUClass_Microsoft_Singularity_Isal_IX_Gdtp@@PAUClass_System_Object@@@Z 020537b4 f   NetStack.obj
 0001:000527e0       ?m_StructCopy@Struct_Microsoft_Singularity_V1_Services_PlatformService@@SIXPAU1@0@Z 020537e0 f   NetStack.obj
 0001:000527fc       ?m_StructCopy@Struct_Microsoft_Singularity_V1_Services_PlatformService@@SIXPAU1@PAU1@@Z 020537fc f   NetStack.obj
 0001:00052850       ?m_Equals@Struct_Microsoft_Singularity_V1_Services_PlatformService@@SI_NPAU1@PAUClass_System_Object@@@Z 02053850 f   NetStack.obj
 0001:00052888       ?m_Equals@Struct_Microsoft_Singularity_V1_Services_PlatformService@@SI_NPAUClass_Microsoft_Singularity_V1_Services_PlatformService@@PAUClass_System_Object@@@Z 02053888 f   NetStack.obj
 0001:000528b4       ?m_StructCopy@Struct_Microsoft_Singularity_Io_Net_NicDeviceContract_AckStopIO@@SIXPAU1@0@Z 020538b4 f   NetStack.obj
 0001:000528d0       ?m_StructCopy@Struct_Microsoft_Singularity_Io_Net_NicDeviceContract_AckStopIO@@SIXPAU1@PAU1@@Z 020538d0 f   NetStack.obj
 0001:00052924       ?m_Equals@Struct_Microsoft_Singularity_Io_Net_NicDeviceContract_AckStopIO@@SI_NPAU1@PAUClass_System_Object@@@Z 02053924 f   NetStack.obj
 0001:0005295c       ?m_Equals@Struct_Microsoft_Singularity_Io_Net_NicDeviceContract_AckStopIO@@SI_NPAUClass_Microsoft_Singularity_Io_Net_NicDeviceContract_AckStopIO@@PAUClass_System_Object@@@Z 0205395c f   NetStack.obj
 0001:00052988       ?m_StructCopy@Struct_Microsoft_Singularity_Directory_DirectoryServiceContract_NakCreateFile@@SIXPAU1@0@Z 02053988 f   NetStack.obj
 0001:000529b0       ?m_StructCopy@Struct_Microsoft_Singularity_Directory_DirectoryServiceContract_NakCreateFile@@SIXPAU1@PAU1@@Z 020539b0 f   NetStack.obj
 0001:00052a28       ?m_Equals@Struct_Microsoft_Singularity_Directory_DirectoryServiceContract_NakCreateFile@@SI_NPAU1@PAUClass_System_Object@@@Z 02053a28 f   NetStack.obj
 0001:00052ac8       ?m_Equals@Struct_Microsoft_Singularity_Directory_DirectoryServiceContract_NakCreateFile@@SI_NPAUClass_Microsoft_Singularity_Directory_DirectoryServiceContract_NakCreateFile@@PAUClass_System_Object@@@Z 02053ac8 f   NetStack.obj
 0001:00052af4       ?m_Release@Class__NetStack_Channels_Nic_Microsoft_Singularity_Channels_TRef$_2$LMicrosoft_Singularity_Io_Net_NicDeviceContract_Imp_Microsoft_Singularity_Io_Net_NicDeviceContract_READY$G@@SIXPAU1@PAUStruct_Microsoft_Singularity_Io_Net_NicDeviceContract_Imp@@@Z 02053af4 f   NetStack.obj
 0001:00052b78       ?m_Finalize@Class__NetStack_Channels_Nic_Microsoft_Singularity_Channels_TRef$_2$LMicrosoft_Singularity_Io_Net_NicDeviceContract_Imp_Microsoft_Singularity_Io_Net_NicDeviceContract_READY$G@@SIXPAU1@@Z 02053b78 f   NetStack.obj
 0001:00052c04       ?m_Acquire@Class__NetStack_Channels_Nic_Microsoft_Singularity_Channels_TRef$_2$LMicrosoft_Singularity_Io_Net_NicDeviceContract_Imp_Microsoft_Singularity_Io_Net_NicDeviceContract_READY$G@@SIPAUStruct_Microsoft_Singularity_Io_Net_NicDeviceContract_Imp@@PAU1@@Z 02053c04 f   NetStack.obj
 0001:00052ca0       ?m__ctor@Class__NetStack_Channels_Nic_Microsoft_Singularity_Channels_TRef$_2$LMicrosoft_Singularity_Io_Net_NicDeviceContract_Imp_Microsoft_Singularity_Io_Net_NicDeviceContract_READY$G@@SIXPAU1@PAUStruct_Microsoft_Singularity_Io_Net_NicDeviceContract_Imp@@@Z 02053ca0 f   NetStack.obj
 0001:00052d44       ?m_StructCopy@Struct_NetStack_Contracts_TcpConnectionContract_NoData@@SIXPAU1@0@Z 02053d44 f   NetStack.obj
 0001:00052d60       ?m_StructCopy@Struct_NetStack_Contracts_TcpConnectionContract_NoData@@SIXPAU1@PAU1@@Z 02053d60 f   NetStack.obj
 0001:00052db4       ?m_MarshallContent@Struct_NetStack_Contracts_TcpConnectionContract_NoData@@SIXPAU1@PAEPAUStruct_Microsoft_Singularity_Channels_Endpoint@@1PAH@Z 02053db4 f   NetStack.obj
 0001:00052dd4       ?m_MarshallAll@Struct_NetStack_Contracts_TcpConnectionContract_NoData@@SIXPAU1@PAEPAUStruct_Microsoft_Singularity_Channels_Endpoint@@PAH@Z 02053dd4 f   NetStack.obj
 0001:00052e2c       ?m_Equals@Struct_NetStack_Contracts_TcpConnectionContract_NoData@@SI_NPAU1@PAUClass_System_Object@@@Z 02053e2c f   NetStack.obj
 0001:00052e64       ?m_Equals@Struct_NetStack_Contracts_TcpConnectionContract_NoData@@SI_NPAUClass_NetStack_Contracts_TcpConnectionContract_NoData@@PAUClass_System_Object@@@Z 02053e64 f   NetStack.obj
 0001:00052e90       ?m__ctor@Class_System_UpdateEnlistmentLog_LogChunk@@SIXPAU1@PAUClassVector_Struct_System_UpdateEnlistmentLog_Entry@@0@Z 02053e90 f   NetStack.obj
 0001:00052ecc       ?g_Verify@Struct_System_GCs_PageManager_UnusedBlockHeader@@SIXPAU1@@Z 02053ecc f   NetStack.obj
 0001:00053174       ?m_StructCopy@Struct_System_GCs_PageManager_UnusedBlockHeader@@SIXPAU1@0@Z 02054174 f   NetStack.obj
 0001:000531cc       ?m_StructCopy@Struct_System_GCs_PageManager_UnusedBlockHeader@@SIXPAU1@PAU1@@Z 020541cc f   NetStack.obj
 0001:000532d4       ?g_Remove@Struct_System_GCs_PageManager_UnusedBlockHeader@@SIPAUuintPtr@@PAU1@@Z 020542d4 f   NetStack.obj
 0001:0005339c       ?g_InsertNext@Struct_System_GCs_PageManager_UnusedBlockHeader@@SIXPAU1@0@Z 0205439c f   NetStack.obj
 0001:000533f8       ?g_Initialize@Struct_System_GCs_PageManager_UnusedBlockHeader@@SIXPAU1@PAUuintPtr@@@Z 020543f8 f   NetStack.obj
 0001:0005347c       ?m_Equals@Struct_System_GCs_PageManager_UnusedBlockHeader@@SI_NPAU1@PAUClass_System_Object@@@Z 0205447c f   NetStack.obj
 0001:00053500       ?m_Equals@Struct_System_GCs_PageManager_UnusedBlockHeader@@SI_NPAUClass_System_GCs_PageManager_UnusedBlockHeader@@PAUClass_System_Object@@@Z 02054500 f   NetStack.obj
 0001:0005352c       ?m_StructCopy@Struct_Microsoft_Singularity_Directory_DirectoryServiceContract_NakCreateLink@@SIXPAU1@0@Z 0205452c f   NetStack.obj
 0001:00053554       ?m_StructCopy@Struct_Microsoft_Singularity_Directory_DirectoryServiceContract_NakCreateLink@@SIXPAU1@PAU1@@Z 02054554 f   NetStack.obj
 0001:000535cc       ?m_Equals@Struct_Microsoft_Singularity_Directory_DirectoryServiceContract_NakCreateLink@@SI_NPAU1@PAUClass_System_Object@@@Z 020545cc f   NetStack.obj
 0001:0005366c       ?m_Equals@Struct_Microsoft_Singularity_Directory_DirectoryServiceContract_NakCreateLink@@SI_NPAUClass_Microsoft_Singularity_Directory_DirectoryServiceContract_NakCreateLink@@PAUClass_System_Object@@@Z 0205466c f   NetStack.obj
 0001:00053698       ?m_StructCopy@Struct_Microsoft_Singularity_Directory_DirectoryServiceContract_EnumerationTerminated@@SIXPAU1@0@Z 02054698 f   NetStack.obj
 0001:000536c0       ?m_StructCopy@Struct_Microsoft_Singularity_Directory_DirectoryServiceContract_EnumerationTerminated@@SIXPAU1@PAU1@@Z 020546c0 f   NetStack.obj
 0001:00053738       ?m_Equals@Struct_Microsoft_Singularity_Directory_DirectoryServiceContract_EnumerationTerminated@@SI_NPAU1@PAUClass_System_Object@@@Z 02054738 f   NetStack.obj
 0001:000537d8       ?m_Equals@Struct_Microsoft_Singularity_Directory_DirectoryServiceContract_EnumerationTerminated@@SI_NPAUClass_Microsoft_Singularity_Directory_DirectoryServiceContract_EnumerationTerminated@@PAUClass_System_Object@@@Z 020547d8 f   NetStack.obj
 0001:00053804       ?m_StructCopy@Struct_Microsoft_Singularity_Directory_DirectoryServiceContract_EndEnumeration@@SIXPAU1@0@Z 02054804 f   NetStack.obj
 0001:00053820       ?m_StructCopy@Struct_Microsoft_Singularity_Directory_DirectoryServiceContract_EndEnumeration@@SIXPAU1@PAU1@@Z 02054820 f   NetStack.obj
 0001:00053874       ?m_Equals@Struct_Microsoft_Singularity_Directory_DirectoryServiceContract_EndEnumeration@@SI_NPAU1@PAUClass_System_Object@@@Z 02054874 f   NetStack.obj
 0001:000538ac       ?m_Equals@Struct_Microsoft_Singularity_Directory_DirectoryServiceContract_EndEnumeration@@SI_NPAUClass_Microsoft_Singularity_Directory_DirectoryServiceContract_EndEnumeration@@PAUClass_System_Object@@@Z 020548ac f   NetStack.obj
 0001:000538d8       ?m_Visit@Class_System_GCs_MarkSweepCollector_UpdateReferenceVisitor@@SIXPAU1@PAPAUuintPtr@@@Z 020548d8 f   NetStack.obj
 0001:00053b80       ?m__ctor@Class_System_GCs_MarkSweepCollector_UpdateReferenceVisitor@@SIXPAU1@@Z 02054b80 f   NetStack.obj
 0001:00053ba4       ?m_StructCopy@Struct_NetStack_Contracts_DNSContract_RotateNameServers@@SIXPAU1@0@Z 02054ba4 f   NetStack.obj
 0001:00053bc0       ?m_StructCopy@Struct_NetStack_Contracts_DNSContract_RotateNameServers@@SIXPAU1@PAU1@@Z 02054bc0 f   NetStack.obj
 0001:00053c14       ?m_Equals@Struct_NetStack_Contracts_DNSContract_RotateNameServers@@SI_NPAU1@PAUClass_System_Object@@@Z 02054c14 f   NetStack.obj
 0001:00053c4c       ?m_Equals@Struct_NetStack_Contracts_DNSContract_RotateNameServers@@SI_NPAUClass_NetStack_Contracts_DNSContract_RotateNameServers@@PAUClass_System_Object@@@Z 02054c4c f   NetStack.obj
 0001:00053c78       ?m_StructCopy@Struct_NetStack_Contracts_UdpConnectionContract_Close@@SIXPAU1@0@Z 02054c78 f   NetStack.obj
 0001:00053c94       ?m_StructCopy@Struct_NetStack_Contracts_UdpConnectionContract_Close@@SIXPAU1@PAU1@@Z 02054c94 f   NetStack.obj
 0001:00053ce8       ?m_Equals@Struct_NetStack_Contracts_UdpConnectionContract_Close@@SI_NPAU1@PAUClass_System_Object@@@Z 02054ce8 f   NetStack.obj
 0001:00053d20       ?m_Equals@Struct_NetStack_Contracts_UdpConnectionContract_Close@@SI_NPAUClass_NetStack_Contracts_UdpConnectionContract_Close@@PAUClass_System_Object@@@Z 02054d20 f   NetStack.obj
 0001:00053d4c       ?m_StructCopy@Struct_NetStack_Contracts_UdpConnectionContract_Ready@@SIXPAU1@0@Z 02054d4c f   NetStack.obj
 0001:00053d68       ?m_StructCopy@Struct_NetStack_Contracts_UdpConnectionContract_Ready@@SIXPAU1@PAU1@@Z 02054d68 f   NetStack.obj
 0001:00053dbc       ?m_MarshallContent@Struct_NetStack_Contracts_UdpConnectionContract_Ready@@SIXPAU1@PAEPAUStruct_Microsoft_Singularity_Channels_Endpoint@@1PAH@Z 02054dbc f   NetStack.obj
 0001:00053ddc       ?m_MarshallAll@Struct_NetStack_Contracts_UdpConnectionContract_Ready@@SIXPAU1@PAEPAUStruct_Microsoft_Singularity_Channels_Endpoint@@PAH@Z 02054ddc f   NetStack.obj
 0001:00053e34       ?m_Equals@Struct_NetStack_Contracts_UdpConnectionContract_Ready@@SI_NPAU1@PAUClass_System_Object@@@Z 02054e34 f   NetStack.obj
 0001:00053e6c       ?m_Equals@Struct_NetStack_Contracts_UdpConnectionContract_Ready@@SI_NPAUClass_NetStack_Contracts_UdpConnectionContract_Ready@@PAUClass_System_Object@@@Z 02054e6c f   NetStack.obj
 0001:00053e98       ?m_StructCopy@Struct_System_Threading_SpinLock@@SIXPAU1@0@Z 02054e98 f   NetStack.obj
 0001:00053ec4       ?m_StructCopy@Struct_System_Threading_SpinLock@@SIXPAU1@PAU1@@Z 02054ec4 f   NetStack.obj
 0001:00053f48       ?m_ReleaseInternal@Struct_System_Threading_SpinLock@@SIXPAU1@PAUClass_System_Threading_Thread@@H@Z 02054f48 f   NetStack.obj
 0001:00053fc4       ?m_Release@Struct_System_Threading_SpinLock@@SIXPAU1@@Z 02054fc4 f   NetStack.obj
 0001:00054008       ?m_Release@Struct_System_Threading_SpinLock@@SIXPAU1@PAUClass_System_Threading_Thread@@@Z 02055008 f   NetStack.obj
 0001:00054040       ?m_Equals@Struct_System_Threading_SpinLock@@SI_NPAU1@PAUClass_System_Object@@@Z 02055040 f   NetStack.obj
 0001:00054104       ?m_Equals@Struct_System_Threading_SpinLock@@SI_NPAUClass_System_Threading_SpinLock@@PAUClass_System_Object@@@Z 02055104 f   NetStack.obj
 0001:00054130       ?m_AcquireInternal@Struct_System_Threading_SpinLock@@SIXPAU1@PAUClass_System_Threading_Thread@@H@Z 02055130 f   NetStack.obj
 0001:000541f8       ?m_Acquire@Struct_System_Threading_SpinLock@@SIXPAU1@@Z 020551f8 f   NetStack.obj
 0001:0005423c       ?m_Acquire@Struct_System_Threading_SpinLock@@SIXPAU1@PAUClass_System_Threading_Thread@@@Z 0205523c f   NetStack.obj
 0001:00054274       ?m_Start@Class_NetStack_Channels_Private_DNSExpConnection@@SIXPAU1@@Z 02055274 f   NetStack.obj
 0001:000542fc       ?m_Run@Class_NetStack_Channels_Private_DNSExpConnection@@SIXPAU1@@Z 020552fc f   NetStack.obj
 0001:00054c54       ?m__ctor@Class_NetStack_Channels_Private_DNSExpConnection@@SIXPAU1@PAUStruct_NetStack_Contracts_DNSContract_Exp@@@Z 02055c54 f   NetStack.obj
 0001:00054cfc       ?g__cctor@Class_NetStack_Channels_Private_DNSExpConnection@@SIXXZ 02055cfc f   NetStack.obj
 0001:00054df8       ?m_StructCopy@Struct_Microsoft_Singularity_Directory_DirectoryServiceContract_NakDeleteDirectoryReparse@@SIXPAU1@0@Z 02055df8 f   NetStack.obj
 0001:00054e38       ?m_StructCopy@Struct_Microsoft_Singularity_Directory_DirectoryServiceContract_NakDeleteDirectoryReparse@@SIXPAU1@PAU1@@Z 02055e38 f   NetStack.obj
 0001:00054ef8       ?m_Equals@Struct_Microsoft_Singularity_Directory_DirectoryServiceContract_NakDeleteDirectoryReparse@@SI_NPAU1@PAUClass_System_Object@@@Z 02055ef8 f   NetStack.obj
 0001:00054f60       ?m_Equals@Struct_Microsoft_Singularity_Directory_DirectoryServiceContract_NakDeleteDirectoryReparse@@SI_NPAUClass_Microsoft_Singularity_Directory_DirectoryServiceContract_NakDeleteDirectoryReparse@@PAUClass_System_Object@@@Z 02055f60 f   NetStack.obj
 0001:00054f8c       ?m__ctor@Class_NetStack_Protocols_Dns_InvalidDnsFormatException@@SIXPAU1@PAUClass_System_String@@@Z 02055f8c f   NetStack.obj
 0001:00054fb4       ?m_StructCopy@Struct_NetStack_Contracts_TcpContract_Ready@@SIXPAU1@0@Z 02055fb4 f   NetStack.obj
 0001:00054fd0       ?m_StructCopy@Struct_NetStack_Contracts_TcpContract_Ready@@SIXPAU1@PAU1@@Z 02055fd0 f   NetStack.obj
 0001:00055024       ?m_MarshallContent@Struct_NetStack_Contracts_TcpContract_Ready@@SIXPAU1@PAEPAUStruct_Microsoft_Singularity_Channels_Endpoint@@1PAH@Z 02056024 f   NetStack.obj
 0001:00055044       ?m_MarshallAll@Struct_NetStack_Contracts_TcpContract_Ready@@SIXPAU1@PAEPAUStruct_Microsoft_Singularity_Channels_Endpoint@@PAH@Z 02056044 f   NetStack.obj
 0001:0005509c       ?m_Equals@Struct_NetStack_Contracts_TcpContract_Ready@@SI_NPAU1@PAUClass_System_Object@@@Z 0205609c f   NetStack.obj
 0001:000550d4       ?m_Equals@Struct_NetStack_Contracts_TcpContract_Ready@@SI_NPAUClass_NetStack_Contracts_TcpContract_Ready@@PAUClass_System_Object@@@Z 020560d4 f   NetStack.obj
 0001:00055100       ?m_StructCopy@Struct_Microsoft_Singularity_Directory_DirectoryServiceContract_NakBind@@SIXPAU1@0@Z 02056100 f   NetStack.obj
 0001:00055134       ?m_StructCopy@Struct_Microsoft_Singularity_Directory_DirectoryServiceContract_NakBind@@SIXPAU1@PAU1@@Z 02056134 f   NetStack.obj
 0001:000551d0       ?m_Equals@Struct_Microsoft_Singularity_Directory_DirectoryServiceContract_NakBind@@SI_NPAU1@PAUClass_System_Object@@@Z 020561d0 f   NetStack.obj
 0001:00055284       ?m_Equals@Struct_Microsoft_Singularity_Directory_DirectoryServiceContract_NakBind@@SI_NPAUClass_Microsoft_Singularity_Directory_DirectoryServiceContract_NakBind@@PAUClass_System_Object@@@Z 02056284 f   NetStack.obj
 0001:000552b0       ?m_StructCopy@Struct_Microsoft_Singularity_Io_Net_NicDeviceContract_TakeTxPacketsFromDevice@@SIXPAU1@0@Z 020562b0 f   NetStack.obj
 0001:000552d8       ?m_StructCopy@Struct_Microsoft_Singularity_Io_Net_NicDeviceContract_TakeTxPacketsFromDevice@@SIXPAU1@PAU1@@Z 020562d8 f   NetStack.obj
 0001:00055350       ?m_Equals@Struct_Microsoft_Singularity_Io_Net_NicDeviceContract_TakeTxPacketsFromDevice@@SI_NPAU1@PAUClass_System_Object@@@Z 02056350 f   NetStack.obj
 0001:00055398       ?m_Equals@Struct_Microsoft_Singularity_Io_Net_NicDeviceContract_TakeTxPacketsFromDevice@@SI_NPAUClass_Microsoft_Singularity_Io_Net_NicDeviceContract_TakeTxPacketsFromDevice@@PAUClass_System_Object@@@Z 02056398 f   NetStack.obj
 0001:000553c4       ?m_Verify@Class_System_GCs_Verifier_GenericStackVerifier@@SIXPAU1@PAUClass_System_GCs_NonNullReferenceVisitor@@PAUClass_System_Threading_Thread@@@Z 020563c4 f   NetStack.obj
 0001:000553f4       ?m__ctor@Class_System_GCs_Verifier_GenericStackVerifier@@SIXPAU1@@Z 020563f4 f   NetStack.obj
 0001:00055418       ?g_ProbeNic@Class_NetStack_Channels_Nic_NicFactory@@SIXPAUStruct_Microsoft_Singularity_Directory_DirectoryServiceContract_Imp@@H@Z 02056418 f   NetStack.obj
 0001:0005556c       ?g_Probe@Class_NetStack_Channels_Nic_NicFactory@@SIXXZ 0205656c f   NetStack.obj
 0001:00055630       ?m__ctor@Class_NetStack_Channels_Nic_NicFactory@@SIXPAU1@@Z 02056630 f   NetStack.obj
 0001:00055648       ?m_StructCopy@Struct_NetStack_Contracts_TcpConnectionContract_Data@@SIXPAU1@0@Z 02056648 f   NetStack.obj
 0001:00055670       ?m_StructCopy@Struct_NetStack_Contracts_TcpConnectionContract_Data@@SIXPAU1@PAU1@@Z 02056670 f   NetStack.obj
 0001:000556e8       ?m_MarshallContent@Struct_NetStack_Contracts_TcpConnectionContract_Data@@SIXPAU1@PAEPAUStruct_Microsoft_Singularity_Channels_Endpoint@@1PAH@Z 020566e8 f   NetStack.obj
 0001:00055790       ?m_MarshallAll@Struct_NetStack_Contracts_TcpConnectionContract_Data@@SIXPAU1@PAEPAUStruct_Microsoft_Singularity_Channels_Endpoint@@PAH@Z 02056790 f   NetStack.obj
 0001:000557e8       ?m_Equals@Struct_NetStack_Contracts_TcpConnectionContract_Data@@SI_NPAU1@PAUClass_System_Object@@@Z 020567e8 f   NetStack.obj
 0001:00055830       ?m_Equals@Struct_NetStack_Contracts_TcpConnectionContract_Data@@SI_NPAUClass_NetStack_Contracts_TcpConnectionContract_Data@@PAUClass_System_Object@@@Z 02056830 f   NetStack.obj
 0001:0005585c       ?m__ctor@Class_Microsoft_Contracts_NullException@@SIXPAU1@@Z 0205685c f   NetStack.obj
 0001:00055880       ?m_get$_IPConfiguration@Class_NetStack_Runtime_IPBinding@@SIPAUClass_NetStack_Runtime_InterfaceIPConfiguration@@PAU1@@Z 02056880 f   NetStack.obj
 0001:000558bc       ?m_get$_Adapter@Class_NetStack_Runtime_IPBinding@@SIPAUClass_NetStack_Common_IAdapter@@PAU1@@Z 020568bc f   NetStack.obj
 0001:000558f8       ?m__ctor@Class_NetStack_Runtime_IPBinding@@SIXPAU1@PAUClass_NetStack_Common_IAdapter@@PAUClass_NetStack_Runtime_InterfaceIPConfiguration@@@Z 020568f8 f   NetStack.obj
 0001:00055928       ?m_MoveNext@Class_System_Collections_Stack_StackEnumerator@@SI_NPAU1@@Z 02056928 f   NetStack.obj
 0001:00055a14       ?m_get$_Current@Class_System_Collections_Stack_StackEnumerator@@SIPAUClass_System_Object@@PAU1@@Z 02056a14 f   NetStack.obj
 0001:00055a8c       ?m__ctor@Class_System_Collections_Stack_StackEnumerator@@SIXPAU1@PAUClass_System_Collections_Stack@@@Z 02056a8c f   NetStack.obj
 0001:00055ad4       ?m_Register@Class_NetStack_Runtime_TcpSessionEventsSource@@SI_NPAU1@@Z 02056ad4 f   NetStack.obj
 0001:000561cc       ?m_LogTimeout@Class_NetStack_Runtime_TcpSessionEventsSource@@SI_NPAU1@IUStruct_NetStack_Runtime_TcpStateEnum@@UStruct_NetStack_Runtime_TcpSession_TcpTimeoutType@@@Z 020571cc f   NetStack.obj
 0001:000563b8       ?m_LogSessionStateChangeContractCall@Class_NetStack_Runtime_TcpSessionEventsSource@@SI_NPAU1@IUStruct_NetStack_Runtime_TcpStateEnum@@UStruct_NetStack_Runtime_TcpSessionEventsSource_TcpSessionContractEntrypoints@@@Z 020573b8 f   NetStack.obj
 0001:00056404       ?m_LogSessionStateChange@Class_NetStack_Runtime_TcpSessionEventsSource@@SI_NPAU1@IUStruct_NetStack_Runtime_TcpStateEnum@@1@Z 02057404 f   NetStack.obj
 0001:000565d4       ?m_LogSessionQueryContractCall@Class_NetStack_Runtime_TcpSessionEventsSource@@SI_NPAU1@IUStruct_NetStack_Runtime_TcpStateEnum@@UStruct_NetStack_Runtime_TcpSessionEventsSource_TcpSessionContractEntrypoints@@@Z 020575d4 f   NetStack.obj
 0001:00056620       ?m_LogSessionInfoContractCall@Class_NetStack_Runtime_TcpSessionEventsSource@@SI_NPAU1@IUStruct_NetStack_Runtime_TcpStateEnum@@UStruct_NetStack_Runtime_TcpSessionEventsSource_TcpSessionContractEntrypoints@@@Z 02057620 f   NetStack.obj
 0001:0005666c       ?m_LogSessionDataTransferContractCall@Class_NetStack_Runtime_TcpSessionEventsSource@@SI_NPAU1@IUStruct_NetStack_Runtime_TcpStateEnum@@UStruct_NetStack_Runtime_TcpSessionEventsSource_TcpSessionContractEntrypoints@@@Z 0205766c f   NetStack.obj
 0001:000566b8       ?m_LogSessionContractCall@Class_NetStack_Runtime_TcpSessionEventsSource@@SI_NPAU1@IUStruct_NetStack_Runtime_TcpStateEnum@@UStruct_NetStack_Runtime_TcpSessionEventsSource_TcpSessionContractEntrypoints@@I@Z 020576b8 f   NetStack.obj
 0001:00056888       ?m_LogSendingPacket@Class_NetStack_Runtime_TcpSessionEventsSource@@SI_NPAU1@IUStruct_NetStack_Runtime_TcpStateEnum@@II@Z 02057888 f   NetStack.obj
 0001:00056d9c       ?m_LogReceivedPacket@Class_NetStack_Runtime_TcpSessionEventsSource@@SI_NPAU1@IUStruct_NetStack_Runtime_TcpStateEnum@@II@Z 02057d9c f   NetStack.obj
 0001:000572b0       ?g_FlagsToText@Class_NetStack_Runtime_TcpSessionEventsSource@@SIPAUClass_System_String@@I@Z 020582b0 f   NetStack.obj
 0001:000577cc       ?m_Finalize@Class_NetStack_Runtime_TcpSessionEventsSource@@SIXPAU1@@Z 020587cc f   NetStack.obj
 0001:000577f4       ?g_Create@Class_NetStack_Runtime_TcpSessionEventsSource@@SIPAU1@PAUClass_System_String@@IIII@Z 020587f4 f   NetStack.obj
 0001:000578f4       ?m__ctor@Class_NetStack_Runtime_TcpSessionEventsSource@@SIXPAU1@PAUClass_System_String@@PAUClass_Microsoft_Singularity_Eventing_EventingStorage@@II@Z 020588f4 f   NetStack.obj
 0001:00057930       ?g__cctor@Class_NetStack_Runtime_TcpSessionEventsSource@@SIXXZ 02058930 f   NetStack.obj
 0001:00057b04       ?m_Resolve@Class_NetStack_Runtime_BasicDnsClient@@SI?AUStruct_NetStack_Runtime_BasicDnsClient_StatusCode@@PAU1@PAUClass_System_String@@PAPAUClass_System_Net_IP_IPv4HostEntry@@@Z 02058b04 f   NetStack.obj
 0001:00057c24       ?m_GetHostByName@Class_NetStack_Runtime_BasicDnsClient@@SI?AUStruct_NetStack_Runtime_BasicDnsClient_StatusCode@@PAU1@PAUClass_System_String@@PAPAUClass_System_Net_IP_IPv4HostEntry@@@Z 02058c24 f   NetStack.obj
 0001:0005808c       ?m_GetHostByAddress@Class_NetStack_Runtime_BasicDnsClient@@SI?AUStruct_NetStack_Runtime_BasicDnsClient_StatusCode@@PAU1@UStruct_System_Net_IP_IPv4@@PAPAUClass_System_Net_IP_IPv4HostEntry@@@Z 0205908c f   NetStack.obj
 0001:000584a0       ?m_get$_DnsServer@Class_NetStack_Runtime_BasicDnsClient@@SI?AUStruct_System_Net_IP_IPv4@@PAU1@@Z 020594a0 f   NetStack.obj
 0001:0005858c       ?m_AskDnsServer@Class_NetStack_Runtime_BasicDnsClient@@SI?AUStruct_NetStack_Runtime_BasicDnsClient_StatusCode@@PAU1@UStruct_System_Net_IP_IPv4@@PAUClassVector_uint8@@PAPAU4@@Z 0205958c f   NetStack.obj
 0001:0005870c       ?m_Ask@Class_NetStack_Runtime_BasicDnsClient@@SI?AUStruct_NetStack_Runtime_BasicDnsClient_StatusCode@@PAU1@UStruct_System_Net_IP_IPv4@@PAUClassVector_Class_NetStack_Protocols_Dns_Query@@PAPAUClass_NetStack_Protocols_Dns_Format@@@Z 0205970c f   NetStack.obj
 0001:000588c0       ?m_Ask@Class_NetStack_Runtime_BasicDnsClient@@SI?AUStruct_NetStack_Runtime_BasicDnsClient_StatusCode@@PAU1@UStruct_System_Net_IP_IPv4@@PAUClass_NetStack_Protocols_Dns_Query@@PAPAUClass_NetStack_Protocols_Dns_Format@@@Z 020598c0 f   NetStack.obj
 0001:00058924       ?m__ctor@Class_NetStack_Runtime_BasicDnsClient@@SIXPAU1@@Z 02059924 f   NetStack.obj
 0001:00058964       ?m__ctor@Class_NetStack_Runtime_BasicDnsClient@@SIXPAU1@UStruct_System_Net_IP_IPv4@@@Z 02059964 f   NetStack.obj
 0001:000589d0       ?m_StructCopy@Struct_Microsoft_Singularity_Directory_DirectoryServiceContract_CreateLink@@SIXPAU1@0@Z 020599d0 f   NetStack.obj
 0001:00058a04       ?m_StructCopy@Struct_Microsoft_Singularity_Directory_DirectoryServiceContract_CreateLink@@SIXPAU1@PAU1@@Z 02059a04 f   NetStack.obj
 0001:00058aa0       ?m_Equals@Struct_Microsoft_Singularity_Directory_DirectoryServiceContract_CreateLink@@SI_NPAU1@PAUClass_System_Object@@@Z 02059aa0 f   NetStack.obj
 0001:00058afc       ?m_Equals@Struct_Microsoft_Singularity_Directory_DirectoryServiceContract_CreateLink@@SI_NPAUClass_Microsoft_Singularity_Directory_DirectoryServiceContract_CreateLink@@PAUClass_System_Object@@@Z 02059afc f   NetStack.obj
 0001:00058b28       ?m_StructCopy@Struct_Microsoft_Singularity_V1_Threads_ManualResetEventHandle@@SIXPAU1@0@Z 02059b28 f   NetStack.obj
 0001:00058b50       ?m_StructCopy@Struct_Microsoft_Singularity_V1_Threads_ManualResetEventHandle@@SIXPAU1@PAU1@@Z 02059b50 f   NetStack.obj
 0001:00058bc8       ?m_Equals@Struct_Microsoft_Singularity_V1_Threads_ManualResetEventHandle@@SI_NPAU1@PAUClass_System_Object@@@Z 02059bc8 f   NetStack.obj
 0001:00058c10       ?m_Equals@Struct_Microsoft_Singularity_V1_Threads_ManualResetEventHandle@@SI_NPAUClass_Microsoft_Singularity_V1_Threads_ManualResetEventHandle@@PAUClass_System_Object@@@Z 02059c10 f   NetStack.obj
 0001:00058c3c       ?g_Create@Struct_Microsoft_Singularity_V1_Threads_ManualResetEventHandle@@SI_N_NPAU1@@Z 02059c3c f   NetStack.obj
 0001:00058c88       ?m__ctor@Class_System_Runtime_CompilerServices_ExternalEntryPointAttribute@@SIXPAU1@@Z 02059c88 f   NetStack.obj
 0001:00058cac       ?m_set$_Value@Class_System_MutableInt32@@SIXPAU1@H@Z 02059cac f   NetStack.obj
 0001:00058cd4       ?m_get$_Value@Class_System_MutableInt32@@SIHPAU1@@Z 02059cd4 f   NetStack.obj
 0001:00058cf4       ?m__ctor@Class_System_MutableInt32@@SIXPAU1@H@Z 02059cf4 f   NetStack.obj
 0001:00058d1c       ?m__ctor@Class_System_GCs_Verifier_StackVerifier@@SIXPAU1@@Z 02059d1c f   NetStack.obj
 0001:00058d38       ?m_Stop@Class_NetStack_Runtime_Dispatcher@@SIXPAU1@@Z 02059d38 f   NetStack.obj
 0001:00058d64       ?m_RemoveTimeoutCallback@Class_NetStack_Runtime_Dispatcher@@SI_NPAU1@PAUClass_RJBlack_Timer@@@Z 02059d64 f   NetStack.obj
 0001:00058de0       ?m_Execute@Class_NetStack_Runtime_Dispatcher@@SIXPAU1@@Z 02059de0 f   NetStack.obj
 0001:000595dc       ?m_AddCallback@Class_NetStack_Runtime_Dispatcher@@SIXPAU1@PAUClass_NetStack_Runtime_Dispatcher_Callback@@PAUClass_NetStack_Runtime_Dispatcher_CallbackArgs@@@Z 0205a5dc f   NetStack.obj
 0001:00059664       ?m_AddCallback@Class_NetStack_Runtime_Dispatcher@@SIPAUClass_RJBlack_Timer@@PAU1@PAUClass_NetStack_Runtime_Dispatcher_Callback@@PAUClass_NetStack_Runtime_Dispatcher_CallbackArgs@@_K@Z 0205a664 f   NetStack.obj
 0001:00059724       ?m_AddCallback@Class_NetStack_Runtime_Dispatcher@@SIXPAU1@PAUClass_NetStack_Runtime_Dispatcher_Callback@@PAUClass_NetStack_Runtime_Dispatcher_CallbackArgs@@PAUClass_System_Threading_WaitHandle@@@Z 0205a724 f   NetStack.obj
 0001:000598b4       ?m__ctor@Class_NetStack_Runtime_Dispatcher@@SIXPAU1@@Z 0205a8b4 f   NetStack.obj
 0001:00059a74       ?m_StructCopy@Struct_Microsoft_Singularity_Directory_DirectoryServiceContract_NakDeleteLink@@SIXPAU1@0@Z 0205aa74 f   NetStack.obj
 0001:00059a9c       ?m_StructCopy@Struct_Microsoft_Singularity_Directory_DirectoryServiceContract_NakDeleteLink@@SIXPAU1@PAU1@@Z 0205aa9c f   NetStack.obj
 0001:00059b14       ?m_Equals@Struct_Microsoft_Singularity_Directory_DirectoryServiceContract_NakDeleteLink@@SI_NPAU1@PAUClass_System_Object@@@Z 0205ab14 f   NetStack.obj
 0001:00059bb4       ?m_Equals@Struct_Microsoft_Singularity_Directory_DirectoryServiceContract_NakDeleteLink@@SI_NPAUClass_Microsoft_Singularity_Directory_DirectoryServiceContract_NakDeleteLink@@PAUClass_System_Object@@@Z 0205abb4 f   NetStack.obj
 0001:00059be0       ?m_WaitOne@Class_System_Threading_Mutex@@SI_NPAU1@@Z 0205abe0 f   NetStack.obj
 0001:00059c54       ?m_WaitOne@Class_System_Threading_Mutex@@SI_NPAU1@UStruct_System_TimeSpan@@@Z 0205ac54 f   NetStack.obj
 0001:00059cdc       ?m_WaitOne@Class_System_Threading_Mutex@@SI_NPAU1@UStruct_System_SchedulerTime@@@Z 0205acdc f   NetStack.obj
 0001:00059d64       ?m_ReleaseMutex@Class_System_Threading_Mutex@@SIXPAU1@@Z 0205ad64 f   NetStack.obj
 0001:00059d9c       ?m_IsOwnedByCurrentThread@Class_System_Threading_Mutex@@SI_NPAU1@@Z 0205ad9c f   NetStack.obj
 0001:00059de8       ?m_get$_Handle@Class_System_Threading_Mutex@@SI?AUStruct_Microsoft_Singularity_V1_Threads_SyncHandle@@PAU1@@Z 0205ade8 f   NetStack.obj
 0001:00059e34       ?m_Finalize@Class_System_Threading_Mutex@@SIXPAU1@@Z 0205ae34 f   NetStack.obj
 0001:00059e98       ?m_Dispose@Class_System_Threading_Mutex@@SIXPAU1@_N@Z 0205ae98 f   NetStack.obj
 0001:00059ee4       ?m_AcquireMutex@Class_System_Threading_Mutex@@SI_NPAU1@@Z 0205aee4 f   NetStack.obj
 0001:00059f08       ?m_AcquireMutex@Class_System_Threading_Mutex@@SI_NPAU1@UStruct_System_SchedulerTime@@@Z 0205af08 f   NetStack.obj
 0001:00059f48       ?m__ctor@Class_System_Threading_Mutex@@SIXPAU1@@Z 0205af48 f   NetStack.obj
 0001:00059fb0       ?g_Parse@Class_NetStack_Protocols_DhcpDWordOption@@SIPAUClass_NetStack_Protocols_IDhcpOption@@EEPAUClassVector_uint8@@H@Z 0205afb0 f   NetStack.obj
 0001:0005a130       ?m_Pack@Class_NetStack_Protocols_DhcpDWordOption@@SIHPAU1@PAUClassVector_uint8@@PAH@Z 0205b130 f   NetStack.obj
 0001:0005a344       ?m_get$_Value@Class_NetStack_Protocols_DhcpDWordOption@@SIIPAU1@@Z 0205b344 f   NetStack.obj
 0001:0005a380       ?m_get$_PayloadLength@Class_NetStack_Protocols_DhcpDWordOption@@SIHPAU1@@Z 0205b380 f   NetStack.obj
 0001:0005a3c0       ?m__ctor@Class_NetStack_Protocols_DhcpDWordOption@@SIXPAU1@EI@Z 0205b3c0 f   NetStack.obj
 0001:0005a3f0       ?g_LoopInvariant@Class_Microsoft_Contracts_AssertHelpers@@SIXPAUClass_System_String@@0@Z 0205b3f0 f   NetStack.obj
 0001:0005a40c       ?g_AssumeStatement@Class_Microsoft_Contracts_AssertHelpers@@SIXPAUClass_System_String@@@Z 0205b40c f   NetStack.obj
 0001:0005a428       ?g_Assume@Class_Microsoft_Contracts_AssertHelpers@@SIX_N@Z 0205b428 f   NetStack.obj
 0001:0005a46c       ?g_AssertStatement@Class_Microsoft_Contracts_AssertHelpers@@SIXPAUClass_System_String@@0@Z 0205b46c f   NetStack.obj
 0001:0005a488       ?g_Assert@Class_Microsoft_Contracts_AssertHelpers@@SIX_N@Z 0205b488 f   NetStack.obj
 0001:0005a4cc       ?m__ctor@Class_Microsoft_Contracts_AssertHelpers@@SIXPAU1@@Z 0205b4cc f   NetStack.obj
 0001:0005a4e4       ?m_StructCopy@Struct_Microsoft_Singularity_Directory_DirectoryServiceContract_StoreACL@@SIXPAU1@0@Z 0205b4e4 f   NetStack.obj
 0001:0005a524       ?m_StructCopy@Struct_Microsoft_Singularity_Directory_DirectoryServiceContract_StoreACL@@SIXPAU1@PAU1@@Z 0205b524 f   NetStack.obj
 0001:0005a5e4       ?m_Equals@Struct_Microsoft_Singularity_Directory_DirectoryServiceContract_StoreACL@@SI_NPAU1@PAUClass_System_Object@@@Z 0205b5e4 f   NetStack.obj
 0001:0005a64c       ?m_Equals@Struct_Microsoft_Singularity_Directory_DirectoryServiceContract_StoreACL@@SI_NPAUClass_Microsoft_Singularity_Directory_DirectoryServiceContract_StoreACL@@PAUClass_System_Object@@@Z 0205b64c f   NetStack.obj
 0001:0005a678       ?m__ctor@Class_System_GCs_StopTheWorldGCData@@SIXPAU1@@Z 0205b678 f   NetStack.obj
 0001:0005a690       ?m_StopModule@Class_NetStack_Runtime_UdpModule@@SI_NPAU1@@Z 0205b690 f   NetStack.obj
 0001:0005a6c0       ?m_StartModule@Class_NetStack_Runtime_UdpModule@@SI_NPAU1@@Z 0205b6c0 f   NetStack.obj
 0001:0005a74c       ?m_OnProtocolSend@Class_NetStack_Runtime_UdpModule@@SI?AUStruct_NetStack_Runtime_NetStatus@@PAU1@PAUClass_NetStack_Common_NetPacket@@@Z 0205b74c f   NetStack.obj
 0001:0005a7ac       ?m_OnProtocolReceive@Class_NetStack_Runtime_UdpModule@@SI?AUStruct_NetStack_Runtime_NetStatus@@PAU1@PAUClass_NetStack_Common_NetPacket@@@Z 0205b7ac f   NetStack.obj
 0001:0005abdc       ?m_NetStack_Runtime_INetModule_get$_ModuleName@Class_NetStack_Runtime_UdpModule@@SIPAUClass_System_String@@PAU1@@Z 0205bbdc f   NetStack.obj
 0001:0005ac1c       ?m_Initialize@Class_NetStack_Runtime_UdpModule@@SI_NPAU1@PAUClass_NetStack_Runtime_ProtocolParams@@@Z 0205bc1c f   NetStack.obj
 0001:0005ac74       ?m_GetProtocolID@Class_NetStack_Runtime_UdpModule@@SIGPAU1@@Z 0205bc74 f   NetStack.obj
 0001:0005acb4       ?m_CreateSession@Class_NetStack_Runtime_UdpModule@@SIPAUClass_NetStack_Runtime_Session@@PAU1@@Z 0205bcb4 f   NetStack.obj
 0001:0005ad60       ?m_CreateBoundSession@Class_NetStack_Runtime_UdpModule@@SIPAUClass_NetStack_Runtime_UdpSession@@PAU1@UStruct_System_Net_IP_IPv4@@G1G@Z 0205bd60 f   NetStack.obj
 0001:0005ae38       ?m__ctor@Class_NetStack_Runtime_UdpModule@@SIXPAU1@@Z 0205be38 f   NetStack.obj
 0001:0005ae58       ?m_StructCopy@Struct_Microsoft_Singularity_Isal_IX_MmxContext@@SIXPAU1@0@Z 0205be58 f   NetStack.obj
 0001:0005b1a0       ?m_StructCopy@Struct_Microsoft_Singularity_Isal_IX_MmxContext@@SIXPAU1@PAU1@@Z 0205c1a0 f   NetStack.obj
 0001:0005bb78       ?m_Equals@Struct_Microsoft_Singularity_Isal_IX_MmxContext@@SI_NPAU1@PAUClass_System_Object@@@Z 0205cb78 f   NetStack.obj
 0001:0005cf98       ?m_Equals@Struct_Microsoft_Singularity_Isal_IX_MmxContext@@SI_NPAUClass_Microsoft_Singularity_Isal_IX_MmxContext@@PAUClass_System_Object@@@Z 0205df98 f   NetStack.obj
 0001:0005cfc4       ?m_ToString@uintPtr@@SIPAUClass_System_String@@PAPAU1@@Z 0205dfc4 f   NetStack.obj
 0001:0005cff8       ?m_ToString@uintPtr@@SIPAUClass_System_String@@PAPAU1@PAU2@@Z 0205dff8 f   NetStack.obj
 0001:0005d030       ?m_ToString@uintPtr@@SIPAUClass_System_String@@PAUClass_System_UIntPtr@@@Z 0205e030 f   NetStack.obj
 0001:0005d084       ?m_ToString@uintPtr@@SIPAUClass_System_String@@PAUClass_System_UIntPtr@@PAU2@@Z 0205e084 f   NetStack.obj
 0001:0005d0dc       ?m_GetHashCode@uintPtr@@SIHPAPAU1@@Z 0205e0dc f   NetStack.obj
 0001:0005d100       ?m_GetHashCode@uintPtr@@SIHPAUClass_System_UIntPtr@@@Z 0205e100 f   NetStack.obj
 0001:0005d13c       ?m_Equals@uintPtr@@SI_NPAPAU1@PAUClass_System_Object@@@Z 0205e13c f   NetStack.obj
 0001:0005d198       ?m_Equals@uintPtr@@SI_NPAUClass_System_UIntPtr@@PAUClass_System_Object@@@Z 0205e198 f   NetStack.obj
 0001:0005d220       ?m_StructCopy@Struct_Microsoft_Singularity_Directory_DirectoryServiceContract_NakGetLinkValue@@SIXPAU1@0@Z 0205e220 f   NetStack.obj
 0001:0005d248       ?m_StructCopy@Struct_Microsoft_Singularity_Directory_DirectoryServiceContract_NakGetLinkValue@@SIXPAU1@PAU1@@Z 0205e248 f   NetStack.obj
 0001:0005d2c0       ?m_Equals@Struct_Microsoft_Singularity_Directory_DirectoryServiceContract_NakGetLinkValue@@SI_NPAU1@PAUClass_System_Object@@@Z 0205e2c0 f   NetStack.obj
 0001:0005d360       ?m_Equals@Struct_Microsoft_Singularity_Directory_DirectoryServiceContract_NakGetLinkValue@@SI_NPAUClass_Microsoft_Singularity_Directory_DirectoryServiceContract_NakGetLinkValue@@PAUClass_System_Object@@@Z 0205e360 f   NetStack.obj
 0001:0005d38c       ?g_StableState@Class_Microsoft_Singularity_Directory_ServiceProviderContract@@SIHPAUStruct_Microsoft_Singularity_Channels_StateStack@@@Z 0205e38c f   NetStack.obj
 0001:0005d3e8       ?g_NewChannel@Class_Microsoft_Singularity_Directory_ServiceProviderContract@@SIXPAPAUStruct_Microsoft_Singularity_Directory_ServiceProviderContract_Imp@@PAPAUStruct_Microsoft_Singularity_Directory_ServiceProviderContract_Exp@@@Z 0205e3e8 f   NetStack.obj
 0001:0005d484       ?g_CanonicalState@Class_Microsoft_Singularity_Directory_ServiceProviderContract@@SIHH@Z 0205e484 f   NetStack.obj
 0001:0005d4cc       ?m__ctor@Class_Microsoft_Singularity_Directory_ServiceProviderContract@@SIXPAU1@@Z 0205e4cc f   NetStack.obj
 0001:0005d4e4       ?m_StructCopy@Struct_Microsoft_Singularity_Directory_DirectoryServiceContract_AckRegister@@SIXPAU1@0@Z 0205e4e4 f   NetStack.obj
 0001:0005d500       ?m_StructCopy@Struct_Microsoft_Singularity_Directory_DirectoryServiceContract_AckRegister@@SIXPAU1@PAU1@@Z 0205e500 f   NetStack.obj
 0001:0005d554       ?m_Equals@Struct_Microsoft_Singularity_Directory_DirectoryServiceContract_AckRegister@@SI_NPAU1@PAUClass_System_Object@@@Z 0205e554 f   NetStack.obj
 0001:0005d58c       ?m_Equals@Struct_Microsoft_Singularity_Directory_DirectoryServiceContract_AckRegister@@SI_NPAUClass_Microsoft_Singularity_Directory_DirectoryServiceContract_AckRegister@@PAUClass_System_Object@@@Z 0205e58c f   NetStack.obj
 0001:0005d5b8       ?g_Parse@Class_NetStack_Protocols_DhcpMultiIPv4Option@@SIPAUClass_NetStack_Protocols_IDhcpOption@@EEPAUClassVector_uint8@@H@Z 0205e5b8 f   NetStack.obj
 0001:0005d704       ?m_Pack@Class_NetStack_Protocols_DhcpMultiIPv4Option@@SIHPAU1@PAUClassVector_uint8@@PAH@Z 0205e704 f   NetStack.obj
 0001:0005d8dc       ?m_get$_Values@Class_NetStack_Protocols_DhcpMultiIPv4Option@@SIPAUClassVector_Struct_System_Net_IP_IPv4@@PAU1@@Z 0205e8dc f   NetStack.obj
 0001:0005d918       ?m_get$_PayloadLength@Class_NetStack_Protocols_DhcpMultiIPv4Option@@SIHPAU1@@Z 0205e918 f   NetStack.obj
 0001:0005d95c       ?m__ctor@Class_NetStack_Protocols_DhcpMultiIPv4Option@@SIXPAU1@EPAUClassVector_Struct_System_Net_IP_IPv4@@@Z 0205e95c f   NetStack.obj
 0001:0005d98c       ?m__ctor@Class_NetStack_Runtime_ArpModule_PendingRequest@@SIXPAU1@UStruct_System_Net_IP_IPv4@@PAUClass_NetStack_Runtime_ArpRequestCallback@@PAUClass_System_Object@@UStruct_System_DateTime@@@Z 0205e98c f   NetStack.obj
 0001:0005d9d8       ?m_StructCopy@Struct_Microsoft_Singularity_Io_Net_NicDeviceContract_ConfigureIO@@SIXPAU1@0@Z 0205e9d8 f   NetStack.obj
 0001:0005d9f4       ?m_StructCopy@Struct_Microsoft_Singularity_Io_Net_NicDeviceContract_ConfigureIO@@SIXPAU1@PAU1@@Z 0205e9f4 f   NetStack.obj
 0001:0005da48       ?m_MarshallContent@Struct_Microsoft_Singularity_Io_Net_NicDeviceContract_ConfigureIO@@SIXPAU1@PAEPAUStruct_Microsoft_Singularity_Channels_Endpoint@@1PAH@Z 0205ea48 f   NetStack.obj
 0001:0005da68       ?m_MarshallAll@Struct_Microsoft_Singularity_Io_Net_NicDeviceContract_ConfigureIO@@SIXPAU1@PAEPAUStruct_Microsoft_Singularity_Channels_Endpoint@@PAH@Z 0205ea68 f   NetStack.obj
 0001:0005dac0       ?m_Equals@Struct_Microsoft_Singularity_Io_Net_NicDeviceContract_ConfigureIO@@SI_NPAU1@PAUClass_System_Object@@@Z 0205eac0 f   NetStack.obj
 0001:0005daf8       ?m_Equals@Struct_Microsoft_Singularity_Io_Net_NicDeviceContract_ConfigureIO@@SI_NPAUClass_Microsoft_Singularity_Io_Net_NicDeviceContract_ConfigureIO@@PAUClass_System_Object@@@Z 0205eaf8 f   NetStack.obj
 0001:0005db24       ?m_StructCopy@Struct_System_TryAll@@SIXPAU1@0@Z 0205eb24 f   NetStack.obj
 0001:0005dba0       ?m_StructCopy@Struct_System_TryAll@@SIXPAU1@PAU1@@Z 0205eba0 f   NetStack.obj
 0001:0005dd14       ?m_Equals@Struct_System_TryAll@@SI_NPAU1@PAUClass_System_Object@@@Z 0205ed14 f   NetStack.obj
 0001:0005e008       ?m_Equals@Struct_System_TryAll@@SI_NPAUClass_System_TryAll@@PAUClass_System_Object@@@Z 0205f008 f   NetStack.obj
 0001:0005e034       ?m_StructCopy@Struct_NetStack_Contracts_DNSContract_RemoveNameServer@@SIXPAU1@0@Z 0205f034 f   NetStack.obj
 0001:0005e05c       ?m_StructCopy@Struct_NetStack_Contracts_DNSContract_RemoveNameServer@@SIXPAU1@PAU1@@Z 0205f05c f   NetStack.obj
 0001:0005e0d4       ?m_Equals@Struct_NetStack_Contracts_DNSContract_RemoveNameServer@@SI_NPAU1@PAUClass_System_Object@@@Z 0205f0d4 f   NetStack.obj
 0001:0005e11c       ?m_Equals@Struct_NetStack_Contracts_DNSContract_RemoveNameServer@@SI_NPAUClass_NetStack_Contracts_DNSContract_RemoveNameServer@@PAUClass_System_Object@@@Z 0205f11c f   NetStack.obj
 0001:0005e148       ?m_ToString@intPtr@@SIPAUClass_System_String@@PAPAU1@@Z 0205f148 f   NetStack.obj
 0001:0005e17c       ?m_ToString@intPtr@@SIPAUClass_System_String@@PAUClass_System_IntPtr@@@Z 0205f17c f   NetStack.obj
 0001:0005e1d0       ?m_GetHashCode@intPtr@@SIHPAPAU1@@Z 0205f1d0 f   NetStack.obj
 0001:0005e1f0       ?m_GetHashCode@intPtr@@SIHPAUClass_System_IntPtr@@@Z 0205f1f0 f   NetStack.obj
 0001:0005e218       ?m_Equals@intPtr@@SI_NPAPAU1@PAUClass_System_Object@@@Z 0205f218 f   NetStack.obj
 0001:0005e274       ?m_Equals@intPtr@@SI_NPAUClass_System_IntPtr@@PAUClass_System_Object@@@Z 0205f274 f   NetStack.obj
 0001:0005e2a0       ?m_StructCopy@Struct_Microsoft_Singularity_Isal_IX_DescriptorTable@@SIXPAU1@0@Z 0205f2a0 f   NetStack.obj
 0001:0005e2dc       ?m_StructCopy@Struct_Microsoft_Singularity_Isal_IX_DescriptorTable@@SIXPAU1@PAU1@@Z 0205f2dc f   NetStack.obj
 0001:0005e390       ?m_Equals@Struct_Microsoft_Singularity_Isal_IX_DescriptorTable@@SI_NPAU1@PAUClass_System_Object@@@Z 0205f390 f   NetStack.obj
 0001:0005e508       ?m_Equals@Struct_Microsoft_Singularity_Isal_IX_DescriptorTable@@SI_NPAUClass_Microsoft_Singularity_Isal_IX_DescriptorTable@@PAUClass_System_Object@@@Z 0205f508 f   NetStack.obj
 0001:0005e534       ?m_OnStateEnter@Class_NetStack_Runtime_TCPFSM_TCPCloseWait@@SIXPAU1@PAUClass_NetStack_Runtime_TcpSession@@@Z 0205f534 f   NetStack.obj
 0001:0005e57c       ?m_OnPacketReceive@Class_NetStack_Runtime_TCPFSM_TCPCloseWait@@SI?AUStruct_NetStack_Runtime_NetStatus@@PAU1@PAUClass_NetStack_Runtime_TcpSession@@PAUClass_NetStack_Common_NetPacket@@PAUClass_System_Object@@@Z 0205f57c f   NetStack.obj
 0001:0005e7b4       ?g_Instance@Class_NetStack_Runtime_TCPFSM_TCPCloseWait@@SIPAU1@XZ 0205f7b4 f   NetStack.obj
 0001:0005e7ec       ?m_GetStateEnum@Class_NetStack_Runtime_TCPFSM_TCPCloseWait@@SI?AUStruct_NetStack_Runtime_TcpStateEnum@@PAU1@@Z 0205f7ec f   NetStack.obj
 0001:0005e82c       ?m__ctor@Class_NetStack_Runtime_TCPFSM_TCPCloseWait@@SIXPAU1@@Z 0205f82c f   NetStack.obj
 0001:0005e850       ?g__cctor@Class_NetStack_Runtime_TCPFSM_TCPCloseWait@@SIXXZ 0205f850 f   NetStack.obj
 0001:0005e8a8       ?g_Create@Class_Microsoft_Singularity_Eventing_ControllerLogger@@SIPAU1@PAUClass_System_String@@PAUClass_Microsoft_Singularity_Eventing_EventingStorage@@@Z 0205f8a8 f   NetStack.obj
 0001:0005e91c       ?m__ctor@Class_Microsoft_Singularity_Eventing_ControllerLogger@@SIXPAU1@PAUClass_System_String@@PAUClass_Microsoft_Singularity_Eventing_EventingStorage@@I@Z 0205f91c f   NetStack.obj
 0001:0005e950       ?m_Run@Class_NetStack_Channels_Private_TcpExpManager@@SIXPAU1@PAUStruct_NetStack_Runtime_StopThreadContract_Exp@@@Z 0205f950 f   NetStack.obj
 0001:0005ef3c       ?m__ctor@Class_NetStack_Channels_Private_TcpExpManager@@SIXPAU1@@Z 0205ff3c f   NetStack.obj
 0001:0005ef60       ?g__cctor@Class_NetStack_Channels_Private_TcpExpManager@@SIXXZ 0205ff60 f   NetStack.obj
 0001:0005f104       ?m_UnExpose@Struct_Microsoft_Singularity_Io_Net_PacketFragment@@SIXPAU1@@Z 02060104 f   NetStack.obj
 0001:0005f120       ?g_TransferVectorOwnership@Struct_Microsoft_Singularity_Io_Net_PacketFragment@@SIXPAUStruct_Microsoft_Singularity_Channels_Endpoint@@PAU1@@Z 02060120 f   NetStack.obj
 0001:0005f1d8       ?m_TransferContentsOwnership@Struct_Microsoft_Singularity_Io_Net_PacketFragment@@SIXPAU1@PAUStruct_Microsoft_Singularity_Channels_Endpoint@@@Z 020601d8 f   NetStack.obj
 0001:0005f218       ?m_StructCopy@Struct_Microsoft_Singularity_Io_Net_PacketFragment@@SIXPAU1@0@Z 02060218 f   NetStack.obj
 0001:0005f258       ?m_StructCopy@Struct_Microsoft_Singularity_Io_Net_PacketFragment@@SIXPAU1@PAU1@@Z 02060258 f   NetStack.obj
 0001:0005f318       ?m_set$_Length@Struct_Microsoft_Singularity_Io_Net_PacketFragment@@SIXPAU1@H@Z 02060318 f   NetStack.obj
 0001:0005f3b0       ?m_Set@Struct_Microsoft_Singularity_Io_Net_PacketFragment@@SIXPAU1@PAEHH@Z 020603b0 f   NetStack.obj
 0001:0005f4e8       ?m_Set@Struct_Microsoft_Singularity_Io_Net_PacketFragment@@SIXPAU1@PAUClassVector_uint8@@HH@Z 020604e8 f   NetStack.obj
 0001:0005f668       ?g_MarshallVector@Struct_Microsoft_Singularity_Io_Net_PacketFragment@@SIXPAEPAUStruct_Microsoft_Singularity_Channels_Endpoint@@0PAU1@@Z 02060668 f   NetStack.obj
 0001:0005f728       ?m_MarshallContent@Struct_Microsoft_Singularity_Io_Net_PacketFragment@@SIXPAU1@PAEPAUStruct_Microsoft_Singularity_Channels_Endpoint@@1@Z 02060728 f   NetStack.obj
 0001:0005f7d0       ?m_get$_Length@Struct_Microsoft_Singularity_Io_Net_PacketFragment@@SIHPAU1@@Z 020607d0 f   NetStack.obj
 0001:0005f844       ?m_get$_Capacity@Struct_Microsoft_Singularity_Io_Net_PacketFragment@@SIHPAU1@@Z 02060844 f   NetStack.obj
 0001:0005f8c8       ?m_Expose@Struct_Microsoft_Singularity_Io_Net_PacketFragment@@SIXPAU1@@Z 020608c8 f   NetStack.obj
 0001:0005f8e4       ?m_Equals@Struct_Microsoft_Singularity_Io_Net_PacketFragment@@SI_NPAU1@PAUClass_System_Object@@@Z 020608e4 f   NetStack.obj
 0001:0005f94c       ?m_Equals@Struct_Microsoft_Singularity_Io_Net_PacketFragment@@SI_NPAUClass_Microsoft_Singularity_Io_Net_PacketFragment@@PAUClass_System_Object@@@Z 0206094c f   NetStack.obj
 0001:0005f978       ?m_Dispose@Struct_Microsoft_Singularity_Io_Net_PacketFragment@@SIXPAU1@@Z 02060978 f   NetStack.obj
 0001:0005f9bc       ?m_Dispose@Struct_Microsoft_Singularity_Io_Net_PacketFragment@@SIXPAUClass_Microsoft_Singularity_Io_Net_PacketFragment@@@Z 020609bc f   NetStack.obj
 0001:0005f9e4       ?m_Copy@Struct_Microsoft_Singularity_Io_Net_PacketFragment@@SIHPAU1@PAUClassVector_uint8@@H@Z 020609e4 f   NetStack.obj
 0001:0005fb10       ?m_StructCopy@Struct_Microsoft_Singularity_Directory_DirectoryServiceContract_CreateFile@@SIXPAU1@0@Z 02060b10 f   NetStack.obj
 0001:0005fb38       ?m_StructCopy@Struct_Microsoft_Singularity_Directory_DirectoryServiceContract_CreateFile@@SIXPAU1@PAU1@@Z 02060b38 f   NetStack.obj
 0001:0005fbb0       ?m_Equals@Struct_Microsoft_Singularity_Directory_DirectoryServiceContract_CreateFile@@SI_NPAU1@PAUClass_System_Object@@@Z 02060bb0 f   NetStack.obj
 0001:0005fbf8       ?m_Equals@Struct_Microsoft_Singularity_Directory_DirectoryServiceContract_CreateFile@@SI_NPAUClass_Microsoft_Singularity_Directory_DirectoryServiceContract_CreateFile@@PAUClass_System_Object@@@Z 02060bf8 f   NetStack.obj
 0001:0005fc24       ?m_StructCopy@Struct_Microsoft_Singularity_Isal_IX_PE@@SIXPAU1@0@Z 02060c24 f   NetStack.obj
 0001:0005fc40       ?m_StructCopy@Struct_Microsoft_Singularity_Isal_IX_PE@@SIXPAU1@PAU1@@Z 02060c40 f   NetStack.obj
 0001:0005fc94       ?m_Equals@Struct_Microsoft_Singularity_Isal_IX_PE@@SI_NPAU1@PAUClass_System_Object@@@Z 02060c94 f   NetStack.obj
 0001:0005fccc       ?m_Equals@Struct_Microsoft_Singularity_Isal_IX_PE@@SI_NPAUClass_Microsoft_Singularity_Isal_IX_PE@@PAUClass_System_Object@@@Z 02060ccc f   NetStack.obj
 0001:0005fcf8       ?m_GetHandle@Class_Microsoft_Singularity_Eventing_EventingStorage@@SIPAUuintPtr@@PAU1@@Z 02060cf8 f   NetStack.obj
 0001:0005fd18       ?m_GetController@Class_Microsoft_Singularity_Eventing_EventingStorage@@SIPAUClass_Microsoft_Singularity_Eventing_Controller@@PAU1@@Z 02060d18 f   NetStack.obj
 0001:0005fd4c       ?g_CreateStorageFromHandle@Class_Microsoft_Singularity_Eventing_EventingStorage@@SIPAU1@PAUuintPtr@@@Z 02060d4c f   NetStack.obj
 0001:0005fdc4       ?g_CreateLocalStorage@Class_Microsoft_Singularity_Eventing_EventingStorage@@SIPAU1@II@Z 02060dc4 f   NetStack.obj
 0001:0005fe44       ?m_AddBuffer@Class_Microsoft_Singularity_Eventing_EventingStorage@@SI_NPAU1@_K@Z 02060e44 f   NetStack.obj
 0001:0005fe64       ?m__ctor@Class_Microsoft_Singularity_Eventing_EventingStorage@@SIXPAU1@@Z 02060e64 f   NetStack.obj
 0001:0005fe80       ?m_VisitReferenceFields@Class_System_GCs_MarkSweepCollector_MarkReferenceVisitor@@SIPAUuintPtr@@PAU1@PAU2@PAUClass_System_VTable@@@Z 02060e80 f   NetStack.obj
 0001:0006061c       ?m_VisitReferenceFields@Class_System_GCs_MarkSweepCollector_MarkReferenceVisitor@@SIPAUuintPtr@@PAU1@PAUClass_System_Object@@@Z 0206161c f   NetStack.obj
 0001:00060684       ?m_Visit@Class_System_GCs_MarkSweepCollector_MarkReferenceVisitor@@SIXPAU1@PAPAUuintPtr@@@Z 02061684 f   NetStack.obj
 0001:00060980       ?m_ProcessScheduledObjects@Class_System_GCs_MarkSweepCollector_MarkReferenceVisitor@@SIXPAU1@@Z 02061980 f   NetStack.obj
 0001:00060a2c       ?m_Filter@Class_System_GCs_MarkSweepCollector_MarkReferenceVisitor@@SIXPAU1@PAPAUuintPtr@@PAUStruct_System_GCs_ReferenceVisitor_ObjectDescriptor@@@Z 02061a2c f   NetStack.obj
 0001:00060a64       ?m_Cleanup@Class_System_GCs_MarkSweepCollector_MarkReferenceVisitor@@SIXPAU1@@Z 02061a64 f   NetStack.obj
 0001:00060a9c       ?m__ctor@Class_System_GCs_MarkSweepCollector_MarkReferenceVisitor@@SIXPAU1@@Z 02061a9c f   NetStack.obj
 0001:00060ac0       ?m_Sample@Class_System_Random@@SINPAU1@@Z 02061ac0 f   NetStack.obj
 0001:00060bcc       ?m_Next@Class_System_Random@@SIHPAU1@@Z 02061bcc f   NetStack.obj
 0001:00060c04       ?m_Next@Class_System_Random@@SIHPAU1@H@Z 02061c04 f   NetStack.obj
 0001:00060c8c       ?m__ctor@Class_System_Random@@SIXPAU1@@Z 02061c8c f   NetStack.obj
 0001:00060cb4       ?m__ctor@Class_System_Random@@SIXPAU1@H@Z 02061cb4 f   NetStack.obj
 0001:00060e80       ?m_StructCopy@Struct_NetStack_Protocols_TcpFormat_TcpHeader@@SIXPAU1@0@Z 02061e80 f   NetStack.obj
 0001:00060f10       ?m_StructCopy@Struct_NetStack_Protocols_TcpFormat_TcpHeader@@SIXPAU1@PAU1@@Z 02061f10 f   NetStack.obj
 0001:000610c0       ?m_Equals@Struct_NetStack_Protocols_TcpFormat_TcpHeader@@SI_NPAU1@PAUClass_System_Object@@@Z 020620c0 f   NetStack.obj
 0001:0006118c       ?m_Equals@Struct_NetStack_Protocols_TcpFormat_TcpHeader@@SI_NPAUClass_NetStack_Protocols_TcpFormat_TcpHeader@@PAUClass_System_Object@@@Z 0206218c f   NetStack.obj
 0001:000611b8       ?m_get$_time@Class_RJBlack_Timer@@SI_KPAU1@@Z 020621b8 f   NetStack.obj
 0001:00061218       ?m_CompareTo@Class_RJBlack_Timer@@SIHPAU1@PAUClass_System_Object@@@Z 02062218 f   NetStack.obj
 0001:000612e8       ?m__ctor@Class_RJBlack_Timer@@SIXPAU1@_K@Z 020622e8 f   NetStack.obj
 0001:00061318       ?m__ctor@Class_Microsoft_Singularity_Tracing@@SIXPAU1@@Z 02062318 f   NetStack.obj
 0001:00061334       ?m_StructCopy@Struct_System_VarargList@@SIXPAU1@0@Z 02062334 f   NetStack.obj
 0001:0006135c       ?m_StructCopy@Struct_System_VarargList@@SIXPAU1@PAU1@@Z 0206235c f   NetStack.obj
 0001:000613d4       ?m_Equals@Struct_System_VarargList@@SI_NPAU1@PAUClass_System_Object@@@Z 020623d4 f   NetStack.obj
 0001:0006141c       ?m_Equals@Struct_System_VarargList@@SI_NPAUClass_System_VarargList@@PAUClass_System_Object@@@Z 0206241c f   NetStack.obj
 0001:00061448       ?g_Create@Struct_System_VarargList@@SI?AU1@H@Z 02062448 f   NetStack.obj
 0001:00061478       ?m_StructCopy@Struct_NetStack_Contracts_UdpConnectionContract_PollRead@@SIXPAU1@0@Z 02062478 f   NetStack.obj
 0001:000614a0       ?m_StructCopy@Struct_NetStack_Contracts_UdpConnectionContract_PollRead@@SIXPAU1@PAU1@@Z 020624a0 f   NetStack.obj
 0001:00061518       ?m_Equals@Struct_NetStack_Contracts_UdpConnectionContract_PollRead@@SI_NPAU1@PAUClass_System_Object@@@Z 02062518 f   NetStack.obj
 0001:00061560       ?m_Equals@Struct_NetStack_Contracts_UdpConnectionContract_PollRead@@SI_NPAUClass_NetStack_Contracts_UdpConnectionContract_PollRead@@PAUClass_System_Object@@@Z 02062560 f   NetStack.obj
 0001:0006158c       ?m_StructCopy@Struct_Microsoft_Singularity_Io_Net_NicDeviceContract_GiveTxPacketsToDevice@@SIXPAU1@0@Z 0206258c f   NetStack.obj
 0001:000615b4       ?m_StructCopy@Struct_Microsoft_Singularity_Io_Net_NicDeviceContract_GiveTxPacketsToDevice@@SIXPAU1@PAU1@@Z 020625b4 f   NetStack.obj
 0001:0006162c       ?m_MarshallContent@Struct_Microsoft_Singularity_Io_Net_NicDeviceContract_GiveTxPacketsToDevice@@SIXPAU1@PAEPAUStruct_Microsoft_Singularity_Channels_Endpoint@@1PAH@Z 0206262c f   NetStack.obj
 0001:000616b0       ?m_MarshallAll@Struct_Microsoft_Singularity_Io_Net_NicDeviceContract_GiveTxPacketsToDevice@@SIXPAU1@PAEPAUStruct_Microsoft_Singularity_Channels_Endpoint@@PAH@Z 020626b0 f   NetStack.obj
 0001:00061708       ?m_Equals@Struct_Microsoft_Singularity_Io_Net_NicDeviceContract_GiveTxPacketsToDevice@@SI_NPAU1@PAUClass_System_Object@@@Z 02062708 f   NetStack.obj
 0001:00061750       ?m_Equals@Struct_Microsoft_Singularity_Io_Net_NicDeviceContract_GiveTxPacketsToDevice@@SI_NPAUClass_Microsoft_Singularity_Io_Net_NicDeviceContract_GiveTxPacketsToDevice@@PAUClass_System_Object@@@Z 02062750 f   NetStack.obj
 0001:0006177c       ?m__ctor@Class_System_AtomicIsInvalidException@@SIXPAU1@@Z 0206277c f   NetStack.obj
 0001:000617a0       ?m_StructCopy@Struct_Microsoft_Singularity_Io_Net_NicDeviceContract_AckStartIO@@SIXPAU1@0@Z 020627a0 f   NetStack.obj
 0001:000617bc       ?m_StructCopy@Struct_Microsoft_Singularity_Io_Net_NicDeviceContract_AckStartIO@@SIXPAU1@PAU1@@Z 020627bc f   NetStack.obj
 0001:00061810       ?m_Equals@Struct_Microsoft_Singularity_Io_Net_NicDeviceContract_AckStartIO@@SI_NPAU1@PAUClass_System_Object@@@Z 02062810 f   NetStack.obj
 0001:00061848       ?m_Equals@Struct_Microsoft_Singularity_Io_Net_NicDeviceContract_AckStartIO@@SI_NPAUClass_Microsoft_Singularity_Io_Net_NicDeviceContract_AckStartIO@@PAUClass_System_Object@@@Z 02062848 f   NetStack.obj
 0001:00061874       ?m_StructCopy@Struct_NetStack_Contracts_RoutingContract_OK@@SIXPAU1@0@Z 02062874 f   NetStack.obj
 0001:00061890       ?m_StructCopy@Struct_NetStack_Contracts_RoutingContract_OK@@SIXPAU1@PAU1@@Z 02062890 f   NetStack.obj
 0001:000618e4       ?m_MarshallContent@Struct_NetStack_Contracts_RoutingContract_OK@@SIXPAU1@PAEPAUStruct_Microsoft_Singularity_Channels_Endpoint@@1PAH@Z 020628e4 f   NetStack.obj
 0001:00061904       ?m_MarshallAll@Struct_NetStack_Contracts_RoutingContract_OK@@SIXPAU1@PAEPAUStruct_Microsoft_Singularity_Channels_Endpoint@@PAH@Z 02062904 f   NetStack.obj
 0001:0006195c       ?m_Equals@Struct_NetStack_Contracts_RoutingContract_OK@@SI_NPAU1@PAUClass_System_Object@@@Z 0206295c f   NetStack.obj
 0001:00061994       ?m_Equals@Struct_NetStack_Contracts_RoutingContract_OK@@SI_NPAUClass_NetStack_Contracts_RoutingContract_OK@@PAUClass_System_Object@@@Z 02062994 f   NetStack.obj
 0001:000619c0       ?m_StructCopy@Struct_NetStack_Contracts_UdpConnectionContract_Data@@SIXPAU1@0@Z 020629c0 f   NetStack.obj
 0001:00061a00       ?m_StructCopy@Struct_NetStack_Contracts_UdpConnectionContract_Data@@SIXPAU1@PAU1@@Z 02062a00 f   NetStack.obj
 0001:00061ac0       ?m_MarshallContent@Struct_NetStack_Contracts_UdpConnectionContract_Data@@SIXPAU1@PAEPAUStruct_Microsoft_Singularity_Channels_Endpoint@@1PAH@Z 02062ac0 f   NetStack.obj
 0001:00061b6c       ?m_MarshallAll@Struct_NetStack_Contracts_UdpConnectionContract_Data@@SIXPAU1@PAEPAUStruct_Microsoft_Singularity_Channels_Endpoint@@PAH@Z 02062b6c f   NetStack.obj
 0001:00061bc4       ?m_Equals@Struct_NetStack_Contracts_UdpConnectionContract_Data@@SI_NPAU1@PAUClass_System_Object@@@Z 02062bc4 f   NetStack.obj
 0001:00061c30       ?m_Equals@Struct_NetStack_Contracts_UdpConnectionContract_Data@@SI_NPAUClass_NetStack_Contracts_UdpConnectionContract_Data@@PAUClass_System_Object@@@Z 02062c30 f   NetStack.obj
 0001:00061c5c       ?m_StructCopy@Struct_NetStack_Contracts_UdpConnectionContract_GetRemoteAddress@@SIXPAU1@0@Z 02062c5c f   NetStack.obj
 0001:00061c78       ?m_StructCopy@Struct_NetStack_Contracts_UdpConnectionContract_GetRemoteAddress@@SIXPAU1@PAU1@@Z 02062c78 f   NetStack.obj
 0001:00061ccc       ?m_Equals@Struct_NetStack_Contracts_UdpConnectionContract_GetRemoteAddress@@SI_NPAU1@PAUClass_System_Object@@@Z 02062ccc f   NetStack.obj
 0001:00061d04       ?m_Equals@Struct_NetStack_Contracts_UdpConnectionContract_GetRemoteAddress@@SI_NPAUClass_NetStack_Contracts_UdpConnectionContract_GetRemoteAddress@@PAUClass_System_Object@@@Z 02062d04 f   NetStack.obj
 0001:00061d30       ?m__ctor@Class_NetStack_Protocols_InvalidDhcpFormatException@@SIXPAU1@PAUClass_System_String@@@Z 02062d30 f   NetStack.obj
 0001:00061d58       ?m__ctor@Class_NetStack_Protocols_InvalidDhcpFormatException@@SIXPAU1@PAUClass_System_String@@PAUClassVector_Class_System_Object@@@Z 02062d58 f   NetStack.obj
 0001:00061d8c       ?m_UpdatePendingRequests@Class_NetStack_Runtime_ArpModule@@SIXPAU1@UStruct_System_Net_IP_IPv4@@UStruct_Drivers_Net_EthernetAddress@@@Z 02062d8c f   NetStack.obj
 0001:00061ecc       ?m_StopModule@Class_NetStack_Runtime_ArpModule@@SI_NPAU1@@Z 02062ecc f   NetStack.obj
 0001:00061efc       ?m_StartModule@Class_NetStack_Runtime_ArpModule@@SI_NPAU1@@Z 02062efc f   NetStack.obj
 0001:00062074       ?m_OnRequestTimeout@Class_NetStack_Runtime_ArpModule@@SI?AUStruct_NetStack_Runtime_NetStatus@@PAU1@PAUClass_NetStack_Runtime_Dispatcher_CallbackArgs@@@Z 02063074 f   NetStack.obj
 0001:000623c0       ?m_OnProtocolSend@Class_NetStack_Runtime_ArpModule@@SI?AUStruct_NetStack_Runtime_NetStatus@@PAU1@PAUClass_NetStack_Common_NetPacket@@@Z 020633c0 f   NetStack.obj
 0001:00062450       ?m_OnProtocolReceive@Class_NetStack_Runtime_ArpModule@@SI?AUStruct_NetStack_Runtime_NetStatus@@PAU1@PAUClass_NetStack_Common_NetPacket@@@Z 02063450 f   NetStack.obj
 0001:00062864       ?m_OnAgingTimer@Class_NetStack_Runtime_ArpModule@@SI?AUStruct_NetStack_Runtime_NetStatus@@PAU1@PAUClass_NetStack_Runtime_Dispatcher_CallbackArgs@@@Z 02063864 f   NetStack.obj
 0001:000629c8       ?m_NetStack_Runtime_INetModule_get$_ModuleName@Class_NetStack_Runtime_ArpModule@@SIPAUClass_System_String@@PAU1@@Z 020639c8 f   NetStack.obj
 0001:00062a08       ?m_Lookup@Class_NetStack_Runtime_ArpModule@@SI_NPAU1@UStruct_System_Net_IP_IPv4@@PAUStruct_Drivers_Net_EthernetAddress@@@Z 02063a08 f   NetStack.obj
 0001:00062a6c       ?m_Initialize@Class_NetStack_Runtime_ArpModule@@SI_NPAU1@PAUClass_NetStack_Runtime_ProtocolParams@@@Z 02063a6c f   NetStack.obj
 0001:00062bbc       ?m_GetProtocolID@Class_NetStack_Runtime_ArpModule@@SIGPAU1@@Z 02063bbc f   NetStack.obj
 0001:00062bfc       ?m_CreateSession@Class_NetStack_Runtime_ArpModule@@SIPAUClass_NetStack_Runtime_Session@@PAU1@@Z 02063bfc f   NetStack.obj
 0001:00062c3c       ?m_ArpRequest@Class_NetStack_Runtime_ArpModule@@SIXPAU1@UStruct_System_Net_IP_IPv4@@1PAUClass_NetStack_Runtime_Multiplexer@@PAUClass_NetStack_Runtime_ArpRequestCallback@@PAUClass_System_Object@@UStruct_System_TimeSpan@@@Z 02063c3c f   NetStack.obj
 0001:00062e14       ?m_AddPendingRequest@Class_NetStack_Runtime_ArpModule@@SIXPAU1@UStruct_System_Net_IP_IPv4@@PAUClass_NetStack_Runtime_ArpRequestCallback@@PAUClass_System_Object@@UStruct_System_TimeSpan@@@Z 02063e14 f   NetStack.obj
 0001:00062ff8       ?m__ctor@Class_NetStack_Runtime_ArpModule@@SIXPAU1@@Z 02063ff8 f   NetStack.obj
 0001:00063028       ?g__cctor@Class_NetStack_Runtime_ArpModule@@SIXXZ 02064028 f   NetStack.obj
 0001:00063074       ?m_StructCopy@Struct_Microsoft_Singularity_Directory_DirectoryServiceContract_GetAttributes@@SIXPAU1@0@Z 02064074 f   NetStack.obj
 0001:0006309c       ?m_StructCopy@Struct_Microsoft_Singularity_Directory_DirectoryServiceContract_GetAttributes@@SIXPAU1@PAU1@@Z 0206409c f   NetStack.obj
 0001:00063114       ?m_Equals@Struct_Microsoft_Singularity_Directory_DirectoryServiceContract_GetAttributes@@SI_NPAU1@PAUClass_System_Object@@@Z 02064114 f   NetStack.obj
 0001:0006315c       ?m_Equals@Struct_Microsoft_Singularity_Directory_DirectoryServiceContract_GetAttributes@@SI_NPAUClass_Microsoft_Singularity_Directory_DirectoryServiceContract_GetAttributes@@PAUClass_System_Object@@@Z 0206415c f   NetStack.obj
 0001:00063188       ?m_StructCopy@Struct_NetStack_Contracts_IPContract_IsLocal@@SIXPAU1@0@Z 02064188 f   NetStack.obj
 0001:000631b0       ?m_StructCopy@Struct_NetStack_Contracts_IPContract_IsLocal@@SIXPAU1@PAU1@@Z 020641b0 f   NetStack.obj
 0001:00063228       ?m_MarshallContent@Struct_NetStack_Contracts_IPContract_IsLocal@@SIXPAU1@PAEPAUStruct_Microsoft_Singularity_Channels_Endpoint@@1PAH@Z 02064228 f   NetStack.obj
 0001:00063248       ?m_MarshallAll@Struct_NetStack_Contracts_IPContract_IsLocal@@SIXPAU1@PAEPAUStruct_Microsoft_Singularity_Channels_Endpoint@@PAH@Z 02064248 f   NetStack.obj
 0001:000632a0       ?m_Equals@Struct_NetStack_Contracts_IPContract_IsLocal@@SI_NPAU1@PAUClass_System_Object@@@Z 020642a0 f   NetStack.obj
 0001:000632e8       ?m_Equals@Struct_NetStack_Contracts_IPContract_IsLocal@@SI_NPAUClass_NetStack_Contracts_IPContract_IsLocal@@PAUClass_System_Object@@@Z 020642e8 f   NetStack.obj
 0001:00063314       ?m_VisitSmall@Class_System_GCs_SegregatedFreeList_ObjectVisitorWrapper@@SIXPAU1@PAUClass_System_Object@@PAUuintPtr@@@Z 02064314 f   NetStack.obj
 0001:00063340       ?m_VisitLarge@Class_System_GCs_SegregatedFreeList_ObjectVisitorWrapper@@SIPAUuintPtr@@PAU1@PAUClass_System_Object@@@Z 02064340 f   NetStack.obj
 0001:0006336c       ?m__ctor@Class_System_GCs_SegregatedFreeList_ObjectVisitorWrapper@@SIXPAU1@PAUClass_System_GCs_ObjectLayout_ObjectVisitor@@@Z 0206436c f   NetStack.obj
 0001:0006339c       ?m_StructCopy@Struct_Microsoft_Singularity_Directory_DirectoryServiceContract_NakNotify@@SIXPAU1@0@Z 0206439c f   NetStack.obj
 0001:000633d0       ?m_StructCopy@Struct_Microsoft_Singularity_Directory_DirectoryServiceContract_NakNotify@@SIXPAU1@PAU1@@Z 020643d0 f   NetStack.obj
 0001:0006346c       ?m_Equals@Struct_Microsoft_Singularity_Directory_DirectoryServiceContract_NakNotify@@SI_NPAU1@PAUClass_System_Object@@@Z 0206446c f   NetStack.obj
 0001:0006351c       ?m_Equals@Struct_Microsoft_Singularity_Directory_DirectoryServiceContract_NakNotify@@SI_NPAUClass_Microsoft_Singularity_Directory_DirectoryServiceContract_NakNotify@@PAUClass_System_Object@@@Z 0206451c f   NetStack.obj
 0001:00063548       ?m_StructCopy@Struct_System_TypedReference@@SIXPAU1@0@Z 02064548 f   NetStack.obj
 0001:0006357c       ?m_StructCopy@Struct_System_TypedReference@@SIXPAU1@PAU1@@Z 0206457c f   NetStack.obj
 0001:00063618       ?g_RefAnyType@Struct_System_TypedReference@@SI?AUStruct_System_RuntimeTypeHandle@@U1@@Z 02064618 f   NetStack.obj
 0001:00063650       ?g_MakeRefAny@Struct_System_TypedReference@@SI?AU1@PAUvoid@@PAUClass_System_RuntimeType@@@Z 02064650 f   NetStack.obj
 0001:000636f0       ?m_GetHashCode@Struct_System_TypedReference@@SIHPAU1@@Z 020646f0 f   NetStack.obj
 0001:00063764       ?m_GetHashCode@Struct_System_TypedReference@@SIHPAUClass_System_TypedReference@@@Z 02064764 f   NetStack.obj
 0001:0006378c       ?m_Equals@Struct_System_TypedReference@@SI_NPAU1@PAUClass_System_Object@@@Z 0206478c f   NetStack.obj
 0001:000637cc       ?m_Equals@Struct_System_TypedReference@@SI_NPAUClass_System_TypedReference@@PAUClass_System_Object@@@Z 020647cc f   NetStack.obj
 0001:000637f8       ?m__ctor@Struct_System_TypedReference@@SIXPAU1@PAUvoid@@PAUClass_System_RuntimeType@@@Z 020647f8 f   NetStack.obj
 0001:00063828       ?m__ctor@Class_System_ArrayTypeMismatchException@@SIXPAU1@@Z 02064828 f   NetStack.obj
 0001:00063850       ?m__ctor@Class_System_ArrayTypeMismatchException@@SIXPAU1@PAUClass_System_String@@@Z 02064850 f   NetStack.obj
 0001:00063878       ?m_StructCopy@Struct_System_Collections_DictionaryEntry@@SIXPAU1@0@Z 02064878 f   NetStack.obj
 0001:000638ac       ?m_StructCopy@Struct_System_Collections_DictionaryEntry@@SIXPAU1@PAU1@@Z 020648ac f   NetStack.obj
 0001:00063948       ?m_get$_Value@Struct_System_Collections_DictionaryEntry@@SIPAUClass_System_Object@@PAU1@@Z 02064948 f   NetStack.obj
 0001:00063968       ?m_get$_Key@Struct_System_Collections_DictionaryEntry@@SIPAUClass_System_Object@@PAU1@@Z 02064968 f   NetStack.obj
 0001:00063988       ?m_Equals@Struct_System_Collections_DictionaryEntry@@SI_NPAU1@PAUClass_System_Object@@@Z 02064988 f   NetStack.obj
 0001:000639f0       ?m_Equals@Struct_System_Collections_DictionaryEntry@@SI_NPAUClass_System_Collections_DictionaryEntry@@PAUClass_System_Object@@@Z 020649f0 f   NetStack.obj
 0001:00063a1c       ?m__ctor@Struct_System_Collections_DictionaryEntry@@SIXPAU1@PAUClass_System_Object@@1@Z 02064a1c f   NetStack.obj
 0001:00063a90       ?m_StructCopy@Struct_NetStack_Contracts_UdpConnectionContract_IPAddress@@SIXPAU1@0@Z 02064a90 f   NetStack.obj
 0001:00063ab8       ?m_StructCopy@Struct_NetStack_Contracts_UdpConnectionContract_IPAddress@@SIXPAU1@PAU1@@Z 02064ab8 f   NetStack.obj
 0001:00063b30       ?m_MarshallContent@Struct_NetStack_Contracts_UdpConnectionContract_IPAddress@@SIXPAU1@PAEPAUStruct_Microsoft_Singularity_Channels_Endpoint@@1PAH@Z 02064b30 f   NetStack.obj
 0001:00063b50       ?m_MarshallAll@Struct_NetStack_Contracts_UdpConnectionContract_IPAddress@@SIXPAU1@PAEPAUStruct_Microsoft_Singularity_Channels_Endpoint@@PAH@Z 02064b50 f   NetStack.obj
 0001:00063ba8       ?m_Equals@Struct_NetStack_Contracts_UdpConnectionContract_IPAddress@@SI_NPAU1@PAUClass_System_Object@@@Z 02064ba8 f   NetStack.obj
 0001:00063bf0       ?m_Equals@Struct_NetStack_Contracts_UdpConnectionContract_IPAddress@@SI_NPAUClass_NetStack_Contracts_UdpConnectionContract_IPAddress@@PAUClass_System_Object@@@Z 02064bf0 f   NetStack.obj
 0001:00063c1c       ?m_StructCopy@Struct_NetStack_Contracts_UdpConnectionContract_Read@@SIXPAU1@0@Z 02064c1c f   NetStack.obj
 0001:00063c38       ?m_StructCopy@Struct_NetStack_Contracts_UdpConnectionContract_Read@@SIXPAU1@PAU1@@Z 02064c38 f   NetStack.obj
 0001:00063c8c       ?m_Equals@Struct_NetStack_Contracts_UdpConnectionContract_Read@@SI_NPAU1@PAUClass_System_Object@@@Z 02064c8c f   NetStack.obj
 0001:00063cc4       ?m_Equals@Struct_NetStack_Contracts_UdpConnectionContract_Read@@SI_NPAUClass_NetStack_Contracts_UdpConnectionContract_Read@@PAUClass_System_Object@@@Z 02064cc4 f   NetStack.obj
 0001:00063cf0       ?m__ctor@Class_System_Threading_ThreadQueue@@SIXPAU1@@Z 02064cf0 f   NetStack.obj
 0001:00063d08       ?g_get$_validForParseAsNumber@Class_System_Globalization_NumberFormatInfo@@SI_NXZ 02064d08 f   NetStack.obj
 0001:00063d20       ?g_get$_positiveSign@Class_System_Globalization_NumberFormatInfo@@SIPAUClass_System_String@@XZ 02064d20 f   NetStack.obj
 0001:00063d50       ?g_get$_positiveInfinitySymbol@Class_System_Globalization_NumberFormatInfo@@SIPAUClass_System_String@@XZ 02064d50 f   NetStack.obj
 0001:00063d80       ?g_get$_percentSymbol@Class_System_Globalization_NumberFormatInfo@@SIPAUClass_System_String@@XZ 02064d80 f   NetStack.obj
 0001:00063db0       ?g_get$_percentPositivePattern@Class_System_Globalization_NumberFormatInfo@@SIHXZ 02064db0 f   NetStack.obj
 0001:00063de4       ?g_get$_percentNegativePattern@Class_System_Globalization_NumberFormatInfo@@SIHXZ 02064de4 f   NetStack.obj
 0001:00063e18       ?g_get$_percentGroupSizes@Class_System_Globalization_NumberFormatInfo@@SIPAUClassVector_int32@@XZ 02064e18 f   NetStack.obj
 0001:00063e48       ?g_get$_percentGroupSeparator@Class_System_Globalization_NumberFormatInfo@@SIPAUClass_System_String@@XZ 02064e48 f   NetStack.obj
 0001:00063e78       ?g_get$_percentDecimalSeparator@Class_System_Globalization_NumberFormatInfo@@SIPAUClass_System_String@@XZ 02064e78 f   NetStack.obj
 0001:00063ea8       ?g_get$_percentDecimalDigits@Class_System_Globalization_NumberFormatInfo@@SIHXZ 02064ea8 f   NetStack.obj
 0001:00063edc       ?g_get$_numberNegativePattern@Class_System_Globalization_NumberFormatInfo@@SIHXZ 02064edc f   NetStack.obj
 0001:00063f10       ?g_get$_numberGroupSizes@Class_System_Globalization_NumberFormatInfo@@SIPAUClassVector_int32@@XZ 02064f10 f   NetStack.obj
 0001:00063f40       ?g_get$_numberGroupSeparator@Class_System_Globalization_NumberFormatInfo@@SIPAUClass_System_String@@XZ 02064f40 f   NetStack.obj
 0001:00063f70       ?g_get$_numberDecimalSeparator@Class_System_Globalization_NumberFormatInfo@@SIPAUClass_System_String@@XZ 02064f70 f   NetStack.obj
 0001:00063fa0       ?g_get$_numberDecimalDigits@Class_System_Globalization_NumberFormatInfo@@SIHXZ 02064fa0 f   NetStack.obj
 0001:00063fd4       ?g_get$_negativeSign@Class_System_Globalization_NumberFormatInfo@@SIPAUClass_System_String@@XZ 02064fd4 f   NetStack.obj
 0001:00064004       ?g_get$_negativeInfinitySymbol@Class_System_Globalization_NumberFormatInfo@@SIPAUClass_System_String@@XZ 02065004 f   NetStack.obj
 0001:00064034       ?g_get$_nanSymbol@Class_System_Globalization_NumberFormatInfo@@SIPAUClass_System_String@@XZ 02065034 f   NetStack.obj
 0001:00064064       ?m__ctor@Class_System_Globalization_NumberFormatInfo@@SIXPAU1@@Z 02065064 f   NetStack.obj
 0001:0006407c       ?g__cctor@Class_System_Globalization_NumberFormatInfo@@SIXXZ 0206507c f   NetStack.obj
 0001:00064090       ?m_LookupSpecific@Class_NetStack_Runtime_RoutingTable@@SIPAUClass_NetStack_Runtime_RouteEntry@@PAU1@UStruct_System_Net_IP_IPv4Network@@@Z 02065090 f   NetStack.obj
 0001:000641f0       ?m_LookupSpecific@Class_NetStack_Runtime_RoutingTable@@SIPAUClass_NetStack_Runtime_RouteEntry@@PAU1@UStruct_System_Net_IP_IPv4@@@Z 020651f0 f   NetStack.obj
 0001:00064280       ?m_Lookup@Class_NetStack_Runtime_RoutingTable@@SIPAUClass_NetStack_Runtime_RouteEntry@@PAU1@UStruct_System_Net_IP_IPv4Network@@@Z 02065280 f   NetStack.obj
 0001:000643e0       ?m_Lookup@Class_NetStack_Runtime_RoutingTable@@SIPAUClass_NetStack_Runtime_RouteEntry@@PAU1@UStruct_System_Net_IP_IPv4@@@Z 020653e0 f   NetStack.obj
 0001:00064530       ?m_GetEnumerator@Class_NetStack_Runtime_RoutingTable@@SIPAUClass_System_Collections_IEnumerator@@PAU1@@Z 02065530 f   NetStack.obj
 0001:0006459c       ?m_get$_Count@Class_NetStack_Runtime_RoutingTable@@SIHPAU1@@Z 0206559c f   NetStack.obj
 0001:000645dc       ?m_DeleteRoute@Class_NetStack_Runtime_RoutingTable@@SI_NPAU1@PAUClass_NetStack_Runtime_RouteEntry@@@Z 020655dc f   NetStack.obj
 0001:0006468c       ?m_DeleteInterfaceRoutes@Class_NetStack_Runtime_RoutingTable@@SIXPAU1@UStruct_System_Net_IP_IPv4@@@Z 0206568c f   NetStack.obj
 0001:000648cc       ?m_AddRoute@Class_NetStack_Runtime_RoutingTable@@SI_NPAU1@PAUClass_NetStack_Runtime_RouteEntry@@@Z 020658cc f   NetStack.obj
 0001:0006492c       ?m__ctor@Class_NetStack_Runtime_RoutingTable@@SIXPAU1@@Z 0206592c f   NetStack.obj
 0001:00064978       ?g_WriterIsValid@Class_System_ReadEnlistmentLog@@SI_NUStruct_System_ReadEnlistmentLogWriter@@@Z 02065978 f   NetStack.obj
 0001:00064998       ?m_VisitWeakRefs@Class_System_ReadEnlistmentLog@@SIXPAU1@PAUClass_System_TryAllManager@@PAUClass_System_GCs_DirectReferenceVisitor@@@Z 02065998 f   NetStack.obj
 0001:00064f0c       ?m_ValidateAndRemoveDuplicates@Class_System_ReadEnlistmentLog@@SIXPAU1@PAUClass_System_TryAllManager@@@Z 02065f0c f   NetStack.obj
 0001:000659ec       ?m_Validate@Class_System_ReadEnlistmentLog@@SIXPAU1@PAUClass_System_TryAllManager@@_N@Z 020669ec f   NetStack.obj
 0001:0006607c       ?g_SyncFromWriter@Class_System_ReadEnlistmentLog@@SIXPAUClass_System_TryAllManager@@@Z 0206707c f   NetStack.obj
 0001:00066100       ?g_InitWriter@Class_System_ReadEnlistmentLog@@SIXPAUClass_System_TryAllManager@@@Z 02067100 f   NetStack.obj
 0001:0006617c       ?m_get$_CurrentLocation@Class_System_ReadEnlistmentLog@@SI?AUStruct_System_ReadEnlistmentLog_Location@@PAU1@@Z 0206717c f   NetStack.obj
 0001:00066210       ?m_AddrToIndex@Class_System_ReadEnlistmentLog@@SIIPAU1@PAUStruct_System_ReadEnlistmentLog_Entry@@@Z 02067210 f   NetStack.obj
 0001:000662a0       ?m_AddrOfEntry@Class_System_ReadEnlistmentLog@@SIPAUStruct_System_ReadEnlistmentLog_Entry@@PAU1@H@Z 020672a0 f   NetStack.obj
 0001:00066340       ?m__ctor@Class_System_ReadEnlistmentLog@@SIXPAU1@@Z 02067340 f   NetStack.obj
 0001:000663a4       ?m__ctor@Class_System_StackOverflowException@@SIXPAU1@@Z 020673a4 f   NetStack.obj
 0001:000663cc       ?m__ctor@Class_System_StackOverflowException@@SIXPAU1@PAUClass_System_String@@@Z 020673cc f   NetStack.obj
 0001:000663f4       ?m__ctor@Class_System_StackOverflowException@@SIXPAU1@PAUClass_System_String@@PAUClass_System_Exception@@@Z 020673f4 f   NetStack.obj
 0001:00066424       ?m_StructCopy@Struct_Microsoft_Singularity_Directory_DirectoryServiceContract_NakCreateDirectoryReparse@@SIXPAU1@0@Z 02067424 f   NetStack.obj
 0001:00066464       ?m_StructCopy@Struct_Microsoft_Singularity_Directory_DirectoryServiceContract_NakCreateDirectoryReparse@@SIXPAU1@PAU1@@Z 02067464 f   NetStack.obj
 0001:00066524       ?m_Equals@Struct_Microsoft_Singularity_Directory_DirectoryServiceContract_NakCreateDirectoryReparse@@SI_NPAU1@PAUClass_System_Object@@@Z 02067524 f   NetStack.obj
 0001:0006658c       ?m_Equals@Struct_Microsoft_Singularity_Directory_DirectoryServiceContract_NakCreateDirectoryReparse@@SI_NPAUClass_Microsoft_Singularity_Directory_DirectoryServiceContract_NakCreateDirectoryReparse@@PAUClass_System_Object@@@Z 0206758c f   NetStack.obj
 0001:000665b8       ?m_IsLocalAddress@Class_NetStack_Runtime_IPAdapterBindingTable@@SI_NPAU1@UStruct_System_Net_IP_IPv4@@@Z 020675b8 f   NetStack.obj
 0001:00066638       ?m_GetAdapterIPConfigurations@Class_NetStack_Runtime_IPAdapterBindingTable@@SIPAUClass_System_Collections_ArrayList@@PAU1@PAUClass_NetStack_Common_IAdapter@@@Z 02067638 f   NetStack.obj
 0001:00066780       ?m_GetAdapter@Class_NetStack_Runtime_IPAdapterBindingTable@@SIPAUClass_NetStack_Common_IAdapter@@PAU1@UStruct_System_Net_IP_IPv4@@@Z 02067780 f   NetStack.obj
 0001:00066834       ?m_Flush@Class_NetStack_Runtime_IPAdapterBindingTable@@SIXPAU1@PAUClass_NetStack_Common_IAdapter@@@Z 02067834 f   NetStack.obj
 0001:000669b4       ?m_Flush@Class_NetStack_Runtime_IPAdapterBindingTable@@SIXPAU1@PAUClass_NetStack_Common_IAdapter@@UStruct_System_Net_IP_IPv4@@@Z 020679b4 f   NetStack.obj
 0001:00066a5c       ?m_Flush@Class_NetStack_Runtime_IPAdapterBindingTable@@SIXPAU1@PAUClass_NetStack_Runtime_InterfaceIPConfiguration@@@Z 02067a5c f   NetStack.obj
 0001:00066ad0       ?m_DeleteInterfaceRoutes@Class_NetStack_Runtime_IPAdapterBindingTable@@SIXPAU1@PAUClass_NetStack_Runtime_InterfaceIPConfiguration@@@Z 02067ad0 f   NetStack.obj
 0001:00066b0c       ?m_AddInterfaceRoutes@Class_NetStack_Runtime_IPAdapterBindingTable@@SIXPAU1@PAUClass_NetStack_Runtime_InterfaceIPConfiguration@@@Z 02067b0c f   NetStack.obj
 0001:00066d48       ?m_Add@Class_NetStack_Runtime_IPAdapterBindingTable@@SI_NPAU1@PAUClass_NetStack_Common_IAdapter@@PAUClass_NetStack_Runtime_InterfaceIPConfiguration@@@Z 02067d48 f   NetStack.obj
 0001:00066e48       ?m__ctor@Class_NetStack_Runtime_IPAdapterBindingTable@@SIXPAU1@PAUClass_NetStack_Runtime_RoutingTable@@@Z 02067e48 f   NetStack.obj
 0001:00066e98       ?m_StructCopy@Struct_System_GCs_UnmanagedPageList@@SIXPAU1@0@Z 02067e98 f   NetStack.obj
 0001:00066ecc       ?m_StructCopy@Struct_System_GCs_UnmanagedPageList@@SIXPAU1@PAU1@@Z 02067ecc f   NetStack.obj
 0001:00066f68       ?g_SetNext@Struct_System_GCs_UnmanagedPageList@@SIXPAUuintPtr@@0@Z 02067f68 f   NetStack.obj
 0001:00066f8c       ?m_RemoveHead@Struct_System_GCs_UnmanagedPageList@@SIPAUuintPtr@@PAU1@@Z 02067f8c f   NetStack.obj
 0001:00066ff8       ?g_ReleaseStandbyPages@Struct_System_GCs_UnmanagedPageList@@SIXXZ 02067ff8 f   NetStack.obj
 0001:000670bc       ?g_Next@Struct_System_GCs_UnmanagedPageList@@SIPAUuintPtr@@PAU2@@Z 020680bc f   NetStack.obj
 0001:000670dc       ?m_get$_IsEmpty@Struct_System_GCs_UnmanagedPageList@@SI_NPAU1@@Z 020680dc f   NetStack.obj
 0001:00067100       ?g_FirstPageAddr@Struct_System_GCs_UnmanagedPageList@@SIPAPAUuintPtr@@PAU2@@Z 02068100 f   NetStack.obj
 0001:00067120       ?m_Equals@Struct_System_GCs_UnmanagedPageList@@SI_NPAU1@PAUClass_System_Object@@@Z 02068120 f   NetStack.obj
 0001:0006717c       ?m_Equals@Struct_System_GCs_UnmanagedPageList@@SI_NPAUClass_System_GCs_UnmanagedPageList@@PAUClass_System_Object@@@Z 0206817c f   NetStack.obj
 0001:000671a8       ?g_EndPageAddr@Struct_System_GCs_UnmanagedPageList@@SIPAPAUuintPtr@@PAU2@@Z 020681a8 f   NetStack.obj
 0001:000671e4       ?m_AddHead@Struct_System_GCs_UnmanagedPageList@@SIXPAU1@PAUuintPtr@@@Z 020681e4 f   NetStack.obj
 0001:00067228       ?g_Create@Class_NetStack_Protocols_DhcpMessageType@@SIPAUClass_NetStack_Protocols_IDhcpOption@@E@Z 02068228 f   NetStack.obj
 0001:0006728c       ?m__ctor@Class_NetStack_Protocols_DhcpMessageType@@SIXPAU1@@Z 0206828c f   NetStack.obj
 0001:000672a4       ?m_Finalize@Class__NetStackLib_Microsoft_Singularity_Channels_TRef$_2$LNetStack_Runtime_StopThreadContract_Exp_NetStack_Runtime_StopThreadContract_Ready$G@@SIXPAU1@@Z 020682a4 f   NetStack.obj
 0001:00067330       ?m_Acquire@Class__NetStackLib_Microsoft_Singularity_Channels_TRef$_2$LNetStack_Runtime_StopThreadContract_Exp_NetStack_Runtime_StopThreadContract_Ready$G@@SIPAUStruct_NetStack_Runtime_StopThreadContract_Exp@@PAU1@@Z 02068330 f   NetStack.obj
 0001:000673cc       ?m__ctor@Class__NetStackLib_Microsoft_Singularity_Channels_TRef$_2$LNetStack_Runtime_StopThreadContract_Exp_NetStack_Runtime_StopThreadContract_Ready$G@@SIXPAU1@PAUStruct_NetStack_Runtime_StopThreadContract_Exp@@@Z 020683cc f   NetStack.obj
 0001:00067470       ?m_StructCopy@Struct_NetStack_Contracts_DNSContract_Resolve@@SIXPAU1@0@Z 02068470 f   NetStack.obj
 0001:00067498       ?m_StructCopy@Struct_NetStack_Contracts_DNSContract_Resolve@@SIXPAU1@PAU1@@Z 02068498 f   NetStack.obj
 0001:00067510       ?m_Equals@Struct_NetStack_Contracts_DNSContract_Resolve@@SI_NPAU1@PAUClass_System_Object@@@Z 02068510 f   NetStack.obj
 0001:00067558       ?m_Equals@Struct_NetStack_Contracts_DNSContract_Resolve@@SI_NPAUClass_NetStack_Contracts_DNSContract_Resolve@@PAUClass_System_Object@@@Z 02068558 f   NetStack.obj
 0001:00067584       ?m_StructCopy@Struct_NetStack_Contracts_IPContract_SetInterfaceState@@SIXPAU1@0@Z 02068584 f   NetStack.obj
 0001:000675d0       ?m_StructCopy@Struct_NetStack_Contracts_IPContract_SetInterfaceState@@SIXPAU1@PAU1@@Z 020685d0 f   NetStack.obj
 0001:000676b4       ?m_Equals@Struct_NetStack_Contracts_IPContract_SetInterfaceState@@SI_NPAU1@PAUClass_System_Object@@@Z 020686b4 f   NetStack.obj
 0001:0006772c       ?m_Equals@Struct_NetStack_Contracts_IPContract_SetInterfaceState@@SI_NPAUClass_NetStack_Contracts_IPContract_SetInterfaceState@@PAUClass_System_Object@@@Z 0206872c f   NetStack.obj
 0001:00067758       ?g_WaitForPendingFinalizers@Class_System_GC@@SIXXZ 02068758 f   NetStack.obj
 0001:00067770       ?g_ThreadStartNotification@Class_System_GC@@SIXH@Z 02068770 f   NetStack.obj
 0001:0006779c       ?g_ThreadDormantGCNotification@Class_System_GC@@SIXH@Z 0206879c f   NetStack.obj
 0001:000677c8       ?g_SuppressFinalize@Class_System_GC@@SIXPAUClass_System_Object@@@Z 020687c8 f   NetStack.obj
 0001:00067830       ?g_Shutdown@Class_System_GC@@SIXXZ 02068830 f   NetStack.obj
 0001:00067858       ?g_SetProfiler@Class_System_GC@@SIXPAUClass_System_GCs_GCProfiler@@@Z 02068858 f   NetStack.obj
 0001:0006788c       ?g_NewThreadNotification@Class_System_GC@@SIXPAUClass_System_Threading_Thread@@_N@Z 0206888c f   NetStack.obj
 0001:000678c8       ?g_nativeSuppressFinalize@Class_System_GC@@SIXPAUClass_System_Object@@@Z 020688c8 f   NetStack.obj
 0001:000678ec       ?g_KeepAlive@Class_System_GC@@SIXPAUClass_System_Object@@@Z 020688ec f   NetStack.obj
 0001:00067918       ?g_InvokeCollection@Class_System_GC@@SIXPAUClass_System_Threading_Thread@@@Z 02068918 f   NetStack.obj
 0001:00067944       ?g_Initialize@Class_System_GC@@SIXXZ 02068944 f   NetStack.obj
 0001:0006797c       ?g_GetTotalMemory@Class_System_GC@@SI_J_N@Z 0206897c f   NetStack.obj
 0001:00067aec       ?g_get$_MaxGeneration@Class_System_GC@@SIHXZ 02068aec f   NetStack.obj
 0001:00067b10       ?g_get$_IsProfiling@Class_System_GC@@SI_NXZ 02068b10 f   NetStack.obj
 0001:00067b28       ?g_FinishInitializeThread@Class_System_GC@@SIXXZ 02068b28 f   NetStack.obj
 0001:00067b40       ?g_EnableHeap@Class_System_GC@@SIXXZ 02068b40 f   NetStack.obj
 0001:00067b88       ?g_DestructHeap@Class_System_GC@@SIXXZ 02068b88 f   NetStack.obj
 0001:00067bb0       ?g_DeadThreadNotification@Class_System_GC@@SIXPAUClass_System_Threading_Thread@@@Z 02068bb0 f   NetStack.obj
 0001:00067bdc       ?g_ConstructHeap@Class_System_GC@@SIXXZ 02068bdc f   NetStack.obj
 0001:00067c7c       ?g_CollectTransition@Class_System_GC@@SIXPAUClass_System_Threading_Thread@@H@Z 02068c7c f   NetStack.obj
 0001:00067ca4       ?g_CollectBody@Class_System_GC@@SIPAUClass_System_Threading_Thread@@PAU2@H@Z 02068ca4 f   NetStack.obj
 0001:00067d08       ?g_Collect@Class_System_GC@@SIXXZ 02068d08 f   NetStack.obj
 0001:00067d4c       ?g_CheckForNeededGCWork@Class_System_GC@@SIXPAUClass_System_Threading_Thread@@@Z 02068d4c f   NetStack.obj
 0001:00067d74       ?g_AllocateVector@Class_System_GC@@SIPAUClass_System_Array@@PAUClass_System_VTable@@H@Z 02068d74 f   NetStack.obj
 0001:00067e78       ?g_AllocateVector@Class_System_GC@@SIPAUClass_System_Array@@PAUClass_System_VTable@@HPAUClass_System_Threading_Thread@@@Z 02068e78 f   NetStack.obj
 0001:00067f68       ?g_AllocateString@Class_System_GC@@SIPAUClass_System_String@@H@Z 02068f68 f   NetStack.obj
 0001:0006805c       ?g_AllocateString@Class_System_GC@@SIPAUClass_System_String@@HPAUClass_System_Threading_Thread@@@Z 0206905c f   NetStack.obj
 0001:00068148       ?g_AllocateObjectNoInline@Class_System_GC@@SIPAUClass_System_Object@@PAUClass_System_VTable@@@Z 02069148 f   NetStack.obj
 0001:0006824c       ?g_AllocateObjectNoInline@Class_System_GC@@SIPAUClass_System_Object@@PAUClass_System_VTable@@PAUClass_System_Threading_Thread@@@Z 0206924c f   NetStack.obj
 0001:00068344       ?g_AllocateObject@Class_System_GC@@SIPAUClass_System_Object@@PAUClass_System_VTable@@@Z 02069344 f   NetStack.obj
 0001:00068438       ?g_AllocateObject@Class_System_GC@@SIPAUClass_System_Object@@PAUClass_System_VTable@@PAUuintPtr@@IPAUClass_System_Threading_Thread@@@Z 02069438 f   NetStack.obj
 0001:00068528       ?g_AllocateObject@Class_System_GC@@SIPAUClass_System_Object@@PAUClass_System_VTable@@PAUClass_System_Threading_Thread@@@Z 02069528 f   NetStack.obj
 0001:00068614       ?m__ctor@Class_System_GC@@SIXPAU1@@Z 02069614 f   NetStack.obj
 0001:00068630       ?g__cctor@Class_System_GC@@SIXXZ 02069630 f   NetStack.obj
 0001:00068680       ?m_TakeFreePacket@Class_NetStack_Runtime_DeMultiplexer@@SIXPAU1@PAUClass_NetStack_Common_NetPacket@@@Z 02069680 f   NetStack.obj
 0001:00068708       ?m_OnAdapterReceive@Class_NetStack_Runtime_DeMultiplexer@@SI?AUStruct_NetStack_Runtime_NetStatus@@PAU1@PAUClass_NetStack_Runtime_Dispatcher_CallbackArgs@@@Z 02069708 f   NetStack.obj
 0001:00068880       ?m_GetReceivedPacket@Class_NetStack_Runtime_DeMultiplexer@@SIPAUClass_NetStack_Common_NetPacket@@PAU1@@Z 02069880 f   NetStack.obj
 0001:00068914       ?m_get$_PacketsReady@Class_NetStack_Runtime_DeMultiplexer@@SI_NPAU1@@Z 02069914 f   NetStack.obj
 0001:0006895c       ?m__ctor@Class_NetStack_Runtime_DeMultiplexer@@SIXPAU1@@Z 0206995c f   NetStack.obj
 0001:000689cc       ?m_StructCopy@Struct_Microsoft_Singularity_Isal_IX_CR4@@SIXPAU1@0@Z 020699cc f   NetStack.obj
 0001:000689e8       ?m_StructCopy@Struct_Microsoft_Singularity_Isal_IX_CR4@@SIXPAU1@PAU1@@Z 020699e8 f   NetStack.obj
 0001:00068a3c       ?m_Equals@Struct_Microsoft_Singularity_Isal_IX_CR4@@SI_NPAU1@PAUClass_System_Object@@@Z 02069a3c f   NetStack.obj
 0001:00068a74       ?m_Equals@Struct_Microsoft_Singularity_Isal_IX_CR4@@SI_NPAUClass_Microsoft_Singularity_Isal_IX_CR4@@PAUClass_System_Object@@@Z 02069a74 f   NetStack.obj
 0001:00068aa0       ?m_StructCopy@Struct_Microsoft_Singularity_Directory_DirectoryServiceContract_AckNotify@@SIXPAU1@0@Z 02069aa0 f   NetStack.obj
 0001:00068abc       ?m_StructCopy@Struct_Microsoft_Singularity_Directory_DirectoryServiceContract_AckNotify@@SIXPAU1@PAU1@@Z 02069abc f   NetStack.obj
 0001:00068b10       ?m_Equals@Struct_Microsoft_Singularity_Directory_DirectoryServiceContract_AckNotify@@SI_NPAU1@PAUClass_System_Object@@@Z 02069b10 f   NetStack.obj
 0001:00068b48       ?m_Equals@Struct_Microsoft_Singularity_Directory_DirectoryServiceContract_AckNotify@@SI_NPAUClass_Microsoft_Singularity_Directory_DirectoryServiceContract_AckNotify@@PAUClass_System_Object@@@Z 02069b48 f   NetStack.obj
 0001:00068b74       ?m_Start@Class_NetStack_Channels_Private_UdpConnectionExpThread@@SIXPAU1@@Z 02069b74 f   NetStack.obj
 0001:00068bfc       ?m_Run@Class_NetStack_Channels_Private_UdpConnectionExpThread@@SIXPAU1@@Z 02069bfc f   NetStack.obj
 0001:0006959c       ?m__ctor@Class_NetStack_Channels_Private_UdpConnectionExpThread@@SIXPAU1@PAUStruct_NetStack_Contracts_UdpConnectionContract_Exp@@@Z 0206a59c f   NetStack.obj
 0001:00069644       ?g__cctor@Class_NetStack_Channels_Private_UdpConnectionExpThread@@SIXXZ 0206a644 f   NetStack.obj
 0001:00069804       ?m_Visit@Class_System_GCs_Verifier_GenericReferenceVisitor@@SIXPAU1@PAPAUuintPtr@@@Z 0206a804 f   NetStack.obj
 0001:00069b08       ?m__ctor@Class_System_GCs_Verifier_GenericReferenceVisitor@@SIXPAU1@@Z 0206ab08 f   NetStack.obj
 0001:00069b2c       ?m_StructCopy@Struct_NetStack_Contracts_UdpConnectionContract_GetLocalAddress@@SIXPAU1@0@Z 0206ab2c f   NetStack.obj
 0001:00069b48       ?m_StructCopy@Struct_NetStack_Contracts_UdpConnectionContract_GetLocalAddress@@SIXPAU1@PAU1@@Z 0206ab48 f   NetStack.obj
 0001:00069b9c       ?m_Equals@Struct_NetStack_Contracts_UdpConnectionContract_GetLocalAddress@@SI_NPAU1@PAUClass_System_Object@@@Z 0206ab9c f   NetStack.obj
 0001:00069bd4       ?m_Equals@Struct_NetStack_Contracts_UdpConnectionContract_GetLocalAddress@@SI_NPAUClass_NetStack_Contracts_UdpConnectionContract_GetLocalAddress@@PAUClass_System_Object@@@Z 0206abd4 f   NetStack.obj
 0001:00069c00       ?m_ToString@Class_NetStack_Runtime_ArpEntry@@SIPAUClass_System_String@@PAU1@@Z 0206ac00 f   NetStack.obj
 0001:00069d38       ?m_System_Object_Object_ToString@Class_NetStack_Runtime_ArpEntry@@SIPAUClass_System_String@@PAU1@@Z 0206ad38 f   NetStack.obj
 0001:00069d78       ?m_set$_MacAddress@Class_NetStack_Runtime_ArpEntry@@SIXPAU1@UStruct_Drivers_Net_EthernetAddress@@@Z 0206ad78 f   NetStack.obj
 0001:00069da4       ?m_set$_EntryAge@Class_NetStack_Runtime_ArpEntry@@SIXPAU1@H@Z 0206ada4 f   NetStack.obj
 0001:00069dcc       ?m_get$_MacAddress@Class_NetStack_Runtime_ArpEntry@@SI?AUStruct_Drivers_Net_EthernetAddress@@PAU1@@Z 0206adcc f   NetStack.obj
 0001:00069e38       ?m_get$_IPAddress@Class_NetStack_Runtime_ArpEntry@@SI?AUStruct_System_Net_IP_IPv4@@PAU1@@Z 0206ae38 f   NetStack.obj
 0001:00069e74       ?m_get$_EntryAge@Class_NetStack_Runtime_ArpEntry@@SIHPAU1@@Z 0206ae74 f   NetStack.obj
 0001:00069eb0       ?m_get$_Dynamic@Class_NetStack_Runtime_ArpEntry@@SI_NPAU1@@Z 0206aeb0 f   NetStack.obj
 0001:00069ee4       ?m__ctor@Class_NetStack_Runtime_ArpEntry@@SIXPAU1@UStruct_System_Net_IP_IPv4@@UStruct_Drivers_Net_EthernetAddress@@_N@Z 0206aee4 f   NetStack.obj
 0001:00069f34       ?m__ctor@Class_NetStack_Runtime_ArpModule_TimeoutArgument@@SIXPAU1@UStruct_System_DateTime@@@Z 0206af34 f   NetStack.obj
 0001:00069f60       ?m_StructCopy@Struct_Microsoft_Singularity_Io_Net_NicDeviceEventContract_Success@@SIXPAU1@0@Z 0206af60 f   NetStack.obj
 0001:00069f7c       ?m_StructCopy@Struct_Microsoft_Singularity_Io_Net_NicDeviceEventContract_Success@@SIXPAU1@PAU1@@Z 0206af7c f   NetStack.obj
 0001:00069fd0       ?m_Equals@Struct_Microsoft_Singularity_Io_Net_NicDeviceEventContract_Success@@SI_NPAU1@PAUClass_System_Object@@@Z 0206afd0 f   NetStack.obj
 0001:0006a008       ?m_Equals@Struct_Microsoft_Singularity_Io_Net_NicDeviceEventContract_Success@@SI_NPAUClass_Microsoft_Singularity_Io_Net_NicDeviceEventContract_Success@@PAUClass_System_Object@@@Z 0206b008 f   NetStack.obj
 0001:0006a034       ?m_StructCopy@Struct_Microsoft_Singularity_Directory_FileContract_Write@@SIXPAU1@0@Z 0206b034 f   NetStack.obj
 0001:0006a0a4       ?m_StructCopy@Struct_Microsoft_Singularity_Directory_FileContract_Write@@SIXPAU1@PAU1@@Z 0206b0a4 f   NetStack.obj
 0001:0006a1f4       ?m_Equals@Struct_Microsoft_Singularity_Directory_FileContract_Write@@SI_NPAU1@PAUClass_System_Object@@@Z 0206b1f4 f   NetStack.obj
 0001:0006a2b8       ?m_Equals@Struct_Microsoft_Singularity_Directory_FileContract_Write@@SI_NPAUClass_Microsoft_Singularity_Directory_FileContract_Write@@PAUClass_System_Object@@@Z 0206b2b8 f   NetStack.obj
 0001:0006a2e4       ?m_StructCopy@Struct_NetStack_Contracts_UdpConnectionContract_OK@@SIXPAU1@0@Z 0206b2e4 f   NetStack.obj
 0001:0006a300       ?m_StructCopy@Struct_NetStack_Contracts_UdpConnectionContract_OK@@SIXPAU1@PAU1@@Z 0206b300 f   NetStack.obj
 0001:0006a354       ?m_MarshallContent@Struct_NetStack_Contracts_UdpConnectionContract_OK@@SIXPAU1@PAEPAUStruct_Microsoft_Singularity_Channels_Endpoint@@1PAH@Z 0206b354 f   NetStack.obj
 0001:0006a374       ?m_MarshallAll@Struct_NetStack_Contracts_UdpConnectionContract_OK@@SIXPAU1@PAEPAUStruct_Microsoft_Singularity_Channels_Endpoint@@PAH@Z 0206b374 f   NetStack.obj
 0001:0006a3cc       ?m_Equals@Struct_NetStack_Contracts_UdpConnectionContract_OK@@SI_NPAU1@PAUClass_System_Object@@@Z 0206b3cc f   NetStack.obj
 0001:0006a404       ?m_Equals@Struct_NetStack_Contracts_UdpConnectionContract_OK@@SI_NPAUClass_NetStack_Contracts_UdpConnectionContract_OK@@PAUClass_System_Object@@@Z 0206b404 f   NetStack.obj
 0001:0006a430       ?m_get$_DeviceName@Class_NetStack_Runtime_AdapterInfo@@SIPAUClass_System_String@@PAU1@@Z 0206b430 f   NetStack.obj
 0001:0006a46c       ?m_get$_Adapter@Class_NetStack_Runtime_AdapterInfo@@SIPAUClass_NetStack_Common_IAdapter@@PAU1@@Z 0206b46c f   NetStack.obj
 0001:0006a4a8       ?m__ctor@Class_NetStack_Runtime_AdapterInfo@@SIXPAU1@PAUClass_NetStack_Common_IAdapter@@PAUClass_System_String@@@Z 0206b4a8 f   NetStack.obj
 0001:0006a4e4       ?m_ScanRoots@Class_System_GCs_GCProfiler@@SIXPAU1@@Z 0206b4e4 f   NetStack.obj
 0001:0006a510       ?m_ScanObjects@Class_System_GCs_GCProfiler@@SIXPAU1@@Z 0206b510 f   NetStack.obj
 0001:0006a53c       ?m_NotifyShutdown@Class_System_GCs_GCProfiler@@SIXPAU1@@Z 0206b53c f   NetStack.obj
 0001:0006a560       ?m_NotifyPreGC@Class_System_GCs_GCProfiler@@SIXPAU1@H@Z 0206b560 f   NetStack.obj
 0001:0006a58c       ?m_NotifyPostGC@Class_System_GCs_GCProfiler@@SIXPAU1@PAUClass_System_GCs_ProfileRootsDelegate@@PAUClass_System_GCs_ProfileObjectsDelegate@@@Z 0206b58c f   NetStack.obj
 0001:0006a5c8       ?m_NotifyAllocation@Class_System_GCs_GCProfiler@@SIXPAU1@PAUuintPtr@@PAUClass_System_Type@@1@Z 0206b5c8 f   NetStack.obj
 0001:0006a5fc       ?m__ctor@Class_System_GCs_GCProfiler@@SIXPAU1@@Z 0206b5fc f   NetStack.obj
 0001:0006a66c       ?g_Create@Class_NetStack_Protocols_DhcpParameterRequest@@SIPAUClass_NetStack_Protocols_IDhcpOption@@PAUClassVector_uint8@@@Z 0206b66c f   NetStack.obj
 0001:0006a6cc       ?m__ctor@Class_NetStack_Protocols_DhcpParameterRequest@@SIXPAU1@@Z 0206b6cc f   NetStack.obj
 0001:0006a6e4       ?m_StructCopy@Struct_System_GCs_CompressedFrameDescriptor@@SIXPAU1@0@Z 0206b6e4 f   NetStack.obj
 0001:0006a70c       ?m_StructCopy@Struct_System_GCs_CompressedFrameDescriptor@@SIXPAU1@PAU1@@Z 0206b70c f   NetStack.obj
 0001:0006a784       ?m_StackArgSize@Struct_System_GCs_CompressedFrameDescriptor@@SIIPAU1@@Z 0206b784 f   NetStack.obj
 0001:0006a7a8       ?m_OverflowDescriptor@Struct_System_GCs_CompressedFrameDescriptor@@SIPAUStruct_System_GCs_OverflowFrameDescriptor@@PAU1@@Z 0206b7a8 f   NetStack.obj
 0001:0006a7c8       ?m_IsFramePointerOmitted@Struct_System_GCs_CompressedFrameDescriptor@@SI_NPAU1@@Z 0206b7c8 f   NetStack.obj
 0001:0006a7f0       ?m_IsFramePointerOmitted@Struct_System_GCs_CompressedFrameDescriptor@@SI_NPAU1@PAUStruct_System_GCs_OverflowFrameDescriptor@@@Z 0206b7f0 f   NetStack.obj
 0001:0006a81c       ?m_IsCompressed@Struct_System_GCs_CompressedFrameDescriptor@@SI_NPAU1@@Z 0206b81c f   NetStack.obj
 0001:0006a844       ?m_InBetweenSlotsBelowWithFP@Struct_System_GCs_CompressedFrameDescriptor@@SIHPAU1@@Z 0206b844 f   NetStack.obj
 0001:0006a864       ?m_InBetweenSlotsBelowNoFP@Struct_System_GCs_CompressedFrameDescriptor@@SIHPAU1@@Z 0206b864 f   NetStack.obj
 0001:0006a884       ?m_InBetweenSlotsAboveWithFP@Struct_System_GCs_CompressedFrameDescriptor@@SIHPAU1@@Z 0206b884 f   NetStack.obj
 0001:0006a8a4       ?m_InBetweenSlotsAboveNoFP@Struct_System_GCs_CompressedFrameDescriptor@@SIHPAU1@@Z 0206b8a4 f   NetStack.obj
 0001:0006a8c4       ?m_HasTransitionRecord@Struct_System_GCs_CompressedFrameDescriptor@@SI_NPAU1@@Z 0206b8c4 f   NetStack.obj
 0001:0006a8ec       ?m_HasTransitionRecord@Struct_System_GCs_CompressedFrameDescriptor@@SI_NPAU1@PAUStruct_System_GCs_OverflowFrameDescriptor@@@Z 0206b8ec f   NetStack.obj
 0001:0006a918       ?m_HasPinnedPointersWithFP@Struct_System_GCs_CompressedFrameDescriptor@@SI_NPAU1@PAUStruct_System_GCs_OverflowFrameDescriptor@@@Z 0206b918 f   NetStack.obj
 0001:0006a944       ?m_HasPinnedPointersNoFP@Struct_System_GCs_CompressedFrameDescriptor@@SI_NPAU1@PAUStruct_System_GCs_OverflowFrameDescriptor@@@Z 0206b944 f   NetStack.obj
 0001:0006a970       ?m_FrameSizeNoFP@Struct_System_GCs_CompressedFrameDescriptor@@SIHPAU1@@Z 0206b970 f   NetStack.obj
 0001:0006a994       ?m_FrameSizeNoFP@Struct_System_GCs_CompressedFrameDescriptor@@SIHPAU1@PAUStruct_System_GCs_OverflowFrameDescriptor@@@Z 0206b994 f   NetStack.obj
 0001:0006a9b8       ?m_Equals@Struct_System_GCs_CompressedFrameDescriptor@@SI_NPAU1@PAUClass_System_Object@@@Z 0206b9b8 f   NetStack.obj
 0001:0006aa00       ?m_Equals@Struct_System_GCs_CompressedFrameDescriptor@@SI_NPAUClass_System_GCs_CompressedFrameDescriptor@@PAUClass_System_Object@@@Z 0206ba00 f   NetStack.obj
 0001:0006aa2c       ?m_EntrySizeWithFP@Struct_System_GCs_CompressedFrameDescriptor@@SIIPAU1@PAUStruct_System_GCs_OverflowFrameDescriptor@@@Z 0206ba2c f   NetStack.obj
 0001:0006aa54       ?m_EntrySizeNoFP@Struct_System_GCs_CompressedFrameDescriptor@@SIIPAU1@PAUStruct_System_GCs_OverflowFrameDescriptor@@@Z 0206ba54 f   NetStack.obj
 0001:0006aa7c       ?m_CalleeSaveValueMaskWithFP@Struct_System_GCs_CompressedFrameDescriptor@@SIPAUuintPtr@@PAU1@@Z 0206ba7c f   NetStack.obj
 0001:0006aaa0       ?m_CalleeSaveValueMaskWithFP@Struct_System_GCs_CompressedFrameDescriptor@@SIPAUuintPtr@@PAU1@PAUStruct_System_GCs_OverflowFrameDescriptor@@@Z 0206baa0 f   NetStack.obj
 0001:0006aac8       ?m_CalleeSaveValueMaskNoFP@Struct_System_GCs_CompressedFrameDescriptor@@SIPAUuintPtr@@PAU1@@Z 0206bac8 f   NetStack.obj
 0001:0006aaf0       ?m_CalleeSaveValueMaskNoFP@Struct_System_GCs_CompressedFrameDescriptor@@SIPAUuintPtr@@PAU1@PAUStruct_System_GCs_OverflowFrameDescriptor@@@Z 0206baf0 f   NetStack.obj
 0001:0006ab1c       ?m_CalleeSaveMaskWithFP@Struct_System_GCs_CompressedFrameDescriptor@@SIPAUuintPtr@@PAU1@@Z 0206bb1c f   NetStack.obj
 0001:0006ab40       ?m_CalleeSaveMaskWithFP@Struct_System_GCs_CompressedFrameDescriptor@@SIPAUuintPtr@@PAU1@PAUStruct_System_GCs_OverflowFrameDescriptor@@@Z 0206bb40 f   NetStack.obj
 0001:0006ab68       ?m_CalleeSaveMaskNoFP@Struct_System_GCs_CompressedFrameDescriptor@@SIPAUuintPtr@@PAU1@@Z 0206bb68 f   NetStack.obj
 0001:0006ab8c       ?m_CalleeSaveMaskNoFP@Struct_System_GCs_CompressedFrameDescriptor@@SIPAUuintPtr@@PAU1@PAUStruct_System_GCs_OverflowFrameDescriptor@@@Z 0206bb8c f   NetStack.obj
 0001:0006abb4       ?m_ArgumentMaskWithFP@Struct_System_GCs_CompressedFrameDescriptor@@SIPAUuintPtr@@PAU1@@Z 0206bbb4 f   NetStack.obj
 0001:0006abd8       ?m_ArgumentMaskNoFP@Struct_System_GCs_CompressedFrameDescriptor@@SIPAUuintPtr@@PAU1@@Z 0206bbd8 f   NetStack.obj
 0001:0006abfc       ?g_UIntPtrPad@Class_System_GCs_Util@@SIPAUuintPtr@@PAU2@@Z 0206bbfc f   NetStack.obj
 0001:0006ac2c       ?g_PrintPageContents@Class_System_GCs_Util@@SIXPAUuintPtr@@@Z 0206bc2c f   NetStack.obj
 0001:0006acb8       ?g_PrintMemoryContents@Class_System_GCs_Util@@SIXPAUuintPtr@@0@Z 0206bcb8 f   NetStack.obj
 0001:0006b0a4       ?g_Pad@Class_System_GCs_Util@@SIPAUuintPtr@@PAU2@0@Z 0206c0a4 f   NetStack.obj
 0001:0006b0d4       ?g_MemCopy@Class_System_GCs_Util@@SIXPAUuintPtr@@00@Z 0206c0d4 f   NetStack.obj
 0001:0006b104       ?g_MemClear@Class_System_GCs_Util@@SIXPAUuintPtr@@0@Z 0206c104 f   NetStack.obj
 0001:0006b130       ?g_IsAligned@Class_System_GCs_Util@@SI_NII@Z 0206c130 f   NetStack.obj
 0001:0006b160       ?g_Align@Class_System_GCs_Util@@SIPAUuintPtr@@PAU2@0@Z 0206c160 f   NetStack.obj
 0001:0006b18c       ?m__ctor@Class_System_GCs_Util@@SIXPAU1@@Z 0206c18c f   NetStack.obj
 0001:0006b1a4       ?m_StructCopy@Struct_Microsoft_Singularity_ServiceManager_ServiceProcessContract_AckStop@@SIXPAU1@0@Z 0206c1a4 f   NetStack.obj
 0001:0006b1c0       ?m_StructCopy@Struct_Microsoft_Singularity_ServiceManager_ServiceProcessContract_AckStop@@SIXPAU1@PAU1@@Z 0206c1c0 f   NetStack.obj
 0001:0006b214       ?m_Equals@Struct_Microsoft_Singularity_ServiceManager_ServiceProcessContract_AckStop@@SI_NPAU1@PAUClass_System_Object@@@Z 0206c214 f   NetStack.obj
 0001:0006b24c       ?m_Equals@Struct_Microsoft_Singularity_ServiceManager_ServiceProcessContract_AckStop@@SI_NPAUClass_Microsoft_Singularity_ServiceManager_ServiceProcessContract_AckStop@@PAUClass_System_Object@@@Z 0206c24c f   NetStack.obj
 0001:0006b278       ?m_ToString@Class_Microsoft_Singularity_Io_IoPort@@SIPAUClass_System_String@@PAU1@@Z 0206c278 f   NetStack.obj
 0001:0006b2fc       ?m_StructCopy@Struct_Microsoft_Singularity_Directory_ServiceProviderContract_Exp@@SIXPAU1@0@Z 0206c2fc f   NetStack.obj
 0001:0006b3d8       ?m_StructCopy@Struct_Microsoft_Singularity_Directory_ServiceProviderContract_Exp@@SIXPAU1@PAU1@@Z 0206c3d8 f   NetStack.obj
 0001:0006b66c       ?m_SendNackConnect@Struct_Microsoft_Singularity_Directory_ServiceProviderContract_Exp@@SIXPAU1@PAUStruct_Microsoft_Singularity_Directory_ServiceContract_Exp@@@Z 0206c66c f   NetStack.obj
 0001:0006b7ec       ?m_SendAckConnect@Struct_Microsoft_Singularity_Directory_ServiceProviderContract_Exp@@SIXPAU1@@Z 0206c7ec f   NetStack.obj
 0001:0006b8e0       ?m_RecvConnect@Struct_Microsoft_Singularity_Directory_ServiceProviderContract_Exp@@SIXPAU1@PAPAUStruct_Microsoft_Singularity_Directory_ServiceContract_Exp@@@Z 0206c8e0 f   NetStack.obj
 0001:0006ba68       ?m_Peek@Struct_Microsoft_Singularity_Directory_ServiceProviderContract_Exp@@SIHPAU1@@Z 0206ca68 f   NetStack.obj
 0001:0006bb9c       ?m_HeadMatches@Struct_Microsoft_Singularity_Directory_ServiceProviderContract_Exp@@SI_NPAU1@HPA_NPAPAUClass_System_Object@@@Z 0206cb9c f   NetStack.obj
 0001:0006bc5c       ?m_HeadMatches@Struct_Microsoft_Singularity_Directory_ServiceProviderContract_Exp@@SI_NPAUClass_Microsoft_Singularity_Directory_ServiceProviderContract_Exp@@HPA_NPAPAUClass_System_Object@@@Z 0206cc5c f   NetStack.obj
 0001:0006bc94       ?m_Equals@Struct_Microsoft_Singularity_Directory_ServiceProviderContract_Exp@@SI_NPAU1@PAUClass_System_Object@@@Z 0206cc94 f   NetStack.obj
 0001:0006bf70       ?m_Equals@Struct_Microsoft_Singularity_Directory_ServiceProviderContract_Exp@@SI_NPAUClass_Microsoft_Singularity_Directory_ServiceProviderContract_Exp@@PAUClass_System_Object@@@Z 0206cf70 f   NetStack.obj
 0001:0006bf9c       ?m_Dispose@Struct_Microsoft_Singularity_Directory_ServiceProviderContract_Exp@@SIXPAU1@@Z 0206cf9c f   NetStack.obj
 0001:0006bfc0       ?m_Dispose@Struct_Microsoft_Singularity_Directory_ServiceProviderContract_Exp@@SIXPAUClass_Microsoft_Singularity_Directory_ServiceProviderContract_Exp@@@Z 0206cfc0 f   NetStack.obj
 0001:0006bfe8       ?m_CurrentState@Struct_Microsoft_Singularity_Directory_ServiceProviderContract_Exp@@SIPAUClass_System_String@@PAU1@@Z 0206cfe8 f   NetStack.obj
 0001:0006c064       ?m__ctor@Struct_Microsoft_Singularity_Directory_ServiceProviderContract_Exp@@SIXPAU1@H@Z 0206d064 f   NetStack.obj
 0001:0006c090       ?m_StructCopy@Struct_Microsoft_Singularity_Directory_DirectoryServiceContract_DeleteDirectory@@SIXPAU1@0@Z 0206d090 f   NetStack.obj
 0001:0006c0b8       ?m_StructCopy@Struct_Microsoft_Singularity_Directory_DirectoryServiceContract_DeleteDirectory@@SIXPAU1@PAU1@@Z 0206d0b8 f   NetStack.obj
 0001:0006c130       ?m_Equals@Struct_Microsoft_Singularity_Directory_DirectoryServiceContract_DeleteDirectory@@SI_NPAU1@PAUClass_System_Object@@@Z 0206d130 f   NetStack.obj
 0001:0006c178       ?m_Equals@Struct_Microsoft_Singularity_Directory_DirectoryServiceContract_DeleteDirectory@@SI_NPAUClass_Microsoft_Singularity_Directory_DirectoryServiceContract_DeleteDirectory@@PAUClass_System_Object@@@Z 0206d178 f   NetStack.obj
 0001:0006c1a4       ?m_StructCopy@Struct_Microsoft_Singularity_Directory_DirectoryServiceContract_AckCreateAndBindFile@@SIXPAU1@0@Z 0206d1a4 f   NetStack.obj
 0001:0006c1c0       ?m_StructCopy@Struct_Microsoft_Singularity_Directory_DirectoryServiceContract_AckCreateAndBindFile@@SIXPAU1@PAU1@@Z 0206d1c0 f   NetStack.obj
 0001:0006c214       ?m_Equals@Struct_Microsoft_Singularity_Directory_DirectoryServiceContract_AckCreateAndBindFile@@SI_NPAU1@PAUClass_System_Object@@@Z 0206d214 f   NetStack.obj
 0001:0006c24c       ?m_Equals@Struct_Microsoft_Singularity_Directory_DirectoryServiceContract_AckCreateAndBindFile@@SI_NPAUClass_Microsoft_Singularity_Directory_DirectoryServiceContract_AckCreateAndBindFile@@PAUClass_System_Object@@@Z 0206d24c f   NetStack.obj
 0001:0006c278       ?m_StructCopy@Struct_Microsoft_Singularity_V1_Services_SharedHeapService_Allocation@@SIXPAU1@0@Z 0206d278 f   NetStack.obj
 0001:0006c2dc       ?m_StructCopy@Struct_Microsoft_Singularity_V1_Services_SharedHeapService_Allocation@@SIXPAU1@PAU1@@Z 0206d2dc f   NetStack.obj
 0001:0006c408       ?m_Equals@Struct_Microsoft_Singularity_V1_Services_SharedHeapService_Allocation@@SI_NPAU1@PAUClass_System_Object@@@Z 0206d408 f   NetStack.obj
 0001:0006c498       ?m_Equals@Struct_Microsoft_Singularity_V1_Services_SharedHeapService_Allocation@@SI_NPAUClass_Microsoft_Singularity_V1_Services_SharedHeapService_Allocation@@PAUClass_System_Object@@@Z 0206d498 f   NetStack.obj
 0001:0006c4c4       ?m_StructCopy@Struct_NetStack_Contracts_TcpConnectionContract_Read@@SIXPAU1@0@Z 0206d4c4 f   NetStack.obj
 0001:0006c4e0       ?m_StructCopy@Struct_NetStack_Contracts_TcpConnectionContract_Read@@SIXPAU1@PAU1@@Z 0206d4e0 f   NetStack.obj
 0001:0006c534       ?m_Equals@Struct_NetStack_Contracts_TcpConnectionContract_Read@@SI_NPAU1@PAUClass_System_Object@@@Z 0206d534 f   NetStack.obj
 0001:0006c56c       ?m_Equals@Struct_NetStack_Contracts_TcpConnectionContract_Read@@SI_NPAUClass_NetStack_Contracts_TcpConnectionContract_Read@@PAUClass_System_Object@@@Z 0206d56c f   NetStack.obj
 0001:0006c598       ?m_StopModule@Class_NetStack_Runtime_TcpModule@@SI_NPAU1@@Z 0206d598 f   NetStack.obj
 0001:0006c5c8       ?m_StartModule@Class_NetStack_Runtime_TcpModule@@SI_NPAU1@@Z 0206d5c8 f   NetStack.obj
 0001:0006c634       ?m_ReInitializeSession@Class_NetStack_Runtime_TcpModule@@SIPAUClass_NetStack_Runtime_TcpSession@@PAU1@PAU2@@Z 0206d634 f   NetStack.obj
 0001:0006c6bc       ?m_OnProtocolSend@Class_NetStack_Runtime_TcpModule@@SI?AUStruct_NetStack_Runtime_NetStatus@@PAU1@PAUClass_NetStack_Common_NetPacket@@@Z 0206d6bc f   NetStack.obj
 0001:0006c71c       ?m_OnProtocolReceive@Class_NetStack_Runtime_TcpModule@@SI?AUStruct_NetStack_Runtime_NetStatus@@PAU1@PAUClass_NetStack_Common_NetPacket@@@Z 0206d71c f   NetStack.obj
 0001:0006c974       ?m_NetStack_Runtime_IProtocol_CreateSession@Class_NetStack_Runtime_TcpModule@@SIPAUClass_NetStack_Runtime_Session@@PAU1@@Z 0206d974 f   NetStack.obj
 0001:0006c9fc       ?m_NetStack_Runtime_INetModule_get$_ModuleName@Class_NetStack_Runtime_TcpModule@@SIPAUClass_System_String@@PAU1@@Z 0206d9fc f   NetStack.obj
 0001:0006ca3c       ?m_Initialize@Class_NetStack_Runtime_TcpModule@@SI_NPAU1@PAUClass_NetStack_Runtime_ProtocolParams@@@Z 0206da3c f   NetStack.obj
 0001:0006cab8       ?m_GetProtocolID@Class_NetStack_Runtime_TcpModule@@SIGPAU1@@Z 0206dab8 f   NetStack.obj
 0001:0006caf8       ?m_FindSession@Class_NetStack_Runtime_TcpModule@@SIPAUClass_NetStack_Runtime_TcpSession@@PAU1@PAUClass_NetStack_Protocols_IPFormat_IPHeader@@PAUStruct_NetStack_Protocols_TcpFormat_TcpHeader@@@Z 0206daf8 f   NetStack.obj
 0001:0006cde4       ?m__ctor@Class_NetStack_Runtime_TcpModule@@SIXPAU1@@Z 0206dde4 f   NetStack.obj
 0001:0006ce00       ?m_StructCopy@Struct_Microsoft_Singularity_ServiceManager_ServiceProcessContract_Knock@@SIXPAU1@0@Z 0206de00 f   NetStack.obj
 0001:0006ce1c       ?m_StructCopy@Struct_Microsoft_Singularity_ServiceManager_ServiceProcessContract_Knock@@SIXPAU1@PAU1@@Z 0206de1c f   NetStack.obj
 0001:0006ce70       ?m_Equals@Struct_Microsoft_Singularity_ServiceManager_ServiceProcessContract_Knock@@SI_NPAU1@PAUClass_System_Object@@@Z 0206de70 f   NetStack.obj
 0001:0006cea8       ?m_Equals@Struct_Microsoft_Singularity_ServiceManager_ServiceProcessContract_Knock@@SI_NPAUClass_Microsoft_Singularity_ServiceManager_ServiceProcessContract_Knock@@PAUClass_System_Object@@@Z 0206dea8 f   NetStack.obj
 0001:0006ced4       ?m_Wait@Class_System_Threading_Monitor@@SI_NPAU1@UStruct_System_SchedulerTime@@@Z 0206ded4 f   NetStack.obj
 0001:0006d1f4       ?g_Wait@Class_System_Threading_Monitor@@SI_NPAUClass_System_Object@@@Z 0206e1f4 f   NetStack.obj
 0001:0006d26c       ?g_Wait@Class_System_Threading_Monitor@@SI_NPAUClass_System_Object@@UStruct_System_TimeSpan@@@Z 0206e26c f   NetStack.obj
 0001:0006d314       ?m_TryEnter@Class_System_Threading_Monitor@@SI_NPAU1@@Z 0206e314 f   NetStack.obj
 0001:0006d384       ?m_TryEnter@Class_System_Threading_Monitor@@SI_NPAU1@UStruct_System_SchedulerTime@@@Z 0206e384 f   NetStack.obj
 0001:0006d400       ?g_TryEnter@Class_System_Threading_Monitor@@SI_NPAUClass_System_Object@@@Z 0206e400 f   NetStack.obj
 0001:0006d43c       ?g_TryEnter@Class_System_Threading_Monitor@@SI_NPAUClass_System_Object@@UStruct_System_TimeSpan@@@Z 0206e43c f   NetStack.obj
 0001:0006d4e4       ?m_Remove@Class_System_Threading_Monitor@@SI_NPAU1@PAUClass_System_Threading_Thread@@@Z 0206e4e4 f   NetStack.obj
 0001:0006d5e4       ?m_PulseAll@Class_System_Threading_Monitor@@SIXPAU1@@Z 0206e5e4 f   NetStack.obj
 0001:0006d6a4       ?g_PulseAll@Class_System_Threading_Monitor@@SIXPAUClass_System_Object@@@Z 0206e6a4 f   NetStack.obj
 0001:0006d6e0       ?m_Pulse@Class_System_Threading_Monitor@@SIXPAU1@@Z 0206e6e0 f   NetStack.obj
 0001:0006d80c       ?g_Pulse@Class_System_Threading_Monitor@@SIXPAUClass_System_Object@@@Z 0206e80c f   NetStack.obj
 0001:0006d848       ?m_IsInUse@Class_System_Threading_Monitor@@SI_NPAU1@@Z 0206e848 f   NetStack.obj
 0001:0006d864       ?g_GetMonitorFromObject@Class_System_Threading_Monitor@@SIPAU1@PAUClass_System_Object@@@Z 0206e864 f   NetStack.obj
 0001:0006d8e0       ?g_FromAddress@Class_System_Threading_Monitor@@SIPAU1@PAUuintPtr@@@Z 0206e8e0 f   NetStack.obj
 0001:0006d8fc       ?g_ExitImpl@Class_System_Threading_Monitor@@SIXPAUClass_System_Object@@@Z 0206e8fc f   NetStack.obj
 0001:0006d938       ?m_Exit@Class_System_Threading_Monitor@@SIXPAU1@@Z 0206e938 f   NetStack.obj
 0001:0006d9b0       ?g_EnterImpl@Class_System_Threading_Monitor@@SIXPAUClass_System_Object@@@Z 0206e9b0 f   NetStack.obj
 0001:0006d9ec       ?m_Enter@Class_System_Threading_Monitor@@SIXPAU1@@Z 0206e9ec f   NetStack.obj
 0001:0006da4c       ?m_Enqueue@Class_System_Threading_Monitor@@SIXPAU1@PAUClass_System_Threading_Thread@@@Z 0206ea4c f   NetStack.obj
 0001:0006daa0       ?m_Dequeue@Class_System_Threading_Monitor@@SIPAUClass_System_Threading_Thread@@PAU1@@Z 0206eaa0 f   NetStack.obj
 0001:0006db24       ?m__ctor@Class_System_Threading_Monitor@@SIXPAU1@@Z 0206eb24 f   NetStack.obj
 0001:0006db78       ?m__ctor@Class_System_Threading_Timeout@@SIXPAU1@@Z 0206eb78 f   NetStack.obj
 0001:0006db90       ?g__cctor@Class_System_Threading_Timeout@@SIXXZ 0206eb90 f   NetStack.obj
 0001:0006dbdc       ?g_TransferVectorOwnership@Struct_NetStack_Contracts_RouteEntry@@SIXPAUStruct_Microsoft_Singularity_Channels_Endpoint@@PAU1@@Z 0206ebdc f   NetStack.obj
 0001:0006dc0c       ?m_TransferContentsOwnership@Struct_NetStack_Contracts_RouteEntry@@SIXPAU1@PAUStruct_Microsoft_Singularity_Channels_Endpoint@@@Z 0206ec0c f   NetStack.obj
 0001:0006dc28       ?m_StructCopy@Struct_NetStack_Contracts_RouteEntry@@SIXPAU1@0@Z 0206ec28 f   NetStack.obj
 0001:0006dc84       ?m_StructCopy@Struct_NetStack_Contracts_RouteEntry@@SIXPAU1@PAU1@@Z 0206ec84 f   NetStack.obj
 0001:0006dd98       ?g_MarshallVector@Struct_NetStack_Contracts_RouteEntry@@SIXPAEPAUStruct_Microsoft_Singularity_Channels_Endpoint@@0PAU1@@Z 0206ed98 f   NetStack.obj
 0001:0006de58       ?m_MarshallContent@Struct_NetStack_Contracts_RouteEntry@@SIXPAU1@PAEPAUStruct_Microsoft_Singularity_Channels_Endpoint@@1@Z 0206ee58 f   NetStack.obj
 0001:0006de94       ?m_Equals@Struct_NetStack_Contracts_RouteEntry@@SI_NPAU1@PAUClass_System_Object@@@Z 0206ee94 f   NetStack.obj
 0001:0006df94       ?m_Equals@Struct_NetStack_Contracts_RouteEntry@@SI_NPAUClass_NetStack_Contracts_RouteEntry@@PAUClass_System_Object@@@Z 0206ef94 f   NetStack.obj
 0001:0006dfc0       ?m_StructCopy@Struct_Microsoft_Singularity_V1_Threads_MutexHandle@@SIXPAU1@0@Z 0206efc0 f   NetStack.obj
 0001:0006dfe8       ?m_StructCopy@Struct_Microsoft_Singularity_V1_Threads_MutexHandle@@SIXPAU1@PAU1@@Z 0206efe8 f   NetStack.obj
 0001:0006e060       ?m_Equals@Struct_Microsoft_Singularity_V1_Threads_MutexHandle@@SI_NPAU1@PAUClass_System_Object@@@Z 0206f060 f   NetStack.obj
 0001:0006e0a8       ?m_Equals@Struct_Microsoft_Singularity_V1_Threads_MutexHandle@@SI_NPAUClass_Microsoft_Singularity_V1_Threads_MutexHandle@@PAUClass_System_Object@@@Z 0206f0a8 f   NetStack.obj
 0001:0006e0d4       ?g_Create@Struct_Microsoft_Singularity_V1_Threads_MutexHandle@@SI_N_NPAU1@@Z 0206f0d4 f   NetStack.obj
 0001:0006e120       ?g_UnExpose@Class_Microsoft_SingSharp_CustomVector@@SIXPAUvoid@@H@Z 0206f120 f   NetStack.obj
 0001:0006e13c       ?g_Expose@Class_Microsoft_SingSharp_CustomVector@@SIXPAUvoid@@H@Z 0206f13c f   NetStack.obj
 0001:0006e158       ?m__ctor@Class_Microsoft_SingSharp_CustomVector@@SIXPAU1@@Z 0206f158 f   NetStack.obj
 0001:0006e170       ?m_ToString@float64@@SIPAUClass_System_String@@PAN@Z 0206f170 f   NetStack.obj
 0001:0006e198       ?m_ToString@float64@@SIPAUClass_System_String@@PANPAU2@@Z 0206f198 f   NetStack.obj
 0001:0006e1e4       ?m_ToString@float64@@SIPAUClass_System_String@@PAUClass_System_Double@@@Z 0206f1e4 f   NetStack.obj
 0001:0006e20c       ?m_ToString@float64@@SIPAUClass_System_String@@PAUClass_System_Double@@PAU2@@Z 0206f20c f   NetStack.obj
 0001:0006e238       ?g_IsNaN@float64@@SI_NN@Z  0206f238 f   NetStack.obj
 0001:0006e2e8       ?m_GetHashCode@float64@@SIHPAN@Z 0206f2e8 f   NetStack.obj
 0001:0006e354       ?m_GetHashCode@float64@@SIHPAUClass_System_Double@@@Z 0206f354 f   NetStack.obj
 0001:0006e37c       ?m_Equals@float64@@SI_NPANPAUClass_System_Object@@@Z 0206f37c f   NetStack.obj
 0001:0006e424       ?m_Equals@float64@@SI_NPAUClass_System_Double@@PAUClass_System_Object@@@Z 0206f424 f   NetStack.obj
 0001:0006e450       ?m_CompareTo@float64@@SIHPANPAUClass_System_Object@@@Z 0206f450 f   NetStack.obj
 0001:0006e594       ?m_CompareTo@float64@@SIHPAUClass_System_Double@@PAUClass_System_Object@@@Z 0206f594 f   NetStack.obj
 0001:0006e5c0       ?m_StructCopy@Struct_Microsoft_Singularity_Io_Net_NicDeviceContract_Success@@SIXPAU1@0@Z 0206f5c0 f   NetStack.obj
 0001:0006e5dc       ?m_StructCopy@Struct_Microsoft_Singularity_Io_Net_NicDeviceContract_Success@@SIXPAU1@PAU1@@Z 0206f5dc f   NetStack.obj
 0001:0006e630       ?m_Equals@Struct_Microsoft_Singularity_Io_Net_NicDeviceContract_Success@@SI_NPAU1@PAUClass_System_Object@@@Z 0206f630 f   NetStack.obj
 0001:0006e668       ?m_Equals@Struct_Microsoft_Singularity_Io_Net_NicDeviceContract_Success@@SI_NPAUClass_Microsoft_Singularity_Io_Net_NicDeviceContract_Success@@PAUClass_System_Object@@@Z 0206f668 f   NetStack.obj
 0001:0006e694       ?m_StructCopy@Struct_NetStack_Contracts_UdpConnectionContract_Port@@SIXPAU1@0@Z 0206f694 f   NetStack.obj
 0001:0006e6bc       ?m_StructCopy@Struct_NetStack_Contracts_UdpConnectionContract_Port@@SIXPAU1@PAU1@@Z 0206f6bc f   NetStack.obj
 0001:0006e734       ?m_MarshallContent@Struct_NetStack_Contracts_UdpConnectionContract_Port@@SIXPAU1@PAEPAUStruct_Microsoft_Singularity_Channels_Endpoint@@1PAH@Z 0206f734 f   NetStack.obj
 0001:0006e754       ?m_MarshallAll@Struct_NetStack_Contracts_UdpConnectionContract_Port@@SIXPAU1@PAEPAUStruct_Microsoft_Singularity_Channels_Endpoint@@PAH@Z 0206f754 f   NetStack.obj
 0001:0006e7ac       ?m_Equals@Struct_NetStack_Contracts_UdpConnectionContract_Port@@SI_NPAU1@PAUClass_System_Object@@@Z 0206f7ac f   NetStack.obj
 0001:0006e7f8       ?m_Equals@Struct_NetStack_Contracts_UdpConnectionContract_Port@@SI_NPAUClass_NetStack_Contracts_UdpConnectionContract_Port@@PAUClass_System_Object@@@Z 0206f7f8 f   NetStack.obj
 0001:0006e824       ?g_WriteIPHeader@Class_NetStack_Protocols_IPFormat@@SIHPAUClassVector_uint8@@HPAUClass_NetStack_Protocols_IPFormat_IPHeader@@@Z 0206f824 f   NetStack.obj
 0001:0006ec50       ?g_SumUInt16AndUInt32Values@Class_NetStack_Protocols_IPFormat@@SIGGI@Z 0206fc50 f   NetStack.obj
 0001:0006ecd4       ?g_SumShortValues@Class_NetStack_Protocols_IPFormat@@SIGGG@Z 0206fcd4 f   NetStack.obj
 0001:0006ed68       ?g_SumShortValues@Class_NetStack_Protocols_IPFormat@@SIGPAUClassVector_uint8@@HH@Z 0206fd68 f   NetStack.obj
 0001:0006eee8       ?g_SumPseudoHeader@Class_NetStack_Protocols_IPFormat@@SIGPAUClassVector_uint8@@HPAG@Z 0206fee8 f   NetStack.obj
 0001:0006f024       ?g_SumPseudoHeader@Class_NetStack_Protocols_IPFormat@@SIGPAUClass_NetStack_Protocols_IPFormat_IPHeader@@@Z 02070024 f   NetStack.obj
 0001:0006f16c       ?g_SetDontFragBit@Class_NetStack_Protocols_IPFormat@@SIXPAUClass_NetStack_Protocols_IPFormat_IPHeader@@@Z 0207016c f   NetStack.obj
 0001:0006f19c       ?g_ReadIPHeader@Class_NetStack_Protocols_IPFormat@@SI_NPAUClass_NetStack_Common_IBuffer@@PAPAUClass_NetStack_Protocols_IPFormat_IPHeader@@@Z 0207019c f   NetStack.obj
 0001:0006f3bc       ?g_IsMoreFragSet@Class_NetStack_Protocols_IPFormat@@SI_NPAUClass_NetStack_Protocols_IPFormat_IPHeader@@@Z 020703bc f   NetStack.obj
 0001:0006f418       ?g_IsCheckSumOK@Class_NetStack_Protocols_IPFormat@@SI_NPAUClass_NetStack_Protocols_IPFormat_IPHeader@@@Z 02070418 f   NetStack.obj
 0001:0006f65c       ?g_FixZeroChecksum@Class_NetStack_Protocols_IPFormat@@SIGG@Z 0207065c f   NetStack.obj
 0001:0006f6ac       ?g_ComplementAndFixZeroChecksum@Class_NetStack_Protocols_IPFormat@@SIGG@Z 020706ac f   NetStack.obj
 0001:0006f700       ?g_Checksum@Class_NetStack_Protocols_IPFormat@@SIGPAUClassVector_uint8@@HH@Z 02070700 f   NetStack.obj
 0001:0006f750       ?m__ctor@Class_NetStack_Protocols_IPFormat@@SIXPAU1@@Z 02070750 f   NetStack.obj
 0001:0006f768       ?m_StructCopy@Struct_Microsoft_Singularity_Isal_ThreadRecord@@SIXPAU1@0@Z 02070768 f   NetStack.obj
 0001:0006f7a8       ?m_StructCopy@Struct_Microsoft_Singularity_Isal_ThreadRecord@@SIXPAU1@PAU1@@Z 020707a8 f   NetStack.obj
 0001:0006f868       ?m_Equals@Struct_Microsoft_Singularity_Isal_ThreadRecord@@SI_NPAU1@PAUClass_System_Object@@@Z 02070868 f   NetStack.obj
 0001:0006f938       ?m_Equals@Struct_Microsoft_Singularity_Isal_ThreadRecord@@SI_NPAUClass_Microsoft_Singularity_Isal_ThreadRecord@@PAUClass_System_Object@@@Z 02070938 f   NetStack.obj
 0001:0006f964       ?m_StructCopy@Struct_Microsoft_Singularity_V1_Services_StackService@@SIXPAU1@0@Z 02070964 f   NetStack.obj
 0001:0006f980       ?m_StructCopy@Struct_Microsoft_Singularity_V1_Services_StackService@@SIXPAU1@PAU1@@Z 02070980 f   NetStack.obj
 0001:0006f9d4       ?g_FreeStackSegment@Struct_Microsoft_Singularity_V1_Services_StackService@@SIXXZ 020709d4 f   NetStack.obj
 0001:0006f9e4       ?m_Equals@Struct_Microsoft_Singularity_V1_Services_StackService@@SI_NPAU1@PAUClass_System_Object@@@Z 020709e4 f   NetStack.obj
 0001:0006fa1c       ?m_Equals@Struct_Microsoft_Singularity_V1_Services_StackService@@SI_NPAUClass_Microsoft_Singularity_V1_Services_StackService@@PAUClass_System_Object@@@Z 02070a1c f   NetStack.obj
 0001:0006fa48       ?g_AllocateStackSegment@Struct_Microsoft_Singularity_V1_Services_StackService@@SIPAUuintPtr@@PAU2@@Z 02070a48 f   NetStack.obj
 0001:0006fa90       ?m_InvokeStaticStub@Class_NetStack_Runtime_TcpSession_CopyDataDelegate@@SIXPAU1@PAUClassVector_uint8@@HHH@Z 02070a90 f   NetStack.obj
 0001:0006facc       ?m_Invoke@Class_NetStack_Runtime_TcpSession_CopyDataDelegate@@SIXPAU1@PAUClassVector_uint8@@HHH@Z 02070acc f   NetStack.obj
 0001:0006fb44       ?m_EndInvoke@Class_NetStack_Runtime_TcpSession_CopyDataDelegate@@SIXPAU1@PAUClass_System_IAsyncResult@@@Z 02070b44 f   NetStack.obj
 0001:0006fb60       ?m_BeginInvoke@Class_NetStack_Runtime_TcpSession_CopyDataDelegate@@SIPAUClass_System_IAsyncResult@@PAU1@PAUClassVector_uint8@@HHHPAUClass_System_AsyncCallback@@PAUClass_System_Object@@@Z 02070b60 f   NetStack.obj
 0001:0006fb80       ?m__ctor@Class_NetStack_Runtime_TcpSession_CopyDataDelegate@@SIXPAU1@PAUClass_System_Object@@PAUintPtr@@@Z 02070b80 f   NetStack.obj
 0001:0006fbe4       ?m_StructCopy@Struct_NetStack_Runtime_TcpSessionEventsSource_TimeoutEntry@@SIXPAU1@0@Z 02070be4 f   NetStack.obj
 0001:0006fc24       ?m_StructCopy@Struct_NetStack_Runtime_TcpSessionEventsSource_TimeoutEntry@@SIXPAU1@PAU1@@Z 02070c24 f   NetStack.obj
 0001:0006fce4       ?m_Equals@Struct_NetStack_Runtime_TcpSessionEventsSource_TimeoutEntry@@SI_NPAU1@PAUClass_System_Object@@@Z 02070ce4 f   NetStack.obj
 0001:0006fd50       ?m_Equals@Struct_NetStack_Runtime_TcpSessionEventsSource_TimeoutEntry@@SI_NPAUClass_NetStack_Runtime_TcpSessionEventsSource_TimeoutEntry@@PAUClass_System_Object@@@Z 02070d50 f   NetStack.obj
 0001:0006fd7c       ?m__ctor@Struct_NetStack_Runtime_TcpSessionEventsSource_TimeoutEntry@@SIXPAU1@IUStruct_NetStack_Runtime_TcpStateEnum@@UStruct_NetStack_Runtime_TcpSession_TcpTimeoutType@@@Z 02070d7c f   NetStack.obj
 0001:0006fdbc       ?m_StructCopy@Struct_Microsoft_Singularity_ServiceManager_ServiceProcessContract_Exp@@SIXPAU1@0@Z 02070dbc f   NetStack.obj
 0001:0006febc       ?m_StructCopy@Struct_Microsoft_Singularity_ServiceManager_ServiceProcessContract_Exp@@SIXPAU1@PAU1@@Z 02070ebc f   NetStack.obj
 0001:000701bc       ?m_SendStartSucceeded@Struct_Microsoft_Singularity_ServiceManager_ServiceProcessContract_Exp@@SIXPAU1@@Z 020711bc f   NetStack.obj
 0001:000702b0       ?m_SendStartFailed@Struct_Microsoft_Singularity_ServiceManager_ServiceProcessContract_Exp@@SIXPAU1@UStruct_Microsoft_Singularity_ServiceManager_ServiceError@@@Z 020712b0 f   NetStack.obj
 0001:000703ac       ?m_SendNakConnect@Struct_Microsoft_Singularity_ServiceManager_ServiceProcessContract_Exp@@SIXPAU1@UStruct_Microsoft_Singularity_Directory_ErrorCode@@PAUStruct_Microsoft_Singularity_Directory_ServiceContract_Exp@@@Z 020713ac f   NetStack.obj
 0001:00070538       ?m_SendAlive@Struct_Microsoft_Singularity_ServiceManager_ServiceProcessContract_Exp@@SIXPAU1@@Z 02071538 f   NetStack.obj
 0001:0007062c       ?m_Release@Struct_Microsoft_Singularity_ServiceManager_ServiceProcessContract_Exp@@SIXPAU1@@Z 0207162c f   NetStack.obj
 0001:00070648       ?m_RecvStop@Struct_Microsoft_Singularity_ServiceManager_ServiceProcessContract_Exp@@SIXPAU1@@Z 02071648 f   NetStack.obj
 0001:000707c0       ?m_RecvKnock@Struct_Microsoft_Singularity_ServiceManager_ServiceProcessContract_Exp@@SIXPAU1@@Z 020717c0 f   NetStack.obj
 0001:00070938       ?m_RecvConnect@Struct_Microsoft_Singularity_ServiceManager_ServiceProcessContract_Exp@@SIXPAU1@PAPA_WPAPAUStruct_Microsoft_Singularity_Directory_ServiceContract_Exp@@@Z 02071938 f   NetStack.obj
 0001:00070ad4       ?m_Peek@Struct_Microsoft_Singularity_ServiceManager_ServiceProcessContract_Exp@@SIHPAU1@@Z 02071ad4 f   NetStack.obj
 0001:00070d68       ?m_HeadMatches@Struct_Microsoft_Singularity_ServiceManager_ServiceProcessContract_Exp@@SI_NPAU1@HPA_NPAPAUClass_System_Object@@@Z 02071d68 f   NetStack.obj
 0001:00070e28       ?m_HeadMatches@Struct_Microsoft_Singularity_ServiceManager_ServiceProcessContract_Exp@@SI_NPAUClass_Microsoft_Singularity_ServiceManager_ServiceProcessContract_Exp@@HPA_NPAPAUClass_System_Object@@@Z 02071e28 f   NetStack.obj
 0001:00070e60       ?m_Equals@Struct_Microsoft_Singularity_ServiceManager_ServiceProcessContract_Exp@@SI_NPAU1@PAUClass_System_Object@@@Z 02071e60 f   NetStack.obj
 0001:00071208       ?m_Equals@Struct_Microsoft_Singularity_ServiceManager_ServiceProcessContract_Exp@@SI_NPAUClass_Microsoft_Singularity_ServiceManager_ServiceProcessContract_Exp@@PAUClass_System_Object@@@Z 02072208 f   NetStack.obj
 0001:00071234       ?m_Dispose@Struct_Microsoft_Singularity_ServiceManager_ServiceProcessContract_Exp@@SIXPAU1@@Z 02072234 f   NetStack.obj
 0001:00071258       ?m_Dispose@Struct_Microsoft_Singularity_ServiceManager_ServiceProcessContract_Exp@@SIXPAUClass_Microsoft_Singularity_ServiceManager_ServiceProcessContract_Exp@@@Z 02072258 f   NetStack.obj
 0001:00071280       ?m_CurrentState@Struct_Microsoft_Singularity_ServiceManager_ServiceProcessContract_Exp@@SIPAUClass_System_String@@PAU1@@Z 02072280 f   NetStack.obj
 0001:00071344       ?m_Acquire@Struct_Microsoft_Singularity_ServiceManager_ServiceProcessContract_Exp@@SIXPAU1@@Z 02072344 f   NetStack.obj
 0001:00071360       ?m_ToString@uint16@@SIPAUClass_System_String@@PAG@Z 02072360 f   NetStack.obj
 0001:00071388       ?m_ToString@uint16@@SIPAUClass_System_String@@PAGPAU2@@Z 02072388 f   NetStack.obj
 0001:000713d4       ?m_ToString@uint16@@SIPAUClass_System_String@@PAUClass_System_UInt16@@@Z 020723d4 f   NetStack.obj
 0001:000713fc       ?m_ToString@uint16@@SIPAUClass_System_String@@PAUClass_System_UInt16@@PAU2@@Z 020723fc f   NetStack.obj
 0001:00071428       ?m_GetHashCode@uint16@@SIHPAG@Z 02072428 f   NetStack.obj
 0001:0007144c       ?m_GetHashCode@uint16@@SIHPAUClass_System_UInt16@@@Z 0207244c f   NetStack.obj
 0001:00071474       ?m_Equals@uint16@@SI_NPAGPAUClass_System_Object@@@Z 02072474 f   NetStack.obj
 0001:000714d8       ?m_Equals@uint16@@SI_NPAUClass_System_UInt16@@PAUClass_System_Object@@@Z 020724d8 f   NetStack.obj
 0001:00071504       ?m_CompareTo@uint16@@SIHPAGPAUClass_System_Object@@@Z 02072504 f   NetStack.obj
 0001:00071590       ?m_CompareTo@uint16@@SIHPAUClass_System_UInt16@@PAUClass_System_Object@@@Z 02072590 f   NetStack.obj
 0001:000715bc       ?m_ToString@Class_NetStack_Runtime_RouteEntry@@SIPAUClass_System_String@@PAU1@@Z 020725bc f   NetStack.obj
 0001:0007189c       ?m_System_Object_Object_ToString@Class_NetStack_Runtime_RouteEntry@@SIPAUClass_System_String@@PAU1@@Z 0207289c f   NetStack.obj
 0001:000718dc       ?m_get$_Tag@Class_NetStack_Runtime_RouteEntry@@SIIPAU1@@Z 020728dc f   NetStack.obj
 0001:00071918       ?m_get$_Network@Class_NetStack_Runtime_RouteEntry@@SI?AUStruct_System_Net_IP_IPv4Network@@PAU1@@Z 02072918 f   NetStack.obj
 0001:0007198c       ?m_get$_Metric@Class_NetStack_Runtime_RouteEntry@@SIIPAU1@@Z 0207298c f   NetStack.obj
 0001:000719c8       ?m_get$_InterfaceAddress@Class_NetStack_Runtime_RouteEntry@@SI?AUStruct_System_Net_IP_IPv4@@PAU1@@Z 020729c8 f   NetStack.obj
 0001:00071a04       ?m_get$_Gateway@Class_NetStack_Runtime_RouteEntry@@SI?AUStruct_System_Net_IP_IPv4@@PAU1@@Z 02072a04 f   NetStack.obj
 0001:00071a40       ?m_CompareTo@Class_NetStack_Runtime_RouteEntry@@SIHPAU1@PAUClass_System_Object@@@Z 02072a40 f   NetStack.obj
 0001:00071c2c       ?m__ctor@Class_NetStack_Runtime_RouteEntry@@SIXPAU1@UStruct_System_Net_IP_IPv4Network@@UStruct_System_Net_IP_IPv4@@2@Z 02072c2c f   NetStack.obj
 0001:00071c78       ?m__ctor@Class_NetStack_Runtime_RouteEntry@@SIXPAU1@UStruct_System_Net_IP_IPv4Network@@UStruct_System_Net_IP_IPv4@@2II@Z 02072c78 f   NetStack.obj
 0001:00071cd4       ?m__ctor@Class_NetStack_Runtime_RouteEntry@@SIXPAU1@UStruct_System_Net_IP_IPv4@@11II@Z 02072cd4 f   NetStack.obj
 0001:00071d68       ?m_Destroy@Class_NetStack_Runtime_TcpSession_ExHeapDataCopier@@SIXPAU1@@Z 02072d68 f   NetStack.obj
 0001:00071dc4       ?m_CopyData@Class_NetStack_Runtime_TcpSession_ExHeapDataCopier@@SIXPAU1@PAUClassVector_uint8@@HHH@Z 02072dc4 f   NetStack.obj
 0001:00071e98       ?m__ctor@Class_NetStack_Runtime_TcpSession_ExHeapDataCopier@@SIXPAU1@PAE@Z 02072e98 f   NetStack.obj
 0001:00071ee8       ?m_StructCopy@Struct_NetStack_Contracts_UdpConnectionContract_GetRemotePort@@SIXPAU1@0@Z 02072ee8 f   NetStack.obj
 0001:00071f04       ?m_StructCopy@Struct_NetStack_Contracts_UdpConnectionContract_GetRemotePort@@SIXPAU1@PAU1@@Z 02072f04 f   NetStack.obj
 0001:00071f58       ?m_Equals@Struct_NetStack_Contracts_UdpConnectionContract_GetRemotePort@@SI_NPAU1@PAUClass_System_Object@@@Z 02072f58 f   NetStack.obj
 0001:00071f90       ?m_Equals@Struct_NetStack_Contracts_UdpConnectionContract_GetRemotePort@@SI_NPAUClass_NetStack_Contracts_UdpConnectionContract_GetRemotePort@@PAUClass_System_Object@@@Z 02072f90 f   NetStack.obj
 0001:00071fbc       ?m__ctor@Class_Microsoft_Singularity_Eventing_DataType@@SIXPAU1@@Z 02072fbc f   NetStack.obj
 0001:00071fd8       ?m_StructCopy@Struct_Microsoft_Singularity_Directory_DirectoryServiceContract_NakCreateLinkReparse@@SIXPAU1@0@Z 02072fd8 f   NetStack.obj
 0001:00072018       ?m_StructCopy@Struct_Microsoft_Singularity_Directory_DirectoryServiceContract_NakCreateLinkReparse@@SIXPAU1@PAU1@@Z 02073018 f   NetStack.obj
 0001:000720d8       ?m_Equals@Struct_Microsoft_Singularity_Directory_DirectoryServiceContract_NakCreateLinkReparse@@SI_NPAU1@PAUClass_System_Object@@@Z 020730d8 f   NetStack.obj
 0001:00072140       ?m_Equals@Struct_Microsoft_Singularity_Directory_DirectoryServiceContract_NakCreateLinkReparse@@SI_NPAUClass_Microsoft_Singularity_Directory_DirectoryServiceContract_NakCreateLinkReparse@@PAUClass_System_Object@@@Z 02073140 f   NetStack.obj
 0001:0007216c       ?g_Summary@Class_System_GCs_CollectorStatistics@@SIXXZ 0207316c f   NetStack.obj
 0001:00072180       ?g_Initialize@Class_System_GCs_CollectorStatistics@@SIXXZ 02073180 f   NetStack.obj
 0001:00072194       ?g_Event@Class_System_GCs_CollectorStatistics@@SIXUStruct_System_GCs_GCEvent@@@Z 02073194 f   NetStack.obj
 0001:000721b0       ?g_Event@Class_System_GCs_CollectorStatistics@@SIXUStruct_System_GCs_GCEvent@@_J@Z 020731b0 f   NetStack.obj
 0001:000721cc       ?m__ctor@Class_System_GCs_CollectorStatistics@@SIXPAU1@@Z 020731cc f   NetStack.obj
 0001:000721e4       ?m_StructCopy@Struct_NetStack_Contracts_UdpContract_Ack@@SIXPAU1@0@Z 020731e4 f   NetStack.obj
 0001:00072200       ?m_StructCopy@Struct_NetStack_Contracts_UdpContract_Ack@@SIXPAU1@PAU1@@Z 02073200 f   NetStack.obj
 0001:00072254       ?m_MarshallContent@Struct_NetStack_Contracts_UdpContract_Ack@@SIXPAU1@PAEPAUStruct_Microsoft_Singularity_Channels_Endpoint@@1PAH@Z 02073254 f   NetStack.obj
 0001:00072274       ?m_MarshallAll@Struct_NetStack_Contracts_UdpContract_Ack@@SIXPAU1@PAEPAUStruct_Microsoft_Singularity_Channels_Endpoint@@PAH@Z 02073274 f   NetStack.obj
 0001:000722cc       ?m_Equals@Struct_NetStack_Contracts_UdpContract_Ack@@SI_NPAU1@PAUClass_System_Object@@@Z 020732cc f   NetStack.obj
 0001:00072304       ?m_Equals@Struct_NetStack_Contracts_UdpContract_Ack@@SI_NPAUClass_NetStack_Contracts_UdpContract_Ack@@PAUClass_System_Object@@@Z 02073304 f   NetStack.obj
 0001:00072330       ?m_StructCopy@Struct_System_UpdateLog_Entry@@SIXPAU1@0@Z 02073330 f   NetStack.obj
 0001:0007237c       ?m_StructCopy@Struct_System_UpdateLog_Entry@@SIXPAU1@PAU1@@Z 0207337c f   NetStack.obj
 0001:00072460       ?m_Equals@Struct_System_UpdateLog_Entry@@SI_NPAU1@PAUClass_System_Object@@@Z 02073460 f   NetStack.obj
 0001:00072534       ?m_Equals@Struct_System_UpdateLog_Entry@@SI_NPAUClass_System_UpdateLog_Entry@@PAUClass_System_Object@@@Z 02073534 f   NetStack.obj
 0001:00072560       ?m__ctor@Class_System_UpdateLog_LogChunk@@SIXPAU1@PAUClassVector_Struct_System_UpdateLog_Entry@@0@Z 02073560 f   NetStack.obj
 0001:000725a8       ?m_UnExpose@Struct_Microsoft_Singularity_Io_Net_NicDeviceProperties@@SIXPAU1@@Z 020735a8 f   NetStack.obj
 0001:000725c4       ?g_TransferOwnership@Struct_Microsoft_Singularity_Io_Net_NicDeviceProperties@@SIXPAUStruct_Microsoft_Singularity_Channels_Endpoint@@PAU1@@Z 020735c4 f   NetStack.obj
 0001:00072608       ?m_TransferContentsOwnership@Struct_Microsoft_Singularity_Io_Net_NicDeviceProperties@@SIXPAU1@PAUStruct_Microsoft_Singularity_Channels_Endpoint@@@Z 02073608 f   NetStack.obj
 0001:00072694       ?m_StructCopy@Struct_Microsoft_Singularity_Io_Net_NicDeviceProperties@@SIXPAU1@0@Z 02073694 f   NetStack.obj
 0001:00072728       ?m_StructCopy@Struct_Microsoft_Singularity_Io_Net_NicDeviceProperties@@SIXPAU1@PAU1@@Z 02073728 f   NetStack.obj
 0001:000728e4       ?m_MarshallContent@Struct_Microsoft_Singularity_Io_Net_NicDeviceProperties@@SIXPAU1@PAEPAUStruct_Microsoft_Singularity_Channels_Endpoint@@1@Z 020738e4 f   NetStack.obj
 0001:00072ae0       ?m_Expose@Struct_Microsoft_Singularity_Io_Net_NicDeviceProperties@@SIXPAU1@@Z 02073ae0 f   NetStack.obj
 0001:00072afc       ?m_Equals@Struct_Microsoft_Singularity_Io_Net_NicDeviceProperties@@SI_NPAU1@PAUClass_System_Object@@@Z 02073afc f   NetStack.obj
 0001:00072c74       ?m_Equals@Struct_Microsoft_Singularity_Io_Net_NicDeviceProperties@@SI_NPAUClass_Microsoft_Singularity_Io_Net_NicDeviceProperties@@PAUClass_System_Object@@@Z 02073c74 f   NetStack.obj
 0001:00072ca0       ?m_Dispose@Struct_Microsoft_Singularity_Io_Net_NicDeviceProperties@@SIXPAU1@@Z 02073ca0 f   NetStack.obj
 0001:00072d3c       ?m_Dispose@Struct_Microsoft_Singularity_Io_Net_NicDeviceProperties@@SIXPAUClass_Microsoft_Singularity_Io_Net_NicDeviceProperties@@@Z 02073d3c f   NetStack.obj
 0001:00072d64       ?m_StructCopy@Struct_Microsoft_Singularity_Io_Net_NicDeviceContract_StopIO@@SIXPAU1@0@Z 02073d64 f   NetStack.obj
 0001:00072d80       ?m_StructCopy@Struct_Microsoft_Singularity_Io_Net_NicDeviceContract_StopIO@@SIXPAU1@PAU1@@Z 02073d80 f   NetStack.obj
 0001:00072dd4       ?m_Equals@Struct_Microsoft_Singularity_Io_Net_NicDeviceContract_StopIO@@SI_NPAU1@PAUClass_System_Object@@@Z 02073dd4 f   NetStack.obj
 0001:00072e0c       ?m_Equals@Struct_Microsoft_Singularity_Io_Net_NicDeviceContract_StopIO@@SI_NPAUClass_Microsoft_Singularity_Io_Net_NicDeviceContract_StopIO@@PAUClass_System_Object@@@Z 02073e0c f   NetStack.obj
 0001:00072e38       ?m_StructCopy@Struct_System_GCs_SegregatedFreeList_PageSeparation@@SIXPAU1@0@Z 02073e38 f   NetStack.obj
 0001:00072e88       ?m_StructCopy@Struct_System_GCs_SegregatedFreeList_PageSeparation@@SIXPAU1@PAU1@@Z 02073e88 f   NetStack.obj
 0001:00072f78       ?m_Equals@Struct_System_GCs_SegregatedFreeList_PageSeparation@@SI_NPAU1@PAUClass_System_Object@@@Z 02073f78 f   NetStack.obj
 0001:00073138       ?m_Equals@Struct_System_GCs_SegregatedFreeList_PageSeparation@@SI_NPAUClass_System_GCs_SegregatedFreeList_PageSeparation@@PAUClass_System_Object@@@Z 02074138 f   NetStack.obj
 0001:00073164       ?m_StructCopy@Struct_Microsoft_Singularity_Directory_DirectoryServiceContract_NakStoreACL@@SIXPAU1@0@Z 02074164 f   NetStack.obj
 0001:0007318c       ?m_StructCopy@Struct_Microsoft_Singularity_Directory_DirectoryServiceContract_NakStoreACL@@SIXPAU1@PAU1@@Z 0207418c f   NetStack.obj
 0001:00073204       ?m_Equals@Struct_Microsoft_Singularity_Directory_DirectoryServiceContract_NakStoreACL@@SI_NPAU1@PAUClass_System_Object@@@Z 02074204 f   NetStack.obj
 0001:000732a4       ?m_Equals@Struct_Microsoft_Singularity_Directory_DirectoryServiceContract_NakStoreACL@@SI_NPAUClass_Microsoft_Singularity_Directory_DirectoryServiceContract_NakStoreACL@@PAUClass_System_Object@@@Z 020742a4 f   NetStack.obj
 0001:000732d0       ?m_OnStateLeave@Class_NetStack_Runtime_TCPFSM_TCPClosing@@SIXPAU1@PAUClass_NetStack_Runtime_TcpSession@@PAUClass_NetStack_Runtime_TcpState@@@Z 020742d0 f   NetStack.obj
 0001:00073330       ?m_OnStateEnter@Class_NetStack_Runtime_TCPFSM_TCPClosing@@SIXPAU1@PAUClass_NetStack_Runtime_TcpSession@@@Z 02074330 f   NetStack.obj
 0001:00073378       ?m_OnPacketReceive@Class_NetStack_Runtime_TCPFSM_TCPClosing@@SI?AUStruct_NetStack_Runtime_NetStatus@@PAU1@PAUClass_NetStack_Runtime_TcpSession@@PAUClass_NetStack_Common_NetPacket@@PAUClass_System_Object@@@Z 02074378 f   NetStack.obj
 0001:000735f0       ?g_Instance@Class_NetStack_Runtime_TCPFSM_TCPClosing@@SIPAU1@XZ 020745f0 f   NetStack.obj
 0001:00073628       ?m_GetStateEnum@Class_NetStack_Runtime_TCPFSM_TCPClosing@@SI?AUStruct_NetStack_Runtime_TcpStateEnum@@PAU1@@Z 02074628 f   NetStack.obj
 0001:00073668       ?m__ctor@Class_NetStack_Runtime_TCPFSM_TCPClosing@@SIXPAU1@@Z 02074668 f   NetStack.obj
 0001:0007368c       ?g__cctor@Class_NetStack_Runtime_TCPFSM_TCPClosing@@SIXXZ 0207468c f   NetStack.obj
 0001:000736e4       ?m_StructCopy@Struct_Microsoft_Singularity_Directory_DirectoryServiceContract_AckCreateFile@@SIXPAU1@0@Z 020746e4 f   NetStack.obj
 0001:00073700       ?m_StructCopy@Struct_Microsoft_Singularity_Directory_DirectoryServiceContract_AckCreateFile@@SIXPAU1@PAU1@@Z 02074700 f   NetStack.obj
 0001:00073754       ?m_Equals@Struct_Microsoft_Singularity_Directory_DirectoryServiceContract_AckCreateFile@@SI_NPAU1@PAUClass_System_Object@@@Z 02074754 f   NetStack.obj
 0001:0007378c       ?m_Equals@Struct_Microsoft_Singularity_Directory_DirectoryServiceContract_AckCreateFile@@SI_NPAUClass_Microsoft_Singularity_Directory_DirectoryServiceContract_AckCreateFile@@PAUClass_System_Object@@@Z 0207478c f   NetStack.obj
 0001:000737b8       ?m_ToArray@Class_System_Collections_ArrayList_SyncArrayList@@SIPAUClass_System_Array@@PAU1@PAUClass_System_Type@@@Z 020747b8 f   NetStack.obj
 0001:0007381c       ?m_set$_Capacity@Class_System_Collections_ArrayList_SyncArrayList@@SIXPAU1@H@Z 0207481c f   NetStack.obj
 0001:0007387c       ?m_Reverse@Class_System_Collections_ArrayList_SyncArrayList@@SIXPAU1@HH@Z 0207487c f   NetStack.obj
 0001:000738e0       ?m_RemoveAt@Class_System_Collections_ArrayList_SyncArrayList@@SIXPAU1@H@Z 020748e0 f   NetStack.obj
 0001:00073940       ?m_Remove@Class_System_Collections_ArrayList_SyncArrayList@@SIXPAU1@PAUClass_System_Object@@@Z 02074940 f   NetStack.obj
 0001:000739a0       ?m_InsertRange@Class_System_Collections_ArrayList_SyncArrayList@@SIXPAU1@HPAUClass_System_Collections_ICollection@@@Z 020749a0 f   NetStack.obj
 0001:00073a04       ?m_Insert@Class_System_Collections_ArrayList_SyncArrayList@@SIXPAU1@HPAUClass_System_Object@@@Z 02074a04 f   NetStack.obj
 0001:00073a68       ?m_IndexOf@Class_System_Collections_ArrayList_SyncArrayList@@SIHPAU1@PAUClass_System_Object@@@Z 02074a68 f   NetStack.obj
 0001:00073acc       ?m_GetEnumerator@Class_System_Collections_ArrayList_SyncArrayList@@SIPAUClass_System_Collections_IEnumerator@@PAU1@@Z 02074acc f   NetStack.obj
 0001:00073b28       ?m_get$_SyncRoot@Class_System_Collections_ArrayList_SyncArrayList@@SIPAUClass_System_Object@@PAU1@@Z 02074b28 f   NetStack.obj
 0001:00073b48       ?m_get$_Item@Class_System_Collections_ArrayList_SyncArrayList@@SIPAUClass_System_Object@@PAU1@H@Z 02074b48 f   NetStack.obj
 0001:00073bac       ?m_get$_Count@Class_System_Collections_ArrayList_SyncArrayList@@SIHPAU1@@Z 02074bac f   NetStack.obj
 0001:00073c08       ?m_get$_Capacity@Class_System_Collections_ArrayList_SyncArrayList@@SIHPAU1@@Z 02074c08 f   NetStack.obj
 0001:00073c64       ?m_CopyTo@Class_System_Collections_ArrayList_SyncArrayList@@SIXPAU1@PAUClass_System_Array@@H@Z 02074c64 f   NetStack.obj
 0001:00073cc8       ?m_Contains@Class_System_Collections_ArrayList_SyncArrayList@@SI_NPAU1@PAUClass_System_Object@@@Z 02074cc8 f   NetStack.obj
 0001:00073d2c       ?m_Clear@Class_System_Collections_ArrayList_SyncArrayList@@SIXPAU1@@Z 02074d2c f   NetStack.obj
 0001:00073d84       ?m_AddRange@Class_System_Collections_ArrayList_SyncArrayList@@SIXPAU1@PAUClass_System_Collections_ICollection@@@Z 02074d84 f   NetStack.obj
 0001:00073de4       ?m_Add@Class_System_Collections_ArrayList_SyncArrayList@@SIHPAU1@PAUClass_System_Object@@@Z 02074de4 f   NetStack.obj
 0001:00073e48       ?m__ctor@Class_System_Collections_ArrayList_SyncArrayList@@SIXPAU1@PAUClass_System_Collections_ArrayList@@@Z 02074e48 f   NetStack.obj
 0001:00073e8c       ?m_ToArray@Class_System_Collections_ArrayList@@SIPAUClass_System_Array@@PAU1@PAUClass_System_Type@@@Z 02074e8c f   NetStack.obj
 0001:00073f28       ?g_Synchronized@Class_System_Collections_ArrayList@@SIPAU1@PAU1@@Z 02074f28 f   NetStack.obj
 0001:00073fa8       ?m_set$_Capacity@Class_System_Collections_ArrayList@@SIXPAU1@H@Z 02074fa8 f   NetStack.obj
 0001:00074070       ?m_Reverse@Class_System_Collections_ArrayList@@SIXPAU1@@Z 02075070 f   NetStack.obj
 0001:000740b4       ?m_Reverse@Class_System_Collections_ArrayList@@SIXPAU1@HH@Z 020750b4 f   NetStack.obj
 0001:00074188       ?m_RemoveAt@Class_System_Collections_ArrayList@@SIXPAU1@H@Z 02075188 f   NetStack.obj
 0001:0007425c       ?m_Remove@Class_System_Collections_ArrayList@@SIXPAU1@PAUClass_System_Object@@@Z 0207525c f   NetStack.obj
 0001:000742b0       ?m_InsertRange@Class_System_Collections_ArrayList@@SIXPAU1@HPAUClass_System_Collections_ICollection@@@Z 020752b0 f   NetStack.obj
 0001:00074480       ?m_Insert@Class_System_Collections_ArrayList@@SIXPAU1@HPAUClass_System_Object@@@Z 02075480 f   NetStack.obj
 0001:00074594       ?m_IndexOf@Class_System_Collections_ArrayList@@SIHPAU1@PAUClass_System_Object@@@Z 02075594 f   NetStack.obj
 0001:000745c8       ?m_GetEnumerator@Class_System_Collections_ArrayList@@SIPAUClass_System_Collections_IEnumerator@@PAU1@@Z 020755c8 f   NetStack.obj
 0001:0007460c       ?m_get$_SyncRoot@Class_System_Collections_ArrayList@@SIPAUClass_System_Object@@PAU1@@Z 0207560c f   NetStack.obj
 0001:0007462c       ?m_get$_Item@Class_System_Collections_ArrayList@@SIPAUClass_System_Object@@PAU1@H@Z 0207562c f   NetStack.obj
 0001:000746b4       ?m_get$_Count@Class_System_Collections_ArrayList@@SIHPAU1@@Z 020756b4 f   NetStack.obj
 0001:000746d4       ?m_get$_Capacity@Class_System_Collections_ArrayList@@SIHPAU1@@Z 020756d4 f   NetStack.obj
 0001:000746f8       ?m_EnsureCapacity@Class_System_Collections_ArrayList@@SIXPAU1@H@Z 020756f8 f   NetStack.obj
 0001:00074764       ?m_CopyTo@Class_System_Collections_ArrayList@@SIXPAU1@PAUClass_System_Array@@H@Z 02075764 f   NetStack.obj
 0001:000747f4       ?m_Contains@Class_System_Collections_ArrayList@@SI_NPAU1@PAUClass_System_Object@@@Z 020757f4 f   NetStack.obj
 0001:000748c4       ?m_Clear@Class_System_Collections_ArrayList@@SIXPAU1@@Z 020758c4 f   NetStack.obj
 0001:00074910       ?m_AddRange@Class_System_Collections_ArrayList@@SIXPAU1@PAUClass_System_Collections_ICollection@@@Z 02075910 f   NetStack.obj
 0001:0007494c       ?m_Add@Class_System_Collections_ArrayList@@SIHPAU1@PAUClass_System_Object@@@Z 0207594c f   NetStack.obj
 0001:000749dc       ?m__ctor@Class_System_Collections_ArrayList@@SIXPAU1@@Z 020759dc f   NetStack.obj
 0001:00074a0c       ?m__ctor@Class_System_Collections_ArrayList@@SIXPAU1@H@Z 02075a0c f   NetStack.obj
 0001:00074a70       ?m__ctor@Class_System_Collections_ArrayList@@SIXPAU1@_N@Z 02075a70 f   NetStack.obj
 0001:00074a8c       ?g_StableState@Class_Microsoft_Singularity_Directory_DirectoryServiceContract@@SIHPAUStruct_Microsoft_Singularity_Channels_StateStack@@@Z 02075a8c f   NetStack.obj
 0001:00074d30       ?g_NewChannel@Class_Microsoft_Singularity_Directory_DirectoryServiceContract@@SIXPAPAUStruct_Microsoft_Singularity_Directory_DirectoryServiceContract_Imp@@PAPAUStruct_Microsoft_Singularity_Directory_DirectoryServiceContract_Exp@@@Z 02075d30 f   NetStack.obj
 0001:00074dcc       ?m__ctor@Class_Microsoft_Singularity_Directory_DirectoryServiceContract@@SIXPAU1@@Z 02075dcc f   NetStack.obj
 0001:00074de4       ?g_Parse@Class_NetStack_Protocols_DhcpIPv4Option@@SIPAUClass_NetStack_Protocols_IDhcpOption@@EEPAUClassVector_uint8@@H@Z 02075de4 f   NetStack.obj
 0001:00074e98       ?m_Pack@Class_NetStack_Protocols_DhcpIPv4Option@@SIHPAU1@PAUClassVector_uint8@@PAH@Z 02075e98 f   NetStack.obj
 0001:00075130       ?m_get$_Value@Class_NetStack_Protocols_DhcpIPv4Option@@SI?AUStruct_System_Net_IP_IPv4@@PAU1@@Z 02076130 f   NetStack.obj
 0001:0007516c       ?m_get$_PayloadLength@Class_NetStack_Protocols_DhcpIPv4Option@@SIHPAU1@@Z 0207616c f   NetStack.obj
 0001:000751ac       ?m__ctor@Class_NetStack_Protocols_DhcpIPv4Option@@SIXPAU1@EUStruct_System_Net_IP_IPv4@@@Z 020761ac f   NetStack.obj
 0001:000751e4       ?m_StructCopy@Struct_NetStack_Contracts_IPContract_SetDomainName@@SIXPAU1@0@Z 020761e4 f   NetStack.obj
 0001:0007520c       ?m_StructCopy@Struct_NetStack_Contracts_IPContract_SetDomainName@@SIXPAU1@PAU1@@Z 0207620c f   NetStack.obj
 0001:00075284       ?m_Equals@Struct_NetStack_Contracts_IPContract_SetDomainName@@SI_NPAU1@PAUClass_System_Object@@@Z 02076284 f   NetStack.obj
 0001:000752cc       ?m_Equals@Struct_NetStack_Contracts_IPContract_SetDomainName@@SI_NPAUClass_NetStack_Contracts_IPContract_SetDomainName@@PAUClass_System_Object@@@Z 020762cc f   NetStack.obj
 0001:000752f8       ?m_StructCopy@Struct_System_GCs_FrameDescriptor@@SIXPAU1@0@Z 020762f8 f   NetStack.obj
 0001:00075398       ?m_StructCopy@Struct_System_GCs_FrameDescriptor@@SIXPAU1@PAU1@@Z 02076398 f   NetStack.obj
 0001:00075578       ?m_Equals@Struct_System_GCs_FrameDescriptor@@SI_NPAU1@PAUClass_System_Object@@@Z 02076578 f   NetStack.obj
 0001:00075650       ?m_Equals@Struct_System_GCs_FrameDescriptor@@SI_NPAUClass_System_GCs_FrameDescriptor@@PAUClass_System_Object@@@Z 02076650 f   NetStack.obj
 0001:0007567c       ?m__ctor@Struct_System_GCs_FrameDescriptor@@SIXPAU1@UStruct_System_GCs_CompressedFrameDescriptor@@@Z 0207667c f   NetStack.obj
 0001:000758dc       ?m_set$_Item@Class_System_Collections_SortedList_SyncSortedList@@SIXPAU1@PAUClass_System_Object@@1@Z 020768dc f   NetStack.obj
 0001:00075940       ?m_RemoveAt@Class_System_Collections_SortedList_SyncSortedList@@SIXPAU1@H@Z 02076940 f   NetStack.obj
 0001:000759a0       ?m_Remove@Class_System_Collections_SortedList_SyncSortedList@@SIXPAU1@PAUClass_System_Object@@@Z 020769a0 f   NetStack.obj
 0001:00075a00       ?m_IndexOfKey@Class_System_Collections_SortedList_SyncSortedList@@SIHPAU1@PAUClass_System_Object@@@Z 02076a00 f   NetStack.obj
 0001:00075a64       ?m_GetValueList@Class_System_Collections_SortedList_SyncSortedList@@SIPAUClass_System_Collections_IList@@PAU1@@Z 02076a64 f   NetStack.obj
 0001:00075ac0       ?m_GetKeyList@Class_System_Collections_SortedList_SyncSortedList@@SIPAUClass_System_Collections_IList@@PAU1@@Z 02076ac0 f   NetStack.obj
 0001:00075b1c       ?m_GetKey@Class_System_Collections_SortedList_SyncSortedList@@SIPAUClass_System_Object@@PAU1@H@Z 02076b1c f   NetStack.obj
 0001:00075b80       ?m_GetByIndex@Class_System_Collections_SortedList_SyncSortedList@@SIPAUClass_System_Object@@PAU1@H@Z 02076b80 f   NetStack.obj
 0001:00075be4       ?m_get$_SyncRoot@Class_System_Collections_SortedList_SyncSortedList@@SIPAUClass_System_Object@@PAU1@@Z 02076be4 f   NetStack.obj
 0001:00075c04       ?m_get$_Item@Class_System_Collections_SortedList_SyncSortedList@@SIPAUClass_System_Object@@PAU1@PAU2@@Z 02076c04 f   NetStack.obj
 0001:00075c68       ?m_get$_Count@Class_System_Collections_SortedList_SyncSortedList@@SIHPAU1@@Z 02076c68 f   NetStack.obj
 0001:00075cc4       ?m_CopyTo@Class_System_Collections_SortedList_SyncSortedList@@SIXPAU1@PAUClass_System_Array@@H@Z 02076cc4 f   NetStack.obj
 0001:00075d28       ?m_Add@Class_System_Collections_SortedList_SyncSortedList@@SIXPAU1@PAUClass_System_Object@@1@Z 02076d28 f   NetStack.obj
 0001:00075d8c       ?m__ctor@Class_System_Collections_SortedList_SyncSortedList@@SIXPAU1@PAUClass_System_Collections_SortedList@@@Z 02076d8c f   NetStack.obj
 0001:00075dd0       ?m_System_Collections_IEnumerable_GetEnumerator@Class_System_Collections_SortedList@@SIPAUClass_System_Collections_IEnumerator@@PAU1@@Z 02076dd0 f   NetStack.obj
 0001:00075e24       ?g_Synchronized@Class_System_Collections_SortedList@@SIPAU1@PAU1@@Z 02076e24 f   NetStack.obj
 0001:00075ea4       ?m_set$_Item@Class_System_Collections_SortedList@@SIXPAU1@PAUClass_System_Object@@1@Z 02076ea4 f   NetStack.obj
 0001:00075f90       ?m_set$_Capacity@Class_System_Collections_SortedList@@SIXPAU1@H@Z 02076f90 f   NetStack.obj
 0001:000760ac       ?m_RemoveAt@Class_System_Collections_SortedList@@SIXPAU1@H@Z 020770ac f   NetStack.obj
 0001:000761c4       ?m_Remove@Class_System_Collections_SortedList@@SIXPAU1@PAUClass_System_Object@@@Z 020771c4 f   NetStack.obj
 0001:00076218       ?m_Insert@Class_System_Collections_SortedList@@SIXPAU1@HPAUClass_System_Object@@1@Z 02077218 f   NetStack.obj
 0001:0007631c       ?m_IndexOfKey@Class_System_Collections_SortedList@@SIHPAU1@PAUClass_System_Object@@@Z 0207731c f   NetStack.obj
 0001:000763c0       ?m_GetValueList@Class_System_Collections_SortedList@@SIPAUClass_System_Collections_IList@@PAU1@@Z 020773c0 f   NetStack.obj
 0001:00076414       ?m_GetKeyList@Class_System_Collections_SortedList@@SIPAUClass_System_Collections_IList@@PAU1@@Z 02077414 f   NetStack.obj
 0001:00076468       ?m_GetKey@Class_System_Collections_SortedList@@SIPAUClass_System_Object@@PAU1@H@Z 02077468 f   NetStack.obj
 0001:000764f0       ?m_GetByIndex@Class_System_Collections_SortedList@@SIPAUClass_System_Object@@PAU1@H@Z 020774f0 f   NetStack.obj
 0001:00076578       ?m_get$_Values@Class_System_Collections_SortedList@@SIPAUClass_System_Collections_ICollection@@PAU1@@Z 02077578 f   NetStack.obj
 0001:000765a0       ?m_get$_SyncRoot@Class_System_Collections_SortedList@@SIPAUClass_System_Object@@PAU1@@Z 020775a0 f   NetStack.obj
 0001:000765c0       ?m_get$_Keys@Class_System_Collections_SortedList@@SIPAUClass_System_Collections_ICollection@@PAU1@@Z 020775c0 f   NetStack.obj
 0001:000765e8       ?m_get$_Item@Class_System_Collections_SortedList@@SIPAUClass_System_Object@@PAU1@PAU2@@Z 020775e8 f   NetStack.obj
 0001:0007664c       ?m_get$_Count@Class_System_Collections_SortedList@@SIHPAU1@@Z 0207764c f   NetStack.obj
 0001:0007666c       ?m_EnsureCapacity@Class_System_Collections_SortedList@@SIXPAU1@H@Z 0207766c f   NetStack.obj
 0001:000766d0       ?m_CopyTo@Class_System_Collections_SortedList@@SIXPAU1@PAUClass_System_Array@@H@Z 020776d0 f   NetStack.obj
 0001:000768d0       ?m_Add@Class_System_Collections_SortedList@@SIXPAU1@PAUClass_System_Object@@1@Z 020778d0 f   NetStack.obj
 0001:000769b8       ?m__ctor@Class_System_Collections_SortedList@@SIXPAU1@@Z 020779b8 f   NetStack.obj
 0001:00076a20       ?m_OnStateLeave@Class_NetStack_Runtime_TCPFSM_TCPFINWait1@@SIXPAU1@PAUClass_NetStack_Runtime_TcpSession@@PAUClass_NetStack_Runtime_TcpState@@@Z 02077a20 f   NetStack.obj
 0001:00076a80       ?m_OnStateEnter@Class_NetStack_Runtime_TCPFSM_TCPFINWait1@@SIXPAU1@PAUClass_NetStack_Runtime_TcpSession@@@Z 02077a80 f   NetStack.obj
 0001:00076ac8       ?m_OnPacketReceive@Class_NetStack_Runtime_TCPFSM_TCPFINWait1@@SI?AUStruct_NetStack_Runtime_NetStatus@@PAU1@PAUClass_NetStack_Runtime_TcpSession@@PAUClass_NetStack_Common_NetPacket@@PAUClass_System_Object@@@Z 02077ac8 f   NetStack.obj
 0001:00076dc0       ?g_Instance@Class_NetStack_Runtime_TCPFSM_TCPFINWait1@@SIPAU1@XZ 02077dc0 f   NetStack.obj
 0001:00076df8       ?m_GetStateEnum@Class_NetStack_Runtime_TCPFSM_TCPFINWait1@@SI?AUStruct_NetStack_Runtime_TcpStateEnum@@PAU1@@Z 02077df8 f   NetStack.obj
 0001:00076e38       ?m__ctor@Class_NetStack_Runtime_TCPFSM_TCPFINWait1@@SIXPAU1@@Z 02077e38 f   NetStack.obj
 0001:00076e5c       ?g__cctor@Class_NetStack_Runtime_TCPFSM_TCPFINWait1@@SIXXZ 02077e5c f   NetStack.obj
 0001:00076eb4       ?m_StructCopy@Struct_NetStack_Contracts_UdpContract_CreateUdpSession@@SIXPAU1@0@Z 02077eb4 f   NetStack.obj
 0001:00076edc       ?m_StructCopy@Struct_NetStack_Contracts_UdpContract_CreateUdpSession@@SIXPAU1@PAU1@@Z 02077edc f   NetStack.obj
 0001:00076f54       ?m_Equals@Struct_NetStack_Contracts_UdpContract_CreateUdpSession@@SI_NPAU1@PAUClass_System_Object@@@Z 02077f54 f   NetStack.obj
 0001:00076f9c       ?m_Equals@Struct_NetStack_Contracts_UdpContract_CreateUdpSession@@SI_NPAUClass_NetStack_Contracts_UdpContract_CreateUdpSession@@PAUClass_System_Object@@@Z 02077f9c f   NetStack.obj
 0001:00076fc8       ?m_StructCopy@Struct_NetStack_Contracts_TcpConnectionContract_OK@@SIXPAU1@0@Z 02077fc8 f   NetStack.obj
 0001:00076fe4       ?m_StructCopy@Struct_NetStack_Contracts_TcpConnectionContract_OK@@SIXPAU1@PAU1@@Z 02077fe4 f   NetStack.obj
 0001:00077038       ?m_MarshallContent@Struct_NetStack_Contracts_TcpConnectionContract_OK@@SIXPAU1@PAEPAUStruct_Microsoft_Singularity_Channels_Endpoint@@1PAH@Z 02078038 f   NetStack.obj
 0001:00077058       ?m_MarshallAll@Struct_NetStack_Contracts_TcpConnectionContract_OK@@SIXPAU1@PAEPAUStruct_Microsoft_Singularity_Channels_Endpoint@@PAH@Z 02078058 f   NetStack.obj
 0001:000770b0       ?m_Equals@Struct_NetStack_Contracts_TcpConnectionContract_OK@@SI_NPAU1@PAUClass_System_Object@@@Z 020780b0 f   NetStack.obj
 0001:000770e8       ?m_Equals@Struct_NetStack_Contracts_TcpConnectionContract_OK@@SI_NPAUClass_NetStack_Contracts_TcpConnectionContract_OK@@PAUClass_System_Object@@@Z 020780e8 f   NetStack.obj
 0001:00077114       ?m__ctor@Class_System_Threading_HandleCreateException@@SIXPAU1@@Z 02078114 f   NetStack.obj
 0001:0007713c       ?m_StructCopy@Struct_NetStack_Contracts_UdpConnectionContract_InvalidEndPoint@@SIXPAU1@0@Z 0207813c f   NetStack.obj
 0001:00077170       ?m_StructCopy@Struct_NetStack_Contracts_UdpConnectionContract_InvalidEndPoint@@SIXPAU1@PAU1@@Z 02078170 f   NetStack.obj
 0001:0007720c       ?m_MarshallContent@Struct_NetStack_Contracts_UdpConnectionContract_InvalidEndPoint@@SIXPAU1@PAEPAUStruct_Microsoft_Singularity_Channels_Endpoint@@1PAH@Z 0207820c f   NetStack.obj
 0001:0007722c       ?m_MarshallAll@Struct_NetStack_Contracts_UdpConnectionContract_InvalidEndPoint@@SIXPAU1@PAEPAUStruct_Microsoft_Singularity_Channels_Endpoint@@PAH@Z 0207822c f   NetStack.obj
 0001:00077284       ?m_Equals@Struct_NetStack_Contracts_UdpConnectionContract_InvalidEndPoint@@SI_NPAU1@PAUClass_System_Object@@@Z 02078284 f   NetStack.obj
 0001:000772e4       ?m_Equals@Struct_NetStack_Contracts_UdpConnectionContract_InvalidEndPoint@@SI_NPAUClass_NetStack_Contracts_UdpConnectionContract_InvalidEndPoint@@PAUClass_System_Object@@@Z 020782e4 f   NetStack.obj
 0001:00077310       ?m_OnStateEnter@Class_NetStack_Runtime_TCPFSM_TCPStateEstab@@SIXPAU1@PAUClass_NetStack_Runtime_TcpSession@@@Z 02078310 f   NetStack.obj
 0001:00077358       ?m_OnPacketReceive@Class_NetStack_Runtime_TCPFSM_TCPStateEstab@@SI?AUStruct_NetStack_Runtime_NetStatus@@PAU1@PAUClass_NetStack_Runtime_TcpSession@@PAUClass_NetStack_Common_NetPacket@@PAUClass_System_Object@@@Z 02078358 f   NetStack.obj
 0001:000775bc       ?g_Instance@Class_NetStack_Runtime_TCPFSM_TCPStateEstab@@SIPAU1@XZ 020785bc f   NetStack.obj
 0001:000775f4       ?m_GetStateEnum@Class_NetStack_Runtime_TCPFSM_TCPStateEstab@@SI?AUStruct_NetStack_Runtime_TcpStateEnum@@PAU1@@Z 020785f4 f   NetStack.obj
 0001:00077634       ?m__ctor@Class_NetStack_Runtime_TCPFSM_TCPStateEstab@@SIXPAU1@@Z 02078634 f   NetStack.obj
 0001:00077658       ?g__cctor@Class_NetStack_Runtime_TCPFSM_TCPStateEstab@@SIXXZ 02078658 f   NetStack.obj
 0001:000776b0       ?m_StateTimeoutEvent@Class_NetStack_Runtime_DhcpClientStateRequesting@@SIXPAU1@@Z 020786b0 f   NetStack.obj
 0001:0007771c       ?m_ReceiveEvent@Class_NetStack_Runtime_DhcpClientStateRequesting@@SIXPAU1@PAUClass_NetStack_Protocols_DhcpFormat@@@Z 0207871c f   NetStack.obj
 0001:00077a78       ?m_EnterEvent@Class_NetStack_Runtime_DhcpClientStateRequesting@@SIXPAU1@@Z 02078a78 f   NetStack.obj
 0001:00077c54       ?m__ctor@Class_NetStack_Runtime_DhcpClientStateRequesting@@SIXPAU1@PAUClass_NetStack_Runtime_DhcpClient@@UStruct_System_Net_IP_IPv4@@2PAUClass_System_Collections_SortedList@@@Z 02078c54 f   NetStack.obj
 0001:00077cdc       ?m_StructCopy@Struct_Microsoft_Singularity_ServiceManager_ServiceEventContract_Imp@@SIXPAU1@0@Z 02078cdc f   NetStack.obj
 0001:00077db8       ?m_StructCopy@Struct_Microsoft_Singularity_ServiceManager_ServiceEventContract_Imp@@SIXPAU1@PAU1@@Z 02078db8 f   NetStack.obj
 0001:0007804c       ?m_Release@Struct_Microsoft_Singularity_ServiceManager_ServiceEventContract_Imp@@SIXPAU1@@Z 0207904c f   NetStack.obj
 0001:00078068       ?m_Peek@Struct_Microsoft_Singularity_ServiceManager_ServiceEventContract_Imp@@SIHPAU1@@Z 02079068 f   NetStack.obj
 0001:00078210       ?m_HeadMatches@Struct_Microsoft_Singularity_ServiceManager_ServiceEventContract_Imp@@SI_NPAU1@HPA_NPAPAUClass_System_Object@@@Z 02079210 f   NetStack.obj
 0001:000782d0       ?m_HeadMatches@Struct_Microsoft_Singularity_ServiceManager_ServiceEventContract_Imp@@SI_NPAUClass_Microsoft_Singularity_ServiceManager_ServiceEventContract_Imp@@HPA_NPAPAUClass_System_Object@@@Z 020792d0 f   NetStack.obj
 0001:00078308       ?m_Equals@Struct_Microsoft_Singularity_ServiceManager_ServiceEventContract_Imp@@SI_NPAU1@PAUClass_System_Object@@@Z 02079308 f   NetStack.obj
 0001:000785dc       ?m_Equals@Struct_Microsoft_Singularity_ServiceManager_ServiceEventContract_Imp@@SI_NPAUClass_Microsoft_Singularity_ServiceManager_ServiceEventContract_Imp@@PAUClass_System_Object@@@Z 020795dc f   NetStack.obj
 0001:00078608       ?m_Dispose@Struct_Microsoft_Singularity_ServiceManager_ServiceEventContract_Imp@@SIXPAU1@@Z 02079608 f   NetStack.obj
 0001:0007862c       ?m_Dispose@Struct_Microsoft_Singularity_ServiceManager_ServiceEventContract_Imp@@SIXPAUClass_Microsoft_Singularity_ServiceManager_ServiceEventContract_Imp@@@Z 0207962c f   NetStack.obj
 0001:00078654       ?m_Acquire@Struct_Microsoft_Singularity_ServiceManager_ServiceEventContract_Imp@@SIXPAU1@@Z 02079654 f   NetStack.obj
 0001:00078670       ?m_StructCopy@Struct_NetStack_Contracts_TcpConnectionContract_Connect@@SIXPAU1@0@Z 02079670 f   NetStack.obj
 0001:000786a4       ?m_StructCopy@Struct_NetStack_Contracts_TcpConnectionContract_Connect@@SIXPAU1@PAU1@@Z 020796a4 f   NetStack.obj
 0001:00078740       ?m_Equals@Struct_NetStack_Contracts_TcpConnectionContract_Connect@@SI_NPAU1@PAUClass_System_Object@@@Z 02079740 f   NetStack.obj
 0001:000787a0       ?m_Equals@Struct_NetStack_Contracts_TcpConnectionContract_Connect@@SI_NPAUClass_NetStack_Contracts_TcpConnectionContract_Connect@@PAUClass_System_Object@@@Z 020797a0 f   NetStack.obj
 0001:000787cc       ?m_StructCopy@Struct_NetStack_Contracts_TcpConnectionContract_Port@@SIXPAU1@0@Z 020797cc f   NetStack.obj
 0001:000787f4       ?m_StructCopy@Struct_NetStack_Contracts_TcpConnectionContract_Port@@SIXPAU1@PAU1@@Z 020797f4 f   NetStack.obj
 0001:0007886c       ?m_MarshallContent@Struct_NetStack_Contracts_TcpConnectionContract_Port@@SIXPAU1@PAEPAUStruct_Microsoft_Singularity_Channels_Endpoint@@1PAH@Z 0207986c f   NetStack.obj
 0001:0007888c       ?m_MarshallAll@Struct_NetStack_Contracts_TcpConnectionContract_Port@@SIXPAU1@PAEPAUStruct_Microsoft_Singularity_Channels_Endpoint@@PAH@Z 0207988c f   NetStack.obj
 0001:000788e4       ?m_Equals@Struct_NetStack_Contracts_TcpConnectionContract_Port@@SI_NPAU1@PAUClass_System_Object@@@Z 020798e4 f   NetStack.obj
 0001:00078930       ?m_Equals@Struct_NetStack_Contracts_TcpConnectionContract_Port@@SI_NPAUClass_NetStack_Contracts_TcpConnectionContract_Port@@PAUClass_System_Object@@@Z 02079930 f   NetStack.obj
 0001:0007895c       ?m_ToString@int8@@SIPAUClass_System_String@@PAC@Z 0207995c f   NetStack.obj
 0001:00078984       ?m_ToString@int8@@SIPAUClass_System_String@@PACPAU2@@Z 02079984 f   NetStack.obj
 0001:00078a7c       ?m_ToString@int8@@SIPAUClass_System_String@@PAUClass_System_SByte@@@Z 02079a7c f   NetStack.obj
 0001:00078aa4       ?m_ToString@int8@@SIPAUClass_System_String@@PAUClass_System_SByte@@PAU2@@Z 02079aa4 f   NetStack.obj
 0001:00078ad0       ?m_GetHashCode@int8@@SIHPAC@Z 02079ad0 f   NetStack.obj
 0001:00078b00       ?m_GetHashCode@int8@@SIHPAUClass_System_SByte@@@Z 02079b00 f   NetStack.obj
 0001:00078b28       ?m_Equals@int8@@SI_NPACPAUClass_System_Object@@@Z 02079b28 f   NetStack.obj
 0001:00078b88       ?m_Equals@int8@@SI_NPAUClass_System_SByte@@PAUClass_System_Object@@@Z 02079b88 f   NetStack.obj
 0001:00078bb4       ?m_CompareTo@int8@@SIHPACPAUClass_System_Object@@@Z 02079bb4 f   NetStack.obj
 0001:00078c40       ?m_CompareTo@int8@@SIHPAUClass_System_SByte@@PAUClass_System_Object@@@Z 02079c40 f   NetStack.obj
 0001:00078c6c       ?m_Visit@Class_System_GCs_Verifier_GenericObjectVisitor@@SIPAUuintPtr@@PAU1@PAUClass_System_Object@@@Z 02079c6c f   NetStack.obj
 0001:00078c98       ?m__ctor@Class_System_GCs_Verifier_GenericObjectVisitor@@SIXPAU1@PAUClass_System_GCs_NonNullReferenceVisitor@@@Z 02079c98 f   NetStack.obj
 0001:00078cc8       ?m_StructCopy@Struct_NetStack_Contracts_DNSContract_GetCurrentNameServer@@SIXPAU1@0@Z 02079cc8 f   NetStack.obj
 0001:00078ce4       ?m_StructCopy@Struct_NetStack_Contracts_DNSContract_GetCurrentNameServer@@SIXPAU1@PAU1@@Z 02079ce4 f   NetStack.obj
 0001:00078d38       ?m_Equals@Struct_NetStack_Contracts_DNSContract_GetCurrentNameServer@@SI_NPAU1@PAUClass_System_Object@@@Z 02079d38 f   NetStack.obj
 0001:00078d70       ?m_Equals@Struct_NetStack_Contracts_DNSContract_GetCurrentNameServer@@SI_NPAUClass_NetStack_Contracts_DNSContract_GetCurrentNameServer@@PAUClass_System_Object@@@Z 02079d70 f   NetStack.obj
 0001:00078d9c       ?m_set$_Target@Class_System_EMU@@SIXPAU1@PAUClass_System_Object@@@Z 02079d9c f   NetStack.obj
 0001:00078de0       ?m_set$_NextShadow@Class_System_EMU@@SIXPAU1@0@Z 02079de0 f   NetStack.obj
 0001:00078e08       ?m_set$_Monitor@Class_System_EMU@@SIXPAU1@PAUClass_System_Threading_Monitor@@@Z 02079e08 f   NetStack.obj
 0001:00078e30       ?m_set$_HashCode@Class_System_EMU@@SIXPAU1@H@Z 02079e30 f   NetStack.obj
 0001:00078e58       ?m_Register@Class_System_EMU@@SIXPAU1@@Z 02079e58 f   NetStack.obj
 0001:00078ee0       ?m_IsMonitor@Class_System_EMU@@SI_NPAU1@@Z 02079ee0 f   NetStack.obj
 0001:00078f08       ?m_get$_Target@Class_System_EMU@@SIPAUClass_System_Object@@PAU1@@Z 02079f08 f   NetStack.obj
 0001:00078f4c       ?m_get$_NextShadow@Class_System_EMU@@SIPAU1@PAU1@@Z 02079f4c f   NetStack.obj
 0001:00078f70       ?m_get$_Next@Class_System_EMU@@SIPAU1@PAU1@@Z 02079f70 f   NetStack.obj
 0001:00078f94       ?m_get$_Monitor@Class_System_EMU@@SIPAUClass_System_Threading_Monitor@@PAU1@@Z 02079f94 f   NetStack.obj
 0001:00078fcc       ?m_get$_HashCode@Class_System_EMU@@SIHPAU1@@Z 02079fcc f   NetStack.obj
 0001:00078fec       ?g_FromAddress@Class_System_EMU@@SIPAU1@PAUuintPtr@@@Z 02079fec f   NetStack.obj
 0001:00079008       ?m__ctor@Class_System_EMU@@SIXPAU1@@Z 0207a008 f   NetStack.obj
 0001:00079024       ?m_StructCopy@Struct_NetStack_Contracts_RoutingContract_Route@@SIXPAU1@0@Z 0207a024 f   NetStack.obj
 0001:00079050       ?m_StructCopy@Struct_NetStack_Contracts_RoutingContract_Route@@SIXPAU1@PAU1@@Z 0207a050 f   NetStack.obj
 0001:000790d4       ?m_MarshallContent@Struct_NetStack_Contracts_RoutingContract_Route@@SIXPAU1@PAEPAUStruct_Microsoft_Singularity_Channels_Endpoint@@1PAH@Z 0207a0d4 f   NetStack.obj
 0001:00079110       ?m_MarshallAll@Struct_NetStack_Contracts_RoutingContract_Route@@SIXPAU1@PAEPAUStruct_Microsoft_Singularity_Channels_Endpoint@@PAH@Z 0207a110 f   NetStack.obj
 0001:00079168       ?m_Equals@Struct_NetStack_Contracts_RoutingContract_Route@@SI_NPAU1@PAUClass_System_Object@@@Z 0207a168 f   NetStack.obj
 0001:00079218       ?m_Equals@Struct_NetStack_Contracts_RoutingContract_Route@@SI_NPAUClass_NetStack_Contracts_RoutingContract_Route@@PAUClass_System_Object@@@Z 0207a218 f   NetStack.obj
 0001:00079244       ?m_StructCopy@Struct_Microsoft_Singularity_Isal_IX_uint128@@SIXPAU1@0@Z 0207a244 f   NetStack.obj
 0001:00079290       ?m_StructCopy@Struct_Microsoft_Singularity_Isal_IX_uint128@@SIXPAU1@PAU1@@Z 0207a290 f   NetStack.obj
 0001:00079374       ?m_Equals@Struct_Microsoft_Singularity_Isal_IX_uint128@@SI_NPAU1@PAUClass_System_Object@@@Z 0207a374 f   NetStack.obj
 0001:0007940c       ?m_Equals@Struct_Microsoft_Singularity_Isal_IX_uint128@@SI_NPAUClass_Microsoft_Singularity_Isal_IX_uint128@@PAUClass_System_Object@@@Z 0207a40c f   NetStack.obj
 0001:00079438       ?m_StructCopy@Struct_System_RuntimeFieldHandle@@SIXPAU1@0@Z 0207a438 f   NetStack.obj
 0001:00079460       ?m_StructCopy@Struct_System_RuntimeFieldHandle@@SIXPAU1@PAU1@@Z 0207a460 f   NetStack.obj
 0001:000794d8       ?m_Equals@Struct_System_RuntimeFieldHandle@@SI_NPAU1@PAUClass_System_Object@@@Z 0207a4d8 f   NetStack.obj
 0001:00079520       ?m_Equals@Struct_System_RuntimeFieldHandle@@SI_NPAUClass_System_RuntimeFieldHandle@@PAUClass_System_Object@@@Z 0207a520 f   NetStack.obj
 0001:0007954c       ?m__ctor@Class_System_NullReferenceException@@SIXPAU1@@Z 0207a54c f   NetStack.obj
 0001:00079574       ?m__ctor@Class_System_NullReferenceException@@SIXPAU1@PAUClass_System_String@@@Z 0207a574 f   NetStack.obj
 0001:0007959c       ?m__ctor@Class_System_NullReferenceException@@SIXPAU1@PAUClass_System_String@@PAUClass_System_Exception@@@Z 0207a59c f   NetStack.obj
 0001:000795cc       ?m_StructCopy@Struct_NetStack_Contracts_TcpConnectionContract_NoMoreData@@SIXPAU1@0@Z 0207a5cc f   NetStack.obj
 0001:000795e8       ?m_StructCopy@Struct_NetStack_Contracts_TcpConnectionContract_NoMoreData@@SIXPAU1@PAU1@@Z 0207a5e8 f   NetStack.obj
 0001:0007963c       ?m_MarshallContent@Struct_NetStack_Contracts_TcpConnectionContract_NoMoreData@@SIXPAU1@PAEPAUStruct_Microsoft_Singularity_Channels_Endpoint@@1PAH@Z 0207a63c f   NetStack.obj
 0001:0007965c       ?m_MarshallAll@Struct_NetStack_Contracts_TcpConnectionContract_NoMoreData@@SIXPAU1@PAEPAUStruct_Microsoft_Singularity_Channels_Endpoint@@PAH@Z 0207a65c f   NetStack.obj
 0001:000796b4       ?m_Equals@Struct_NetStack_Contracts_TcpConnectionContract_NoMoreData@@SI_NPAU1@PAUClass_System_Object@@@Z 0207a6b4 f   NetStack.obj
 0001:000796ec       ?m_Equals@Struct_NetStack_Contracts_TcpConnectionContract_NoMoreData@@SI_NPAUClass_NetStack_Contracts_TcpConnectionContract_NoMoreData@@PAUClass_System_Object@@@Z 0207a6ec f   NetStack.obj
 0001:00079718       ?m_ToString@Class_System_Text_StringBuilder@@SIPAUClass_System_String@@PAU1@@Z 0207a718 f   NetStack.obj
 0001:000797c4       ?m_ReplaceString@Class_System_Text_StringBuilder@@SIXPAU1@HPAUClass_System_String@@@Z 0207a7c4 f   NetStack.obj
 0001:00079808       ?m_NeedsAllocation@Class_System_Text_StringBuilder@@SI_NPAU1@PAUClass_System_String@@H@Z 0207a808 f   NetStack.obj
 0001:0007983c       ?g_InternalGetCurrentThread@Class_System_Text_StringBuilder@@SIHXZ 0207a83c f   NetStack.obj
 0001:00079860       ?m_GetThreadSafeString@Class_System_Text_StringBuilder@@SIPAUClass_System_String@@PAU1@PAH@Z 0207a860 f   NetStack.obj
 0001:000798c4       ?m_GetNewString@Class_System_Text_StringBuilder@@SIPAUClass_System_String@@PAU1@PAU2@H@Z 0207a8c4 f   NetStack.obj
 0001:000799b8       ?g_FormatError@Class_System_Text_StringBuilder@@SIXXZ 0207a9b8 f   NetStack.obj
 0001:000799f4       ?m_AppendFormat@Class_System_Text_StringBuilder@@SIPAU1@PAU1@PAUClass_System_String@@PAUClassVector_Class_System_Object@@@Z 0207a9f4 f   NetStack.obj
 0001:0007a28c       ?m_Append@Class_System_Text_StringBuilder@@SIPAU1@PAU1@PAUClassVector_bartok_char@@HH@Z 0207b28c f   NetStack.obj
 0001:0007a4b4       ?m_Append@Class_System_Text_StringBuilder@@SIPAU1@PAU1@H@Z 0207b4b4 f   NetStack.obj
 0001:0007a4e4       ?m_Append@Class_System_Text_StringBuilder@@SIPAU1@PAU1@PAUClass_System_String@@@Z 0207b4e4 f   NetStack.obj
 0001:0007a614       ?m_Append@Class_System_Text_StringBuilder@@SIPAU1@PAU1@_W@Z 0207b614 f   NetStack.obj
 0001:0007a718       ?m_Append@Class_System_Text_StringBuilder@@SIPAU1@PAU1@_WH@Z 0207b718 f   NetStack.obj
 0001:0007a87c       ?m__ctor@Class_System_Text_StringBuilder@@SIXPAU1@@Z 0207b87c f   NetStack.obj
 0001:0007a8a4       ?m__ctor@Class_System_Text_StringBuilder@@SIXPAU1@H@Z 0207b8a4 f   NetStack.obj
 0001:0007a944       ?m_StructCopy@Struct_NetStack_Contracts_TcpContract_Ack@@SIXPAU1@0@Z 0207b944 f   NetStack.obj
 0001:0007a960       ?m_StructCopy@Struct_NetStack_Contracts_TcpContract_Ack@@SIXPAU1@PAU1@@Z 0207b960 f   NetStack.obj
 0001:0007a9b4       ?m_MarshallContent@Struct_NetStack_Contracts_TcpContract_Ack@@SIXPAU1@PAEPAUStruct_Microsoft_Singularity_Channels_Endpoint@@1PAH@Z 0207b9b4 f   NetStack.obj
 0001:0007a9d4       ?m_MarshallAll@Struct_NetStack_Contracts_TcpContract_Ack@@SIXPAU1@PAEPAUStruct_Microsoft_Singularity_Channels_Endpoint@@PAH@Z 0207b9d4 f   NetStack.obj
 0001:0007aa2c       ?m_Equals@Struct_NetStack_Contracts_TcpContract_Ack@@SI_NPAU1@PAUClass_System_Object@@@Z 0207ba2c f   NetStack.obj
 0001:0007aa64       ?m_Equals@Struct_NetStack_Contracts_TcpContract_Ack@@SI_NPAUClass_NetStack_Contracts_TcpContract_Ack@@PAUClass_System_Object@@@Z 0207ba64 f   NetStack.obj
 0001:0007aa90       ?m_StructCopy@Struct_NetStack_Runtime_StopThreadContract_Terminate@@SIXPAU1@0@Z 0207ba90 f   NetStack.obj
 0001:0007aaac       ?m_StructCopy@Struct_NetStack_Runtime_StopThreadContract_Terminate@@SIXPAU1@PAU1@@Z 0207baac f   NetStack.obj
 0001:0007ab00       ?m_MarshallContent@Struct_NetStack_Runtime_StopThreadContract_Terminate@@SIXPAU1@PAEPAUStruct_Microsoft_Singularity_Channels_Endpoint@@1PAH@Z 0207bb00 f   NetStack.obj
 0001:0007ab20       ?m_MarshallAll@Struct_NetStack_Runtime_StopThreadContract_Terminate@@SIXPAU1@PAEPAUStruct_Microsoft_Singularity_Channels_Endpoint@@PAH@Z 0207bb20 f   NetStack.obj
 0001:0007ab78       ?m_Equals@Struct_NetStack_Runtime_StopThreadContract_Terminate@@SI_NPAU1@PAUClass_System_Object@@@Z 0207bb78 f   NetStack.obj
 0001:0007abb0       ?m_Equals@Struct_NetStack_Runtime_StopThreadContract_Terminate@@SI_NPAUClass_NetStack_Runtime_StopThreadContract_Terminate@@PAUClass_System_Object@@@Z 0207bbb0 f   NetStack.obj
 0001:0007abdc       ?g_IsInst@Class_Microsoft_Singularity_Channels_ExHeap@@SI_NPAUvoid@@PAUClass_System_Type@@@Z 0207bbdc f   NetStack.obj
 0001:0007ac64       ?g_IndirectToData@Class_Microsoft_Singularity_Channels_ExHeap@@SIPAUvoid@@PAU2@@Z 0207bc64 f   NetStack.obj
 0001:0007ad20       ?g_GetSize@Class_Microsoft_Singularity_Channels_ExHeap@@SIPAUuintPtr@@PAUvoid@@@Z 0207bd20 f   NetStack.obj
 0001:0007ad94       ?g_Free@Class_Microsoft_Singularity_Channels_ExHeap@@SIXPAUvoid@@@Z 0207bd94 f   NetStack.obj
 0001:0007ae50       ?g_AllocateVector@Class_Microsoft_Singularity_Channels_ExHeap@@SIPAUvoid@@PAUClass_System_Type@@H@Z 0207be50 f   NetStack.obj
 0001:0007af90       ?g_Allocate@Class_Microsoft_Singularity_Channels_ExHeap@@SIPAUvoid@@PAUClass_System_Type@@@Z 0207bf90 f   NetStack.obj
 0001:0007b09c       ?m__ctor@Class_Microsoft_Singularity_Channels_ExHeap@@SIXPAU1@@Z 0207c09c f   NetStack.obj
 0001:0007b0b4       ?m_StructCopy@Struct_Microsoft_Singularity_ServiceManager_ServiceProcessContract_Connect@@SIXPAU1@0@Z 0207c0b4 f   NetStack.obj
 0001:0007b0e8       ?m_StructCopy@Struct_Microsoft_Singularity_ServiceManager_ServiceProcessContract_Connect@@SIXPAU1@PAU1@@Z 0207c0e8 f   NetStack.obj
 0001:0007b184       ?m_Equals@Struct_Microsoft_Singularity_ServiceManager_ServiceProcessContract_Connect@@SI_NPAU1@PAUClass_System_Object@@@Z 0207c184 f   NetStack.obj
 0001:0007b1e0       ?m_Equals@Struct_Microsoft_Singularity_ServiceManager_ServiceProcessContract_Connect@@SI_NPAUClass_Microsoft_Singularity_ServiceManager_ServiceProcessContract_Connect@@PAUClass_System_Object@@@Z 0207c1e0 f   NetStack.obj
 0001:0007b20c       ?m_StructCopy@Struct_System_GCs_CalleeSaveLocations@@SIXPAU1@0@Z 0207c20c f   NetStack.obj
 0001:0007b27c       ?m_StructCopy@Struct_System_GCs_CalleeSaveLocations@@SIXPAU1@PAU1@@Z 0207c27c f   NetStack.obj
 0001:0007b3cc       ?m_SetCalleeSaves@Struct_System_GCs_CalleeSaveLocations@@SIXPAU1@PAUStruct_System_GCs_CalleeSaveRegisters@@@Z 0207c3cc f   NetStack.obj
 0001:0007b468       ?m_ScanLiveRegs@Struct_System_GCs_CalleeSaveLocations@@SIXPAU1@PAUuintPtr@@PAUClass_System_GCs_NonNullReferenceVisitor@@@Z 0207c468 f   NetStack.obj
 0001:0007b4f4       ?m_PopFrame@Struct_System_GCs_CalleeSaveLocations@@SIXPAU1@PAPAUuintPtr@@PAU2@_N3@Z 0207c4f4 f   NetStack.obj
 0001:0007b61c       ?m_GetFramePointer@Struct_System_GCs_CalleeSaveLocations@@SIPAUuintPtr@@PAU1@@Z 0207c61c f   NetStack.obj
 0001:0007b644       ?m_Equals@Struct_System_GCs_CalleeSaveLocations@@SI_NPAU1@PAUClass_System_Object@@@Z 0207c644 f   NetStack.obj
 0001:0007b974       ?m_Equals@Struct_System_GCs_CalleeSaveLocations@@SI_NPAUClass_System_GCs_CalleeSaveLocations@@PAUClass_System_Object@@@Z 0207c974 f   NetStack.obj
 0001:0007b9a0       ?m_ClearFrame@Struct_System_GCs_CalleeSaveLocations@@SIXPAU1@PAUuintPtr@@_N@Z 0207c9a0 f   NetStack.obj
 0001:0007ba64       ?m_ClearCalleeSaves@Struct_System_GCs_CalleeSaveLocations@@SIXPAU1@@Z 0207ca64 f   NetStack.obj
 0001:0007bab0       ?m_StructCopy@Struct_Microsoft_Singularity_Directory_DirectoryServiceContract_NakCreateAndBindFile@@SIXPAU1@0@Z 0207cab0 f   NetStack.obj
 0001:0007bae4       ?m_StructCopy@Struct_Microsoft_Singularity_Directory_DirectoryServiceContract_NakCreateAndBindFile@@SIXPAU1@PAU1@@Z 0207cae4 f   NetStack.obj
 0001:0007bb80       ?m_Equals@Struct_Microsoft_Singularity_Directory_DirectoryServiceContract_NakCreateAndBindFile@@SI_NPAU1@PAUClass_System_Object@@@Z 0207cb80 f   NetStack.obj
 0001:0007bc34       ?m_Equals@Struct_Microsoft_Singularity_Directory_DirectoryServiceContract_NakCreateAndBindFile@@SI_NPAUClass_Microsoft_Singularity_Directory_DirectoryServiceContract_NakCreateAndBindFile@@PAUClass_System_Object@@@Z 0207cc34 f   NetStack.obj
 0001:0007bc60       ?m_SetDefaults@Class_NetStack_Protocols_IPFormat_IPHeader@@SIXPAU1@UStruct_NetStack_Protocols_IPFormat_Protocol@@@Z 0207cc60 f   NetStack.obj
 0001:0007bd00       ?m_set$_Source@Class_NetStack_Protocols_IPFormat_IPHeader@@SIXPAU1@UStruct_System_Net_IP_IPv4@@@Z 0207cd00 f   NetStack.obj
 0001:0007bd2c       ?m_set$_Destination@Class_NetStack_Protocols_IPFormat_IPHeader@@SIXPAU1@UStruct_System_Net_IP_IPv4@@@Z 0207cd2c f   NetStack.obj
 0001:0007bd58       ?m_get$_Source@Class_NetStack_Protocols_IPFormat_IPHeader@@SI?AUStruct_System_Net_IP_IPv4@@PAU1@@Z 0207cd58 f   NetStack.obj
 0001:0007bd94       ?m_get$_Destination@Class_NetStack_Protocols_IPFormat_IPHeader@@SI?AUStruct_System_Net_IP_IPv4@@PAU1@@Z 0207cd94 f   NetStack.obj
 0001:0007bdd0       ?m__ctor@Class_NetStack_Protocols_IPFormat_IPHeader@@SIXPAU1@@Z 0207cdd0 f   NetStack.obj
 0001:0007bdec       ?m_StructCopy@Struct_Microsoft_Singularity_Io_Net_NicDeviceContract_Exp@@SIXPAU1@0@Z 0207cdec f   NetStack.obj
 0001:0007bf5c       ?m_StructCopy@Struct_Microsoft_Singularity_Io_Net_NicDeviceContract_Exp@@SIXPAU1@PAU1@@Z 0207cf5c f   NetStack.obj
 0001:0007c3ac       ?m_Peek@Struct_Microsoft_Singularity_Io_Net_NicDeviceContract_Exp@@SIHPAU1@@Z 0207d3ac f   NetStack.obj
 0001:0007caf4       ?m_MarshallDeliverStartIO1@Struct_Microsoft_Singularity_Io_Net_NicDeviceContract_Exp@@SIXPAU1@PAUStruct_Microsoft_Singularity_Channels_Endpoint@@@Z 0207daf4 f   NetStack.obj
 0001:0007cb40       ?m_MarshallDeliverSetChecksumProperties1@Struct_Microsoft_Singularity_Io_Net_NicDeviceContract_Exp@@SIXPAU1@UStruct_Microsoft_Singularity_Io_Net_ChecksumSupport@@PAUStruct_Microsoft_Singularity_Channels_Endpoint@@@Z 0207db40 f   NetStack.obj
 0001:0007cb90       ?m_MarshallDeliverRegisterForEvents0@Struct_Microsoft_Singularity_Io_Net_NicDeviceContract_Exp@@SIXPAU1@PAUStruct_Microsoft_Singularity_Io_Net_NicDeviceEventContract_Exp@@PAUStruct_Microsoft_Singularity_Channels_Endpoint@@@Z 0207db90 f   NetStack.obj
 0001:0007cbe8       ?m_MarshallDeliverGiveTxPacketsToDevice0@Struct_Microsoft_Singularity_Io_Net_NicDeviceContract_Exp@@SIXPAU1@PAUStruct_Microsoft_Singularity_Io_Net_PacketFifo@@PAUStruct_Microsoft_Singularity_Channels_Endpoint@@@Z 0207dbe8 f   NetStack.obj
 0001:0007cc40       ?m_MarshallDeliverGiveRxPacketsToDevice0@Struct_Microsoft_Singularity_Io_Net_NicDeviceContract_Exp@@SIXPAU1@PAUStruct_Microsoft_Singularity_Io_Net_PacketFifo@@PAUStruct_Microsoft_Singularity_Channels_Endpoint@@@Z 0207dc40 f   NetStack.obj
 0001:0007cc98       ?m_MarshallDeliverGetDeviceProperties0@Struct_Microsoft_Singularity_Io_Net_NicDeviceContract_Exp@@SIXPAU1@PAUStruct_Microsoft_Singularity_Io_Net_NicDeviceProperties@@PAUStruct_Microsoft_Singularity_Channels_Endpoint@@@Z 0207dc98 f   NetStack.obj
 0001:0007ccf0       ?m_MarshallDeliverConfigureIO1@Struct_Microsoft_Singularity_Io_Net_NicDeviceContract_Exp@@SIXPAU1@PAUStruct_Microsoft_Singularity_Channels_Endpoint@@@Z 0207dcf0 f   NetStack.obj
 0001:0007cd3c       ?m_MarshallDeliverConfigureIO0@Struct_Microsoft_Singularity_Io_Net_NicDeviceContract_Exp@@SIXPAU1@PAUStruct_Microsoft_Singularity_Channels_Endpoint@@@Z 0207dd3c f   NetStack.obj
 0001:0007cd90       ?m_HeadMatches@Struct_Microsoft_Singularity_Io_Net_NicDeviceContract_Exp@@SI_NPAU1@HPA_NPAPAUClass_System_Object@@@Z 0207dd90 f   NetStack.obj
 0001:0007ce50       ?m_HeadMatches@Struct_Microsoft_Singularity_Io_Net_NicDeviceContract_Exp@@SI_NPAUClass_Microsoft_Singularity_Io_Net_NicDeviceContract_Exp@@HPA_NPAPAUClass_System_Object@@@Z 0207de50 f   NetStack.obj
 0001:0007ce88       ?m_Equals@Struct_Microsoft_Singularity_Io_Net_NicDeviceContract_Exp@@SI_NPAU1@PAUClass_System_Object@@@Z 0207de88 f   NetStack.obj
 0001:0007d4b0       ?m_Equals@Struct_Microsoft_Singularity_Io_Net_NicDeviceContract_Exp@@SI_NPAUClass_Microsoft_Singularity_Io_Net_NicDeviceContract_Exp@@PAUClass_System_Object@@@Z 0207e4b0 f   NetStack.obj
 0001:0007d4dc       ?m_Dispose@Struct_Microsoft_Singularity_Io_Net_NicDeviceContract_Exp@@SIXPAU1@@Z 0207e4dc f   NetStack.obj
 0001:0007d500       ?m_Dispose@Struct_Microsoft_Singularity_Io_Net_NicDeviceContract_Exp@@SIXPAUClass_Microsoft_Singularity_Io_Net_NicDeviceContract_Exp@@@Z 0207e500 f   NetStack.obj
 0001:0007d528       ?m_DeliverStartIO1@Struct_Microsoft_Singularity_Io_Net_NicDeviceContract_Exp@@SIXPAU1@@Z 0207e528 f   NetStack.obj
 0001:0007d55c       ?m_DeliverSetChecksumProperties1@Struct_Microsoft_Singularity_Io_Net_NicDeviceContract_Exp@@SIXPAU1@UStruct_Microsoft_Singularity_Io_Net_ChecksumSupport@@@Z 0207e55c f   NetStack.obj
 0001:0007d5a4       ?m_DeliverRegisterForEvents0@Struct_Microsoft_Singularity_Io_Net_NicDeviceContract_Exp@@SIXPAU1@PAUStruct_Microsoft_Singularity_Io_Net_NicDeviceEventContract_Exp@@@Z 0207e5a4 f   NetStack.obj
 0001:0007d5ec       ?m_DeliverGiveTxPacketsToDevice0@Struct_Microsoft_Singularity_Io_Net_NicDeviceContract_Exp@@SIXPAU1@PAUStruct_Microsoft_Singularity_Io_Net_PacketFifo@@@Z 0207e5ec f   NetStack.obj
 0001:0007d634       ?m_DeliverGiveRxPacketsToDevice0@Struct_Microsoft_Singularity_Io_Net_NicDeviceContract_Exp@@SIXPAU1@PAUStruct_Microsoft_Singularity_Io_Net_PacketFifo@@@Z 0207e634 f   NetStack.obj
 0001:0007d67c       ?m_DeliverGetDeviceProperties0@Struct_Microsoft_Singularity_Io_Net_NicDeviceContract_Exp@@SIXPAU1@PAUStruct_Microsoft_Singularity_Io_Net_NicDeviceProperties@@@Z 0207e67c f   NetStack.obj
 0001:0007d6c4       ?m_DeliverConfigureIO1@Struct_Microsoft_Singularity_Io_Net_NicDeviceContract_Exp@@SIXPAU1@@Z 0207e6c4 f   NetStack.obj
 0001:0007d6f8       ?m_DeliverConfigureIO0@Struct_Microsoft_Singularity_Io_Net_NicDeviceContract_Exp@@SIXPAU1@@Z 0207e6f8 f   NetStack.obj
 0001:0007d72c       ?m__ctor@Struct_Microsoft_Singularity_Io_Net_NicDeviceContract_Exp@@SIXPAU1@H@Z 0207e72c f   NetStack.obj
 0001:0007d758       ?m_HeadMatches@Class_Microsoft_Singularity_Channels_ESet$_2$LNetStack_Contracts_IPContract_Exp_NetStack_Contracts_IPContract_ReadyState$G@@SI_NPAU1@HPA_NPAPAUClass_System_Object@@@Z 0207e758 f   NetStack.obj
 0001:0007d8d0       ?m_GetWaitHandle@Class_Microsoft_Singularity_Channels_ESet$_2$LNetStack_Contracts_IPContract_Exp_NetStack_Contracts_IPContract_ReadyState$G@@SI?AUStruct_Microsoft_Singularity_V1_Threads_SyncHandle@@PAU1@@Z 0207e8d0 f   NetStack.obj
 0001:0007d93c       ?m_GetFreshNode@Class_Microsoft_Singularity_Channels_ESet$_2$LNetStack_Contracts_IPContract_Exp_NetStack_Contracts_IPContract_ReadyState$G@@SIPAUClass_Microsoft_Singularity_Channels_ESet$_2$LNetStack_Contracts_IPContract_Exp_NetStack_Contracts_IPContract_ReadyState$G_Node@@PAU1@PAUStruct_NetStack_Contracts_IPContract_Exp@@0@Z 0207e93c f   NetStack.obj
 0001:0007d9e0       ?m_get$_NextScanStart@Class_Microsoft_Singularity_Channels_ESet$_2$LNetStack_Contracts_IPContract_Exp_NetStack_Contracts_IPContract_ReadyState$G@@SIPAUClass_Microsoft_Singularity_Channels_ESet$_2$LNetStack_Contracts_IPContract_Exp_NetStack_Contracts_IPContract_ReadyState$G_Node@@PAU1@@Z 0207e9e0 f   NetStack.obj
 0001:0007da48       ?m_Extract@Class_Microsoft_Singularity_Channels_ESet$_2$LNetStack_Contracts_IPContract_Exp_NetStack_Contracts_IPContract_ReadyState$G@@SIPAUStruct_NetStack_Contracts_IPContract_Exp@@PAU1@PAUClass_System_Object@@@Z 0207ea48 f   NetStack.obj
 0001:0007db00       ?m_Dispose@Class_Microsoft_Singularity_Channels_ESet$_2$LNetStack_Contracts_IPContract_Exp_NetStack_Contracts_IPContract_ReadyState$G@@SIXPAU1@@Z 0207eb00 f   NetStack.obj
 0001:0007dbec       ?m_Add@Class_Microsoft_Singularity_Channels_ESet$_2$LNetStack_Contracts_IPContract_Exp_NetStack_Contracts_IPContract_ReadyState$G@@SIXPAU1@PAUStruct_NetStack_Contracts_IPContract_Exp@@@Z 0207ebec f   NetStack.obj
 0001:0007dc1c       ?m__ctor@Class_Microsoft_Singularity_Channels_ESet$_2$LNetStack_Contracts_IPContract_Exp_NetStack_Contracts_IPContract_ReadyState$G@@SIXPAU1@@Z 0207ec1c f   NetStack.obj
 0001:0007dca8       ?g_StableState@Class_Microsoft_Singularity_ServiceManager_ServiceEventContract@@SIHPAUStruct_Microsoft_Singularity_Channels_StateStack@@@Z 0207eca8 f   NetStack.obj
 0001:0007dd04       ?m__ctor@Class_Microsoft_Singularity_ServiceManager_ServiceEventContract@@SIXPAU1@@Z 0207ed04 f   NetStack.obj
 0001:0007dd1c       ?m__ctor@Class_System_RankException@@SIXPAU1@@Z 0207ed1c f   NetStack.obj
 0001:0007dd44       ?m__ctor@Class_System_RankException@@SIXPAU1@PAUClass_System_String@@@Z 0207ed44 f   NetStack.obj
 0001:0007dd6c       ?m_Unlink@Class_Microsoft_Singularity_Channels_ESet$_2$LNetStack_Contracts_RoutingContract_Exp_NetStack_Contracts_RoutingContract_ReadyState$G_Node@@SIPAUStruct_NetStack_Contracts_RoutingContract_Exp@@PAU1@PAUClass_Microsoft_Singularity_Channels_ESet$_2$LNetStack_Contracts_RoutingContract_Exp_NetStack_Contracts_RoutingContract_ReadyState$G@@@Z 0207ed6c f   NetStack.obj
 0001:0007de80       ?m_LinkAsNext@Class_Microsoft_Singularity_Channels_ESet$_2$LNetStack_Contracts_RoutingContract_Exp_NetStack_Contracts_RoutingContract_ReadyState$G_Node@@SIXPAU1@PAUStruct_NetStack_Contracts_RoutingContract_Exp@@PAUClass_Microsoft_Singularity_Channels_ESet$_2$LNetStack_Contracts_RoutingContract_Exp_NetStack_Contracts_RoutingContract_ReadyState$G@@@Z 0207ee80 f   NetStack.obj
 0001:0007defc       ?m_Init@Class_Microsoft_Singularity_Channels_ESet$_2$LNetStack_Contracts_RoutingContract_Exp_NetStack_Contracts_RoutingContract_ReadyState$G_Node@@SIXPAU1@PAUStruct_NetStack_Contracts_RoutingContract_Exp@@PAUClass_Microsoft_Singularity_Channels_ESet$_2$LNetStack_Contracts_RoutingContract_Exp_NetStack_Contracts_RoutingContract_ReadyState$G@@@Z 0207eefc f   NetStack.obj
 0001:0007df2c       ?m__ctor@Class_Microsoft_Singularity_Channels_ESet$_2$LNetStack_Contracts_RoutingContract_Exp_NetStack_Contracts_RoutingContract_ReadyState$G_Node@@SIXPAU1@PAUStruct_NetStack_Contracts_RoutingContract_Exp@@PAUClass_Microsoft_Singularity_Channels_ESet$_2$LNetStack_Contracts_RoutingContract_Exp_NetStack_Contracts_RoutingContract_ReadyState$G@@@Z 0207ef2c f   NetStack.obj
 0001:0007df70       ?m__ctor@Class_Microsoft_Singularity_Channels_ESet$_2$LNetStack_Contracts_RoutingContract_Exp_NetStack_Contracts_RoutingContract_ReadyState$G_Node@@SIXPAU1@PAUClass_Microsoft_Singularity_Channels_ESet$_2$LNetStack_Contracts_RoutingContract_Exp_NetStack_Contracts_RoutingContract_ReadyState$G@@@Z 0207ef70 f   NetStack.obj
 0001:0007dfa4       ?g_ReadIcmpHeader@Class_NetStack_Protocols_IcmpFormat@@SI_NPAUClass_NetStack_Common_IBuffer@@PAUStruct_NetStack_Protocols_IcmpFormat_IcmpHeader@@@Z 0207efa4 f   NetStack.obj
 0001:0007e080       ?g_CreateFastEchoReply@Class_NetStack_Protocols_IcmpFormat@@SIXPAUClassVector_uint8@@H@Z 0207f080 f   NetStack.obj
 0001:0007e21c       ?m__ctor@Class_NetStack_Protocols_IcmpFormat@@SIXPAU1@@Z 0207f21c f   NetStack.obj
 0001:0007e234       ?m_WriteImpl@Class_System_GCs_EmptyWriteBarrier@@SIXPAU1@PAPAUuintPtr@@PAUClass_System_Object@@H@Z 0207f234 f   NetStack.obj
 0001:0007e25c       ?g_Initialize@Class_System_GCs_EmptyWriteBarrier@@SIXXZ 0207f25c f   NetStack.obj
 0001:0007e2d4       ?m_CopyStructImpl@Class_System_GCs_EmptyWriteBarrier@@SIXPAU1@PAUClass_System_Object@@1PAUClass_System_VTable@@PAUuintPtr@@3@Z 0207f2d4 f   NetStack.obj
 0001:0007e338       ?m_ArrayCopyImpl@Class_System_GCs_EmptyWriteBarrier@@SIXPAU1@PAUClass_System_Array@@H1HH@Z 0207f338 f   NetStack.obj
 0001:0007e440       ?m__ctor@Class_System_GCs_EmptyWriteBarrier@@SIXPAU1@@Z 0207f440 f   NetStack.obj
 0001:0007e464       ?m_WriteData@Class_NetStack_Runtime_TcpSession@@SIHPAU1@PAE@Z 0207f464 f   NetStack.obj
 0001:0007e538       ?m_UpdateRTT@Class_NetStack_Runtime_TcpSession@@SIXPAU1@I@Z 0207f538 f   NetStack.obj
 0001:0007e638       ?m_Terminate@Class_NetStack_Runtime_TcpSession@@SIXPAU1@PAUClass_NetStack_Runtime_TcpSegment@@UStruct_NetStack_Contracts_TcpError@@@Z 0207f638 f   NetStack.obj
 0001:0007e694       ?m_StopPersistTimer@Class_NetStack_Runtime_TcpSession@@SIXPAU1@@Z 0207f694 f   NetStack.obj
 0001:0007e6c0       ?m_StartPersistTimer@Class_NetStack_Runtime_TcpSession@@SIXPAU1@@Z 0207f6c0 f   NetStack.obj
 0001:0007e7a8       ?m_StartConnectTimer@Class_NetStack_Runtime_TcpSession@@SIXPAU1@@Z 0207f7a8 f   NetStack.obj
 0001:0007e900       ?m_set$_ValidForWrite@Class_NetStack_Runtime_TcpSession@@SIXPAU1@_N@Z 0207f900 f   NetStack.obj
 0001:0007e928       ?m_set$_ValidForRead@Class_NetStack_Runtime_TcpSession@@SIXPAU1@_N@Z 0207f928 f   NetStack.obj
 0001:0007e950       ?m_RestartRetransTimer@Class_NetStack_Runtime_TcpSession@@SIXPAU1@@Z 0207f950 f   NetStack.obj
 0001:0007eab4       ?m_ReInitialize@Class_NetStack_Runtime_TcpSession@@SIXPAU1@PAUClass_NetStack_Runtime_IProtocol@@@Z 0207fab4 f   NetStack.obj
 0001:0007ec10       ?m_PriorityEnqueuePacket@Class_NetStack_Runtime_TcpSession@@SIXPAU1@PAUClass_System_Collections_ArrayList@@PAUClass_NetStack_Common_NetPacket@@@Z 0207fc10 f   NetStack.obj
 0001:0007eca8       ?m_OnShutdownTimedout@Class_NetStack_Runtime_TcpSession@@SI?AUStruct_NetStack_Runtime_NetStatus@@PAU1@PAUClass_NetStack_Runtime_Dispatcher_CallbackArgs@@@Z 0207fca8 f   NetStack.obj
 0001:0007ed6c       ?m_OnRetransmitTimeout@Class_NetStack_Runtime_TcpSession@@SI?AUStruct_NetStack_Runtime_NetStatus@@PAU1@PAUClass_NetStack_Runtime_Dispatcher_CallbackArgs@@@Z 0207fd6c f   NetStack.obj
 0001:0007f044       ?m_OnReceive@Class_NetStack_Runtime_TcpSession@@SI?AUStruct_NetStack_Runtime_NetStatus@@PAU1@PAUClass_System_Object@@PAUClass_NetStack_Common_NetPacket@@1@Z 02080044 f   NetStack.obj
 0001:0007f1e0       ?m_OnPersistTimeout@Class_NetStack_Runtime_TcpSession@@SI?AUStruct_NetStack_Runtime_NetStatus@@PAU1@PAUClass_NetStack_Runtime_Dispatcher_CallbackArgs@@@Z 020801e0 f   NetStack.obj
 0001:0007f3c4       ?m_OnConnectTimeout@Class_NetStack_Runtime_TcpSession@@SI?AUStruct_NetStack_Runtime_NetStatus@@PAU1@PAUClass_NetStack_Runtime_Dispatcher_CallbackArgs@@@Z 020803c4 f   NetStack.obj
 0001:0007f48c       ?m_LogStateChangeContractCall@Class_NetStack_Runtime_TcpSession@@SIXPAU1@UStruct_NetStack_Runtime_TcpSessionEventsSource_TcpSessionContractEntrypoints@@@Z 0208048c f   NetStack.obj
 0001:0007f514       ?m_LogQueryContractCall@Class_NetStack_Runtime_TcpSession@@SIXPAU1@UStruct_NetStack_Runtime_TcpSessionEventsSource_TcpSessionContractEntrypoints@@@Z 02080514 f   NetStack.obj
 0001:0007f59c       ?m_LogInfoContractCall@Class_NetStack_Runtime_TcpSession@@SIXPAU1@UStruct_NetStack_Runtime_TcpSessionEventsSource_TcpSessionContractEntrypoints@@@Z 0208059c f   NetStack.obj
 0001:0007f624       ?m_LogDataTransferContractCall@Class_NetStack_Runtime_TcpSession@@SIXPAU1@UStruct_NetStack_Runtime_TcpSessionEventsSource_TcpSessionContractEntrypoints@@@Z 02080624 f   NetStack.obj
 0001:0007f6ac       ?m_Listen@Class_NetStack_Runtime_TcpSession@@SI_NPAU1@H@Z 020806ac f   NetStack.obj
 0001:0007f72c       ?m_IsSessionValidForUserRead@Class_NetStack_Runtime_TcpSession@@SI_NPAU1@@Z 0208072c f   NetStack.obj
 0001:0007f760       ?m_IsDataAvailable@Class_NetStack_Runtime_TcpSession@@SI_NPAU1@@Z 02080760 f   NetStack.obj
 0001:0007f7a8       ?m_InternalWrite@Class_NetStack_Runtime_TcpSession@@SIHPAU1@PAUClass_NetStack_Runtime_TcpSession_CopyDataDelegate@@H@Z 020807a8 f   NetStack.obj
 0001:0007fbcc       ?m_InPersistState@Class_NetStack_Runtime_TcpSession@@SI_NPAU1@@Z 02080bcc f   NetStack.obj
 0001:0007fc0c       ?m_InitializeSession@Class_NetStack_Runtime_TcpSession@@SIXPAU1@III@Z 02080c0c f   NetStack.obj
 0001:0007fc70       ?m_InitializeServerSession@Class_NetStack_Runtime_TcpSession@@SIXPAU1@II@Z 02080c70 f   NetStack.obj
 0001:0007fcdc       ?m_HandleWindowUpdate@Class_NetStack_Runtime_TcpSession@@SIXPAU1@@Z 02080cdc f   NetStack.obj
 0001:0007fd78       ?m_GetPacket@Class_NetStack_Runtime_TcpSession@@SIPAUClass_NetStack_Common_NetPacket@@PAU1@PAUClass_System_Collections_ArrayList@@_NUStruct_System_TimeSpan@@@Z 02080d78 f   NetStack.obj
 0001:0007fe60       ?m_GetNumWaitingListenSessions@Class_NetStack_Runtime_TcpSession@@SIHPAU1@@Z 02080e60 f   NetStack.obj
 0001:0007fedc       ?m_GetNextPacket@Class_NetStack_Runtime_TcpSession@@SIPAUClass_NetStack_Runtime_TcpSegment@@PAU1@_N@Z 02080edc f   NetStack.obj
 0001:0008035c       ?m_get$_ValidForWrite@Class_NetStack_Runtime_TcpSession@@SI_NPAU1@@Z 0208135c f   NetStack.obj
 0001:00080390       ?m_get$_ValidForRead@Class_NetStack_Runtime_TcpSession@@SI_NPAU1@@Z 02081390 f   NetStack.obj
 0001:000803c4       ?m_get$_IsClosed@Class_NetStack_Runtime_TcpSession@@SI_NPAU1@@Z 020813c4 f   NetStack.obj
 0001:0008040c       ?m_FreeRemoteWindowBytes@Class_NetStack_Runtime_TcpSession@@SIIPAU1@@Z 0208140c f   NetStack.obj
 0001:00080460       ?m_FlushRetransmissions@Class_NetStack_Runtime_TcpSession@@SIXPAU1@@Z 02081460 f   NetStack.obj
 0001:00080490       ?m_DoneSending@Class_NetStack_Runtime_TcpSession@@SIXPAU1@@Z 02081490 f   NetStack.obj
 0001:00080578       ?m_DoneReceiving@Class_NetStack_Runtime_TcpSession@@SIXPAU1@@Z 02081578 f   NetStack.obj
 0001:0008059c       ?m_DestroyTimer@Class_NetStack_Runtime_TcpSession@@SIXPAU1@PAPAUClass_RJBlack_Timer@@PAUClass_System_String@@@Z 0208159c f   NetStack.obj
 0001:00080608       ?m_DestroyShutdownTimer@Class_NetStack_Runtime_TcpSession@@SIXPAU1@@Z 02081608 f   NetStack.obj
 0001:00080640       ?m_DestroyRetransmitTimer@Class_NetStack_Runtime_TcpSession@@SIXPAU1@@Z 02081640 f   NetStack.obj
 0001:00080674       ?m_DestroyPersistTimer@Class_NetStack_Runtime_TcpSession@@SIXPAU1@@Z 02081674 f   NetStack.obj
 0001:000806a8       ?m_DestroyConnectTimer@Class_NetStack_Runtime_TcpSession@@SIXPAU1@@Z 020816a8 f   NetStack.obj
 0001:000806dc       ?m_Connect@Class_NetStack_Runtime_TcpSession@@SI_NPAU1@UStruct_System_Net_IP_IPv4@@GPAUStruct_NetStack_Contracts_TcpError@@@Z 020816dc f   NetStack.obj
 0001:00080878       ?m_Close@Class_NetStack_Runtime_TcpSession@@SI_NPAU1@@Z 02081878 f   NetStack.obj
 0001:000809b4       ?m_ChangeState@Class_NetStack_Runtime_TcpSession@@SIXPAU1@PAUClass_NetStack_Runtime_TcpState@@@Z 020819b4 f   NetStack.obj
 0001:00080af4       ?m_BindLocalEndPointInternal@Class_NetStack_Runtime_TcpSession@@SI_NPAU1@UStruct_System_Net_IP_IPv4@@G@Z 02081af4 f   NetStack.obj
 0001:00080ba4       ?m_BindLocalEndPoint@Class_NetStack_Runtime_TcpSession@@SI_NPAU1@UStruct_System_Net_IP_IPv4@@G@Z 02081ba4 f   NetStack.obj
 0001:00080bec       ?m_AddAcceptedSession@Class_NetStack_Runtime_TcpSession@@SI_NPAU1@0@Z 02081bec f   NetStack.obj
 0001:00080c8c       ?m_ACKThrough@Class_NetStack_Runtime_TcpSession@@SIXPAU1@I@Z 02081c8c f   NetStack.obj
 0001:00081118       ?m_AcceptQueueIsFull@Class_NetStack_Runtime_TcpSession@@SI_NPAU1@@Z 02082118 f   NetStack.obj
 0001:00081160       ?m_Accept@Class_NetStack_Runtime_TcpSession@@SIPAU1@PAU1@@Z 02082160 f   NetStack.obj
 0001:00081268       ?m_Abort@Class_NetStack_Runtime_TcpSession@@SI_NPAU1@@Z 02082268 f   NetStack.obj
 0001:000812a4       ?m_Abort@Class_NetStack_Runtime_TcpSession@@SI_NPAU1@UStruct_NetStack_Contracts_TcpError@@@Z 020822a4 f   NetStack.obj
 0001:000812f0       ?m__ctor@Class_NetStack_Runtime_TcpSession@@SIXPAU1@PAUClass_NetStack_Runtime_IProtocol@@@Z 020822f0 f   NetStack.obj
 0001:000814e8       ?g__cctor@Class_NetStack_Runtime_TcpSession@@SIXXZ 020824e8 f   NetStack.obj
 0001:00081598       ?m_StructCopy@Struct_NetStack_Contracts_IPContract_GetInterfaceState@@SIXPAU1@0@Z 02082598 f   NetStack.obj
 0001:000815c0       ?m_StructCopy@Struct_NetStack_Contracts_IPContract_GetInterfaceState@@SIXPAU1@PAU1@@Z 020825c0 f   NetStack.obj
 0001:00081638       ?m_Equals@Struct_NetStack_Contracts_IPContract_GetInterfaceState@@SI_NPAU1@PAUClass_System_Object@@@Z 02082638 f   NetStack.obj
 0001:00081680       ?m_Equals@Struct_NetStack_Contracts_IPContract_GetInterfaceState@@SI_NPAUClass_NetStack_Contracts_IPContract_GetInterfaceState@@PAUClass_System_Object@@@Z 02082680 f   NetStack.obj
 0001:000816ac       ?m_HeadMatches@Class_SurrogateNetStack_Runtime_StopThreadContract_Exp@@SI_NPAU1@HPA_NPAPAUClass_System_Object@@@Z 020826ac f   NetStack.obj
 0001:000816e0       ?m_GetWaitHandle@Class_SurrogateNetStack_Runtime_StopThreadContract_Exp@@SI?AUStruct_Microsoft_Singularity_V1_Threads_SyncHandle@@PAU1@@Z 020826e0 f   NetStack.obj
 0001:00081704       ?m_Dispose@Class_SurrogateNetStack_Runtime_StopThreadContract_Exp@@SIXPAU1@@Z 02082704 f   NetStack.obj
 0001:00081728       ?g__ctor@Class_SurrogateNetStack_Runtime_StopThreadContract_Exp@@SIXPAU1@PAUStruct_NetStack_Runtime_StopThreadContract_Exp@@@Z 02082728 f   NetStack.obj
 0001:00081750       ?m__ctor@Class_Microsoft_Singularity_Memory_Stacks@@SIXPAU1@@Z 02082750 f   NetStack.obj
 0001:0008176c       ?g_Swap@Class_Microsoft_Singularity_Io_ByteOrder@@SIII@Z 0208276c f   NetStack.obj
 0001:000817b8       ?g_Swap@Class_Microsoft_Singularity_Io_ByteOrder@@SIHH@Z 020827b8 f   NetStack.obj
 0001:00081804       ?g_Swap@Class_Microsoft_Singularity_Io_ByteOrder@@SIFF@Z 02082804 f   NetStack.obj
 0001:0008183c       ?g_BigEndianToHost@Class_Microsoft_Singularity_Io_ByteOrder@@SIII@Z 0208283c f   NetStack.obj
 0001:00081860       ?g_BigEndianToHost@Class_Microsoft_Singularity_Io_ByteOrder@@SIGG@Z 02082860 f   NetStack.obj
 0001:00081884       ?g_BigEndianToHost@Class_Microsoft_Singularity_Io_ByteOrder@@SIFF@Z 02082884 f   NetStack.obj
 0001:000818a8       ?m__ctor@Class_Microsoft_Singularity_Io_ByteOrder@@SIXPAU1@@Z 020828a8 f   NetStack.obj
 0001:000818c0       ?m_set$_Aliases@Class_System_Net_IP_IPv4HostEntry@@SIXPAU1@PAUClassVector_Class_System_String@@@Z 020828c0 f   NetStack.obj
 0001:000818e8       ?m_set$_AddressList@Class_System_Net_IP_IPv4HostEntry@@SIXPAU1@PAUClassVector_Struct_System_Net_IP_IPv4@@@Z 020828e8 f   NetStack.obj
 0001:00081910       ?m_get$_Aliases@Class_System_Net_IP_IPv4HostEntry@@SIPAUClassVector_Class_System_String@@PAU1@@Z 02082910 f   NetStack.obj
 0001:0008194c       ?m_get$_AddressList@Class_System_Net_IP_IPv4HostEntry@@SIPAUClassVector_Struct_System_Net_IP_IPv4@@PAU1@@Z 0208294c f   NetStack.obj
 0001:00081988       ?m__ctor@Class_System_Net_IP_IPv4HostEntry@@SIXPAU1@PAUClassVector_Class_System_String@@PAUClassVector_Struct_System_Net_IP_IPv4@@@Z 02082988 f   NetStack.obj
 0001:000819b8       ?m__ctor@Class_System_OverflowException@@SIXPAU1@@Z 020829b8 f   NetStack.obj
 0001:000819e0       ?m__ctor@Class_System_OverflowException@@SIXPAU1@PAUClass_System_String@@@Z 020829e0 f   NetStack.obj
 0001:00081a08       ?m__ctor@Class_System_OverflowException@@SIXPAU1@PAUClass_System_String@@PAUClass_System_Exception@@@Z 02082a08 f   NetStack.obj
 0001:00081a38       ?m__ctor@Class_Microsoft_Singularity_Channels_ChannelException@@SIXPAU1@@Z 02082a38 f   NetStack.obj
 0001:00081a5c       ?m__ctor@Class_Microsoft_Contracts_ContractMarkerException@@SIXPAU1@@Z 02082a5c f   NetStack.obj
 0001:00081a80       ?m_StructCopy@Struct_Microsoft_Singularity_Directory_DirectoryServiceContract_Bind@@SIXPAU1@0@Z 02082a80 f   NetStack.obj
 0001:00081ab4       ?m_StructCopy@Struct_Microsoft_Singularity_Directory_DirectoryServiceContract_Bind@@SIXPAU1@PAU1@@Z 02082ab4 f   NetStack.obj
 0001:00081b50       ?m_MarshallContent@Struct_Microsoft_Singularity_Directory_DirectoryServiceContract_Bind@@SIXPAU1@PAEPAUStruct_Microsoft_Singularity_Channels_Endpoint@@1PAH@Z 02082b50 f   NetStack.obj
 0001:00081c78       ?m_MarshallAll@Struct_Microsoft_Singularity_Directory_DirectoryServiceContract_Bind@@SIXPAU1@PAEPAUStruct_Microsoft_Singularity_Channels_Endpoint@@PAH@Z 02082c78 f   NetStack.obj
 0001:00081cd0       ?m_Equals@Struct_Microsoft_Singularity_Directory_DirectoryServiceContract_Bind@@SI_NPAU1@PAUClass_System_Object@@@Z 02082cd0 f   NetStack.obj
 0001:00081d2c       ?m_Equals@Struct_Microsoft_Singularity_Directory_DirectoryServiceContract_Bind@@SI_NPAUClass_Microsoft_Singularity_Directory_DirectoryServiceContract_Bind@@PAUClass_System_Object@@@Z 02082d2c f   NetStack.obj
 0001:00081d58       ?m_StopModule@Class_NetStack_Runtime_IcmpModule@@SI_NPAU1@@Z 02082d58 f   NetStack.obj
 0001:00081d88       ?m_StartModule@Class_NetStack_Runtime_IcmpModule@@SI_NPAU1@@Z 02082d88 f   NetStack.obj
 0001:00081df4       ?m_OnProtocolSend@Class_NetStack_Runtime_IcmpModule@@SI?AUStruct_NetStack_Runtime_NetStatus@@PAU1@PAUClass_NetStack_Common_NetPacket@@@Z 02082df4 f   NetStack.obj
 0001:00081e74       ?m_OnProtocolReceive@Class_NetStack_Runtime_IcmpModule@@SI?AUStruct_NetStack_Runtime_NetStatus@@PAU1@PAUClass_NetStack_Common_NetPacket@@@Z 02082e74 f   NetStack.obj
 0001:000820ec       ?m_NetStack_Runtime_INetModule_get$_ModuleName@Class_NetStack_Runtime_IcmpModule@@SIPAUClass_System_String@@PAU1@@Z 020830ec f   NetStack.obj
 0001:0008212c       ?m_Initialize@Class_NetStack_Runtime_IcmpModule@@SI_NPAU1@PAUClass_NetStack_Runtime_ProtocolParams@@@Z 0208312c f   NetStack.obj
 0001:0008218c       ?m_GetProtocolID@Class_NetStack_Runtime_IcmpModule@@SIGPAU1@@Z 0208318c f   NetStack.obj
 0001:000821cc       ?m_CreateSession@Class_NetStack_Runtime_IcmpModule@@SIPAUClass_NetStack_Runtime_Session@@PAU1@@Z 020831cc f   NetStack.obj
 0001:00082278       ?m__ctor@Class_NetStack_Runtime_IcmpModule@@SIXPAU1@@Z 02083278 f   NetStack.obj
 0001:00082294       ?m_InvokeStaticStub@Class_System_Threading_Thread_StopServiceNotice@@SIXPAU1@@Z 02083294 f   NetStack.obj
 0001:000822bc       ?m_Invoke@Class_System_Threading_Thread_StopServiceNotice@@SIXPAU1@@Z 020832bc f   NetStack.obj
 0001:00082310       ?m_EndInvoke@Class_System_Threading_Thread_StopServiceNotice@@SIXPAU1@PAUClass_System_IAsyncResult@@@Z 02083310 f   NetStack.obj
 0001:0008232c       ?m_BeginInvoke@Class_System_Threading_Thread_StopServiceNotice@@SIPAUClass_System_IAsyncResult@@PAU1@PAUClass_System_AsyncCallback@@PAUClass_System_Object@@@Z 0208332c f   NetStack.obj
 0001:0008234c       ?m__ctor@Class_System_Threading_Thread_StopServiceNotice@@SIXPAU1@PAUClass_System_Object@@PAUintPtr@@@Z 0208334c f   NetStack.obj
 0001:000823b0       ?m_HeadMatches@Class_Microsoft_Singularity_Channels_ESet$_2$LNetStack_Contracts_TcpContract_Exp_NetStack_Contracts_TcpContract_ReadyState$G@@SI_NPAU1@HPA_NPAPAUClass_System_Object@@@Z 020833b0 f   NetStack.obj
 0001:00082528       ?m_GetWaitHandle@Class_Microsoft_Singularity_Channels_ESet$_2$LNetStack_Contracts_TcpContract_Exp_NetStack_Contracts_TcpContract_ReadyState$G@@SI?AUStruct_Microsoft_Singularity_V1_Threads_SyncHandle@@PAU1@@Z 02083528 f   NetStack.obj
 0001:00082594       ?m_GetFreshNode@Class_Microsoft_Singularity_Channels_ESet$_2$LNetStack_Contracts_TcpContract_Exp_NetStack_Contracts_TcpContract_ReadyState$G@@SIPAUClass_Microsoft_Singularity_Channels_ESet$_2$LNetStack_Contracts_TcpContract_Exp_NetStack_Contracts_TcpContract_ReadyState$G_Node@@PAU1@PAUStruct_NetStack_Contracts_TcpContract_Exp@@0@Z 02083594 f   NetStack.obj
 0001:00082638       ?m_get$_NextScanStart@Class_Microsoft_Singularity_Channels_ESet$_2$LNetStack_Contracts_TcpContract_Exp_NetStack_Contracts_TcpContract_ReadyState$G@@SIPAUClass_Microsoft_Singularity_Channels_ESet$_2$LNetStack_Contracts_TcpContract_Exp_NetStack_Contracts_TcpContract_ReadyState$G_Node@@PAU1@@Z 02083638 f   NetStack.obj
 0001:000826a0       ?m_Extract@Class_Microsoft_Singularity_Channels_ESet$_2$LNetStack_Contracts_TcpContract_Exp_NetStack_Contracts_TcpContract_ReadyState$G@@SIPAUStruct_NetStack_Contracts_TcpContract_Exp@@PAU1@PAUClass_System_Object@@@Z 020836a0 f   NetStack.obj
 0001:00082758       ?m_Dispose@Class_Microsoft_Singularity_Channels_ESet$_2$LNetStack_Contracts_TcpContract_Exp_NetStack_Contracts_TcpContract_ReadyState$G@@SIXPAU1@@Z 02083758 f   NetStack.obj
 0001:00082844       ?m_Add@Class_Microsoft_Singularity_Channels_ESet$_2$LNetStack_Contracts_TcpContract_Exp_NetStack_Contracts_TcpContract_ReadyState$G@@SIXPAU1@PAUStruct_NetStack_Contracts_TcpContract_Exp@@@Z 02083844 f   NetStack.obj
 0001:00082874       ?m__ctor@Class_Microsoft_Singularity_Channels_ESet$_2$LNetStack_Contracts_TcpContract_Exp_NetStack_Contracts_TcpContract_ReadyState$G@@SIXPAU1@@Z 02083874 f   NetStack.obj
 0001:00082900       ?g_DoCallback@Class_Microsoft_Singularity_Isal_Isa_ICallback@@SIPAUuintPtr@@PAU1@PAU2@@Z 02083900 f   NetStack.obj
 0001:00082938       ?m__ctor@Class_Microsoft_Singularity_Isal_Isa_ICallback@@SIXPAU1@@Z 02083938 f   NetStack.obj
 0001:00082954       ?m_StructCopy@Struct_Microsoft_Singularity_Io_Net_NicDeviceEventContract_Imp@@SIXPAU1@0@Z 02083954 f   NetStack.obj
 0001:00082a4c       ?m_StructCopy@Struct_Microsoft_Singularity_Io_Net_NicDeviceEventContract_Imp@@SIXPAU1@PAU1@@Z 02083a4c f   NetStack.obj
 0001:00082d34       ?m_SendAckNicDeviceEvent@Struct_Microsoft_Singularity_Io_Net_NicDeviceEventContract_Imp@@SIXPAU1@@Z 02083d34 f   NetStack.obj
 0001:00082e28       ?m_Release@Struct_Microsoft_Singularity_Io_Net_NicDeviceEventContract_Imp@@SIXPAU1@@Z 02083e28 f   NetStack.obj
 0001:00082e44       ?m_RecvSuccess@Struct_Microsoft_Singularity_Io_Net_NicDeviceEventContract_Imp@@SIXPAU1@@Z 02083e44 f   NetStack.obj
 0001:00082fbc       ?m_RecvNicDeviceEvent@Struct_Microsoft_Singularity_Io_Net_NicDeviceEventContract_Imp@@SIXPAU1@PAUStruct_Microsoft_Singularity_Io_Net_NicEventType@@@Z 02083fbc f   NetStack.obj
 0001:00083144       ?m_Peek@Struct_Microsoft_Singularity_Io_Net_NicDeviceEventContract_Imp@@SIHPAU1@@Z 02084144 f   NetStack.obj
 0001:000832ec       ?m_InState@Struct_Microsoft_Singularity_Io_Net_NicDeviceEventContract_Imp@@SI_NPAU1@H@Z 020842ec f   NetStack.obj
 0001:0008337c       ?m_HeadMatches@Struct_Microsoft_Singularity_Io_Net_NicDeviceEventContract_Imp@@SI_NPAU1@HPA_NPAPAUClass_System_Object@@@Z 0208437c f   NetStack.obj
 0001:0008343c       ?m_HeadMatches@Struct_Microsoft_Singularity_Io_Net_NicDeviceEventContract_Imp@@SI_NPAUClass_Microsoft_Singularity_Io_Net_NicDeviceEventContract_Imp@@HPA_NPAPAUClass_System_Object@@@Z 0208443c f   NetStack.obj
 0001:00083474       ?m_Equals@Struct_Microsoft_Singularity_Io_Net_NicDeviceEventContract_Imp@@SI_NPAU1@PAUClass_System_Object@@@Z 02084474 f   NetStack.obj
 0001:000837bc       ?m_Equals@Struct_Microsoft_Singularity_Io_Net_NicDeviceEventContract_Imp@@SI_NPAUClass_Microsoft_Singularity_Io_Net_NicDeviceEventContract_Imp@@PAUClass_System_Object@@@Z 020847bc f   NetStack.obj
 0001:000837e8       ?m_Dispose@Struct_Microsoft_Singularity_Io_Net_NicDeviceEventContract_Imp@@SIXPAU1@@Z 020847e8 f   NetStack.obj
 0001:0008380c       ?m_Dispose@Struct_Microsoft_Singularity_Io_Net_NicDeviceEventContract_Imp@@SIXPAUClass_Microsoft_Singularity_Io_Net_NicDeviceEventContract_Imp@@@Z 0208480c f   NetStack.obj
 0001:00083834       ?m_CurrentState@Struct_Microsoft_Singularity_Io_Net_NicDeviceEventContract_Imp@@SIPAUClass_System_String@@PAU1@@Z 02084834 f   NetStack.obj
 0001:000838c0       ?m_Acquire@Struct_Microsoft_Singularity_Io_Net_NicDeviceEventContract_Imp@@SIXPAU1@@Z 020848c0 f   NetStack.obj
 0001:000838dc       ?m__ctor@Struct_Microsoft_Singularity_Io_Net_NicDeviceEventContract_Imp@@SIXPAU1@H@Z 020848dc f   NetStack.obj
 0001:00083908       ?m_InvokeStaticStub@Class_System_GCs_ProfileRootsDelegate@@SIXPAU1@PAUClass_System_GCs_NonNullReferenceVisitor@@@Z 02084908 f   NetStack.obj
 0001:00083938       ?m_Invoke@Class_System_GCs_ProfileRootsDelegate@@SIXPAU1@PAUClass_System_GCs_NonNullReferenceVisitor@@@Z 02084938 f   NetStack.obj
 0001:00083994       ?m_EndInvoke@Class_System_GCs_ProfileRootsDelegate@@SIXPAU1@PAUClass_System_IAsyncResult@@@Z 02084994 f   NetStack.obj
 0001:000839b0       ?m_BeginInvoke@Class_System_GCs_ProfileRootsDelegate@@SIPAUClass_System_IAsyncResult@@PAU1@PAUClass_System_GCs_NonNullReferenceVisitor@@PAUClass_System_AsyncCallback@@PAUClass_System_Object@@@Z 020849b0 f   NetStack.obj
 0001:000839d0       ?m__ctor@Class_System_GCs_ProfileRootsDelegate@@SIXPAU1@PAUClass_System_Object@@PAUintPtr@@@Z 020849d0 f   NetStack.obj
 0001:00083a34       ?m_StructCopy@Struct_NetStack_Protocols_UdpFormat_UdpHeader@@SIXPAU1@0@Z 02084a34 f   NetStack.obj
 0001:00083a88       ?m_StructCopy@Struct_NetStack_Protocols_UdpFormat_UdpHeader@@SIXPAU1@PAU1@@Z 02084a88 f   NetStack.obj
 0001:00083b84       ?m_Equals@Struct_NetStack_Protocols_UdpFormat_UdpHeader@@SI_NPAU1@PAUClass_System_Object@@@Z 02084b84 f   NetStack.obj
 0001:00083c08       ?m_Equals@Struct_NetStack_Protocols_UdpFormat_UdpHeader@@SI_NPAUClass_NetStack_Protocols_UdpFormat_UdpHeader@@PAUClass_System_Object@@@Z 02084c08 f   NetStack.obj
 0001:00083c34       ?m_StructCopy@Struct_Microsoft_Singularity_V1_Processes_ProcessHandle@@SIXPAU1@0@Z 02084c34 f   NetStack.obj
 0001:00083c5c       ?m_StructCopy@Struct_Microsoft_Singularity_V1_Processes_ProcessHandle@@SIXPAU1@PAU1@@Z 02084c5c f   NetStack.obj
 0001:00083cd4       ?m_Equals@Struct_Microsoft_Singularity_V1_Processes_ProcessHandle@@SI_NPAU1@PAUClass_System_Object@@@Z 02084cd4 f   NetStack.obj
 0001:00083d1c       ?m_Equals@Struct_Microsoft_Singularity_V1_Processes_ProcessHandle@@SI_NPAUClass_Microsoft_Singularity_V1_Processes_ProcessHandle@@PAUClass_System_Object@@@Z 02084d1c f   NetStack.obj
 0001:00083d48       ?m__ctor@Class_System_Threading_ThreadQueueItem@@SIXPAU1@PAUClass_System_Threading_Thread@@@Z 02084d48 f   NetStack.obj
 0001:00083d98       ?g_TcpSequenceNumberCompare@Class_NetStack_Runtime_TCPFSM@@SIHII@Z 02084d98 f   NetStack.obj
 0001:00083dd8       ?g_TCPSeqLess@Class_NetStack_Runtime_TCPFSM@@SI_NII@Z 02084dd8 f   NetStack.obj
 0001:00083e38       ?g_TCPSeqLEQ@Class_NetStack_Runtime_TCPFSM@@SI_NII@Z 02084e38 f   NetStack.obj
 0001:00083e98       ?g_TCPSeqGreater@Class_NetStack_Runtime_TCPFSM@@SI_NII@Z 02084e98 f   NetStack.obj
 0001:00083ef8       ?g_TCPSeqGEQ@Class_NetStack_Runtime_TCPFSM@@SI_NII@Z 02084ef8 f   NetStack.obj
 0001:00083f58       ?g_SendSYNAck@Class_NetStack_Runtime_TCPFSM@@SI_NPAUClass_NetStack_Runtime_TcpSession@@@Z 02084f58 f   NetStack.obj
 0001:000840c0       ?g_SendSYN@Class_NetStack_Runtime_TCPFSM@@SI_NPAUClass_NetStack_Runtime_TcpSession@@G@Z 020850c0 f   NetStack.obj
 0001:000842c4       ?g_SendReset@Class_NetStack_Runtime_TCPFSM@@SI_NPAUClass_NetStack_Runtime_TcpSession@@_N@Z 020852c4 f   NetStack.obj
 0001:00084328       ?g_SendFin@Class_NetStack_Runtime_TCPFSM@@SI_NPAUClass_NetStack_Runtime_TcpSession@@_N@Z 02085328 f   NetStack.obj
 0001:000844b8       ?g_SendAck@Class_NetStack_Runtime_TCPFSM@@SI_NPAUClass_NetStack_Runtime_TcpSession@@@Z 020854b8 f   NetStack.obj
 0001:00084518       ?g_IsSegmentAcceptable@Class_NetStack_Runtime_TCPFSM@@SI_NPAUClass_NetStack_Runtime_TcpSession@@PAUStruct_NetStack_Protocols_TcpFormat_TcpHeader@@I@Z 02085518 f   NetStack.obj
 0001:000846a0       ?g_HandleTerminateSession@Class_NetStack_Runtime_TCPFSM@@SIXPAUClass_NetStack_Runtime_TcpSession@@PAUClass_NetStack_Runtime_TcpSegment@@UStruct_NetStack_Contracts_TcpError@@@Z 020856a0 f   NetStack.obj
 0001:00084868       ?g_HandleTCPData@Class_NetStack_Runtime_TCPFSM@@SI?AUStruct_NetStack_Runtime_NetStatus@@PAUStruct_NetStack_Protocols_TcpFormat_TcpHeader@@PAUClass_NetStack_Common_NetPacket@@PAUClass_NetStack_Runtime_TcpSession@@@Z 02085868 f   NetStack.obj
 0001:00084b40       ?g_HandleTCPAck@Class_NetStack_Runtime_TCPFSM@@SIXPAUClass_NetStack_Runtime_TcpSession@@PAUStruct_NetStack_Protocols_TcpFormat_TcpHeader@@@Z 02085b40 f   NetStack.obj
 0001:00084b88       ?g_get$_SYN$_SENT@Class_NetStack_Runtime_TCPFSM@@SIPAUClass_NetStack_Runtime_TcpState@@XZ 02085b88 f   NetStack.obj
 0001:00084bd8       ?g_get$_SYN$_RECVD@Class_NetStack_Runtime_TCPFSM@@SIPAUClass_NetStack_Runtime_TcpState@@XZ 02085bd8 f   NetStack.obj
 0001:00084c28       ?g_get$_LISTEN@Class_NetStack_Runtime_TCPFSM@@SIPAUClass_NetStack_Runtime_TcpState@@XZ 02085c28 f   NetStack.obj
 0001:00084c78       ?g_get$_LAST$_ACK@Class_NetStack_Runtime_TCPFSM@@SIPAUClass_NetStack_Runtime_TcpState@@XZ 02085c78 f   NetStack.obj
 0001:00084cc8       ?g_get$_FIN$_WAIT2@Class_NetStack_Runtime_TCPFSM@@SIPAUClass_NetStack_Runtime_TcpState@@XZ 02085cc8 f   NetStack.obj
 0001:00084d18       ?g_get$_FIN$_WAIT1@Class_NetStack_Runtime_TCPFSM@@SIPAUClass_NetStack_Runtime_TcpState@@XZ 02085d18 f   NetStack.obj
 0001:00084d68       ?g_get$_ESTABLISHED@Class_NetStack_Runtime_TCPFSM@@SIPAUClass_NetStack_Runtime_TcpState@@XZ 02085d68 f   NetStack.obj
 0001:00084db8       ?g_get$_CLOSING@Class_NetStack_Runtime_TCPFSM@@SIPAUClass_NetStack_Runtime_TcpState@@XZ 02085db8 f   NetStack.obj
 0001:00084e08       ?g_get$_CLOSED@Class_NetStack_Runtime_TCPFSM@@SIPAUClass_NetStack_Runtime_TcpState@@XZ 02085e08 f   NetStack.obj
 0001:00084e58       ?g_get$_CLOSE$_WAIT@Class_NetStack_Runtime_TCPFSM@@SIPAUClass_NetStack_Runtime_TcpState@@XZ 02085e58 f   NetStack.obj
 0001:00084ea8       ?g_CreateResetSegment@Class_NetStack_Runtime_TCPFSM@@SIPAUClass_NetStack_Runtime_TcpSegment@@PAUClass_NetStack_Runtime_TcpSession@@_N@Z 02085ea8 f   NetStack.obj
 0001:00084ffc       ?g_CreateAckSegment@Class_NetStack_Runtime_TCPFSM@@SIPAUClass_NetStack_Runtime_TcpSegment@@PAUClass_NetStack_Runtime_TcpSession@@@Z 02085ffc f   NetStack.obj
 0001:00085138       ?g_AttemptToEnterESTABLISHED@Class_NetStack_Runtime_TCPFSM@@SIXPAUClass_NetStack_Runtime_TcpSession@@PAUStruct_NetStack_Protocols_TcpFormat_TcpHeader@@@Z 02086138 f   NetStack.obj
 0001:000851e8       ?m__ctor@Class_NetStack_Runtime_TCPFSM@@SIXPAU1@@Z 020861e8 f   NetStack.obj
 0001:00085200       ?m_Run@Class_NetStack_Channels_Private_DNSExpManager@@SIXPAU1@PAUStruct_NetStack_Runtime_StopThreadContract_Exp@@@Z 02086200 f   NetStack.obj
 0001:000856f4       ?m__ctor@Class_NetStack_Channels_Private_DNSExpManager@@SIXPAU1@@Z 020866f4 f   NetStack.obj
 0001:00085718       ?g__cctor@Class_NetStack_Channels_Private_DNSExpManager@@SIXXZ 02086718 f   NetStack.obj
 0001:0008584c       ?g_SetTcpModule@Class_NetStack_Runtime_TcpSessionPool@@SIXPAUClass_NetStack_Runtime_TcpModule@@@Z 0208684c f   NetStack.obj
 0001:00085870       ?g_Recycle@Class_NetStack_Runtime_TcpSessionPool@@SIXPAUClass_NetStack_Runtime_TcpSession@@@Z 02086870 f   NetStack.obj
 0001:000859e8       ?g_Get@Class_NetStack_Runtime_TcpSessionPool@@SIPAUClass_NetStack_Runtime_TcpSession@@XZ 020869e8 f   NetStack.obj
 0001:00085c20       ?g__cctor@Class_NetStack_Runtime_TcpSessionPool@@SIXXZ 02086c20 f   NetStack.obj
 0001:00085c9c       ?m_StructCopy@Struct_NetStack_Contracts_TcpConnectionContract_CantSend@@SIXPAU1@0@Z 02086c9c f   NetStack.obj
 0001:00085cb8       ?m_StructCopy@Struct_NetStack_Contracts_TcpConnectionContract_CantSend@@SIXPAU1@PAU1@@Z 02086cb8 f   NetStack.obj
 0001:00085d0c       ?m_MarshallContent@Struct_NetStack_Contracts_TcpConnectionContract_CantSend@@SIXPAU1@PAEPAUStruct_Microsoft_Singularity_Channels_Endpoint@@1PAH@Z 02086d0c f   NetStack.obj
 0001:00085d2c       ?m_MarshallAll@Struct_NetStack_Contracts_TcpConnectionContract_CantSend@@SIXPAU1@PAEPAUStruct_Microsoft_Singularity_Channels_Endpoint@@PAH@Z 02086d2c f   NetStack.obj
 0001:00085d84       ?m_Equals@Struct_NetStack_Contracts_TcpConnectionContract_CantSend@@SI_NPAU1@PAUClass_System_Object@@@Z 02086d84 f   NetStack.obj
 0001:00085dbc       ?m_Equals@Struct_NetStack_Contracts_TcpConnectionContract_CantSend@@SI_NPAUClass_NetStack_Contracts_TcpConnectionContract_CantSend@@PAUClass_System_Object@@@Z 02086dbc f   NetStack.obj
 0001:00085de8       ?m_StructCopy@Struct_Microsoft_Singularity_Directory_DirectoryServiceContract_Deregister@@SIXPAU1@0@Z 02086de8 f   NetStack.obj
 0001:00085e10       ?m_StructCopy@Struct_Microsoft_Singularity_Directory_DirectoryServiceContract_Deregister@@SIXPAU1@PAU1@@Z 02086e10 f   NetStack.obj
 0001:00085e88       ?m_Equals@Struct_Microsoft_Singularity_Directory_DirectoryServiceContract_Deregister@@SI_NPAU1@PAUClass_System_Object@@@Z 02086e88 f   NetStack.obj
 0001:00085ed0       ?m_Equals@Struct_Microsoft_Singularity_Directory_DirectoryServiceContract_Deregister@@SI_NPAUClass_Microsoft_Singularity_Directory_DirectoryServiceContract_Deregister@@PAUClass_System_Object@@@Z 02086ed0 f   NetStack.obj
 0001:00085efc       ?g_StableState@Class_Microsoft_Singularity_Io_Net_NicDeviceContract@@SIHPAUStruct_Microsoft_Singularity_Channels_StateStack@@@Z 02086efc f   NetStack.obj
 0001:00085f78       ?g_NewChannel@Class_Microsoft_Singularity_Io_Net_NicDeviceContract@@SIXPAPAUStruct_Microsoft_Singularity_Io_Net_NicDeviceContract_Imp@@PAPAUStruct_Microsoft_Singularity_Io_Net_NicDeviceContract_Exp@@@Z 02086f78 f   NetStack.obj
 0001:00086014       ?g_CanonicalState@Class_Microsoft_Singularity_Io_Net_NicDeviceContract@@SIHH@Z 02087014 f   NetStack.obj
 0001:0008606c       ?m__ctor@Class_Microsoft_Singularity_Io_Net_NicDeviceContract@@SIXPAU1@@Z 0208706c f   NetStack.obj
 0001:00086084       ?g_StableState@Class_Microsoft_Singularity_Io_DeviceContract@@SIHPAUStruct_Microsoft_Singularity_Channels_StateStack@@@Z 02087084 f   NetStack.obj
 0001:00086100       ?m__ctor@Class_Microsoft_Singularity_Io_DeviceContract@@SIXPAU1@@Z 02087100 f   NetStack.obj
 0001:00086118       ?m_StructCopy@Struct_Microsoft_Singularity_Directory_DirectoryServiceContract_ReadEnumeration@@SIXPAU1@0@Z 02087118 f   NetStack.obj
 0001:00086134       ?m_StructCopy@Struct_Microsoft_Singularity_Directory_DirectoryServiceContract_ReadEnumeration@@SIXPAU1@PAU1@@Z 02087134 f   NetStack.obj
 0001:00086188       ?m_Equals@Struct_Microsoft_Singularity_Directory_DirectoryServiceContract_ReadEnumeration@@SI_NPAU1@PAUClass_System_Object@@@Z 02087188 f   NetStack.obj
 0001:000861c0       ?m_Equals@Struct_Microsoft_Singularity_Directory_DirectoryServiceContract_ReadEnumeration@@SI_NPAUClass_Microsoft_Singularity_Directory_DirectoryServiceContract_ReadEnumeration@@PAUClass_System_Object@@@Z 020871c0 f   NetStack.obj
 0001:000861ec       ?m_WorkerRoutine@Class_Microsoft_Singularity_ImpatientWatcher@@SIXPAU1@@Z 020871ec f   NetStack.obj
 0001:000862d8       ?m_NextStep@Class_Microsoft_Singularity_ImpatientWatcher@@SIXPAU1@PAUClass_System_String@@UStruct_System_TimeSpan@@@Z 020872d8 f   NetStack.obj
 0001:0008634c       ?m_NextStep@Class_Microsoft_Singularity_ImpatientWatcher@@SIXPAU1@PAUClass_System_String@@H@Z 0208734c f   NetStack.obj
 0001:000863c4       ?m_Dispose@Class_Microsoft_Singularity_ImpatientWatcher@@SIXPAU1@@Z 020873c4 f   NetStack.obj
 0001:00086448       ?m_Dbg@Class_Microsoft_Singularity_ImpatientWatcher@@SIXPAU1@PAUClass_System_String@@@Z 02087448 f   NetStack.obj
 0001:0008647c       ?m_Dbg@Class_Microsoft_Singularity_ImpatientWatcher@@SIXPAU1@PAUClass_System_String@@PAUClassVector_Class_System_Object@@@Z 0208747c f   NetStack.obj
 0001:000864b0       ?m__ctor@Class_Microsoft_Singularity_ImpatientWatcher@@SIXPAU1@PAUClass_System_String@@1UStruct_System_TimeSpan@@@Z 020874b0 f   NetStack.obj
 0001:0008657c       ?m__ctor@Class_Microsoft_Singularity_ImpatientWatcher@@SIXPAU1@PAUClass_System_String@@1H@Z 0208757c f   NetStack.obj
 0001:000865f8       ?m_HeadMatches@Class_SurrogateNetStack_Contracts_DNSContract_Exp@@SI_NPAU1@HPA_NPAPAUClass_System_Object@@@Z 020875f8 f   NetStack.obj
 0001:0008662c       ?m_GetWaitHandle@Class_SurrogateNetStack_Contracts_DNSContract_Exp@@SI?AUStruct_Microsoft_Singularity_V1_Threads_SyncHandle@@PAU1@@Z 0208762c f   NetStack.obj
 0001:00086650       ?m_Dispose@Class_SurrogateNetStack_Contracts_DNSContract_Exp@@SIXPAU1@@Z 02087650 f   NetStack.obj
 0001:00086674       ?g__ctor@Class_SurrogateNetStack_Contracts_DNSContract_Exp@@SIXPAU1@PAUStruct_NetStack_Contracts_DNSContract_Exp@@@Z 02087674 f   NetStack.obj
 0001:0008669c       ?m_StructCopy@Struct_Microsoft_Singularity_Directory_DirectoryServiceContract_NakQueryACLReparse@@SIXPAU1@0@Z 0208769c f   NetStack.obj
 0001:000866dc       ?m_StructCopy@Struct_Microsoft_Singularity_Directory_DirectoryServiceContract_NakQueryACLReparse@@SIXPAU1@PAU1@@Z 020876dc f   NetStack.obj
 0001:0008679c       ?m_Equals@Struct_Microsoft_Singularity_Directory_DirectoryServiceContract_NakQueryACLReparse@@SI_NPAU1@PAUClass_System_Object@@@Z 0208779c f   NetStack.obj
 0001:00086804       ?m_Equals@Struct_Microsoft_Singularity_Directory_DirectoryServiceContract_NakQueryACLReparse@@SI_NPAUClass_Microsoft_Singularity_Directory_DirectoryServiceContract_NakQueryACLReparse@@PAUClass_System_Object@@@Z 02087804 f   NetStack.obj
 0001:00086830       ?m_StructCopy@Struct_NetStack_Contracts_IPContract_GetDomainName@@SIXPAU1@0@Z 02087830 f   NetStack.obj
 0001:0008684c       ?m_StructCopy@Struct_NetStack_Contracts_IPContract_GetDomainName@@SIXPAU1@PAU1@@Z 0208784c f   NetStack.obj
 0001:000868a0       ?m_Equals@Struct_NetStack_Contracts_IPContract_GetDomainName@@SI_NPAU1@PAUClass_System_Object@@@Z 020878a0 f   NetStack.obj
 0001:000868d8       ?m_Equals@Struct_NetStack_Contracts_IPContract_GetDomainName@@SI_NPAUClass_NetStack_Contracts_IPContract_GetDomainName@@PAUClass_System_Object@@@Z 020878d8 f   NetStack.obj
 0001:00086904       ?m_StructCopy@Struct_NetStack_Contracts_UdpContract_Imp@@SIXPAU1@0@Z 02087904 f   NetStack.obj
 0001:00086a04       ?m_StructCopy@Struct_NetStack_Contracts_UdpContract_Imp@@SIXPAU1@PAU1@@Z 02087a04 f   NetStack.obj
 0001:00086d04       ?m_Peek@Struct_NetStack_Contracts_UdpContract_Imp@@SIHPAU1@@Z 02087d04 f   NetStack.obj
 0001:00086eac       ?m_MarshallDeliverReady0@Struct_NetStack_Contracts_UdpContract_Imp@@SIXPAU1@PAUStruct_Microsoft_Singularity_Channels_Endpoint@@@Z 02087eac f   NetStack.obj
 0001:00086ef8       ?m_MarshallDeliverAck0@Struct_NetStack_Contracts_UdpContract_Imp@@SIXPAU1@PAUStruct_Microsoft_Singularity_Channels_Endpoint@@@Z 02087ef8 f   NetStack.obj
 0001:00086f44       ?m_HeadMatches@Struct_NetStack_Contracts_UdpContract_Imp@@SI_NPAU1@HPA_NPAPAUClass_System_Object@@@Z 02087f44 f   NetStack.obj
 0001:00087004       ?m_HeadMatches@Struct_NetStack_Contracts_UdpContract_Imp@@SI_NPAUClass_NetStack_Contracts_UdpContract_Imp@@HPA_NPAPAUClass_System_Object@@@Z 02088004 f   NetStack.obj
 0001:0008703c       ?m_Equals@Struct_NetStack_Contracts_UdpContract_Imp@@SI_NPAU1@PAUClass_System_Object@@@Z 0208803c f   NetStack.obj
 0001:000873c4       ?m_Equals@Struct_NetStack_Contracts_UdpContract_Imp@@SI_NPAUClass_NetStack_Contracts_UdpContract_Imp@@PAUClass_System_Object@@@Z 020883c4 f   NetStack.obj
 0001:000873f0       ?m_Dispose@Struct_NetStack_Contracts_UdpContract_Imp@@SIXPAU1@@Z 020883f0 f   NetStack.obj
 0001:00087414       ?m_Dispose@Struct_NetStack_Contracts_UdpContract_Imp@@SIXPAUClass_NetStack_Contracts_UdpContract_Imp@@@Z 02088414 f   NetStack.obj
 0001:0008743c       ?m_DeliverReady0@Struct_NetStack_Contracts_UdpContract_Imp@@SIXPAU1@@Z 0208843c f   NetStack.obj
 0001:00087470       ?m_DeliverAck0@Struct_NetStack_Contracts_UdpContract_Imp@@SIXPAU1@@Z 02088470 f   NetStack.obj
 0001:000874a4       ?m_Unlink@Class_Microsoft_Singularity_Channels_ESet$_2$LNetStack_Contracts_IPContract_Exp_NetStack_Contracts_IPContract_ReadyState$G_Node@@SIPAUStruct_NetStack_Contracts_IPContract_Exp@@PAU1@PAUClass_Microsoft_Singularity_Channels_ESet$_2$LNetStack_Contracts_IPContract_Exp_NetStack_Contracts_IPContract_ReadyState$G@@@Z 020884a4 f   NetStack.obj
 0001:000875b8       ?m_LinkAsNext@Class_Microsoft_Singularity_Channels_ESet$_2$LNetStack_Contracts_IPContract_Exp_NetStack_Contracts_IPContract_ReadyState$G_Node@@SIXPAU1@PAUStruct_NetStack_Contracts_IPContract_Exp@@PAUClass_Microsoft_Singularity_Channels_ESet$_2$LNetStack_Contracts_IPContract_Exp_NetStack_Contracts_IPContract_ReadyState$G@@@Z 020885b8 f   NetStack.obj
 0001:00087634       ?m_Init@Class_Microsoft_Singularity_Channels_ESet$_2$LNetStack_Contracts_IPContract_Exp_NetStack_Contracts_IPContract_ReadyState$G_Node@@SIXPAU1@PAUStruct_NetStack_Contracts_IPContract_Exp@@PAUClass_Microsoft_Singularity_Channels_ESet$_2$LNetStack_Contracts_IPContract_Exp_NetStack_Contracts_IPContract_ReadyState$G@@@Z 02088634 f   NetStack.obj
 0001:00087664       ?m__ctor@Class_Microsoft_Singularity_Channels_ESet$_2$LNetStack_Contracts_IPContract_Exp_NetStack_Contracts_IPContract_ReadyState$G_Node@@SIXPAU1@PAUStruct_NetStack_Contracts_IPContract_Exp@@PAUClass_Microsoft_Singularity_Channels_ESet$_2$LNetStack_Contracts_IPContract_Exp_NetStack_Contracts_IPContract_ReadyState$G@@@Z 02088664 f   NetStack.obj
 0001:000876a8       ?m__ctor@Class_Microsoft_Singularity_Channels_ESet$_2$LNetStack_Contracts_IPContract_Exp_NetStack_Contracts_IPContract_ReadyState$G_Node@@SIXPAU1@PAUClass_Microsoft_Singularity_Channels_ESet$_2$LNetStack_Contracts_IPContract_Exp_NetStack_Contracts_IPContract_ReadyState$G@@@Z 020886a8 f   NetStack.obj
 0001:000876dc       ?m_UnExpose@Struct_Microsoft_Singularity_Io_Net_PacketFifo@@SIXPAU1@@Z 020886dc f   NetStack.obj
 0001:000876f8       ?g_TransferOwnership@Struct_Microsoft_Singularity_Io_Net_PacketFifo@@SIXPAUStruct_Microsoft_Singularity_Channels_Endpoint@@PAU1@@Z 020886f8 f   NetStack.obj
 0001:0008773c       ?m_TransferContentsOwnership@Struct_Microsoft_Singularity_Io_Net_PacketFifo@@SIXPAU1@PAUStruct_Microsoft_Singularity_Channels_Endpoint@@@Z 0208873c f   NetStack.obj
 0001:000877fc       ?m_StructCopy@Struct_Microsoft_Singularity_Io_Net_PacketFifo@@SIXPAU1@0@Z 020887fc f   NetStack.obj
 0001:0008783c       ?m_StructCopy@Struct_Microsoft_Singularity_Io_Net_PacketFifo@@SIXPAU1@PAU1@@Z 0208883c f   NetStack.obj
 0001:000878fc       ?m_Release@Struct_Microsoft_Singularity_Io_Net_PacketFifo@@SIXPAU1@@Z 020888fc f   NetStack.obj
 0001:00087918       ?m_Push@Struct_Microsoft_Singularity_Io_Net_PacketFifo@@SIXPAU1@PAU1@@Z 02088918 f   NetStack.obj
 0001:000879b0       ?m_Push@Struct_Microsoft_Singularity_Io_Net_PacketFifo@@SIXPAU1@PAU1@H@Z 020889b0 f   NetStack.obj
 0001:00087a88       ?m_Push@Struct_Microsoft_Singularity_Io_Net_PacketFifo@@SIXPAU1@PAUStruct_Microsoft_Singularity_Io_Net_Packet@@@Z 02088a88 f   NetStack.obj
 0001:00087ca4       ?m_Pop@Struct_Microsoft_Singularity_Io_Net_PacketFifo@@SIPAUStruct_Microsoft_Singularity_Io_Net_Packet@@PAU1@@Z 02088ca4 f   NetStack.obj
 0001:00087e78       ?m_MarshallContent@Struct_Microsoft_Singularity_Io_Net_PacketFifo@@SIXPAU1@PAEPAUStruct_Microsoft_Singularity_Channels_Endpoint@@1@Z 02088e78 f   NetStack.obj
 0001:00088034       ?m_get$_Count@Struct_Microsoft_Singularity_Io_Net_PacketFifo@@SIHPAU1@@Z 02089034 f   NetStack.obj
 0001:000880a8       ?m_get$_Capacity@Struct_Microsoft_Singularity_Io_Net_PacketFifo@@SIHPAU1@@Z 020890a8 f   NetStack.obj
 0001:00088128       ?m_Expose@Struct_Microsoft_Singularity_Io_Net_PacketFifo@@SIXPAU1@@Z 02089128 f   NetStack.obj
 0001:00088144       ?m_Equals@Struct_Microsoft_Singularity_Io_Net_PacketFifo@@SI_NPAU1@PAUClass_System_Object@@@Z 02089144 f   NetStack.obj
 0001:000881ac       ?m_Equals@Struct_Microsoft_Singularity_Io_Net_PacketFifo@@SI_NPAUClass_Microsoft_Singularity_Io_Net_PacketFifo@@PAUClass_System_Object@@@Z 020891ac f   NetStack.obj
 0001:000881d8       ?m_Dispose@Struct_Microsoft_Singularity_Io_Net_PacketFifo@@SIXPAU1@@Z 020891d8 f   NetStack.obj
 0001:00088308       ?m_Dispose@Struct_Microsoft_Singularity_Io_Net_PacketFifo@@SIXPAUClass_Microsoft_Singularity_Io_Net_PacketFifo@@@Z 02089308 f   NetStack.obj
 0001:00088330       ?m_Acquire@Struct_Microsoft_Singularity_Io_Net_PacketFifo@@SIXPAU1@@Z 02089330 f   NetStack.obj
 0001:0008834c       ?m__ctor@Struct_Microsoft_Singularity_Io_Net_PacketFifo@@SIXPAU1@H@Z 0208934c f   NetStack.obj
 0001:00088398       ?m_StructCopy@Struct_NetStack_Contracts_IPContract_StopDhcp@@SIXPAU1@0@Z 02089398 f   NetStack.obj
 0001:000883c0       ?m_StructCopy@Struct_NetStack_Contracts_IPContract_StopDhcp@@SIXPAU1@PAU1@@Z 020893c0 f   NetStack.obj
 0001:00088438       ?m_Equals@Struct_NetStack_Contracts_IPContract_StopDhcp@@SI_NPAU1@PAUClass_System_Object@@@Z 02089438 f   NetStack.obj
 0001:00088480       ?m_Equals@Struct_NetStack_Contracts_IPContract_StopDhcp@@SI_NPAUClass_NetStack_Contracts_IPContract_StopDhcp@@PAUClass_System_Object@@@Z 02089480 f   NetStack.obj
 0001:000884ac       ?m_StructCopy@Struct_Microsoft_Singularity_ServiceManager_ServiceProcessContract_AckConnect@@SIXPAU1@0@Z 020894ac f   NetStack.obj
 0001:000884c8       ?m_StructCopy@Struct_Microsoft_Singularity_ServiceManager_ServiceProcessContract_AckConnect@@SIXPAU1@PAU1@@Z 020894c8 f   NetStack.obj
 0001:0008851c       ?m_Equals@Struct_Microsoft_Singularity_ServiceManager_ServiceProcessContract_AckConnect@@SI_NPAU1@PAUClass_System_Object@@@Z 0208951c f   NetStack.obj
 0001:00088554       ?m_Equals@Struct_Microsoft_Singularity_ServiceManager_ServiceProcessContract_AckConnect@@SI_NPAUClass_Microsoft_Singularity_ServiceManager_ServiceProcessContract_AckConnect@@PAUClass_System_Object@@@Z 02089554 f   NetStack.obj
 0001:00088580       ?m_GetEnumerator@Class_System_Collections_Hashtable_KeyCollection@@SIPAUClass_System_Collections_IEnumerator@@PAU1@@Z 02089580 f   NetStack.obj
 0001:000885d0       ?m_get$_SyncRoot@Class_System_Collections_Hashtable_KeyCollection@@SIPAUClass_System_Object@@PAU1@@Z 020895d0 f   NetStack.obj
 0001:000885f8       ?m_get$_Count@Class_System_Collections_Hashtable_KeyCollection@@SIHPAU1@@Z 020895f8 f   NetStack.obj
 0001:0008861c       ?m_CopyTo@Class_System_Collections_Hashtable_KeyCollection@@SIXPAU1@PAUClass_System_Array@@H@Z 0208961c f   NetStack.obj
 0001:00088734       ?m__ctor@Class_System_Collections_Hashtable_KeyCollection@@SIXPAU1@PAUClass_System_Collections_Hashtable@@@Z 02089734 f   NetStack.obj
 0001:0008875c       ?g_Main@Class_NetStack_ServiceParameters@@SIHXZ 0208975c f   NetStack.obj
 0001:000887dc       ?m__ctor@Class_NetStack_ServiceParameters@@SIXPAU1@@Z 020897dc f   NetStack.obj
 0001:00088bdc       ?g_StableState@Class_NetStack_Contracts_IPContract@@SIHPAUStruct_Microsoft_Singularity_Channels_StateStack@@@Z 02089bdc f   NetStack.obj
 0001:00088d58       ?m__ctor@Class_NetStack_Contracts_IPContract@@SIXPAU1@@Z 02089d58 f   NetStack.obj
 0001:00088d70       ?m_HeadMatches@Class_SurrogateMicrosoft_Singularity_Directory_DirectoryServiceContract_Imp@@SI_NPAU1@HPA_NPAPAUClass_System_Object@@@Z 02089d70 f   NetStack.obj
 0001:00088da4       ?m_GetWaitHandle@Class_SurrogateMicrosoft_Singularity_Directory_DirectoryServiceContract_Imp@@SI?AUStruct_Microsoft_Singularity_V1_Threads_SyncHandle@@PAU1@@Z 02089da4 f   NetStack.obj
 0001:00088dc8       ?m_Dispose@Class_SurrogateMicrosoft_Singularity_Directory_DirectoryServiceContract_Imp@@SIXPAU1@@Z 02089dc8 f   NetStack.obj
 0001:00088dec       ?g__ctor@Class_SurrogateMicrosoft_Singularity_Directory_DirectoryServiceContract_Imp@@SIXPAU1@PAUStruct_Microsoft_Singularity_Directory_DirectoryServiceContract_Imp@@@Z 02089dec f   NetStack.obj
 0001:00088e14       ?m_StructCopy@Struct_NetStack_Contracts_IPContract_Running@@SIXPAU1@0@Z 02089e14 f   NetStack.obj
 0001:00088e3c       ?m_StructCopy@Struct_NetStack_Contracts_IPContract_Running@@SIXPAU1@PAU1@@Z 02089e3c f   NetStack.obj
 0001:00088eb4       ?m_MarshallContent@Struct_NetStack_Contracts_IPContract_Running@@SIXPAU1@PAEPAUStruct_Microsoft_Singularity_Channels_Endpoint@@1PAH@Z 02089eb4 f   NetStack.obj
 0001:00088ed4       ?m_MarshallAll@Struct_NetStack_Contracts_IPContract_Running@@SIXPAU1@PAEPAUStruct_Microsoft_Singularity_Channels_Endpoint@@PAH@Z 02089ed4 f   NetStack.obj
 0001:00088f2c       ?m_Equals@Struct_NetStack_Contracts_IPContract_Running@@SI_NPAU1@PAUClass_System_Object@@@Z 02089f2c f   NetStack.obj
 0001:00088f74       ?m_Equals@Struct_NetStack_Contracts_IPContract_Running@@SI_NPAUClass_NetStack_Contracts_IPContract_Running@@PAUClass_System_Object@@@Z 02089f74 f   NetStack.obj
 0001:00088fa0       ?m_StructCopy@Struct_Microsoft_Singularity_V1_Services_DebugService@@SIXPAU1@0@Z 02089fa0 f   NetStack.obj
 0001:00088fbc       ?m_StructCopy@Struct_Microsoft_Singularity_V1_Services_DebugService@@SIXPAU1@PAU1@@Z 02089fbc f   NetStack.obj
 0001:00089010       ?g_PrintBegin@Struct_Microsoft_Singularity_V1_Services_DebugService@@SIXPAPA_WPAH@Z 0208a010 f   NetStack.obj
 0001:00089084       ?m_Equals@Struct_Microsoft_Singularity_V1_Services_DebugService@@SI_NPAU1@PAUClass_System_Object@@@Z 0208a084 f   NetStack.obj
 0001:000890bc       ?m_Equals@Struct_Microsoft_Singularity_V1_Services_DebugService@@SI_NPAUClass_Microsoft_Singularity_V1_Services_DebugService@@PAUClass_System_Object@@@Z 0208a0bc f   NetStack.obj
 0001:000890e8       ?m_Run@Class_NetStack_Channels_Private_RoutingExpManager@@SIXPAU1@PAUStruct_NetStack_Runtime_StopThreadContract_Exp@@@Z 0208a0e8 f   NetStack.obj
 0001:00089f28       ?m_Register@Class_NetStack_Channels_Private_RoutingExpManager@@SIPAUStruct_Microsoft_Singularity_Directory_ServiceProviderContract_Exp@@PAU1@@Z 0208af28 f   NetStack.obj
 0001:0008a15c       ?m_ConvertRouteEntry@Class_NetStack_Channels_Private_RoutingExpManager@@SI?AUStruct_NetStack_Contracts_RouteEntry@@PAU1@PAUClass_NetStack_Runtime_RouteEntry@@@Z 0208b15c f   NetStack.obj
 0001:0008a39c       ?m__ctor@Class_NetStack_Channels_Private_RoutingExpManager@@SIXPAU1@@Z 0208b39c f   NetStack.obj
 0001:0008a418       ?g__cctor@Class_NetStack_Channels_Private_RoutingExpManager@@SIXXZ 0208b418 f   NetStack.obj
 0001:0008a6b8       ?m_StructCopy@Struct_Microsoft_Singularity_Directory_DirectoryServiceContract_CreateDirectory@@SIXPAU1@0@Z 0208b6b8 f   NetStack.obj
 0001:0008a6e0       ?m_StructCopy@Struct_Microsoft_Singularity_Directory_DirectoryServiceContract_CreateDirectory@@SIXPAU1@PAU1@@Z 0208b6e0 f   NetStack.obj
 0001:0008a758       ?m_Equals@Struct_Microsoft_Singularity_Directory_DirectoryServiceContract_CreateDirectory@@SI_NPAU1@PAUClass_System_Object@@@Z 0208b758 f   NetStack.obj
 0001:0008a7a0       ?m_Equals@Struct_Microsoft_Singularity_Directory_DirectoryServiceContract_CreateDirectory@@SI_NPAUClass_Microsoft_Singularity_Directory_DirectoryServiceContract_CreateDirectory@@PAUClass_System_Object@@@Z 0208b7a0 f   NetStack.obj
 0001:0008a7cc       ?m_StructCopy@Struct_NetStack_Contracts_RoutingContract_RoutingTable@@SIXPAU1@0@Z 0208b7cc f   NetStack.obj
 0001:0008a7f4       ?m_StructCopy@Struct_NetStack_Contracts_RoutingContract_RoutingTable@@SIXPAU1@PAU1@@Z 0208b7f4 f   NetStack.obj
 0001:0008a86c       ?m_MarshallContent@Struct_NetStack_Contracts_RoutingContract_RoutingTable@@SIXPAU1@PAEPAUStruct_Microsoft_Singularity_Channels_Endpoint@@1PAH@Z 0208b86c f   NetStack.obj
 0001:0008a8d4       ?m_MarshallAll@Struct_NetStack_Contracts_RoutingContract_RoutingTable@@SIXPAU1@PAEPAUStruct_Microsoft_Singularity_Channels_Endpoint@@PAH@Z 0208b8d4 f   NetStack.obj
 0001:0008a92c       ?m_Equals@Struct_NetStack_Contracts_RoutingContract_RoutingTable@@SI_NPAU1@PAUClass_System_Object@@@Z 0208b92c f   NetStack.obj
 0001:0008a974       ?m_Equals@Struct_NetStack_Contracts_RoutingContract_RoutingTable@@SI_NPAUClass_NetStack_Contracts_RoutingContract_RoutingTable@@PAUClass_System_Object@@@Z 0208b974 f   NetStack.obj
 0001:0008a9a0       ?g_WriteTcpSegment@Class_NetStack_Protocols_TcpFormat@@SIXPAUClassVector_uint8@@GGIIGUStruct_System_Net_IP_IPv4@@1G_N2222@Z 0208b9a0 f   NetStack.obj
 0001:0008ab90       ?g_WriteTcpHeader@Class_NetStack_Protocols_TcpFormat@@SIHPAUClassVector_uint8@@HPAUStruct_NetStack_Protocols_TcpFormat_TcpHeader@@@Z 0208bb90 f   NetStack.obj
 0001:0008b0d4       ?g_SumHeader@Class_NetStack_Protocols_TcpFormat@@SIGUStruct_NetStack_Protocols_TcpFormat_TcpHeader@@@Z 0208c0d4 f   NetStack.obj
 0001:0008b1f4       ?g_SetTcpChecksum@Class_NetStack_Protocols_TcpFormat@@SIXPAUClassVector_uint8@@HPAUStruct_NetStack_Protocols_TcpFormat_TcpHeader@@@Z 0208c1f4 f   NetStack.obj
 0001:0008b3a0       ?g_SetSYN@Class_NetStack_Protocols_TcpFormat@@SIXPAUStruct_NetStack_Protocols_TcpFormat_TcpHeader@@@Z 0208c3a0 f   NetStack.obj
 0001:0008b3cc       ?g_SetReset@Class_NetStack_Protocols_TcpFormat@@SIXPAUStruct_NetStack_Protocols_TcpFormat_TcpHeader@@@Z 0208c3cc f   NetStack.obj
 0001:0008b3f8       ?g_SetFIN@Class_NetStack_Protocols_TcpFormat@@SIXPAUStruct_NetStack_Protocols_TcpFormat_TcpHeader@@@Z 0208c3f8 f   NetStack.obj
 0001:0008b424       ?g_SetACK@Class_NetStack_Protocols_TcpFormat@@SIXPAUStruct_NetStack_Protocols_TcpFormat_TcpHeader@@@Z 0208c424 f   NetStack.obj
 0001:0008b450       ?g_ReadTcpHeader@Class_NetStack_Protocols_TcpFormat@@SI_NPAUClass_NetStack_Common_IBuffer@@PAUStruct_NetStack_Protocols_TcpFormat_TcpHeader@@@Z 0208c450 f   NetStack.obj
 0001:0008b644       ?g_IsUrg@Class_NetStack_Protocols_TcpFormat@@SI_NPAUStruct_NetStack_Protocols_TcpFormat_TcpHeader@@@Z 0208c644 f   NetStack.obj
 0001:0008b68c       ?g_IsSync@Class_NetStack_Protocols_TcpFormat@@SI_NPAUStruct_NetStack_Protocols_TcpFormat_TcpHeader@@@Z 0208c68c f   NetStack.obj
 0001:0008b6d4       ?g_IsReset@Class_NetStack_Protocols_TcpFormat@@SI_NPAUStruct_NetStack_Protocols_TcpFormat_TcpHeader@@@Z 0208c6d4 f   NetStack.obj
 0001:0008b71c       ?g_IsPush@Class_NetStack_Protocols_TcpFormat@@SI_NPAUStruct_NetStack_Protocols_TcpFormat_TcpHeader@@@Z 0208c71c f   NetStack.obj
 0001:0008b764       ?g_IsFIN@Class_NetStack_Protocols_TcpFormat@@SI_NPAUStruct_NetStack_Protocols_TcpFormat_TcpHeader@@@Z 0208c764 f   NetStack.obj
 0001:0008b7a8       ?g_IsChecksumValid@Class_NetStack_Protocols_TcpFormat@@SI_NPAUClass_NetStack_Protocols_IPFormat_IPHeader@@UStruct_NetStack_Protocols_TcpFormat_TcpHeader@@PAUClass_NetStack_Common_NetPacket@@@Z 0208c7a8 f   NetStack.obj
 0001:0008baa4       ?g_IsAck@Class_NetStack_Protocols_TcpFormat@@SI_NPAUStruct_NetStack_Protocols_TcpFormat_TcpHeader@@@Z 0208caa4 f   NetStack.obj
 0001:0008baec       ?g_GetOffset@Class_NetStack_Protocols_TcpFormat@@SIEPAUStruct_NetStack_Protocols_TcpFormat_TcpHeader@@@Z 0208caec f   NetStack.obj
 0001:0008bb28       ?m__ctor@Class_NetStack_Protocols_TcpFormat@@SIXPAU1@@Z 0208cb28 f   NetStack.obj
 0001:0008bb40       ?g__cctor@Class_NetStack_Protocols_TcpFormat@@SIXXZ 0208cb40 f   NetStack.obj
 0001:0008bb54       ?m_StructCopy@Struct_Microsoft_Bartok_Runtime_PreHeader@@SIXPAU1@0@Z 0208cb54 f   NetStack.obj
 0001:0008bb80       ?m_StructCopy@Struct_Microsoft_Bartok_Runtime_PreHeader@@SIXPAU1@PAU1@@Z 0208cb80 f   NetStack.obj
 0001:0008bc04       ?m_Equals@Struct_Microsoft_Bartok_Runtime_PreHeader@@SI_NPAU1@PAUClass_System_Object@@@Z 0208cc04 f   NetStack.obj
 0001:0008bcb0       ?m_Equals@Struct_Microsoft_Bartok_Runtime_PreHeader@@SI_NPAUClass_Microsoft_Bartok_Runtime_PreHeader@@PAUClass_System_Object@@@Z 0208ccb0 f   NetStack.obj
 0001:0008bcdc       ?m_StructCopy@Struct_Microsoft_Singularity_Directory_DirectoryServiceContract_DeleteFile@@SIXPAU1@0@Z 0208ccdc f   NetStack.obj
 0001:0008bd04       ?m_StructCopy@Struct_Microsoft_Singularity_Directory_DirectoryServiceContract_DeleteFile@@SIXPAU1@PAU1@@Z 0208cd04 f   NetStack.obj
 0001:0008bd7c       ?m_Equals@Struct_Microsoft_Singularity_Directory_DirectoryServiceContract_DeleteFile@@SI_NPAU1@PAUClass_System_Object@@@Z 0208cd7c f   NetStack.obj
 0001:0008bdc4       ?m_Equals@Struct_Microsoft_Singularity_Directory_DirectoryServiceContract_DeleteFile@@SI_NPAUClass_Microsoft_Singularity_Directory_DirectoryServiceContract_DeleteFile@@PAUClass_System_Object@@@Z 0208cdc4 f   NetStack.obj
 0001:0008bdf0       ?g_NewClientEndpoint@Class_Microsoft_Singularity_Directory_DirectoryService@@SIPAUStruct_Microsoft_Singularity_Directory_DirectoryServiceContract_Imp@@XZ 0208cdf0 f   NetStack.obj
 0001:0008be64       ?m__ctor@Class_Microsoft_Singularity_Directory_DirectoryService@@SIXPAU1@@Z 0208ce64 f   NetStack.obj
 0001:0008be7c       ?g_StringSize@Class_System_GCs_ObjectLayout@@SIPAUuintPtr@@PAUClass_System_VTable@@I@Z 0208ce7c f   NetStack.obj
 0001:0008beec       ?g_Sizeof@Class_System_GCs_ObjectLayout@@SIPAUuintPtr@@PAUClass_System_Object@@@Z 0208ceec f   NetStack.obj
 0001:0008bf28       ?g_ObjectSize@Class_System_GCs_ObjectLayout@@SIPAUuintPtr@@PAU2@PAUClass_System_VTable@@@Z 0208cf28 f   NetStack.obj
 0001:0008bfe4       ?g_ObjectSize@Class_System_GCs_ObjectLayout@@SIPAUuintPtr@@PAUClass_System_VTable@@@Z 0208cfe4 f   NetStack.obj
 0001:0008c050       ?g_ArraySize@Class_System_GCs_ObjectLayout@@SIPAUuintPtr@@PAUClass_System_VTable@@I@Z 0208d050 f   NetStack.obj
 0001:0008c0c8       ?m__ctor@Class_System_GCs_ObjectLayout@@SIXPAU1@@Z 0208d0c8 f   NetStack.obj
 0001:0008c0e0       ?g_IntToString@Class_System_ParseNumbers@@SIPAUClass_System_String@@HHH_WH@Z 0208d0e0 f   NetStack.obj
 0001:0008c4ec       ?m__ctor@Class_System_ParseNumbers@@SIXPAU1@@Z 0208d4ec f   NetStack.obj
 0001:0008c504       ?g__cctor@Class_System_ParseNumbers@@SIXXZ 0208d504 f   NetStack.obj
 0001:0008c52c       ?g_Parse@Class_NetStack_Protocols_DhcpOptionParser@@SIPAUClass_System_Collections_SortedList@@PAUClassVector_uint8@@HH@Z 0208d52c f   NetStack.obj
 0001:0008c7b4       ?m__ctor@Class_NetStack_Protocols_DhcpOptionParser@@SIXPAU1@@Z 0208d7b4 f   NetStack.obj
 0001:0008c7cc       ?g__cctor@Class_NetStack_Protocols_DhcpOptionParser@@SIXXZ 0208d7cc f   NetStack.obj
 0001:0008e6a0       ?g_Create@Class_Microsoft_Singularity_GCProfilerLogger_GCTypeSource@@SIPAU1@PAUClass_System_String@@I_K@Z 0208f6a0 f   NetStack.obj
 0001:0008e774       ?m__ctor@Class_Microsoft_Singularity_GCProfilerLogger_GCTypeSource@@SIXPAU1@PAUClass_System_String@@PAUClass_Microsoft_Singularity_Eventing_EventingStorage@@I@Z 0208f774 f   NetStack.obj
 0001:0008e7a8       ?m__ctor@Class_NetStack_Runtime_SessionsTable@@SIXPAU1@@Z 0208f7a8 f   NetStack.obj
 0001:0008e7cc       ?m_StructCopy@Struct_NetStack_Contracts_DNSContract_Ready@@SIXPAU1@0@Z 0208f7cc f   NetStack.obj
 0001:0008e7e8       ?m_StructCopy@Struct_NetStack_Contracts_DNSContract_Ready@@SIXPAU1@PAU1@@Z 0208f7e8 f   NetStack.obj
 0001:0008e83c       ?m_MarshallContent@Struct_NetStack_Contracts_DNSContract_Ready@@SIXPAU1@PAEPAUStruct_Microsoft_Singularity_Channels_Endpoint@@1PAH@Z 0208f83c f   NetStack.obj
 0001:0008e85c       ?m_MarshallAll@Struct_NetStack_Contracts_DNSContract_Ready@@SIXPAU1@PAEPAUStruct_Microsoft_Singularity_Channels_Endpoint@@PAH@Z 0208f85c f   NetStack.obj
 0001:0008e8b4       ?m_Equals@Struct_NetStack_Contracts_DNSContract_Ready@@SI_NPAU1@PAUClass_System_Object@@@Z 0208f8b4 f   NetStack.obj
 0001:0008e8ec       ?m_Equals@Struct_NetStack_Contracts_DNSContract_Ready@@SI_NPAUClass_NetStack_Contracts_DNSContract_Ready@@PAUClass_System_Object@@@Z 0208f8ec f   NetStack.obj
 0001:0008e918       ?m_StructCopy@Struct_NetStack_Contracts_DNSContract_Exp@@SIXPAU1@0@Z 0208f918 f   NetStack.obj
 0001:0008ea5c       ?m_StructCopy@Struct_NetStack_Contracts_DNSContract_Exp@@SIXPAU1@PAU1@@Z 0208fa5c f   NetStack.obj
 0001:0008ee28       ?m_SendReady@Struct_NetStack_Contracts_DNSContract_Exp@@SIXPAU1@@Z 0208fe28 f   NetStack.obj
 0001:0008ef1c       ?m_SendNotFound@Struct_NetStack_Contracts_DNSContract_Exp@@SIXPAU1@@Z 0208ff1c f   NetStack.obj
 0001:0008f010       ?m_SendIsValid@Struct_NetStack_Contracts_DNSContract_Exp@@SIXPAU1@_N@Z 02090010 f   NetStack.obj
 0001:0008f10c       ?m_SendDNSResults@Struct_NetStack_Contracts_DNSContract_Exp@@SIXPAU1@PAIPAPA_W@Z 0209010c f   NetStack.obj
 0001:0008f2f4       ?m_SendAddressList@Struct_NetStack_Contracts_DNSContract_Exp@@SIXPAU1@PAI@Z 020902f4 f   NetStack.obj
 0001:0008f414       ?m_SendAddress@Struct_NetStack_Contracts_DNSContract_Exp@@SIXPAU1@I@Z 02090414 f   NetStack.obj
 0001:0008f510       ?m_SendAck@Struct_NetStack_Contracts_DNSContract_Exp@@SIXPAU1@@Z 02090510 f   NetStack.obj
 0001:0008f710       ?m_Release@Struct_NetStack_Contracts_DNSContract_Exp@@SIXPAU1@@Z 02090710 f   NetStack.obj
 0001:0008f72c       ?m_RecvRotateNameServers@Struct_NetStack_Contracts_DNSContract_Exp@@SIXPAU1@@Z 0209072c f   NetStack.obj
 0001:0008f8a4       ?m_RecvResolve@Struct_NetStack_Contracts_DNSContract_Exp@@SIXPAU1@PAPA_W@Z 020908a4 f   NetStack.obj
 0001:0008fa2c       ?m_RecvRemoveNameServer@Struct_NetStack_Contracts_DNSContract_Exp@@SIXPAU1@PAI@Z 02090a2c f   NetStack.obj
 0001:0008fbb4       ?m_RecvIsValidName@Struct_NetStack_Contracts_DNSContract_Exp@@SIXPAU1@PAPA_W@Z 02090bb4 f   NetStack.obj
 0001:0008fd3c       ?m_RecvGetNameServers@Struct_NetStack_Contracts_DNSContract_Exp@@SIXPAU1@@Z 02090d3c f   NetStack.obj
 0001:0008feb4       ?m_RecvGetCurrentNameServer@Struct_NetStack_Contracts_DNSContract_Exp@@SIXPAU1@@Z 02090eb4 f   NetStack.obj
 0001:0009002c       ?m_RecvAddNameServer@Struct_NetStack_Contracts_DNSContract_Exp@@SIXPAU1@PAI@Z 0209102c f   NetStack.obj
 0001:000901b4       ?m_Peek@Struct_NetStack_Contracts_DNSContract_Exp@@SIHPAU1@@Z 020911b4 f   NetStack.obj
 0001:00090614       ?m_HeadMatches@Struct_NetStack_Contracts_DNSContract_Exp@@SI_NPAU1@HPA_NPAPAUClass_System_Object@@@Z 02091614 f   NetStack.obj
 0001:000906d4       ?m_HeadMatches@Struct_NetStack_Contracts_DNSContract_Exp@@SI_NPAUClass_NetStack_Contracts_DNSContract_Exp@@HPA_NPAPAUClass_System_Object@@@Z 020916d4 f   NetStack.obj
 0001:0009070c       ?m_Equals@Struct_NetStack_Contracts_DNSContract_Exp@@SI_NPAU1@PAUClass_System_Object@@@Z 0209170c f   NetStack.obj
 0001:00090c44       ?m_Equals@Struct_NetStack_Contracts_DNSContract_Exp@@SI_NPAUClass_NetStack_Contracts_DNSContract_Exp@@PAUClass_System_Object@@@Z 02091c44 f   NetStack.obj
 0001:00090c70       ?m_Dispose@Struct_NetStack_Contracts_DNSContract_Exp@@SIXPAU1@@Z 02091c70 f   NetStack.obj
 0001:00090c94       ?m_Dispose@Struct_NetStack_Contracts_DNSContract_Exp@@SIXPAUClass_NetStack_Contracts_DNSContract_Exp@@@Z 02091c94 f   NetStack.obj
 0001:00090cbc       ?m_CurrentState@Struct_NetStack_Contracts_DNSContract_Exp@@SIPAUClass_System_String@@PAU1@@Z 02091cbc f   NetStack.obj
 0001:00090dec       ?m_Acquire@Struct_NetStack_Contracts_DNSContract_Exp@@SIXPAU1@@Z 02091dec f   NetStack.obj
 0001:00090e08       ?m_UnblockAssociatedSession@Class_NetStack_Runtime_IPModule@@SIXPAU1@PAUClass_NetStack_Common_NetPacket@@@Z 02091e08 f   NetStack.obj
 0001:00090ea0       ?m_StopModule@Class_NetStack_Runtime_IPModule@@SI_NPAU1@@Z 02091ea0 f   NetStack.obj
 0001:00090ed0       ?m_StartModule@Class_NetStack_Runtime_IPModule@@SI_NPAU1@@Z 02091ed0 f   NetStack.obj
 0001:00090f64       ?m_SendResolved@Class_NetStack_Runtime_IPModule@@SI?AUStruct_NetStack_Runtime_NetStatus@@PAU1@PAUClass_NetStack_Common_NetPacket@@PAUClass_NetStack_Runtime_Multiplexer@@UStruct_Drivers_Net_EthernetAddress@@3@Z 02091f64 f   NetStack.obj
 0001:00091050       ?m_OnProtocolSend@Class_NetStack_Runtime_IPModule@@SI?AUStruct_NetStack_Runtime_NetStatus@@PAU1@PAUClass_NetStack_Common_NetPacket@@@Z 02092050 f   NetStack.obj
 0001:000916e8       ?m_OnProtocolReceive@Class_NetStack_Runtime_IPModule@@SI?AUStruct_NetStack_Runtime_NetStatus@@PAU1@PAUClass_NetStack_Common_NetPacket@@@Z 020926e8 f   NetStack.obj
 0001:0009192c       ?m_NetStack_Runtime_INetModule_get$_ModuleName@Class_NetStack_Runtime_IPModule@@SIPAUClass_System_String@@PAU1@@Z 0209292c f   NetStack.obj
 0001:0009196c       ?m_Initialize@Class_NetStack_Runtime_IPModule@@SI_NPAU1@PAUClass_NetStack_Runtime_ProtocolParams@@@Z 0209296c f   NetStack.obj
 0001:00091a74       ?m_GetProtocolID@Class_NetStack_Runtime_IPModule@@SIGPAU1@@Z 02092a74 f   NetStack.obj
 0001:00091ab4       ?m_get$_HostConfiguration@Class_NetStack_Runtime_IPModule@@SIPAUClass_NetStack_Runtime_HostConfiguration@@PAU1@@Z 02092ab4 f   NetStack.obj
 0001:00091af0       ?m_CreateSession@Class_NetStack_Runtime_IPModule@@SIPAUClass_NetStack_Runtime_Session@@PAU1@@Z 02092af0 f   NetStack.obj
 0001:00091b30       ?m_BlockAssociatedSession@Class_NetStack_Runtime_IPModule@@SIXPAU1@PAUClass_NetStack_Common_NetPacket@@@Z 02092b30 f   NetStack.obj
 0001:00091ba4       ?m_ArpResponse@Class_NetStack_Runtime_IPModule@@SIXPAU1@UStruct_System_Net_IP_IPv4@@UStruct_Drivers_Net_EthernetAddress@@PAUClass_System_Object@@@Z 02092ba4 f   NetStack.obj
 0001:00091d50       ?m__ctor@Class_NetStack_Runtime_IPModule@@SIXPAU1@@Z 02092d50 f   NetStack.obj
 0001:00091d6c       ?m_ToString@bool@@SIPAUClass_System_String@@PA_N@Z 02092d6c f   NetStack.obj
 0001:00091d9c       ?m_ToString@bool@@SIPAUClass_System_String@@PAUClass_System_Boolean@@@Z 02092d9c f   NetStack.obj
 0001:00091de4       ?g_Parse@bool@@SI_NPAUClass_System_String@@@Z 02092de4 f   NetStack.obj
 0001:00091ed8       ?m_GetHashCode@bool@@SIHPA_N@Z 02092ed8 f   NetStack.obj
 0001:00091f0c       ?m_GetHashCode@bool@@SIHPAUClass_System_Boolean@@@Z 02092f0c f   NetStack.obj
 0001:00091f54       ?m_Equals@bool@@SI_NPA_NPAUClass_System_Object@@@Z 02092f54 f   NetStack.obj
 0001:00091fb4       ?m_Equals@bool@@SI_NPAUClass_System_Boolean@@PAUClass_System_Object@@@Z 02092fb4 f   NetStack.obj
 0001:00092000       ?m_CompareTo@bool@@SIHPA_NPAUClass_System_Object@@@Z 02093000 f   NetStack.obj
 0001:000920a8       ?m_CompareTo@bool@@SIHPAUClass_System_Boolean@@PAUClass_System_Object@@@Z 020930a8 f   NetStack.obj
 0001:000920f4       ?g__cctor@bool@@SIXXZ      020930f4 f   NetStack.obj
 0001:00092108       ?m__ctor@Class_Microsoft_Contracts_AssertException@@SIXPAU1@@Z 02093108 f   NetStack.obj
 0001:0009212c       ?m_StructCopy@Struct_Microsoft_Singularity_Directory_DirectoryServiceContract_Success@@SIXPAU1@0@Z 0209312c f   NetStack.obj
 0001:00092148       ?m_StructCopy@Struct_Microsoft_Singularity_Directory_DirectoryServiceContract_Success@@SIXPAU1@PAU1@@Z 02093148 f   NetStack.obj
 0001:0009219c       ?m_Equals@Struct_Microsoft_Singularity_Directory_DirectoryServiceContract_Success@@SI_NPAU1@PAUClass_System_Object@@@Z 0209319c f   NetStack.obj
 0001:000921d4       ?m_Equals@Struct_Microsoft_Singularity_Directory_DirectoryServiceContract_Success@@SI_NPAUClass_Microsoft_Singularity_Directory_DirectoryServiceContract_Success@@PAUClass_System_Object@@@Z 020931d4 f   NetStack.obj
 0001:00092200       ?g_StableState@Class_Microsoft_Singularity_Io_Net_NicDeviceEventContract@@SIHPAUStruct_Microsoft_Singularity_Channels_StateStack@@@Z 02093200 f   NetStack.obj
 0001:0009225c       ?g_NewChannel@Class_Microsoft_Singularity_Io_Net_NicDeviceEventContract@@SIXPAPAUStruct_Microsoft_Singularity_Io_Net_NicDeviceEventContract_Imp@@PAPAUStruct_Microsoft_Singularity_Io_Net_NicDeviceEventContract_Exp@@@Z 0209325c f   NetStack.obj
 0001:000922f8       ?g_CanonicalState@Class_Microsoft_Singularity_Io_Net_NicDeviceEventContract@@SIHH@Z 020932f8 f   NetStack.obj
 0001:00092340       ?m__ctor@Class_Microsoft_Singularity_Io_Net_NicDeviceEventContract@@SIXPAU1@@Z 02093340 f   NetStack.obj
 0001:00092358       ?m_StructCopy@Struct_Microsoft_Singularity_Directory_DirectoryServiceContract_DeleteLink@@SIXPAU1@0@Z 02093358 f   NetStack.obj
 0001:00092380       ?m_StructCopy@Struct_Microsoft_Singularity_Directory_DirectoryServiceContract_DeleteLink@@SIXPAU1@PAU1@@Z 02093380 f   NetStack.obj
 0001:000923f8       ?m_Equals@Struct_Microsoft_Singularity_Directory_DirectoryServiceContract_DeleteLink@@SI_NPAU1@PAUClass_System_Object@@@Z 020933f8 f   NetStack.obj
 0001:00092440       ?m_Equals@Struct_Microsoft_Singularity_Directory_DirectoryServiceContract_DeleteLink@@SI_NPAUClass_Microsoft_Singularity_Directory_DirectoryServiceContract_DeleteLink@@PAUClass_System_Object@@@Z 02093440 f   NetStack.obj
 0001:0009246c       ?g_Parse@Class_NetStack_Protocols_DhcpWordOption@@SIPAUClass_NetStack_Protocols_IDhcpOption@@EEPAUClassVector_uint8@@H@Z 0209346c f   NetStack.obj
 0001:0009257c       ?m_Pack@Class_NetStack_Protocols_DhcpWordOption@@SIHPAU1@PAUClassVector_uint8@@PAH@Z 0209357c f   NetStack.obj
 0001:000926f4       ?m_get$_PayloadLength@Class_NetStack_Protocols_DhcpWordOption@@SIHPAU1@@Z 020936f4 f   NetStack.obj
 0001:00092734       ?m__ctor@Class_NetStack_Protocols_DhcpWordOption@@SIXPAU1@EG@Z 02093734 f   NetStack.obj
 0001:00092768       ?m_StructCopy@Struct_Microsoft_Singularity_Directory_DirectoryServiceContract_GetLinkValue@@SIXPAU1@0@Z 02093768 f   NetStack.obj
 0001:00092790       ?m_StructCopy@Struct_Microsoft_Singularity_Directory_DirectoryServiceContract_GetLinkValue@@SIXPAU1@PAU1@@Z 02093790 f   NetStack.obj
 0001:00092808       ?m_Equals@Struct_Microsoft_Singularity_Directory_DirectoryServiceContract_GetLinkValue@@SI_NPAU1@PAUClass_System_Object@@@Z 02093808 f   NetStack.obj
 0001:00092850       ?m_Equals@Struct_Microsoft_Singularity_Directory_DirectoryServiceContract_GetLinkValue@@SI_NPAUClass_Microsoft_Singularity_Directory_DirectoryServiceContract_GetLinkValue@@PAUClass_System_Object@@@Z 02093850 f   NetStack.obj
 0001:0009287c       ?m_Finalize@Class__Netstack_Channels_Private_Microsoft_Singularity_Channels_TRef$_2$LNetStack_Contracts_TcpConnectionContract_Exp_NetStack_Contracts_TcpConnectionContract_ReadyState$G@@SIXPAU1@@Z 0209387c f   NetStack.obj
 0001:00092908       ?m_Acquire@Class__Netstack_Channels_Private_Microsoft_Singularity_Channels_TRef$_2$LNetStack_Contracts_TcpConnectionContract_Exp_NetStack_Contracts_TcpConnectionContract_ReadyState$G@@SIPAUStruct_NetStack_Contracts_TcpConnectionContract_Exp@@PAU1@@Z 02093908 f   NetStack.obj
 0001:000929a4       ?m__ctor@Class__Netstack_Channels_Private_Microsoft_Singularity_Channels_TRef$_2$LNetStack_Contracts_TcpConnectionContract_Exp_NetStack_Contracts_TcpConnectionContract_ReadyState$G@@SIXPAU1@PAUStruct_NetStack_Contracts_TcpConnectionContract_Exp@@@Z 020939a4 f   NetStack.obj
 0001:00092a48       ?m_StructCopy@Struct_Microsoft_Singularity_V1_Services_PageTableService@@SIXPAU1@0@Z 02093a48 f   NetStack.obj
 0001:00092a64       ?m_StructCopy@Struct_Microsoft_Singularity_V1_Services_PageTableService@@SIXPAU1@PAU1@@Z 02093a64 f   NetStack.obj
 0001:00092ab8       ?g_Query@Struct_Microsoft_Singularity_V1_Services_PageTableService@@SI_NPAUuintPtr@@PAPAU2@1@Z 02093ab8 f   NetStack.obj
 0001:00092b20       ?m_Equals@Struct_Microsoft_Singularity_V1_Services_PageTableService@@SI_NPAU1@PAUClass_System_Object@@@Z 02093b20 f   NetStack.obj
 0001:00092b58       ?m_Equals@Struct_Microsoft_Singularity_V1_Services_PageTableService@@SI_NPAUClass_Microsoft_Singularity_V1_Services_PageTableService@@PAUClass_System_Object@@@Z 02093b58 f   NetStack.obj
 0001:00092b84       ?g_NewRegisteredCounters@Class_System_TryAllCounters@@SIPAU1@XZ 02093b84 f   NetStack.obj
 0001:00092c10       ?m_MergeCounters@Class_System_TryAllCounters@@SIXPAU1@0@Z 02093c10 f   NetStack.obj
 0001:000933d0       ?m_IncrementWeakRefsClearedInUpdateLog@Class_System_TryAllCounters@@SIXPAU1@@Z 020943d0 f   NetStack.obj
 0001:00093400       ?m_IncrementWeakRefsClearedInUpdateEnlistmentLog@Class_System_TryAllCounters@@SIXPAU1@@Z 02094400 f   NetStack.obj
 0001:00093430       ?m_IncrementWeakRefsClearedInReadEnlistmentLog@Class_System_TryAllCounters@@SIXPAU1@@Z 02094430 f   NetStack.obj
 0001:00093460       ?m_IncrementUpdatesInReadEnlistmentsAtGC@Class_System_TryAllCounters@@SIXPAU1@@Z 02094460 f   NetStack.obj
 0001:00093490       ?m_IncrementReadDuplicatesRemoved@Class_System_TryAllCounters@@SIXPAU1@@Z 02094490 f   NetStack.obj
 0001:000934c0       ?m_IncrementInvalidOutsideGC@Class_System_TryAllCounters@@SIXPAU1@@Z 020944c0 f   NetStack.obj
 0001:000934f0       ?m_IncrementInvalidDuringGC@Class_System_TryAllCounters@@SIXPAU1@@Z 020944f0 f   NetStack.obj
 0001:00093518       ?m_IncrementInvalidConflict@Class_System_TryAllCounters@@SIXPAU1@@Z 02094518 f   NetStack.obj
 0001:00093540       ?m_IncrementInflationSeen@Class_System_TryAllCounters@@SIXPAU1@@Z 02094540 f   NetStack.obj
 0001:00093568       ?m_IncrementEnlistmentOverflow@Class_System_TryAllCounters@@SIXPAU1@@Z 02094568 f   NetStack.obj
 0001:00093590       ?m_IncrementCachesCreated@Class_System_TryAllCounters@@SIXPAU1@@Z 02094590 f   NetStack.obj
 0001:000935b8       ?m_DumpStats@Class_System_TryAllCounters@@SIXPAU1@@Z 020945b8 f   NetStack.obj
 0001:00095ae8       ?g_DumpRegisteredCounters@Class_System_TryAllCounters@@SIXXZ 02096ae8 f   NetStack.obj
 0001:00095b78       ?m__ctor@Class_System_TryAllCounters@@SIXPAU1@@Z 02096b78 f   NetStack.obj
 0001:00095b94       ?g__cctor@Class_System_TryAllCounters@@SIXXZ 02096b94 f   NetStack.obj
 0001:00095bc4       ?m__ctor@Class_System_TypeInitializationException@@SIXPAU1@@Z 02096bc4 f   NetStack.obj
 0001:00095bec       ?m__ctor@Class_System_TypeInitializationException@@SIXPAU1@PAUClass_System_String@@PAUClass_System_Exception@@@Z 02096bec f   NetStack.obj
 0001:00095c30       ?m_Finalize@Class__Netstack_Channels_Private_Microsoft_Singularity_Channels_TRef$_2$LNetStack_Contracts_UdpConnectionContract_Exp_NetStack_Contracts_UdpConnectionContract_Start$G@@SIXPAU1@@Z 02096c30 f   NetStack.obj
 0001:00095cbc       ?m_Acquire@Class__Netstack_Channels_Private_Microsoft_Singularity_Channels_TRef$_2$LNetStack_Contracts_UdpConnectionContract_Exp_NetStack_Contracts_UdpConnectionContract_Start$G@@SIPAUStruct_NetStack_Contracts_UdpConnectionContract_Exp@@PAU1@@Z 02096cbc f   NetStack.obj
 0001:00095d58       ?m__ctor@Class__Netstack_Channels_Private_Microsoft_Singularity_Channels_TRef$_2$LNetStack_Contracts_UdpConnectionContract_Exp_NetStack_Contracts_UdpConnectionContract_Start$G@@SIXPAU1@PAUStruct_NetStack_Contracts_UdpConnectionContract_Exp@@@Z 02096d58 f   NetStack.obj
 0001:00095dfc       ?m_StructCopy@Struct_Microsoft_Singularity_Isal_CpuRecord@@SIXPAU1@0@Z 02096dfc f   NetStack.obj
 0001:00095e74       ?m_StructCopy@Struct_Microsoft_Singularity_Isal_CpuRecord@@SIXPAU1@PAU1@@Z 02096e74 f   NetStack.obj
 0001:00095fdc       ?m_Equals@Struct_Microsoft_Singularity_Isal_CpuRecord@@SI_NPAU1@PAUClass_System_Object@@@Z 02096fdc f   NetStack.obj
 0001:00096158       ?m_Equals@Struct_Microsoft_Singularity_Isal_CpuRecord@@SI_NPAUClass_Microsoft_Singularity_Isal_CpuRecord@@PAUClass_System_Object@@@Z 02097158 f   NetStack.obj
 0001:00096184       ?m_StructCopy@Struct_Microsoft_Singularity_Directory_DirectoryServiceContract_NakBindReparse@@SIXPAU1@0@Z 02097184 f   NetStack.obj
 0001:000961d0       ?m_StructCopy@Struct_Microsoft_Singularity_Directory_DirectoryServiceContract_NakBindReparse@@SIXPAU1@PAU1@@Z 020971d0 f   NetStack.obj
 0001:000962b4       ?m_Equals@Struct_Microsoft_Singularity_Directory_DirectoryServiceContract_NakBindReparse@@SI_NPAU1@PAUClass_System_Object@@@Z 020972b4 f   NetStack.obj
 0001:0009632c       ?m_Equals@Struct_Microsoft_Singularity_Directory_DirectoryServiceContract_NakBindReparse@@SI_NPAUClass_Microsoft_Singularity_Directory_DirectoryServiceContract_NakBindReparse@@PAUClass_System_Object@@@Z 0209732c f   NetStack.obj
 0001:00096358       ?m_RemoveAt@Class_System_Collections_SortedList_KeyList@@SIXPAU1@H@Z 02097358 f   NetStack.obj
 0001:00096398       ?m_IndexOf@Class_System_Collections_SortedList_KeyList@@SIHPAU1@PAUClass_System_Object@@@Z 02097398 f   NetStack.obj
 0001:00096444       ?m_GetEnumerator@Class_System_Collections_SortedList_KeyList@@SIPAUClass_System_Collections_IEnumerator@@PAU1@@Z 02097444 f   NetStack.obj
 0001:000964a8       ?m_get$_SyncRoot@Class_System_Collections_SortedList_KeyList@@SIPAUClass_System_Object@@PAU1@@Z 020974a8 f   NetStack.obj
 0001:000964d0       ?m_get$_Item@Class_System_Collections_SortedList_KeyList@@SIPAUClass_System_Object@@PAU1@H@Z 020974d0 f   NetStack.obj
 0001:00096500       ?m_get$_Count@Class_System_Collections_SortedList_KeyList@@SIHPAU1@@Z 02097500 f   NetStack.obj
 0001:00096524       ?m_CopyTo@Class_System_Collections_SortedList_KeyList@@SIXPAU1@PAUClass_System_Array@@H@Z 02097524 f   NetStack.obj
 0001:000965b8       ?m_Add@Class_System_Collections_SortedList_KeyList@@SIHPAU1@PAUClass_System_Object@@@Z 020975b8 f   NetStack.obj
 0001:000965f8       ?m__ctor@Class_System_Collections_SortedList_KeyList@@SIXPAU1@PAUClass_System_Collections_SortedList@@@Z 020975f8 f   NetStack.obj
 0001:00096620       ?m_StructCopy@Struct_Microsoft_Singularity_ServiceManager_ServiceProcessContract_StartSucceeded@@SIXPAU1@0@Z 02097620 f   NetStack.obj
 0001:0009663c       ?m_StructCopy@Struct_Microsoft_Singularity_ServiceManager_ServiceProcessContract_StartSucceeded@@SIXPAU1@PAU1@@Z 0209763c f   NetStack.obj
 0001:00096690       ?m_MarshallContent@Struct_Microsoft_Singularity_ServiceManager_ServiceProcessContract_StartSucceeded@@SIXPAU1@PAEPAUStruct_Microsoft_Singularity_Channels_Endpoint@@1PAH@Z 02097690 f   NetStack.obj
 0001:000966b0       ?m_MarshallAll@Struct_Microsoft_Singularity_ServiceManager_ServiceProcessContract_StartSucceeded@@SIXPAU1@PAEPAUStruct_Microsoft_Singularity_Channels_Endpoint@@PAH@Z 020976b0 f   NetStack.obj
 0001:00096708       ?m_Equals@Struct_Microsoft_Singularity_ServiceManager_ServiceProcessContract_StartSucceeded@@SI_NPAU1@PAUClass_System_Object@@@Z 02097708 f   NetStack.obj
 0001:00096740       ?m_Equals@Struct_Microsoft_Singularity_ServiceManager_ServiceProcessContract_StartSucceeded@@SI_NPAUClass_Microsoft_Singularity_ServiceManager_ServiceProcessContract_StartSucceeded@@PAUClass_System_Object@@@Z 02097740 f   NetStack.obj
 0001:0009676c       ?m_StructCopy@Struct_System_GCs_CallStack_TransitionRecord@@SIXPAU1@0@Z 0209776c f   NetStack.obj
 0001:000967bc       ?m_StructCopy@Struct_System_GCs_CallStack_TransitionRecord@@SIXPAU1@PAU1@@Z 020977bc f   NetStack.obj
 0001:000968ac       ?m_Equals@Struct_System_GCs_CallStack_TransitionRecord@@SI_NPAU1@PAUClass_System_Object@@@Z 020978ac f   NetStack.obj
 0001:000969c8       ?m_Equals@Struct_System_GCs_CallStack_TransitionRecord@@SI_NPAUClass_System_GCs_CallStack_TransitionRecord@@PAUClass_System_Object@@@Z 020979c8 f   NetStack.obj
 0001:000969f4       ?m_StructCopy@Struct_NetStack_Contracts_UdpConnectionContract_Imp@@SIXPAU1@0@Z 020979f4 f   NetStack.obj
 0001:00096b98       ?m_StructCopy@Struct_NetStack_Contracts_UdpConnectionContract_Imp@@SIXPAU1@PAU1@@Z 02097b98 f   NetStack.obj
 0001:00097084       ?m_Peek@Struct_NetStack_Contracts_UdpConnectionContract_Imp@@SIHPAU1@@Z 02098084 f   NetStack.obj
 0001:00098020       ?m_MarshallDeliverReady0@Struct_NetStack_Contracts_UdpConnectionContract_Imp@@SIXPAU1@PAUStruct_Microsoft_Singularity_Channels_Endpoint@@@Z 02099020 f   NetStack.obj
 0001:0009806c       ?m_MarshallDeliverPort0@Struct_NetStack_Contracts_UdpConnectionContract_Imp@@SIXPAU1@GPAUStruct_Microsoft_Singularity_Channels_Endpoint@@@Z 0209906c f   NetStack.obj
 0001:000980c0       ?m_MarshallDeliverPollSelectResult0@Struct_NetStack_Contracts_UdpConnectionContract_Imp@@SIXPAU1@_NPAUStruct_Microsoft_Singularity_Channels_Endpoint@@@Z 020990c0 f   NetStack.obj
 0001:00098110       ?m_MarshallDeliverOK1@Struct_NetStack_Contracts_UdpConnectionContract_Imp@@SIXPAU1@PAUStruct_Microsoft_Singularity_Channels_Endpoint@@@Z 02099110 f   NetStack.obj
 0001:0009815c       ?m_MarshallDeliverOK0@Struct_NetStack_Contracts_UdpConnectionContract_Imp@@SIXPAU1@PAUStruct_Microsoft_Singularity_Channels_Endpoint@@@Z 0209915c f   NetStack.obj
 0001:000981a8       ?m_MarshallDeliverNoData0@Struct_NetStack_Contracts_UdpConnectionContract_Imp@@SIXPAU1@PAUStruct_Microsoft_Singularity_Channels_Endpoint@@@Z 020991a8 f   NetStack.obj
 0001:000981f4       ?m_MarshallDeliverIPAddress0@Struct_NetStack_Contracts_UdpConnectionContract_Imp@@SIXPAU1@IPAUStruct_Microsoft_Singularity_Channels_Endpoint@@@Z 020991f4 f   NetStack.obj
 0001:00098244       ?m_MarshallDeliverInvalidEndPoint1@Struct_NetStack_Contracts_UdpConnectionContract_Imp@@SIXPAU1@IGPAUStruct_Microsoft_Singularity_Channels_Endpoint@@@Z 02099244 f   NetStack.obj
 0001:0009829c       ?m_MarshallDeliverInvalidEndPoint0@Struct_NetStack_Contracts_UdpConnectionContract_Imp@@SIXPAU1@IGPAUStruct_Microsoft_Singularity_Channels_Endpoint@@@Z 0209929c f   NetStack.obj
 0001:000982f4       ?m_MarshallDeliverDataTooLarge1@Struct_NetStack_Contracts_UdpConnectionContract_Imp@@SIXPAU1@PAUStruct_Microsoft_Singularity_Channels_Endpoint@@@Z 020992f4 f   NetStack.obj
 0001:00098340       ?m_MarshallDeliverDataTooLarge0@Struct_NetStack_Contracts_UdpConnectionContract_Imp@@SIXPAU1@PAUStruct_Microsoft_Singularity_Channels_Endpoint@@@Z 02099340 f   NetStack.obj
 0001:0009838c       ?m_MarshallDeliverData0@Struct_NetStack_Contracts_UdpConnectionContract_Imp@@SIXPAU1@IGPAEPAUStruct_Microsoft_Singularity_Channels_Endpoint@@@Z 0209938c f   NetStack.obj
 0001:000983e8       ?m_HeadMatches@Struct_NetStack_Contracts_UdpConnectionContract_Imp@@SI_NPAU1@HPA_NPAPAUClass_System_Object@@@Z 020993e8 f   NetStack.obj
 0001:000984a8       ?m_HeadMatches@Struct_NetStack_Contracts_UdpConnectionContract_Imp@@SI_NPAUClass_NetStack_Contracts_UdpConnectionContract_Imp@@HPA_NPAPAUClass_System_Object@@@Z 020994a8 f   NetStack.obj
 0001:000984e0       ?m_Equals@Struct_NetStack_Contracts_UdpConnectionContract_Imp@@SI_NPAU1@PAUClass_System_Object@@@Z 020994e0 f   NetStack.obj
 0001:00098cc8       ?m_Equals@Struct_NetStack_Contracts_UdpConnectionContract_Imp@@SI_NPAUClass_NetStack_Contracts_UdpConnectionContract_Imp@@PAUClass_System_Object@@@Z 02099cc8 f   NetStack.obj
 0001:00098cf4       ?m_Dispose@Struct_NetStack_Contracts_UdpConnectionContract_Imp@@SIXPAU1@@Z 02099cf4 f   NetStack.obj
 0001:00098d18       ?m_Dispose@Struct_NetStack_Contracts_UdpConnectionContract_Imp@@SIXPAUClass_NetStack_Contracts_UdpConnectionContract_Imp@@@Z 02099d18 f   NetStack.obj
 0001:00098d40       ?m_DeliverReady0@Struct_NetStack_Contracts_UdpConnectionContract_Imp@@SIXPAU1@@Z 02099d40 f   NetStack.obj
 0001:00098d74       ?m_DeliverPort0@Struct_NetStack_Contracts_UdpConnectionContract_Imp@@SIXPAU1@G@Z 02099d74 f   NetStack.obj
 0001:00098dc0       ?m_DeliverPollSelectResult0@Struct_NetStack_Contracts_UdpConnectionContract_Imp@@SIXPAU1@_N@Z 02099dc0 f   NetStack.obj
 0001:00098e08       ?m_DeliverOK1@Struct_NetStack_Contracts_UdpConnectionContract_Imp@@SIXPAU1@@Z 02099e08 f   NetStack.obj
 0001:00098e3c       ?m_DeliverOK0@Struct_NetStack_Contracts_UdpConnectionContract_Imp@@SIXPAU1@@Z 02099e3c f   NetStack.obj
 0001:00098e70       ?m_DeliverNoData0@Struct_NetStack_Contracts_UdpConnectionContract_Imp@@SIXPAU1@@Z 02099e70 f   NetStack.obj
 0001:00098ea4       ?m_DeliverIPAddress0@Struct_NetStack_Contracts_UdpConnectionContract_Imp@@SIXPAU1@I@Z 02099ea4 f   NetStack.obj
 0001:00098eec       ?m_DeliverInvalidEndPoint1@Struct_NetStack_Contracts_UdpConnectionContract_Imp@@SIXPAU1@IG@Z 02099eec f   NetStack.obj
 0001:00098f3c       ?m_DeliverInvalidEndPoint0@Struct_NetStack_Contracts_UdpConnectionContract_Imp@@SIXPAU1@IG@Z 02099f3c f   NetStack.obj
 0001:00098f8c       ?m_DeliverDataTooLarge1@Struct_NetStack_Contracts_UdpConnectionContract_Imp@@SIXPAU1@@Z 02099f8c f   NetStack.obj
 0001:00098fc0       ?m_DeliverDataTooLarge0@Struct_NetStack_Contracts_UdpConnectionContract_Imp@@SIXPAU1@@Z 02099fc0 f   NetStack.obj
 0001:00098ff4       ?m_DeliverData0@Struct_NetStack_Contracts_UdpConnectionContract_Imp@@SIXPAU1@IGPAE@Z 02099ff4 f   NetStack.obj
 0001:0009904c       ?m_GetString@Class_System_Text_ASCIIEncoding@@SIPAUClass_System_String@@PAU1@PAUClassVector_uint8@@HH@Z 0209a04c f   NetStack.obj
 0001:00099164       ?m_GetBytes@Class_System_Text_ASCIIEncoding@@SIHPAU1@PAUClass_System_String@@HHPAUClassVector_uint8@@H@Z 0209a164 f   NetStack.obj
 0001:000993d4       ?m__ctor@Class_System_Text_ASCIIEncoding@@SIXPAU1@@Z 0209a3d4 f   NetStack.obj
 0001:000993fc       ?g__cctor@Class_System_Text_ASCIIEncoding@@SIXXZ 0209a3fc f   NetStack.obj
 0001:00099424       ?m_WritePacket@Class_NetStack_Runtime_UdpSession@@SI_NPAU1@PAUClass_NetStack_Common_NetPacket@@@Z 0209a424 f   NetStack.obj
 0001:00099494       ?m_WriteDataTo@Class_NetStack_Runtime_UdpSession@@SIHPAU1@UStruct_System_Net_IP_IPv4@@GPAE@Z 0209a494 f   NetStack.obj
 0001:00099750       ?m_WriteDataTo@Class_NetStack_Runtime_UdpSession@@SIHPAU1@UStruct_System_Net_IP_IPv4@@GPAUClassVector_uint8@@@Z 0209a750 f   NetStack.obj
 0001:000999ec       ?m_WriteData@Class_NetStack_Runtime_UdpSession@@SIHPAU1@PAE@Z 0209a9ec f   NetStack.obj
 0001:00099bd8       ?m_WriteData@Class_NetStack_Runtime_UdpSession@@SIHPAU1@PAUClassVector_uint8@@@Z 0209abd8 f   NetStack.obj
 0001:00099dc4       ?m_PollSelectWrite@Class_NetStack_Runtime_UdpSession@@SI_NPAU1@H@Z 0209adc4 f   NetStack.obj
 0001:00099e08       ?m_PollSelectRead@Class_NetStack_Runtime_UdpSession@@SI_NPAU1@H@Z 0209ae08 f   NetStack.obj
 0001:00099e4c       ?m_OnReceive@Class_NetStack_Runtime_UdpSession@@SI?AUStruct_NetStack_Runtime_NetStatus@@PAU1@PAUClass_System_Object@@PAUClass_NetStack_Common_NetPacket@@1@Z 0209ae4c f   NetStack.obj
 0001:00099ee0       ?m_IsSessionValidForUserWrite@Class_NetStack_Runtime_UdpSession@@SI_NPAU1@@Z 0209aee0 f   NetStack.obj
 0001:00099f2c       ?m_IsSessionValidForUserRead@Class_NetStack_Runtime_UdpSession@@SI_NPAU1@@Z 0209af2c f   NetStack.obj
 0001:00099f78       ?m_Finalize@Class_NetStack_Runtime_UdpSession@@SIXPAU1@@Z 0209af78 f   NetStack.obj
 0001:00099fa0       ?m_Close@Class_NetStack_Runtime_UdpSession@@SI_NPAU1@@Z 0209afa0 f   NetStack.obj
 0001:00099fec       ?m_BindRemoteEndPoint@Class_NetStack_Runtime_UdpSession@@SIXPAU1@UStruct_System_Net_IP_IPv4@@G@Z 0209afec f   NetStack.obj
 0001:0009a020       ?m_BindLocalEndPoint@Class_NetStack_Runtime_UdpSession@@SI_NPAU1@UStruct_System_Net_IP_IPv4@@G@Z 0209b020 f   NetStack.obj
 0001:0009a068       ?m_BindEndPoints@Class_NetStack_Runtime_UdpSession@@SIXPAU1@UStruct_System_Net_IP_IPv4@@G1G@Z 0209b068 f   NetStack.obj
 0001:0009a198       ?m__ctor@Class_NetStack_Runtime_UdpSession@@SIXPAU1@PAUClass_NetStack_Runtime_IProtocol@@@Z 0209b198 f   NetStack.obj
 0001:0009a1d4       ?g__cctor@Class_NetStack_Runtime_UdpSession@@SIXXZ 0209b1d4 f   NetStack.obj
 0001:0009a1fc       ?m_StructCopy@Struct_Microsoft_Singularity_Isal_IX_EVectors@@SIXPAU1@0@Z 0209b1fc f   NetStack.obj
 0001:0009a218       ?m_StructCopy@Struct_Microsoft_Singularity_Isal_IX_EVectors@@SIXPAU1@PAU1@@Z 0209b218 f   NetStack.obj
 0001:0009a26c       ?m_Equals@Struct_Microsoft_Singularity_Isal_IX_EVectors@@SI_NPAU1@PAUClass_System_Object@@@Z 0209b26c f   NetStack.obj
 0001:0009a2a4       ?m_Equals@Struct_Microsoft_Singularity_Isal_IX_EVectors@@SI_NPAUClass_Microsoft_Singularity_Isal_IX_EVectors@@PAUClass_System_Object@@@Z 0209b2a4 f   NetStack.obj
 0001:0009a2d0       ?m__ctor@Class_System_InvalidCastException@@SIXPAU1@@Z 0209b2d0 f   NetStack.obj
 0001:0009a2f8       ?m__ctor@Class_System_InvalidCastException@@SIXPAU1@PAUClass_System_String@@@Z 0209b2f8 f   NetStack.obj
 0001:0009a320       ?m__ctor@Class_System_InvalidCastException@@SIXPAU1@PAUClass_System_String@@PAUClass_System_Exception@@@Z 0209b320 f   NetStack.obj
 0001:0009a350       ?m_StructCopy@Struct_NetStack_Contracts_RoutingContract_DeleteRoute@@SIXPAU1@0@Z 0209b350 f   NetStack.obj
 0001:0009a37c       ?m_StructCopy@Struct_NetStack_Contracts_RoutingContract_DeleteRoute@@SIXPAU1@PAU1@@Z 0209b37c f   NetStack.obj
 0001:0009a400       ?m_Equals@Struct_NetStack_Contracts_RoutingContract_DeleteRoute@@SI_NPAU1@PAUClass_System_Object@@@Z 0209b400 f   NetStack.obj
 0001:0009a4c4       ?m_Equals@Struct_NetStack_Contracts_RoutingContract_DeleteRoute@@SI_NPAUClass_NetStack_Contracts_RoutingContract_DeleteRoute@@PAUClass_System_Object@@@Z 0209b4c4 f   NetStack.obj
 0001:0009a4f0       ?m__ctor@Class_Microsoft_SingSharp_CustomAllocator@@SIXPAU1@@Z 0209b4f0 f   NetStack.obj
 0001:0009a508       ?m_VisitSmallPageEnd@Class_System_GCs_MarkSweepCollector_SweepVisitor@@SIXPAU1@@Z 0209b508 f   NetStack.obj
 0001:0009a534       ?m_VisitSmall@Class_System_GCs_MarkSweepCollector_SweepVisitor@@SIXPAU1@PAUClass_System_Object@@PAUuintPtr@@@Z 0209b534 f   NetStack.obj
 0001:0009a580       ?m_VisitLarge@Class_System_GCs_MarkSweepCollector_SweepVisitor@@SIPAUuintPtr@@PAU1@PAUClass_System_Object@@@Z 0209b580 f   NetStack.obj
 0001:0009a608       ?m__ctor@Class_System_GCs_MarkSweepCollector_SweepVisitor@@SIXPAU1@@Z 0209b608 f   NetStack.obj
 0001:0009a62c       ?g_Parse@Class_NetStack_Protocols_DhcpStringOption@@SIPAUClass_NetStack_Protocols_IDhcpOption@@EEPAUClassVector_uint8@@H@Z 0209b62c f   NetStack.obj
 0001:0009a79c       ?m_Pack@Class_NetStack_Protocols_DhcpStringOption@@SIHPAU1@PAUClassVector_uint8@@PAH@Z 0209b79c f   NetStack.obj
 0001:0009a978       ?m_get$_Value@Class_NetStack_Protocols_DhcpStringOption@@SIPAUClass_System_String@@PAU1@@Z 0209b978 f   NetStack.obj
 0001:0009a9b8       ?m_get$_PayloadLength@Class_NetStack_Protocols_DhcpStringOption@@SIHPAU1@@Z 0209b9b8 f   NetStack.obj
 0001:0009a9f8       ?m__ctor@Class_NetStack_Protocols_DhcpStringOption@@SIXPAU1@EPAUClassVector_bartok_char@@@Z 0209b9f8 f   NetStack.obj
 0001:0009aa28       ?m_get$_Adapter@Class_NetStack_Runtime_DemuxAdapterArgs@@SIPAUClass_NetStack_Common_IAdapter@@PAU1@@Z 0209ba28 f   NetStack.obj
 0001:0009aa64       ?m__ctor@Class_NetStack_Runtime_DemuxAdapterArgs@@SIXPAU1@PAUClass_NetStack_Common_IAdapter@@@Z 0209ba64 f   NetStack.obj
 0001:0009aa8c       ?m_SetRemoteEndPoint@Class_NetStack_Runtime_Session@@SIXPAU1@UStruct_System_Net_IP_IPv4@@G@Z 0209ba8c f   NetStack.obj
 0001:0009aac4       ?m_SetLocalPort@Class_NetStack_Runtime_Session@@SIXPAU1@G@Z 0209bac4 f   NetStack.obj
 0001:0009aaec       ?m_SetLocalEndPoint@Class_NetStack_Runtime_Session@@SI_NPAU1@UStruct_System_Net_IP_IPv4@@G@Z 0209baec f   NetStack.obj
 0001:0009ac9c       ?m_set$_OutQueuePaused@Class_NetStack_Runtime_Session@@SIXPAU1@_N@Z 0209bc9c f   NetStack.obj
 0001:0009acc4       ?m_set$_BoundMux@Class_NetStack_Runtime_Session@@SIXPAU1@PAUClass_NetStack_Runtime_Multiplexer@@@Z 0209bcc4 f   NetStack.obj
 0001:0009acec       ?m_ReInitialize@Class_NetStack_Runtime_Session@@SIXPAU1@PAUClass_NetStack_Runtime_IProtocol@@@Z 0209bcec f   NetStack.obj
 0001:0009adc8       ?m_ReadData@Class_NetStack_Runtime_Session@@SIPAEPAU1@@Z 0209bdc8 f   NetStack.obj
 0001:0009ae44       ?m_QueueIsEmpty@Class_NetStack_Runtime_Session@@SI_NPAU1@PAUClass_System_Collections_ArrayList@@@Z 0209be44 f   NetStack.obj
 0001:0009aed8       ?m_PutPacket@Class_NetStack_Runtime_Session@@SI_NPAU1@PAUClass_System_Collections_ArrayList@@PAUClass_NetStack_Common_NetPacket@@_N@Z 0209bed8 f   NetStack.obj
 0001:0009af20       ?m_PollQueueNotFull@Class_NetStack_Runtime_Session@@SI_NPAU1@PAUClass_System_Collections_ArrayList@@H@Z 0209bf20 f   NetStack.obj
 0001:0009b28c       ?m_PollQueueNotEmpty@Class_NetStack_Runtime_Session@@SI_NPAU1@PAUClass_System_Collections_ArrayList@@H@Z 0209c28c f   NetStack.obj
 0001:0009b5e8       ?m_PollData@Class_NetStack_Runtime_Session@@SIPAEPAU1@UStruct_System_TimeSpan@@@Z 0209c5e8 f   NetStack.obj
 0001:0009b6f4       ?m_PollCopyData@Class_NetStack_Runtime_Session@@SIPAUClassVector_uint8@@PAU1@UStruct_System_TimeSpan@@@Z 0209c6f4 f   NetStack.obj
 0001:0009b800       ?m_OnReceive@Class_NetStack_Runtime_Session@@SI?AUStruct_NetStack_Runtime_NetStatus@@PAU1@PAUClass_System_Object@@PAUClass_NetStack_Common_NetPacket@@1@Z 0209c800 f   NetStack.obj
 0001:0009b854       ?m_IsSessionValidForUserRead@Class_NetStack_Runtime_Session@@SI_NPAU1@@Z 0209c854 f   NetStack.obj
 0001:0009b884       ?m_IsLocalAddress@Class_NetStack_Runtime_Session@@SI_NPAU1@UStruct_System_Net_IP_IPv4@@@Z 0209c884 f   NetStack.obj
 0001:0009b918       ?m_GetQueueCapacity@Class_NetStack_Runtime_Session@@SIHPAU1@PAUClass_System_Collections_ArrayList@@@Z 0209c918 f   NetStack.obj
 0001:0009b99c       ?m_GetPacket@Class_NetStack_Runtime_Session@@SIPAUClass_NetStack_Common_NetPacket@@PAU1@PAUClass_System_Collections_ArrayList@@_NUStruct_System_TimeSpan@@@Z 0209c99c f   NetStack.obj
 0001:0009b9f4       ?m_get$_Uid@Class_NetStack_Runtime_Session@@SIIPAU1@@Z 0209c9f4 f   NetStack.obj
 0001:0009ba30       ?m_get$_RemotePort@Class_NetStack_Runtime_Session@@SIGPAU1@@Z 0209ca30 f   NetStack.obj
 0001:0009ba70       ?m_get$_RemoteAddress@Class_NetStack_Runtime_Session@@SI?AUStruct_System_Net_IP_IPv4@@PAU1@@Z 0209ca70 f   NetStack.obj
 0001:0009baac       ?m_get$_Protocol@Class_NetStack_Runtime_Session@@SIPAUClass_NetStack_Runtime_IProtocol@@PAU1@@Z 0209caac f   NetStack.obj
 0001:0009bae8       ?m_get$_OutQueuePaused@Class_NetStack_Runtime_Session@@SI_NPAU1@@Z 0209cae8 f   NetStack.obj
 0001:0009bb1c       ?m_get$_LocalPort@Class_NetStack_Runtime_Session@@SIGPAU1@@Z 0209cb1c f   NetStack.obj
 0001:0009bb5c       ?m_get$_LocalAddress@Class_NetStack_Runtime_Session@@SI?AUStruct_System_Net_IP_IPv4@@PAU1@@Z 0209cb5c f   NetStack.obj
 0001:0009bb98       ?m_get$_BoundMux@Class_NetStack_Runtime_Session@@SIPAUClass_NetStack_Runtime_Multiplexer@@PAU1@@Z 0209cb98 f   NetStack.obj
 0001:0009bbd4       ?m_Finalize@Class_NetStack_Runtime_Session@@SIXPAU1@@Z 0209cbd4 f   NetStack.obj
 0001:0009bc28       ?m_EnqueuePacket@Class_NetStack_Runtime_Session@@SI_NPAU1@PAUClass_System_Collections_ArrayList@@PAUClass_NetStack_Common_NetPacket@@_N@Z 0209cc28 f   NetStack.obj
 0001:0009bda0       ?m_DrainQueue@Class_NetStack_Runtime_Session@@SIXPAU1@PAUClass_System_Collections_ArrayList@@@Z 0209cda0 f   NetStack.obj
 0001:0009beec       ?m_Dispose@Class_NetStack_Runtime_Session@@SIXPAU1@@Z 0209ceec f   NetStack.obj
 0001:0009bf68       ?m_DequeuePacket@Class_NetStack_Runtime_Session@@SIPAUClass_NetStack_Common_NetPacket@@PAU1@PAUClass_System_Collections_ArrayList@@UStruct_System_TimeSpan@@@Z 0209cf68 f   NetStack.obj
 0001:0009c168       ?m__ctor@Class_NetStack_Runtime_Session@@SIXPAU1@PAUClass_NetStack_Runtime_IProtocol@@HH@Z 0209d168 f   NetStack.obj
 0001:0009c22c       ?g__cctor@Class_NetStack_Runtime_Session@@SIXXZ 0209d22c f   NetStack.obj
 0001:0009c240       ?m_StructCopy@Struct_Microsoft_Singularity_Directory_DirectoryServiceContract_Exp@@SIXPAU1@0@Z 0209d240 f   NetStack.obj
 0001:0009c468       ?m_StructCopy@Struct_Microsoft_Singularity_Directory_DirectoryServiceContract_Exp@@SIXPAU1@PAU1@@Z 0209d468 f   NetStack.obj
 0001:0009cae0       ?m_Peek@Struct_Microsoft_Singularity_Directory_DirectoryServiceContract_Exp@@SIHPAU1@@Z 0209dae0 f   NetStack.obj
 0001:0009d488       ?m_MarshallDeliverRegister0@Struct_Microsoft_Singularity_Directory_DirectoryServiceContract_Exp@@SIXPAU1@PA_WPAUStruct_Microsoft_Singularity_Directory_ServiceProviderContract_Imp@@PAUStruct_Microsoft_Singularity_Channels_Endpoint@@@Z 0209e488 f   NetStack.obj
 0001:0009d4e4       ?m_MarshallDeliverBind0@Struct_Microsoft_Singularity_Directory_DirectoryServiceContract_Exp@@SIXPAU1@PA_WPAUStruct_Microsoft_Singularity_Directory_ServiceContract_Exp@@PAUStruct_Microsoft_Singularity_Channels_Endpoint@@@Z 0209e4e4 f   NetStack.obj
 0001:0009d540       ?m_HeadMatches@Struct_Microsoft_Singularity_Directory_DirectoryServiceContract_Exp@@SI_NPAU1@HPA_NPAPAUClass_System_Object@@@Z 0209e540 f   NetStack.obj
 0001:0009d600       ?m_HeadMatches@Struct_Microsoft_Singularity_Directory_DirectoryServiceContract_Exp@@SI_NPAUClass_Microsoft_Singularity_Directory_DirectoryServiceContract_Exp@@HPA_NPAPAUClass_System_Object@@@Z 0209e600 f   NetStack.obj
 0001:0009d638       ?m_Equals@Struct_Microsoft_Singularity_Directory_DirectoryServiceContract_Exp@@SI_NPAU1@PAUClass_System_Object@@@Z 0209e638 f   NetStack.obj
 0001:0009e19c       ?m_Equals@Struct_Microsoft_Singularity_Directory_DirectoryServiceContract_Exp@@SI_NPAUClass_Microsoft_Singularity_Directory_DirectoryServiceContract_Exp@@PAUClass_System_Object@@@Z 0209f19c f   NetStack.obj
 0001:0009e1c8       ?m_Dispose@Struct_Microsoft_Singularity_Directory_DirectoryServiceContract_Exp@@SIXPAU1@@Z 0209f1c8 f   NetStack.obj
 0001:0009e1ec       ?m_Dispose@Struct_Microsoft_Singularity_Directory_DirectoryServiceContract_Exp@@SIXPAUClass_Microsoft_Singularity_Directory_DirectoryServiceContract_Exp@@@Z 0209f1ec f   NetStack.obj
 0001:0009e214       ?m_DeliverRegister0@Struct_Microsoft_Singularity_Directory_DirectoryServiceContract_Exp@@SIXPAU1@PA_WPAUStruct_Microsoft_Singularity_Directory_ServiceProviderContract_Imp@@@Z 0209f214 f   NetStack.obj
 0001:0009e264       ?m_DeliverBind0@Struct_Microsoft_Singularity_Directory_DirectoryServiceContract_Exp@@SIXPAU1@PA_WPAUStruct_Microsoft_Singularity_Directory_ServiceContract_Exp@@@Z 0209f264 f   NetStack.obj
 0001:0009e2b4       ?m__ctor@Struct_Microsoft_Singularity_Directory_DirectoryServiceContract_Exp@@SIXPAU1@H@Z 0209f2b4 f   NetStack.obj
 0001:0009e2e0       ?m_ToString@Struct_System_TimeSpan@@SIPAUClass_System_String@@PAU1@@Z 0209f2e0 f   NetStack.obj
 0001:0009e510       ?m_ToString@Struct_System_TimeSpan@@SIPAUClass_System_String@@PAUClass_System_TimeSpan@@@Z 0209f510 f   NetStack.obj
 0001:0009e558       ?m_Subtract@Struct_System_TimeSpan@@SI?AU1@PAU1@U1@@Z 0209f558 f   NetStack.obj
 0001:0009e674       ?m_StructCopy@Struct_System_TimeSpan@@SIXPAU1@0@Z 0209f674 f   NetStack.obj
 0001:0009e6a8       ?m_StructCopy@Struct_System_TimeSpan@@SIXPAU1@PAU1@@Z 0209f6a8 f   NetStack.obj
 0001:0009e744       ?g_op$_Subtraction@Struct_System_TimeSpan@@SI?AU1@U1@0@Z 0209f744 f   NetStack.obj
 0001:0009e7a0       ?g_op$_GreaterThanOrEqual@Struct_System_TimeSpan@@SI_NU1@0@Z 0209f7a0 f   NetStack.obj
 0001:0009e7dc       ?g_op$_GreaterThan@Struct_System_TimeSpan@@SI_NU1@0@Z 0209f7dc f   NetStack.obj
 0001:0009e818       ?g_op$_Equality@Struct_System_TimeSpan@@SI_NU1@0@Z 0209f818 f   NetStack.obj
 0001:0009e854       ?m_IntToString@Struct_System_TimeSpan@@SIPAUClass_System_String@@PAU1@HH@Z 0209f854 f   NetStack.obj
 0001:0009e8a0       ?g_Interval@Struct_System_TimeSpan@@SI?AU1@_JH@Z 0209f8a0 f   NetStack.obj
 0001:0009e9b4       ?m_GetHashCode@Struct_System_TimeSpan@@SIHPAU1@@Z 0209f9b4 f   NetStack.obj
 0001:0009e9e0       ?m_GetHashCode@Struct_System_TimeSpan@@SIHPAUClass_System_TimeSpan@@@Z 0209f9e0 f   NetStack.obj
 0001:0009ea28       ?m_get$_Ticks@Struct_System_TimeSpan@@SI_JPAU1@@Z 0209fa28 f   NetStack.obj
 0001:0009ea4c       ?m_get$_Seconds@Struct_System_TimeSpan@@SIHPAU1@@Z 0209fa4c f   NetStack.obj
 0001:0009ea8c       ?m_get$_Milliseconds@Struct_System_TimeSpan@@SIHPAU1@@Z 0209fa8c f   NetStack.obj
 0001:0009eacc       ?g_FromTicks@Struct_System_TimeSpan@@SI?AU1@_J@Z 0209facc f   NetStack.obj
 0001:0009eb34       ?g_FromSeconds@Struct_System_TimeSpan@@SI?AU1@_J@Z 0209fb34 f   NetStack.obj
 0001:0009eb80       ?g_FromMinutes@Struct_System_TimeSpan@@SI?AU1@_J@Z 0209fb80 f   NetStack.obj
 0001:0009ebcc       ?g_FromMilliseconds@Struct_System_TimeSpan@@SI?AU1@_J@Z 0209fbcc f   NetStack.obj
 0001:0009ec18       ?m_Equals@Struct_System_TimeSpan@@SI_NPAU1@PAUClass_System_Object@@@Z 0209fc18 f   NetStack.obj
 0001:0009ec90       ?m_Equals@Struct_System_TimeSpan@@SI_NPAUClass_System_TimeSpan@@PAUClass_System_Object@@@Z 0209fc90 f   NetStack.obj
 0001:0009ecdc       ?m_CompareTo@Struct_System_TimeSpan@@SIHPAU1@PAUClass_System_Object@@@Z 0209fcdc f   NetStack.obj
 0001:0009edc8       ?m_CompareTo@Struct_System_TimeSpan@@SIHPAUClass_System_TimeSpan@@PAUClass_System_Object@@@Z 0209fdc8 f   NetStack.obj
 0001:0009ee14       ?m__ctor@Struct_System_TimeSpan@@SIXPAU1@_J@Z 0209fe14 f   NetStack.obj
 0001:0009ee40       ?g__cctor@Struct_System_TimeSpan@@SIXXZ 0209fe40 f   NetStack.obj
 0001:0009ef20       ?m_StructCopy@Struct_Microsoft_Singularity_Io_Net_NicDeviceEventContract_AckNicDeviceEvent@@SIXPAU1@0@Z 0209ff20 f   NetStack.obj
 0001:0009ef3c       ?m_StructCopy@Struct_Microsoft_Singularity_Io_Net_NicDeviceEventContract_AckNicDeviceEvent@@SIXPAU1@PAU1@@Z 0209ff3c f   NetStack.obj
 0001:0009ef90       ?m_MarshallContent@Struct_Microsoft_Singularity_Io_Net_NicDeviceEventContract_AckNicDeviceEvent@@SIXPAU1@PAEPAUStruct_Microsoft_Singularity_Channels_Endpoint@@1PAH@Z 0209ff90 f   NetStack.obj
 0001:0009efb0       ?m_MarshallAll@Struct_Microsoft_Singularity_Io_Net_NicDeviceEventContract_AckNicDeviceEvent@@SIXPAU1@PAEPAUStruct_Microsoft_Singularity_Channels_Endpoint@@PAH@Z 0209ffb0 f   NetStack.obj
 0001:0009f008       ?m_Equals@Struct_Microsoft_Singularity_Io_Net_NicDeviceEventContract_AckNicDeviceEvent@@SI_NPAU1@PAUClass_System_Object@@@Z 020a0008 f   NetStack.obj
 0001:0009f040       ?m_Equals@Struct_Microsoft_Singularity_Io_Net_NicDeviceEventContract_AckNicDeviceEvent@@SI_NPAUClass_Microsoft_Singularity_Io_Net_NicDeviceEventContract_AckNicDeviceEvent@@PAUClass_System_Object@@@Z 020a0040 f   NetStack.obj
 0001:0009f06c       ?m_StructCopy@Struct_NetStack_Contracts_DNSContract_IsValidName@@SIXPAU1@0@Z 020a006c f   NetStack.obj
 0001:0009f094       ?m_StructCopy@Struct_NetStack_Contracts_DNSContract_IsValidName@@SIXPAU1@PAU1@@Z 020a0094 f   NetStack.obj
 0001:0009f10c       ?m_Equals@Struct_NetStack_Contracts_DNSContract_IsValidName@@SI_NPAU1@PAUClass_System_Object@@@Z 020a010c f   NetStack.obj
 0001:0009f154       ?m_Equals@Struct_NetStack_Contracts_DNSContract_IsValidName@@SI_NPAUClass_NetStack_Contracts_DNSContract_IsValidName@@PAUClass_System_Object@@@Z 020a0154 f   NetStack.obj
 0001:0009f180       ?m_StructCopy@Struct_System_ArgIterator@@SIXPAU1@0@Z 020a0180 f   NetStack.obj
 0001:0009f1b4       ?m_StructCopy@Struct_System_ArgIterator@@SIXPAU1@PAU1@@Z 020a01b4 f   NetStack.obj
 0001:0009f250       ?m_GetArg@Struct_System_ArgIterator@@SIPAUClass_System_RuntimeType@@PAU1@HPAPAUintPtr@@@Z 020a0250 f   NetStack.obj
 0001:0009f2d4       ?m_get$_Length@Struct_System_ArgIterator@@SIHPAU1@@Z 020a02d4 f   NetStack.obj
 0001:0009f2f4       ?m_Equals@Struct_System_ArgIterator@@SI_NPAU1@PAUClass_System_Object@@@Z 020a02f4 f   NetStack.obj
 0001:0009f350       ?m_Equals@Struct_System_ArgIterator@@SI_NPAUClass_System_ArgIterator@@PAUClass_System_Object@@@Z 020a0350 f   NetStack.obj
 0001:0009f37c       ?m__ctor@Struct_System_ArgIterator@@SIXPAU1@UStruct_System_RuntimeArgumentHandle@@@Z 020a037c f   NetStack.obj
 0001:0009f3c4       ?m_EnterEvent@Class_NetStack_Runtime_DhcpClientStateInitialize@@SIXPAU1@@Z 020a03c4 f   NetStack.obj
 0001:0009f520       ?m__ctor@Class_NetStack_Runtime_DhcpClientStateInitialize@@SIXPAU1@PAUClass_NetStack_Runtime_DhcpClient@@@Z 020a0520 f   NetStack.obj
 0001:0009f54c       ?m_LogTick@Class_Microsoft_Singularity_GCProfilerLogger_ProfilerBuffer@@SIXPAU1@@Z 020a054c f   NetStack.obj
 0001:0009f5f0       ?m__ctor@Class_Microsoft_Singularity_GCProfilerLogger_ProfilerBuffer@@SIXPAU1@@Z 020a05f0 f   NetStack.obj
 0001:0009f61c       ?g_ToString2@Class_Microsoft_Singularity_Bitter@@SIPAUClass_System_String@@PA_W@Z 020a061c f   NetStack.obj
 0001:0009f678       ?g_ToString2@Class_Microsoft_Singularity_Bitter@@SIPAUClass_System_String@@PA_WHH@Z 020a0678 f   NetStack.obj
 0001:0009f7ac       ?g_ToString@Class_Microsoft_Singularity_Bitter@@SIPAUClass_System_String@@PA_W@Z 020a07ac f   NetStack.obj
 0001:0009f80c       ?g_ToByteArray@Class_Microsoft_Singularity_Bitter@@SIPAUClassVector_uint8@@PAE@Z 020a080c f   NetStack.obj
 0001:0009f8d0       ?g_ToByteArray@Class_Microsoft_Singularity_Bitter@@SIXPAEHHPAUClassVector_uint8@@H@Z 020a08d0 f   NetStack.obj
 0001:0009f978       ?g_FromString2@Class_Microsoft_Singularity_Bitter@@SIPA_WPAUClass_System_String@@@Z 020a0978 f   NetStack.obj
 0001:0009f9c4       ?g_FromString2@Class_Microsoft_Singularity_Bitter@@SIPA_WPAUClass_System_String@@HH@Z 020a09c4 f   NetStack.obj
 0001:0009faf4       ?g_FromString@Class_Microsoft_Singularity_Bitter@@SIPA_WPAUClass_System_String@@@Z 020a0af4 f   NetStack.obj
 0001:0009fb44       ?g_FromByteArray@Class_Microsoft_Singularity_Bitter@@SIXPAEHHPAUClassVector_uint8@@H@Z 020a0b44 f   NetStack.obj
 0001:0009fbe4       ?g_FromByteArray@Class_Microsoft_Singularity_Bitter@@SIPAEPAUClassVector_uint8@@HH@Z 020a0be4 f   NetStack.obj
 0001:0009fc5c       ?g_BoundsCheck@Class_Microsoft_Singularity_Bitter@@SIXPAEHH@Z 020a0c5c f   NetStack.obj
 0001:0009fd24       ?g_BoundsCheck@Class_Microsoft_Singularity_Bitter@@SIXPAUClassVector_uint8@@HH@Z 020a0d24 f   NetStack.obj
 0001:0009fde8       ?m__ctor@Class_Microsoft_Singularity_Bitter@@SIXPAU1@@Z 020a0de8 f   NetStack.obj
 0001:0009fe00       ?m_StructCopy@Struct_Microsoft_Singularity_Eventing_ArrayType@@SIXPAU1@0@Z 020a0e00 f   NetStack.obj
 0001:0009fe50       ?m_StructCopy@Struct_Microsoft_Singularity_Eventing_ArrayType@@SIXPAU1@PAU1@@Z 020a0e50 f   NetStack.obj
 0001:0009ff40       ?m_Equals@Struct_Microsoft_Singularity_Eventing_ArrayType@@SI_NPAU1@PAUClass_System_Object@@@Z 020a0f40 f   NetStack.obj
 0001:0009ffbc       ?m_Equals@Struct_Microsoft_Singularity_Eventing_ArrayType@@SI_NPAUClass_Microsoft_Singularity_Eventing_ArrayType@@PAUClass_System_Object@@@Z 020a0fbc f   NetStack.obj
 0001:0009ffe8       ?m_ToString@uint32@@SIPAUClass_System_String@@PAI@Z 020a0fe8 f   NetStack.obj
 0001:000a0010       ?m_ToString@uint32@@SIPAUClass_System_String@@PAIPAU2@@Z 020a1010 f   NetStack.obj
 0001:000a0058       ?m_ToString@uint32@@SIPAUClass_System_String@@PAUClass_System_UInt32@@@Z 020a1058 f   NetStack.obj
 0001:000a0080       ?m_ToString@uint32@@SIPAUClass_System_String@@PAUClass_System_UInt32@@PAU2@@Z 020a1080 f   NetStack.obj
 0001:000a00ac       ?m_GetHashCode@uint32@@SIHPAI@Z 020a10ac f   NetStack.obj
 0001:000a00cc       ?m_GetHashCode@uint32@@SIHPAUClass_System_UInt32@@@Z 020a10cc f   NetStack.obj
 0001:000a00f4       ?m_Equals@uint32@@SI_NPAIPAUClass_System_Object@@@Z 020a10f4 f   NetStack.obj
 0001:000a0150       ?m_Equals@uint32@@SI_NPAUClass_System_UInt32@@PAUClass_System_Object@@@Z 020a1150 f   NetStack.obj
 0001:000a017c       ?m_CompareTo@uint32@@SIHPAIPAUClass_System_Object@@@Z 020a117c f   NetStack.obj
 0001:000a022c       ?m_CompareTo@uint32@@SIHPAUClass_System_UInt32@@PAUClass_System_Object@@@Z 020a122c f   NetStack.obj
 0001:000a0258       ?m__ctor@Class_System_Reflection_Module@@SIXPAU1@@Z 020a1258 f   NetStack.obj
 0001:000a0274       ?m_StructCopy@Struct_Microsoft_Singularity_Directory_NotifyContract_Imp@@SIXPAU1@0@Z 020a1274 f   NetStack.obj
 0001:000a0350       ?m_StructCopy@Struct_Microsoft_Singularity_Directory_NotifyContract_Imp@@SIXPAU1@PAU1@@Z 020a1350 f   NetStack.obj
 0001:000a05e4       ?m_Peek@Struct_Microsoft_Singularity_Directory_NotifyContract_Imp@@SIHPAU1@@Z 020a15e4 f   NetStack.obj
 0001:000a078c       ?m_HeadMatches@Struct_Microsoft_Singularity_Directory_NotifyContract_Imp@@SI_NPAU1@HPA_NPAPAUClass_System_Object@@@Z 020a178c f   NetStack.obj
 0001:000a084c       ?m_HeadMatches@Struct_Microsoft_Singularity_Directory_NotifyContract_Imp@@SI_NPAUClass_Microsoft_Singularity_Directory_NotifyContract_Imp@@HPA_NPAPAUClass_System_Object@@@Z 020a184c f   NetStack.obj
 0001:000a0884       ?m_Equals@Struct_Microsoft_Singularity_Directory_NotifyContract_Imp@@SI_NPAU1@PAUClass_System_Object@@@Z 020a1884 f   NetStack.obj
