 sc

 Timestamp is 62167214 (Wed Feb 23 18:42:44 2022)

 Preferred load address is 02000000

 Start         Length     Name                   Class
 0001:00000000 00090132H .text                   CODE
 0002:00000000 0000012cH .idata$5                DATA
 0002:00000130 00015aa9H .rdata                  DATA
 0002:00015bdc 00000014H .idata$2                DATA
 0002:00015bf0 00000014H .idata$3                DATA
 0002:00015c04 0000012cH .idata$4                DATA
 0002:00015d30 00001e78H .idata$6                DATA
 0002:00017ba8 00000000H .edata                  DATA
 0002:00017ba8 00000077H .rdata$debug            DATA
 0003:00000000 00031ef0H .data                   DATA
 0003:00031ef0 00000070H .bss                    DATA
 0004:00000000 00000004H .CRT$XCA                DATA
 0004:00000004 00000004H .CRT$XCZ                DATA
 0004:00000008 00000004H .CRT$XIA                DATA
 0004:0000000c 00000004H .CRT$XIZ                DATA
 0004:00000010 00000004H .CRT$XPA                DATA
 0004:00000014 00000004H .CRT$XPZ                DATA
 0004:00000018 00000004H .CRT$XTA                DATA
 0004:0000001c 00000004H .CRT$XTZ                DATA

  Address         Publics by Value              Rva+Base       Lib:Object

 0000:00000000       ___safe_se_handler_table   00000000     <absolute>
 0000:00000000       ___safe_se_handler_count   00000000     <absolute>
 0001:00000000       ?m_Microsoft_SingSharp_ITracked_Release@Class_SurrogateMicrosoft_Singularity_Io_UnicodePipeContract_Exp@@SIXPAU1@@Z 02001000 f   sc.obj
 0001:00000000       C:\Users\cc\source\repos\Singularity-OS\base.obj\AppNativeObj\Debug.x86.MarkSweep\sc_CodeBase 02001000     sc.obj
 0001:00000024       ?m_Microsoft_SingSharp_ITracked_Acquire@Class_SurrogateMicrosoft_Singularity_Io_UnicodePipeContract_Exp@@SIXPAU1@@Z 02001024 f   sc.obj
 0001:00000048       ?m_HeadMatches@Class_SurrogateMicrosoft_Singularity_Io_UnicodePipeContract_Exp@@SI_NPAU1@HPA_NPAPAUClass_System_Object@@@Z 02001048 f   sc.obj
 0001:0000007c       ?m_GetWaitHandle@Class_SurrogateMicrosoft_Singularity_Io_UnicodePipeContract_Exp@@SI?AUStruct_Microsoft_Singularity_V1_Threads_SyncHandle@@PAU1@@Z 0200107c f   sc.obj
 0001:000000a0       ?m_Dispose@Class_SurrogateMicrosoft_Singularity_Io_UnicodePipeContract_Exp@@SIXPAU1@@Z 020010a0 f   sc.obj
 0001:000000c4       ?g__ctor@Class_SurrogateMicrosoft_Singularity_Io_UnicodePipeContract_Exp@@SIXPAU1@PAUStruct_Microsoft_Singularity_Io_UnicodePipeContract_Exp@@@Z 020010c4 f   sc.obj
 0001:000000ec       ?m_StructCopy@Struct_System_UpdateEnlistmentLog_Location@@SIXPAU1@0@Z 020010ec f   sc.obj
 0001:00000120       ?m_StructCopy@Struct_System_UpdateEnlistmentLog_Location@@SIXPAU1@PAU1@@Z 02001120 f   sc.obj
 0001:000001bc       ?m_Equals@Struct_System_UpdateEnlistmentLog_Location@@SI_NPAU1@PAUClass_System_Object@@@Z 020011bc f   sc.obj
 0001:0000021c       ?m_Equals@Struct_System_UpdateEnlistmentLog_Location@@SI_NPAUClass_System_UpdateEnlistmentLog_Location@@PAUClass_System_Object@@@Z 0200121c f   sc.obj
 0001:00000248       ?m__ctor@Struct_System_UpdateEnlistmentLog_Location@@SIXPAU1@PAUClass_System_UpdateEnlistmentLog_LogChunk@@H@Z 02001248 f   sc.obj
 0001:00000278       ?m_StructCopy@Struct_Microsoft_Singularity_Isal_SpillContext@@SIXPAU1@0@Z 02001278 f   sc.obj
 0001:00000354       ?m_StructCopy@Struct_Microsoft_Singularity_Isal_SpillContext@@SIXPAU1@PAU1@@Z 02001354 f   sc.obj
 0001:000005e8       ?m_Equals@Struct_Microsoft_Singularity_Isal_SpillContext@@SI_NPAU1@PAUClass_System_Object@@@Z 020015e8 f   sc.obj
 0001:00000798       ?m_Equals@Struct_Microsoft_Singularity_Isal_SpillContext@@SI_NPAUClass_Microsoft_Singularity_Isal_SpillContext@@PAUClass_System_Object@@@Z 02001798 f   sc.obj
 0001:000007c4       ?m_StructCopy@Struct_Microsoft_Singularity_V1_Threads_MutexHandle@@SIXPAU1@0@Z 020017c4 f   sc.obj
 0001:000007ec       ?m_StructCopy@Struct_Microsoft_Singularity_V1_Threads_MutexHandle@@SIXPAU1@PAU1@@Z 020017ec f   sc.obj
 0001:00000864       ?m_Equals@Struct_Microsoft_Singularity_V1_Threads_MutexHandle@@SI_NPAU1@PAUClass_System_Object@@@Z 02001864 f   sc.obj
 0001:000008ac       ?m_Equals@Struct_Microsoft_Singularity_V1_Threads_MutexHandle@@SI_NPAUClass_Microsoft_Singularity_V1_Threads_MutexHandle@@PAUClass_System_Object@@@Z 020018ac f   sc.obj
 0001:000008d8       ?g_Create@Struct_Microsoft_Singularity_V1_Threads_MutexHandle@@SI_N_NPAU1@@Z 020018d8 f   sc.obj
 0001:00000924       ?m_StructCopy@Struct_System_GCs_OverflowFrameDescriptor@@SIXPAU1@0@Z 02001924 f   sc.obj
 0001:00000958       ?m_StructCopy@Struct_System_GCs_OverflowFrameDescriptor@@SIXPAU1@PAU1@@Z 02001958 f   sc.obj
 0001:000009f4       ?m_Equals@Struct_System_GCs_OverflowFrameDescriptor@@SI_NPAU1@PAUClass_System_Object@@@Z 020019f4 f   sc.obj
 0001:00000a50       ?m_Equals@Struct_System_GCs_OverflowFrameDescriptor@@SI_NPAUClass_System_GCs_OverflowFrameDescriptor@@PAUClass_System_Object@@@Z 02001a50 f   sc.obj
 0001:00000a7c       ?m__ctor@Class_System_Reflection_Module@@SIXPAU1@@Z 02001a7c f   sc.obj
 0001:00000a98       ?m_StructCopy@Struct_Microsoft_Singularity_ServiceManager_ServiceManagerContract_ServiceStatusChanged@@SIXPAU1@0@Z 02001a98 f   sc.obj
 0001:00000ad0       ?m_StructCopy@Struct_Microsoft_Singularity_ServiceManager_ServiceManagerContract_ServiceStatusChanged@@SIXPAU1@PAU1@@Z 02001ad0 f   sc.obj
 0001:00000b78       ?m_Equals@Struct_Microsoft_Singularity_ServiceManager_ServiceManagerContract_ServiceStatusChanged@@SI_NPAU1@PAUClass_System_Object@@@Z 02001b78 f   sc.obj
 0001:00000c30       ?m_Equals@Struct_Microsoft_Singularity_ServiceManager_ServiceManagerContract_ServiceStatusChanged@@SI_NPAUClass_Microsoft_Singularity_ServiceManager_ServiceManagerContract_ServiceStatusChanged@@PAUClass_System_Object@@@Z 02001c30 f   sc.obj
 0001:00000c5c       ?g_StructSize@Class_System_Runtime_InteropServices_Marshal@@SIHPAUClass_System_Type@@@Z 02001c5c f   sc.obj
 0001:00000d1c       ?m__ctor@Class_System_Runtime_InteropServices_Marshal@@SIXPAU1@@Z 02001d1c f   sc.obj
 0001:00000d34       ?m_StructCopy@Struct_System_TryAll@@SIXPAU1@0@Z 02001d34 f   sc.obj
 0001:00000db0       ?m_StructCopy@Struct_System_TryAll@@SIXPAU1@PAU1@@Z 02001db0 f   sc.obj
 0001:00000f24       ?m_Equals@Struct_System_TryAll@@SI_NPAU1@PAUClass_System_Object@@@Z 02001f24 f   sc.obj
 0001:00001218       ?m_Equals@Struct_System_TryAll@@SI_NPAUClass_System_TryAll@@PAUClass_System_Object@@@Z 02002218 f   sc.obj
 0001:00001244       ?m__ctor@Class_System_Threading_ThreadQueue@@SIXPAU1@@Z 02002244 f   sc.obj
 0001:0000125c       ?m_Release@Class_Microsoft_Singularity_Channels_TContainer$_1$LMicrosoft_Singularity_Io_ConsoleOutput$G@@SIXPAU1@PAUClass_Microsoft_Singularity_Io_ConsoleOutput@@@Z 0200225c f   sc.obj
 0001:000012f0       ?m_Finalize@Class_Microsoft_Singularity_Channels_TContainer$_1$LMicrosoft_Singularity_Io_ConsoleOutput$G@@SIXPAU1@@Z 020022f0 f   sc.obj
 0001:0000136c       ?m_Acquire@Class_Microsoft_Singularity_Channels_TContainer$_1$LMicrosoft_Singularity_Io_ConsoleOutput$G@@SIPAUClass_Microsoft_Singularity_Io_ConsoleOutput@@PAU1@@Z 0200236c f   sc.obj
 0001:00001414       ?m__ctor@Class_Microsoft_Singularity_Channels_TContainer$_1$LMicrosoft_Singularity_Io_ConsoleOutput$G@@SIXPAU1@PAUClass_Microsoft_Singularity_Io_ConsoleOutput@@@Z 02002414 f   sc.obj
 0001:000014c8       ?m_StructCopy@Struct_Microsoft_Singularity_Directory_DirectoryServiceContract_NakBindReparse@@SIXPAU1@0@Z 020024c8 f   sc.obj
 0001:00001514       ?m_StructCopy@Struct_Microsoft_Singularity_Directory_DirectoryServiceContract_NakBindReparse@@SIXPAU1@PAU1@@Z 02002514 f   sc.obj
 0001:000015f8       ?m_Equals@Struct_Microsoft_Singularity_Directory_DirectoryServiceContract_NakBindReparse@@SI_NPAU1@PAUClass_System_Object@@@Z 020025f8 f   sc.obj
 0001:00001670       ?m_Equals@Struct_Microsoft_Singularity_Directory_DirectoryServiceContract_NakBindReparse@@SI_NPAUClass_Microsoft_Singularity_Directory_DirectoryServiceContract_NakBindReparse@@PAUClass_System_Object@@@Z 02002670 f   sc.obj
 0001:0000169c       ?m_StructCopy@Struct_Microsoft_Singularity_Directory_DirectoryServiceContract_DeleteDirectory@@SIXPAU1@0@Z 0200269c f   sc.obj
 0001:000016c4       ?m_StructCopy@Struct_Microsoft_Singularity_Directory_DirectoryServiceContract_DeleteDirectory@@SIXPAU1@PAU1@@Z 020026c4 f   sc.obj
 0001:0000173c       ?m_Equals@Struct_Microsoft_Singularity_Directory_DirectoryServiceContract_DeleteDirectory@@SI_NPAU1@PAUClass_System_Object@@@Z 0200273c f   sc.obj
 0001:00001784       ?m_Equals@Struct_Microsoft_Singularity_Directory_DirectoryServiceContract_DeleteDirectory@@SI_NPAUClass_Microsoft_Singularity_Directory_DirectoryServiceContract_DeleteDirectory@@PAUClass_System_Object@@@Z 02002784 f   sc.obj
 0001:000017b0       ?m__ctor@Class_System_Collections_ArrayList@@SIXPAU1@@Z 020027b0 f   sc.obj
 0001:000017e0       ?m_StructCopy@Struct_Microsoft_Singularity_ServiceManager_ServiceManagerContract_Ok@@SIXPAU1@0@Z 020027e0 f   sc.obj
 0001:000017fc       ?m_StructCopy@Struct_Microsoft_Singularity_ServiceManager_ServiceManagerContract_Ok@@SIXPAU1@PAU1@@Z 020027fc f   sc.obj
 0001:00001850       ?m_Equals@Struct_Microsoft_Singularity_ServiceManager_ServiceManagerContract_Ok@@SI_NPAU1@PAUClass_System_Object@@@Z 02002850 f   sc.obj
 0001:00001888       ?m_Equals@Struct_Microsoft_Singularity_ServiceManager_ServiceManagerContract_Ok@@SI_NPAUClass_Microsoft_Singularity_ServiceManager_ServiceManagerContract_Ok@@PAUClass_System_Object@@@Z 02002888 f   sc.obj
 0001:000018b4       ?m_Visit@Class_System_GCs_GCProfiler_ObjectVisitor@@SIPAUuintPtr@@PAU1@PAUClass_System_Object@@@Z 020028b4 f   sc.obj
 0001:0000196c       ?m__ctor@Class_System_GCs_GCProfiler_ObjectVisitor@@SIXPAU1@PAUClass_System_GCs_GCProfiler@@@Z 0200296c f   sc.obj
 0001:000019c8       ?m_UnRegisterStorage@Class_Microsoft_Singularity_Eventing_LocalController@@SIXPAU1@PAUClass_Microsoft_Singularity_Eventing_EventingStorage@@@Z 020029c8 f   sc.obj
 0001:00001a28       ?m_UnRegisterSource@Class_Microsoft_Singularity_Eventing_LocalController@@SIXPAU1@PAUClass_Microsoft_Singularity_Eventing_EventSource@@@Z 02002a28 f   sc.obj
 0001:00001ac0       ?m_RegisterStorage@Class_Microsoft_Singularity_Eventing_LocalController@@SI_NPAU1@PAUClass_Microsoft_Singularity_Eventing_EventingStorage@@@Z 02002ac0 f   sc.obj
 0001:00001b2c       ?m_RegisterSource@Class_Microsoft_Singularity_Eventing_LocalController@@SI_NPAU1@PAUClass_Microsoft_Singularity_Eventing_EventSource@@@Z 02002b2c f   sc.obj
 0001:00001d94       ?m_Initialize@Class_Microsoft_Singularity_Eventing_LocalController@@SIXPAU1@@Z 02002d94 f   sc.obj
 0001:000021cc       ?m_GetNativeSourceName@Class_Microsoft_Singularity_Eventing_LocalController@@SI_NPAU1@PAUuintPtr@@PAPAU2@PAPAUClass_System_String@@@Z 020031cc f   sc.obj
 0001:00002314       ?m__ctor@Class_Microsoft_Singularity_Eventing_LocalController@@SIXPAU1@@Z 02003314 f   sc.obj
 0001:00002338       ?g__cctor@Class_Microsoft_Singularity_Eventing_LocalController@@SIXXZ 02003338 f   sc.obj
 0001:00002360       ?m_StructCopy@Struct_Microsoft_Singularity_V1_Services_SharedHeapService_Allocation@@SIXPAU1@0@Z 02003360 f   sc.obj
 0001:000023c4       ?m_StructCopy@Struct_Microsoft_Singularity_V1_Services_SharedHeapService_Allocation@@SIXPAU1@PAU1@@Z 020033c4 f   sc.obj
 0001:000024f0       ?m_Equals@Struct_Microsoft_Singularity_V1_Services_SharedHeapService_Allocation@@SI_NPAU1@PAUClass_System_Object@@@Z 020034f0 f   sc.obj
 0001:00002580       ?m_Equals@Struct_Microsoft_Singularity_V1_Services_SharedHeapService_Allocation@@SI_NPAUClass_Microsoft_Singularity_V1_Services_SharedHeapService_Allocation@@PAUClass_System_Object@@@Z 02003580 f   sc.obj
 0001:000025ac       ?m__ctor@Class_System_IndexOutOfRangeException@@SIXPAU1@@Z 020035ac f   sc.obj
 0001:000025d4       ?m__ctor@Class_System_IndexOutOfRangeException@@SIXPAU1@PAUClass_System_String@@@Z 020035d4 f   sc.obj
 0001:000025fc       ?m__ctor@Class_System_IndexOutOfRangeException@@SIXPAU1@PAUClass_System_String@@PAUClass_System_Exception@@@Z 020035fc f   sc.obj
 0001:0000262c       ?m_Visit@Class_System_GCs_MemoryAccounting_StaticPtrAccounting@@SIXPAU1@PAPAUuintPtr@@@Z 0200362c f   sc.obj
 0001:00002648       ?m_Initialize@Class_System_GCs_MemoryAccounting_StaticPtrAccounting@@SIXPAU1@@Z 02003648 f   sc.obj
 0001:00002660       ?m__ctor@Class_System_GCs_MemoryAccounting_StaticPtrAccounting@@SIXPAU1@@Z 02003660 f   sc.obj
 0001:00002678       ?m__ctor@Class_System_Runtime_CompilerServices_NoBarriersAttribute@@SIXPAU1@@Z 02003678 f   sc.obj
 0001:0000269c       ?m__ctor@Class_System_RankException@@SIXPAU1@@Z 0200369c f   sc.obj
 0001:000026c4       ?m__ctor@Class_System_RankException@@SIXPAU1@PAUClass_System_String@@@Z 020036c4 f   sc.obj
 0001:000026ec       ?m_Update@Class_Microsoft_Singularity_Crypto_MD5@@SIXPAU1@PAUClassVector_uint8@@@Z 020036ec f   sc.obj
 0001:00002c1c       ?m_RotL@Class_Microsoft_Singularity_Crypto_MD5@@SIIPAU1@IE@Z 02003c1c f   sc.obj
 0001:00002c8c       ?m_Reset@Class_Microsoft_Singularity_Crypto_MD5@@SIXPAU1@@Z 02003c8c f   sc.obj
 0001:00002d60       ?m_ProcessBlock@Class_Microsoft_Singularity_Crypto_MD5@@SIXPAU1@@Z 02003d60 f   sc.obj
 0001:000037d4       ?m_Hash@Class_Microsoft_Singularity_Crypto_MD5@@SIPAUClassVector_uint8@@PAU1@PAU2@@Z 020047d4 f   sc.obj
 0001:0000380c       ?m_Finish@Class_Microsoft_Singularity_Crypto_MD5@@SIPAUClassVector_uint8@@PAU1@@Z 0200480c f   sc.obj
 0001:00003a50       ?m__ctor@Class_Microsoft_Singularity_Crypto_MD5@@SIXPAU1@@Z 02004a50 f   sc.obj
 0001:00003aa8       ?g__cctor@Class_Microsoft_Singularity_Crypto_MD5@@SIXXZ 02004aa8 f   sc.obj
 0001:00003abc       ?m_InvokeStaticStub@Class_System_TryAllManager_GCHookMethod@@SIXPAU1@@Z 02004abc f   sc.obj
 0001:00003ae4       ?m_Invoke@Class_System_TryAllManager_GCHookMethod@@SIXPAU1@@Z 02004ae4 f   sc.obj
 0001:00003b38       ?m_EndInvoke@Class_System_TryAllManager_GCHookMethod@@SIXPAU1@PAUClass_System_IAsyncResult@@@Z 02004b38 f   sc.obj
 0001:00003b54       ?m_BeginInvoke@Class_System_TryAllManager_GCHookMethod@@SIPAUClass_System_IAsyncResult@@PAU1@PAUClass_System_AsyncCallback@@PAUClass_System_Object@@@Z 02004b54 f   sc.obj
 0001:00003b74       ?m__ctor@Class_System_TryAllManager_GCHookMethod@@SIXPAU1@PAUClass_System_Object@@PAUintPtr@@@Z 02004b74 f   sc.obj
 0001:00003bb4       ?m__ctor@Class_Microsoft_Singularity_Eventing_DataType@@SIXPAU1@@Z 02004bb4 f   sc.obj
 0001:00003bd0       ?m_StructCopy@Struct_Microsoft_Singularity_Directory_NotifyContract_AckChangeNotification@@SIXPAU1@0@Z 02004bd0 f   sc.obj
 0001:00003bec       ?m_StructCopy@Struct_Microsoft_Singularity_Directory_NotifyContract_AckChangeNotification@@SIXPAU1@PAU1@@Z 02004bec f   sc.obj
 0001:00003c40       ?m_Equals@Struct_Microsoft_Singularity_Directory_NotifyContract_AckChangeNotification@@SI_NPAU1@PAUClass_System_Object@@@Z 02004c40 f   sc.obj
 0001:00003c78       ?m_Equals@Struct_Microsoft_Singularity_Directory_NotifyContract_AckChangeNotification@@SI_NPAUClass_Microsoft_Singularity_Directory_NotifyContract_AckChangeNotification@@PAUClass_System_Object@@@Z 02004c78 f   sc.obj
 0001:00003ca4       ?m_StructCopy@Struct_Microsoft_Singularity_ServiceManager_ServiceManagerContract_ServiceStarting@@SIXPAU1@0@Z 02004ca4 f   sc.obj
 0001:00003cc0       ?m_StructCopy@Struct_Microsoft_Singularity_ServiceManager_ServiceManagerContract_ServiceStarting@@SIXPAU1@PAU1@@Z 02004cc0 f   sc.obj
 0001:00003d14       ?m_Equals@Struct_Microsoft_Singularity_ServiceManager_ServiceManagerContract_ServiceStarting@@SI_NPAU1@PAUClass_System_Object@@@Z 02004d14 f   sc.obj
 0001:00003d4c       ?m_Equals@Struct_Microsoft_Singularity_ServiceManager_ServiceManagerContract_ServiceStarting@@SI_NPAUClass_Microsoft_Singularity_ServiceManager_ServiceManagerContract_ServiceStarting@@PAUClass_System_Object@@@Z 02004d4c f   sc.obj
 0001:00003d78       ?g_ScanStaticPointerData@Class_System_GCs_StaticData@@SIIPAUClass_System_GCs_NonNullReferenceVisitor@@@Z 02004d78 f   sc.obj
 0001:00003f60       ?g_ScanStaticData@Class_System_GCs_StaticData@@SIXPAUClass_System_GCs_DirectReferenceVisitor@@@Z 02004f60 f   sc.obj
 0001:00004108       ?g_Initialize@Class_System_GCs_StaticData@@SIXXZ 02005108 f   sc.obj
 0001:0000437c       ?m__ctor@Class_System_GCs_StaticData@@SIXPAU1@@Z 0200537c f   sc.obj
 0001:00004394       ?m_ToString@Struct_System_DateTime@@SIPAUClass_System_String@@PAU1@@Z 02005394 f   sc.obj
 0001:000043bc       ?m_ToString@Struct_System_DateTime@@SIPAUClass_System_String@@PAU1@PAU2@@Z 020053bc f   sc.obj
 0001:000046f0       ?m_ToString@Struct_System_DateTime@@SIPAUClass_System_String@@PAUClass_System_DateTime@@@Z 020056f0 f   sc.obj
 0001:00004738       ?m_ToString@Struct_System_DateTime@@SIPAUClass_System_String@@PAUClass_System_DateTime@@PAU2@@Z 02005738 f   sc.obj
 0001:00004784       ?m_StructCopy@Struct_System_DateTime@@SIXPAU1@0@Z 02005784 f   sc.obj
 0001:000047b8       ?m_StructCopy@Struct_System_DateTime@@SIXPAU1@PAU1@@Z 020057b8 f   sc.obj
 0001:00004854       ?m_GetShortWeekday@Struct_System_DateTime@@SIPAUClass_System_String@@PAU1@@Z 02005854 f   sc.obj
 0001:000048b8       ?m_GetShortMonth@Struct_System_DateTime@@SIPAUClass_System_String@@PAU1@@Z 020058b8 f   sc.obj
 0001:00004944       ?m_GetHashCode@Struct_System_DateTime@@SIHPAU1@@Z 02005944 f   sc.obj
 0001:00004970       ?m_GetHashCode@Struct_System_DateTime@@SIHPAUClass_System_DateTime@@@Z 02005970 f   sc.obj
 0001:000049b8       ?m_GetDatePart@Struct_System_DateTime@@SIHPAU1@H@Z 020059b8 f   sc.obj
 0001:00004c10       ?m_get$_Year@Struct_System_DateTime@@SIHPAU1@@Z 02005c10 f   sc.obj
 0001:00004c38       ?m_get$_Second@Struct_System_DateTime@@SIHPAU1@@Z 02005c38 f   sc.obj
 0001:00004c78       ?m_get$_Month@Struct_System_DateTime@@SIHPAU1@@Z 02005c78 f   sc.obj
 0001:00004ca0       ?m_get$_Minute@Struct_System_DateTime@@SIHPAU1@@Z 02005ca0 f   sc.obj
 0001:00004ce0       ?m_get$_Hour@Struct_System_DateTime@@SIHPAU1@@Z 02005ce0 f   sc.obj
 0001:00004d20       ?m_get$_DayOfWeek@Struct_System_DateTime@@SI?AUStruct_System_DayOfWeek@@PAU1@@Z 02005d20 f   sc.obj
 0001:00004d6c       ?m_get$_Day@Struct_System_DateTime@@SIHPAU1@@Z 02005d6c f   sc.obj
 0001:00004d94       ?m_Equals@Struct_System_DateTime@@SI_NPAU1@PAUClass_System_Object@@@Z 02005d94 f   sc.obj
 0001:00004e0c       ?m_Equals@Struct_System_DateTime@@SI_NPAUClass_System_DateTime@@PAUClass_System_Object@@@Z 02005e0c f   sc.obj
 0001:00004e58       ?m_CompareTo@Struct_System_DateTime@@SIHPAU1@PAUClass_System_Object@@@Z 02005e58 f   sc.obj
 0001:00004f44       ?m_CompareTo@Struct_System_DateTime@@SIHPAUClass_System_DateTime@@PAUClass_System_Object@@@Z 02005f44 f   sc.obj
 0001:00004f90       ?m__ctor@Struct_System_DateTime@@SIXPAU1@_J@Z 02005f90 f   sc.obj
 0001:0000502c       ?g__cctor@Struct_System_DateTime@@SIXXZ 0200602c f   sc.obj
 0001:000050a8       ?m__ctor@Class_Microsoft_Contracts_AssertException@@SIXPAU1@@Z 020060a8 f   sc.obj
 0001:000050cc       ?m_StructCopy@Struct_System_GCs_FrameDescriptor@@SIXPAU1@0@Z 020060cc f   sc.obj
 0001:0000516c       ?m_StructCopy@Struct_System_GCs_FrameDescriptor@@SIXPAU1@PAU1@@Z 0200616c f   sc.obj
 0001:0000534c       ?m_Equals@Struct_System_GCs_FrameDescriptor@@SI_NPAU1@PAUClass_System_Object@@@Z 0200634c f   sc.obj
 0001:00005424       ?m_Equals@Struct_System_GCs_FrameDescriptor@@SI_NPAUClass_System_GCs_FrameDescriptor@@PAUClass_System_Object@@@Z 02006424 f   sc.obj
 0001:00005450       ?m__ctor@Struct_System_GCs_FrameDescriptor@@SIXPAU1@UStruct_System_GCs_CompressedFrameDescriptor@@@Z 02006450 f   sc.obj
 0001:000056b0       ?m_StructCopy@Struct_System_ReadEnlistmentLogWriter@@SIXPAU1@0@Z 020066b0 f   sc.obj
 0001:000056e4       ?m_StructCopy@Struct_System_ReadEnlistmentLogWriter@@SIXPAU1@PAU1@@Z 020066e4 f   sc.obj
 0001:00005780       ?m_Equals@Struct_System_ReadEnlistmentLogWriter@@SI_NPAU1@PAUClass_System_Object@@@Z 02006780 f   sc.obj
 0001:000057dc       ?m_Equals@Struct_System_ReadEnlistmentLogWriter@@SI_NPAUClass_System_ReadEnlistmentLogWriter@@PAUClass_System_Object@@@Z 020067dc f   sc.obj
 0001:00005808       ?m_StructCopy@Struct_System_Collections_Hashtable_bucket@@SIXPAU1@0@Z 02006808 f   sc.obj
 0001:00005848       ?m_StructCopy@Struct_System_Collections_Hashtable_bucket@@SIXPAU1@PAU1@@Z 02006848 f   sc.obj
 0001:00005908       ?m_Equals@Struct_System_Collections_Hashtable_bucket@@SI_NPAU1@PAUClass_System_Object@@@Z 02006908 f   sc.obj
 0001:0000597c       ?m_Equals@Struct_System_Collections_Hashtable_bucket@@SI_NPAUClass_System_Collections_Hashtable_bucket@@PAUClass_System_Object@@@Z 0200697c f   sc.obj
 0001:000059a8       ?g_Summary@Class_System_GCs_CollectorStatistics@@SIXXZ 020069a8 f   sc.obj
 0001:000059bc       ?g_Initialize@Class_System_GCs_CollectorStatistics@@SIXXZ 020069bc f   sc.obj
 0001:000059d0       ?g_Event@Class_System_GCs_CollectorStatistics@@SIXUStruct_System_GCs_GCEvent@@@Z 020069d0 f   sc.obj
 0001:000059ec       ?g_Event@Class_System_GCs_CollectorStatistics@@SIXUStruct_System_GCs_GCEvent@@_J@Z 020069ec f   sc.obj
 0001:00005a08       ?m__ctor@Class_System_GCs_CollectorStatistics@@SIXPAU1@@Z 02006a08 f   sc.obj
 0001:00005a20       ?m_AppMain@Class_Microsoft_Singularity_Applications_ServiceManager_TerminateServiceCommand@@SIHPAU1@@Z 02006a20 f   sc.obj
 0001:00005cb8       ?m__ctor@Class_Microsoft_Singularity_Applications_ServiceManager_TerminateServiceCommand@@SIXPAU1@@Z 02006cb8 f   sc.obj
 0001:00005ed0       ?g__cctor@Class_Microsoft_Singularity_Applications_ServiceManager_TerminateServiceCommand@@SIXXZ 02006ed0 f   sc.obj
 0001:00005f40       ?m_StructCopy@Struct_System_RuntimeTypeHandle@@SIXPAU1@0@Z 02006f40 f   sc.obj
 0001:00005f68       ?m_StructCopy@Struct_System_RuntimeTypeHandle@@SIXPAU1@PAU1@@Z 02006f68 f   sc.obj
 0001:00005fe0       ?m_get$_Value@Struct_System_RuntimeTypeHandle@@SIPAUintPtr@@PAU1@@Z 02006fe0 f   sc.obj
 0001:00006000       ?m_Equals@Struct_System_RuntimeTypeHandle@@SI_NPAU1@PAUClass_System_Object@@@Z 02007000 f   sc.obj
 0001:00006048       ?m_Equals@Struct_System_RuntimeTypeHandle@@SI_NPAUClass_System_RuntimeTypeHandle@@PAUClass_System_Object@@@Z 02007048 f   sc.obj
 0001:00006074       ?m__ctor@Struct_System_RuntimeTypeHandle@@SIXPAU1@PAUClass_System_RuntimeType@@@Z 02007074 f   sc.obj
 0001:0000609c       ?m_StructCopy@Struct_Microsoft_Singularity_Directory_DirectoryServiceContract_NakDeleteFileReparse@@SIXPAU1@0@Z 0200709c f   sc.obj
 0001:000060dc       ?m_StructCopy@Struct_Microsoft_Singularity_Directory_DirectoryServiceContract_NakDeleteFileReparse@@SIXPAU1@PAU1@@Z 020070dc f   sc.obj
 0001:0000619c       ?m_Equals@Struct_Microsoft_Singularity_Directory_DirectoryServiceContract_NakDeleteFileReparse@@SI_NPAU1@PAUClass_System_Object@@@Z 0200719c f   sc.obj
 0001:00006204       ?m_Equals@Struct_Microsoft_Singularity_Directory_DirectoryServiceContract_NakDeleteFileReparse@@SI_NPAUClass_Microsoft_Singularity_Directory_DirectoryServiceContract_NakDeleteFileReparse@@PAUClass_System_Object@@@Z 02007204 f   sc.obj
 0001:00006230       ?m_StructCopy@Struct_Microsoft_Singularity_Directory_DirectoryServiceContract_NakDeregister@@SIXPAU1@0@Z 02007230 f   sc.obj
 0001:00006258       ?m_StructCopy@Struct_Microsoft_Singularity_Directory_DirectoryServiceContract_NakDeregister@@SIXPAU1@PAU1@@Z 02007258 f   sc.obj
 0001:000062d0       ?m_Equals@Struct_Microsoft_Singularity_Directory_DirectoryServiceContract_NakDeregister@@SI_NPAU1@PAUClass_System_Object@@@Z 020072d0 f   sc.obj
 0001:00006370       ?m_Equals@Struct_Microsoft_Singularity_Directory_DirectoryServiceContract_NakDeregister@@SI_NPAUClass_Microsoft_Singularity_Directory_DirectoryServiceContract_NakDeregister@@PAUClass_System_Object@@@Z 02007370 f   sc.obj
 0001:0000639c       ?g_Create@Class_Microsoft_Singularity_GCProfilerLogger_GCEventSource@@SIPAU1@PAUClass_System_String@@I_K@Z 0200739c f   sc.obj
 0001:00006470       ?m__ctor@Class_Microsoft_Singularity_GCProfilerLogger_GCEventSource@@SIXPAU1@PAUClass_System_String@@PAUClass_Microsoft_Singularity_Eventing_EventingStorage@@I@Z 02007470 f   sc.obj
 0001:000064a4       ?m_WorkerRoutine@Class_Microsoft_Singularity_ImpatientWatcher@@SIXPAU1@@Z 020074a4 f   sc.obj
 0001:00006590       ?m_NextStep@Class_Microsoft_Singularity_ImpatientWatcher@@SIXPAU1@PAUClass_System_String@@UStruct_System_TimeSpan@@@Z 02007590 f   sc.obj
 0001:00006604       ?m_NextStep@Class_Microsoft_Singularity_ImpatientWatcher@@SIXPAU1@PAUClass_System_String@@H@Z 02007604 f   sc.obj
 0001:0000667c       ?m_Dispose@Class_Microsoft_Singularity_ImpatientWatcher@@SIXPAU1@@Z 0200767c f   sc.obj
 0001:00006700       ?m_Dbg@Class_Microsoft_Singularity_ImpatientWatcher@@SIXPAU1@PAUClass_System_String@@@Z 02007700 f   sc.obj
 0001:00006734       ?m_Dbg@Class_Microsoft_Singularity_ImpatientWatcher@@SIXPAU1@PAUClass_System_String@@PAUClassVector_Class_System_Object@@@Z 02007734 f   sc.obj
 0001:00006768       ?m__ctor@Class_Microsoft_Singularity_ImpatientWatcher@@SIXPAU1@PAUClass_System_String@@1UStruct_System_TimeSpan@@@Z 02007768 f   sc.obj
 0001:00006834       ?m__ctor@Class_Microsoft_Singularity_ImpatientWatcher@@SIXPAU1@PAUClass_System_String@@1H@Z 02007834 f   sc.obj
 0001:000068b0       ?m_StructCopy@Struct_Microsoft_Singularity_Directory_ServiceProviderContract_AckConnect@@SIXPAU1@0@Z 020078b0 f   sc.obj
 0001:000068cc       ?m_StructCopy@Struct_Microsoft_Singularity_Directory_ServiceProviderContract_AckConnect@@SIXPAU1@PAU1@@Z 020078cc f   sc.obj
 0001:00006920       ?m_Equals@Struct_Microsoft_Singularity_Directory_ServiceProviderContract_AckConnect@@SI_NPAU1@PAUClass_System_Object@@@Z 02007920 f   sc.obj
 0001:00006958       ?m_Equals@Struct_Microsoft_Singularity_Directory_ServiceProviderContract_AckConnect@@SI_NPAUClass_Microsoft_Singularity_Directory_ServiceProviderContract_AckConnect@@PAUClass_System_Object@@@Z 02007958 f   sc.obj
 0001:00006984       ?m_StructCopy@Struct_System_UpdateEnlistmentLog_Entry@@SIXPAU1@0@Z 02007984 f   sc.obj
 0001:00006a08       ?m_StructCopy@Struct_System_UpdateEnlistmentLog_Entry@@SIXPAU1@PAU1@@Z 02007a08 f   sc.obj
 0001:00006b94       ?m_Equals@Struct_System_UpdateEnlistmentLog_Entry@@SI_NPAU1@PAUClass_System_Object@@@Z 02007b94 f   sc.obj
 0001:00006d0c       ?m_Equals@Struct_System_UpdateEnlistmentLog_Entry@@SI_NPAUClass_System_UpdateEnlistmentLog_Entry@@PAUClass_System_Object@@@Z 02007d0c f   sc.obj
 0001:00006d38       ?m_WaitOne@Class_System_Threading_ManualResetEvent@@SI_NPAU1@@Z 02007d38 f   sc.obj
 0001:00006dac       ?m_WaitOne@Class_System_Threading_ManualResetEvent@@SI_NPAU1@UStruct_System_SchedulerTime@@@Z 02007dac f   sc.obj
 0001:00006e34       ?m_Set@Class_System_Threading_ManualResetEvent@@SI_NPAU1@@Z 02007e34 f   sc.obj
 0001:00006e80       ?m_Reset@Class_System_Threading_ManualResetEvent@@SIXPAU1@@Z 02007e80 f   sc.obj
 0001:00006eb8       ?m_Finalize@Class_System_Threading_ManualResetEvent@@SIXPAU1@@Z 02007eb8 f   sc.obj
 0001:00006f1c       ?m_Dispose@Class_System_Threading_ManualResetEvent@@SIXPAU1@_N@Z 02007f1c f   sc.obj
 0001:00006f68       ?m__ctor@Class_System_Threading_ManualResetEvent@@SIXPAU1@_N@Z 02007f68 f   sc.obj
 0001:00006fd4       ?g_AssertNotNullImplicit@Class_Microsoft_Contracts_NonNullType@@SIXPAUuintPtr@@@Z 02007fd4 f   sc.obj
 0001:0000702c       ?g_AssertNotNullImplicit@Class_Microsoft_Contracts_NonNullType@@SIXPAUClass_System_Object@@@Z 0200802c f   sc.obj
 0001:0000707c       ?g_AssertNotNull@Class_Microsoft_Contracts_NonNullType@@SIXPAUuintPtr@@@Z 0200807c f   sc.obj
 0001:000070d4       ?g_AssertNotNull@Class_Microsoft_Contracts_NonNullType@@SIXPAUClass_System_Object@@@Z 020080d4 f   sc.obj
 0001:00007124       ?m__ctor@Class_Microsoft_Contracts_NonNullType@@SIXPAU1@@Z 02008124 f   sc.obj
 0001:0000713c       ?m_StructCopy@Struct_Microsoft_Singularity_Directory_DirectoryServiceContract_AckNotify@@SIXPAU1@0@Z 0200813c f   sc.obj
 0001:00007158       ?m_StructCopy@Struct_Microsoft_Singularity_Directory_DirectoryServiceContract_AckNotify@@SIXPAU1@PAU1@@Z 02008158 f   sc.obj
 0001:000071ac       ?m_Equals@Struct_Microsoft_Singularity_Directory_DirectoryServiceContract_AckNotify@@SI_NPAU1@PAUClass_System_Object@@@Z 020081ac f   sc.obj
 0001:000071e4       ?m_Equals@Struct_Microsoft_Singularity_Directory_DirectoryServiceContract_AckNotify@@SI_NPAUClass_Microsoft_Singularity_Directory_DirectoryServiceContract_AckNotify@@PAUClass_System_Object@@@Z 020081e4 f   sc.obj
 0001:00007210       ?m__ctor@Class_System_NullReferenceException@@SIXPAU1@@Z 02008210 f   sc.obj
 0001:00007238       ?m__ctor@Class_System_NullReferenceException@@SIXPAU1@PAUClass_System_String@@@Z 02008238 f   sc.obj
 0001:00007260       ?m__ctor@Class_System_NullReferenceException@@SIXPAU1@PAUClass_System_String@@PAUClass_System_Exception@@@Z 02008260 f   sc.obj
 0001:00007290       ?m_StructCopy@Struct_Microsoft_Singularity_V1_Threads_ManualResetEventHandle@@SIXPAU1@0@Z 02008290 f   sc.obj
 0001:000072b8       ?m_StructCopy@Struct_Microsoft_Singularity_V1_Threads_ManualResetEventHandle@@SIXPAU1@PAU1@@Z 020082b8 f   sc.obj
 0001:00007330       ?m_Equals@Struct_Microsoft_Singularity_V1_Threads_ManualResetEventHandle@@SI_NPAU1@PAUClass_System_Object@@@Z 02008330 f   sc.obj
 0001:00007378       ?m_Equals@Struct_Microsoft_Singularity_V1_Threads_ManualResetEventHandle@@SI_NPAUClass_Microsoft_Singularity_V1_Threads_ManualResetEventHandle@@PAUClass_System_Object@@@Z 02008378 f   sc.obj
 0001:000073a4       ?g_Create@Struct_Microsoft_Singularity_V1_Threads_ManualResetEventHandle@@SI_N_NPAU1@@Z 020083a4 f   sc.obj
 0001:000073f0       ?m__ctor@Class_Microsoft_Singularity_Tracing@@SIXPAU1@@Z 020083f0 f   sc.obj
 0001:0000740c       ?m_StructCopy@Struct_System_GCs_CallStack_TransitionRecord@@SIXPAU1@0@Z 0200840c f   sc.obj
 0001:0000745c       ?m_StructCopy@Struct_System_GCs_CallStack_TransitionRecord@@SIXPAU1@PAU1@@Z 0200845c f   sc.obj
 0001:0000754c       ?m_Equals@Struct_System_GCs_CallStack_TransitionRecord@@SI_NPAU1@PAUClass_System_Object@@@Z 0200854c f   sc.obj
 0001:00007668       ?m_Equals@Struct_System_GCs_CallStack_TransitionRecord@@SI_NPAUClass_System_GCs_CallStack_TransitionRecord@@PAUClass_System_Object@@@Z 02008668 f   sc.obj
 0001:00007694       ?m__ctor@Class_System_OutOfMemoryException@@SIXPAU1@@Z 02008694 f   sc.obj
 0001:000076bc       ?m__ctor@Class_System_OutOfMemoryException@@SIXPAU1@PAUClass_System_String@@@Z 020086bc f   sc.obj
 0001:000076e4       ?m__ctor@Class_System_OutOfMemoryException@@SIXPAU1@PAUClass_System_String@@PAUClass_System_Exception@@@Z 020086e4 f   sc.obj
 0001:00007714       ?m_ZeroIfMustBeQuiescent@Struct_System_MultiUseWord_STMSnapshot@@SIIPAU1@@Z 02008714 f   sc.obj
 0001:0000773c       ?m_Visit@Struct_System_MultiUseWord_STMSnapshot@@SIXPAU1@PAUClass_System_GCs_DirectReferenceVisitor@@@Z 0200873c f   sc.obj
 0001:000078f8       ?m_StructCopy@Struct_System_MultiUseWord_STMSnapshot@@SIXPAU1@0@Z 020088f8 f   sc.obj
 0001:00007920       ?m_StructCopy@Struct_System_MultiUseWord_STMSnapshot@@SIXPAU1@PAU1@@Z 02008920 f   sc.obj
 0001:00007998       ?m_GetSTMWord@Struct_System_MultiUseWord_STMSnapshot@@SI?AUStruct_System_STMWord@@PAU1@@Z 02008998 f   sc.obj
 0001:00007a44       ?m_Equals@Struct_System_MultiUseWord_STMSnapshot@@SI_NPAU1@PAUClass_System_Object@@@Z 02008a44 f   sc.obj
 0001:00007a8c       ?m_Equals@Struct_System_MultiUseWord_STMSnapshot@@SI_NPAUClass_System_MultiUseWord_STMSnapshot@@PAUClass_System_Object@@@Z 02008a8c f   sc.obj
 0001:00007ab8       ?m_Eq@Struct_System_MultiUseWord_STMSnapshot@@SI_NPAU1@U1@@Z 02008ab8 f   sc.obj
 0001:00007ae4       ?m__ctor@Struct_System_MultiUseWord_STMSnapshot@@SIXPAU1@UStruct_System_MultiUseWord@@@Z 02008ae4 f   sc.obj
 0001:00007b0c       ?m_Microsoft_SingSharp_ITracked_Release@Class_SurrogateMicrosoft_Singularity_Directory_DirectoryServiceContract_Imp@@SIXPAU1@@Z 02008b0c f   sc.obj
 0001:00007b30       ?m_Microsoft_SingSharp_ITracked_Acquire@Class_SurrogateMicrosoft_Singularity_Directory_DirectoryServiceContract_Imp@@SIXPAU1@@Z 02008b30 f   sc.obj
 0001:00007b54       ?m_HeadMatches@Class_SurrogateMicrosoft_Singularity_Directory_DirectoryServiceContract_Imp@@SI_NPAU1@HPA_NPAPAUClass_System_Object@@@Z 02008b54 f   sc.obj
 0001:00007b88       ?m_GetWaitHandle@Class_SurrogateMicrosoft_Singularity_Directory_DirectoryServiceContract_Imp@@SI?AUStruct_Microsoft_Singularity_V1_Threads_SyncHandle@@PAU1@@Z 02008b88 f   sc.obj
 0001:00007bac       ?m_Dispose@Class_SurrogateMicrosoft_Singularity_Directory_DirectoryServiceContract_Imp@@SIXPAU1@@Z 02008bac f   sc.obj
 0001:00007bd0       ?g__ctor@Class_SurrogateMicrosoft_Singularity_Directory_DirectoryServiceContract_Imp@@SIXPAU1@PAUStruct_Microsoft_Singularity_Directory_DirectoryServiceContract_Imp@@@Z 02008bd0 f   sc.obj
 0001:00007bf8       ?m_StructCopy@Struct_Microsoft_Singularity_Directory_DirectoryServiceContract_NakCreateLink@@SIXPAU1@0@Z 02008bf8 f   sc.obj
 0001:00007c20       ?m_StructCopy@Struct_Microsoft_Singularity_Directory_DirectoryServiceContract_NakCreateLink@@SIXPAU1@PAU1@@Z 02008c20 f   sc.obj
 0001:00007c98       ?m_Equals@Struct_Microsoft_Singularity_Directory_DirectoryServiceContract_NakCreateLink@@SI_NPAU1@PAUClass_System_Object@@@Z 02008c98 f   sc.obj
 0001:00007d38       ?m_Equals@Struct_Microsoft_Singularity_Directory_DirectoryServiceContract_NakCreateLink@@SI_NPAUClass_Microsoft_Singularity_Directory_DirectoryServiceContract_NakCreateLink@@PAUClass_System_Object@@@Z 02008d38 f   sc.obj
 0001:00007d64       ?g_WatchService@Class_Microsoft_Singularity_Applications_ServiceManager_SMSClient@@SIHPAUClass_System_String@@@Z 02008d64 f   sc.obj
 0001:00008100       ?g_ToString@Class_Microsoft_Singularity_Applications_ServiceManager_SMSClient@@SIPAUClass_System_String@@PA_W@Z 02009100 f   sc.obj
 0001:00008150       ?g_StopService@Class_Microsoft_Singularity_Applications_ServiceManager_SMSClient@@SIHPAUClass_System_String@@_N@Z 02009150 f   sc.obj
 0001:00008594       ?g_StartService@Class_Microsoft_Singularity_Applications_ServiceManager_SMSClient@@SIHPAUClass_System_String@@_N@Z 02009594 f   sc.obj
 0001:000089b4       ?g_ShowStatusDetailed@Class_Microsoft_Singularity_Applications_ServiceManager_SMSClient@@SIXUStruct_Microsoft_Singularity_ServiceManager_ServiceStatus@@@Z 020099b4 f   sc.obj
 0001:00008b08       ?g_ShowServiceError@Class_Microsoft_Singularity_Applications_ServiceManager_SMSClient@@SIXUStruct_Microsoft_Singularity_ServiceManager_ServiceError@@@Z 02009b08 f   sc.obj
 0001:00008b3c       ?g_ShowConfigDetailed@Class_Microsoft_Singularity_Applications_ServiceManager_SMSClient@@SIXUStruct_Microsoft_Singularity_ServiceManager_ServiceConfig@@@Z 02009b3c f   sc.obj
 0001:00008de4       ?g_SelectService@Class_Microsoft_Singularity_Applications_ServiceManager_SMSClient@@SI?AUStruct_Microsoft_Singularity_ServiceManager_ServiceError@@PAUStruct_Microsoft_Singularity_ServiceManager_ServiceManagerContract_Imp@@PAUClass_System_String@@@Z 02009de4 f   sc.obj
 0001:00008f60       ?g_ListServices@Class_Microsoft_Singularity_Applications_ServiceManager_SMSClient@@SIXPAUStruct_Microsoft_Singularity_ServiceManager_ServiceInfo@@H@Z 02009f60 f   sc.obj
 0001:00009160       ?g_ListServices@Class_Microsoft_Singularity_Applications_ServiceManager_SMSClient@@SIHPAUClass_Microsoft_Singularity_Applications_ServiceManager_ListConfig@@@Z 0200a160 f   sc.obj
 0001:000095a8       ?g_ConnectServiceManager@Class_Microsoft_Singularity_Applications_ServiceManager_SMSClient@@SIPAUStruct_Microsoft_Singularity_ServiceManager_ServiceManagerContract_Imp@@XZ 0200a5a8 f   sc.obj
 0001:00009804       ?m__ctor@Class_Microsoft_Singularity_Applications_ServiceManager_SMSClient@@SIXPAU1@@Z 0200a804 f   sc.obj
 0001:0000981c       ?g__cctor@Class_Microsoft_Singularity_Applications_ServiceManager_SMSClient@@SIXXZ 0200a81c f   sc.obj
 0001:00009b1c       ?m_StructCopy@Struct_Microsoft_Bartok_Runtime_PreHeader@@SIXPAU1@0@Z 0200ab1c f   sc.obj
 0001:00009b48       ?m_StructCopy@Struct_Microsoft_Bartok_Runtime_PreHeader@@SIXPAU1@PAU1@@Z 0200ab48 f   sc.obj
 0001:00009bcc       ?m_Equals@Struct_Microsoft_Bartok_Runtime_PreHeader@@SI_NPAU1@PAUClass_System_Object@@@Z 0200abcc f   sc.obj
 0001:00009c78       ?m_Equals@Struct_Microsoft_Bartok_Runtime_PreHeader@@SI_NPAUClass_Microsoft_Bartok_Runtime_PreHeader@@PAUClass_System_Object@@@Z 0200ac78 f   sc.obj
 0001:00009ca4       ?g_wcslen@Class_System_Number@@SIHPAUClassVector_bartok_char@@H@Z 0200aca4 f   sc.obj
 0001:00009d18       ?g_UInt64ToDecString@Class_System_Number@@SIPAUClass_System_String@@_KH@Z 0200ad18 f   sc.obj
 0001:00009e18       ?g_UInt32ToDecString@Class_System_Number@@SIPAUClass_System_String@@IH@Z 0200ae18 f   sc.obj
 0001:00009eac       ?m_ToStringFormat@Class_System_Number@@SIPAUClass_System_String@@PAU1@PAU2@@Z 0200aeac f   sc.obj
 0001:0000b590       ?m_ToString@Class_System_Number@@SIPAUClass_System_String@@PAU1@_WH@Z 0200c590 f   sc.obj
 0001:0000bed0       ?m_RoundNumber@Class_System_Number@@SIXPAU1@H@Z 0200ced0 f   sc.obj
 0001:0000c0dc       ?g_ParseFormatSpecifier@Class_System_Number@@SI_WPAUClass_System_String@@PAH@Z 0200d0dc f   sc.obj
 0001:0000c280       ?g_NumberToDouble@Class_System_Number@@SIXPAU1@PAN@Z 0200d280 f   sc.obj
 0001:0000c534       ?g_LO32@Class_System_Number@@SII_K@Z 0200d534 f   sc.obj
 0001:0000c54c       ?g_Int64ToHexString@Class_System_Number@@SIPAUClass_System_String@@_K_WH@Z 0200d54c f   sc.obj
 0001:0000c5dc       ?g_Int64ToHexChars@Class_System_Number@@SIHPAUClassVector_bartok_char@@H_K_WH@Z 0200d5dc f   sc.obj
 0001:0000c6a0       ?g_Int64ToDecString@Class_System_Number@@SIPAUClass_System_String@@_JHPAU2@@Z 0200d6a0 f   sc.obj
 0001:0000c890       ?g_Int64ToDecChars@Class_System_Number@@SIXPAUClassVector_bartok_char@@PAH_KH@Z 0200d890 f   sc.obj
 0001:0000c940       ?g_Int64DivMod1E9@Class_System_Number@@SI_K_KPAI@Z 0200d940 f   sc.obj
 0001:0000c99c       ?g_Int32ToHexString@Class_System_Number@@SIPAUClass_System_String@@I_WH@Z 0200d99c f   sc.obj
 0001:0000ca28       ?g_Int32ToHexChars@Class_System_Number@@SIHPAUClassVector_bartok_char@@HI_WH@Z 0200da28 f   sc.obj
 0001:0000cac8       ?g_Int32ToDecString@Class_System_Number@@SIPAUClass_System_String@@HHPAU2@@Z 0200dac8 f   sc.obj
 0001:0000cc24       ?g_Int32ToDecChars@Class_System_Number@@SIXPAUClassVector_bartok_char@@PAHIH@Z 0200dc24 f   sc.obj
 0001:0000ccb8       ?g_HI32@Class_System_Number@@SII_K@Z 0200dcb8 f   sc.obj
 0001:0000ccdc       ?g_Get@Class_System_Number@@SI_WPAUClass_System_String@@H@Z 0200dcdc f   sc.obj
 0001:0000cd24       ?g_FPNumberToString@Class_System_Number@@SIPAUClass_System_String@@PAU1@PAU2@@Z 0200dd24 f   sc.obj
 0001:0000ce14       ?g_FormatUInt64@Class_System_Number@@SIPAUClass_System_String@@_KPAU2@@Z 0200de14 f   sc.obj
 0001:0000cf28       ?g_FormatUInt32@Class_System_Number@@SIPAUClass_System_String@@IPAU2@@Z 0200df28 f   sc.obj
 0001:0000d02c       ?g_FormatSingle@Class_System_Number@@SIPAUClass_System_String@@MPAU2@@Z 0200e02c f   sc.obj
 0001:0000d2b8       ?m_FormatScientific@Class_System_Number@@SIHPAU1@PAUClassVector_bartok_char@@HH_W@Z 0200e2b8 f   sc.obj
 0001:0000d480       ?m_FormatPercent@Class_System_Number@@SIHPAU1@PAUClassVector_bartok_char@@HH@Z 0200e480 f   sc.obj
 0001:0000d64c       ?m_FormatNumber@Class_System_Number@@SIHPAU1@PAUClassVector_bartok_char@@HH@Z 0200e64c f   sc.obj
 0001:0000d7e0       ?g_FormatInt64@Class_System_Number@@SIPAUClass_System_String@@_JPAU2@@Z 0200e7e0 f   sc.obj
 0001:0000d918       ?g_FormatInt32@Class_System_Number@@SIPAUClass_System_String@@HPAU2@@Z 0200e918 f   sc.obj
 0001:0000da40       ?m_FormatGeneral@Class_System_Number@@SIHPAU1@PAUClassVector_bartok_char@@HH_W@Z 0200ea40 f   sc.obj
 0001:0000dce8       ?m_FormatFixed@Class_System_Number@@SIHPAU1@PAUClassVector_bartok_char@@HHPAUClassVector_int32@@PAUClass_System_String@@3@Z 0200ece8 f   sc.obj
 0001:0000e268       ?m_FormatExponent@Class_System_Number@@SIHPAU1@PAUClassVector_bartok_char@@HH_WPAUClass_System_String@@3H@Z 0200f268 f   sc.obj
 0001:0000e3c0       ?g_FormatDouble@Class_System_Number@@SIPAUClass_System_String@@NPAU2@@Z 0200f3c0 f   sc.obj
 0001:0000e5fc       ?g_FormatDecimal@Class_System_Number@@SIPAUClass_System_String@@UStruct_System_Decimal@@PAU2@@Z 0200f5fc f   sc.obj
 0001:0000e694       ?g_FindSection@Class_System_Number@@SIHPAUClass_System_String@@H@Z 0200f694 f   sc.obj
 0001:0000e7e8       ?m_DecDivMod1E9@Class_System_Number@@SIIPAU1@PAUStruct_System_Decimal@@@Z 0200f7e8 f   sc.obj
 0001:0000e8c0       ?m_D32DivMod1E9@Class_System_Number@@SIIPAU1@IIPAI@Z 0200f8c0 f   sc.obj
 0001:0000e93c       ?g_AddStringRef@Class_System_Number@@SIHPAUClassVector_bartok_char@@HPAUClass_System_String@@@Z 0200f93c f   sc.obj
 0001:0000e9d4       ?m__ctor@Class_System_Number@@SIXPAU1@@Z 0200f9d4 f   sc.obj
 0001:0000ea04       ?m__ctor@Class_System_Number@@SIXPAU1@_K@Z 0200fa04 f   sc.obj
 0001:0000eb14       ?m__ctor@Class_System_Number@@SIXPAU1@I@Z 0200fb14 f   sc.obj
 0001:0000ec20       ?m__ctor@Class_System_Number@@SIXPAU1@PAUStruct_System_Decimal@@@Z 0200fc20 f   sc.obj
 0001:0000edb0       ?m__ctor@Class_System_Number@@SIXPAU1@_J@Z 0200fdb0 f   sc.obj
 0001:0000ef10       ?m__ctor@Class_System_Number@@SIXPAU1@H@Z 0200ff10 f   sc.obj
 0001:0000f03c       ?m__ctor@Class_System_Number@@SIXPAU1@NH@Z 0201003c f   sc.obj
 0001:0000f0a0       ?g__cctor@Class_System_Number@@SIXXZ 020100a0 f   sc.obj
 0001:0000f1dc       ?m_StructCopy@Struct_Microsoft_Singularity_ServiceManager_ServiceManagerContract_EnumerateServices@@SIXPAU1@0@Z 020101dc f   sc.obj
 0001:0000f204       ?m_StructCopy@Struct_Microsoft_Singularity_ServiceManager_ServiceManagerContract_EnumerateServices@@SIXPAU1@PAU1@@Z 02010204 f   sc.obj
 0001:0000f27c       ?m_MarshallContent@Struct_Microsoft_Singularity_ServiceManager_ServiceManagerContract_EnumerateServices@@SIXPAU1@PAEPAUStruct_Microsoft_Singularity_Channels_Endpoint@@1PAH@Z 0201027c f   sc.obj
 0001:0000f2e4       ?m_MarshallAll@Struct_Microsoft_Singularity_ServiceManager_ServiceManagerContract_EnumerateServices@@SIXPAU1@PAEPAUStruct_Microsoft_Singularity_Channels_Endpoint@@PAH@Z 020102e4 f   sc.obj
 0001:0000f33c       ?m_Equals@Struct_Microsoft_Singularity_ServiceManager_ServiceManagerContract_EnumerateServices@@SI_NPAU1@PAUClass_System_Object@@@Z 0201033c f   sc.obj
 0001:0000f384       ?m_Equals@Struct_Microsoft_Singularity_ServiceManager_ServiceManagerContract_EnumerateServices@@SI_NPAUClass_Microsoft_Singularity_ServiceManager_ServiceManagerContract_EnumerateServices@@PAUClass_System_Object@@@Z 02010384 f   sc.obj
 0001:0000f3b0       ?m_StructCopy@Struct_Microsoft_Singularity_ServiceManager_ServiceManagerContract_StopWatchingServiceManager@@SIXPAU1@0@Z 020103b0 f   sc.obj
 0001:0000f3cc       ?m_StructCopy@Struct_Microsoft_Singularity_ServiceManager_ServiceManagerContract_StopWatchingServiceManager@@SIXPAU1@PAU1@@Z 020103cc f   sc.obj
 0001:0000f420       ?m_Equals@Struct_Microsoft_Singularity_ServiceManager_ServiceManagerContract_StopWatchingServiceManager@@SI_NPAU1@PAUClass_System_Object@@@Z 02010420 f   sc.obj
 0001:0000f458       ?m_Equals@Struct_Microsoft_Singularity_ServiceManager_ServiceManagerContract_StopWatchingServiceManager@@SI_NPAUClass_Microsoft_Singularity_ServiceManager_ServiceManagerContract_StopWatchingServiceManager@@PAUClass_System_Object@@@Z 02010458 f   sc.obj
 0001:0000f484       ?m_StructCopy@Struct_Microsoft_Singularity_Directory_DirectoryServiceContract_Notify@@SIXPAU1@0@Z 02010484 f   sc.obj
 0001:0000f4d0       ?m_StructCopy@Struct_Microsoft_Singularity_Directory_DirectoryServiceContract_Notify@@SIXPAU1@PAU1@@Z 020104d0 f   sc.obj
 0001:0000f5b4       ?m_Equals@Struct_Microsoft_Singularity_Directory_DirectoryServiceContract_Notify@@SI_NPAU1@PAUClass_System_Object@@@Z 020105b4 f   sc.obj
 0001:0000f62c       ?m_Equals@Struct_Microsoft_Singularity_Directory_DirectoryServiceContract_Notify@@SI_NPAUClass_Microsoft_Singularity_Directory_DirectoryServiceContract_Notify@@PAUClass_System_Object@@@Z 0201062c f   sc.obj
 0001:0000f658       ?m_Visit@Class_System_GCs_Verifier_GenericThreadReferenceVisitor@@SIXPAU1@PAPAUuintPtr@@@Z 02010658 f   sc.obj
 0001:0000f95c       ?m__ctor@Class_System_GCs_Verifier_GenericThreadReferenceVisitor@@SIXPAU1@@Z 0201095c f   sc.obj
 0001:0000f980       ?m_ToString@Class_Microsoft_Singularity_Io_IoPort@@SIPAUClass_System_String@@PAU1@@Z 02010980 f   sc.obj
 0001:0000fa04       ?m_Wait@Class_System_Threading_Monitor@@SI_NPAU1@UStruct_System_SchedulerTime@@@Z 02010a04 f   sc.obj
 0001:0000fd24       ?g_Wait@Class_System_Threading_Monitor@@SI_NPAUClass_System_Object@@UStruct_System_TimeSpan@@@Z 02010d24 f   sc.obj
 0001:0000fdcc       ?m_TryEnter@Class_System_Threading_Monitor@@SI_NPAU1@@Z 02010dcc f   sc.obj
 0001:0000fe3c       ?m_TryEnter@Class_System_Threading_Monitor@@SI_NPAU1@UStruct_System_SchedulerTime@@@Z 02010e3c f   sc.obj
 0001:0000feb8       ?g_TryEnter@Class_System_Threading_Monitor@@SI_NPAUClass_System_Object@@@Z 02010eb8 f   sc.obj
 0001:0000fef4       ?m_Remove@Class_System_Threading_Monitor@@SI_NPAU1@PAUClass_System_Threading_Thread@@@Z 02010ef4 f   sc.obj
 0001:0000fff4       ?m_Pulse@Class_System_Threading_Monitor@@SIXPAU1@@Z 02010ff4 f   sc.obj
 0001:00010120       ?g_Pulse@Class_System_Threading_Monitor@@SIXPAUClass_System_Object@@@Z 02011120 f   sc.obj
 0001:0001015c       ?m_IsInUse@Class_System_Threading_Monitor@@SI_NPAU1@@Z 0201115c f   sc.obj
 0001:00010178       ?g_GetMonitorFromObject@Class_System_Threading_Monitor@@SIPAU1@PAUClass_System_Object@@@Z 02011178 f   sc.obj
 0001:000101f4       ?g_FromAddress@Class_System_Threading_Monitor@@SIPAU1@PAUuintPtr@@@Z 020111f4 f   sc.obj
 0001:00010210       ?g_ExitImpl@Class_System_Threading_Monitor@@SIXPAUClass_System_Object@@@Z 02011210 f   sc.obj
 0001:0001024c       ?m_Exit@Class_System_Threading_Monitor@@SIXPAU1@@Z 0201124c f   sc.obj
 0001:000102c4       ?g_EnterImpl@Class_System_Threading_Monitor@@SIXPAUClass_System_Object@@@Z 020112c4 f   sc.obj
 0001:00010300       ?m_Enter@Class_System_Threading_Monitor@@SIXPAU1@@Z 02011300 f   sc.obj
 0001:00010360       ?m_Enqueue@Class_System_Threading_Monitor@@SIXPAU1@PAUClass_System_Threading_Thread@@@Z 02011360 f   sc.obj
 0001:000103b4       ?m_Dequeue@Class_System_Threading_Monitor@@SIPAUClass_System_Threading_Thread@@PAU1@@Z 020113b4 f   sc.obj
 0001:00010438       ?m__ctor@Class_System_Threading_Monitor@@SIXPAU1@@Z 02011438 f   sc.obj
 0001:0001048c       ?m__ctor@Class_System_ReadEnlistmentLog_LogChunk@@SIXPAU1@PAUClassVector_Struct_System_ReadEnlistmentLog_Entry@@0@Z 0201148c f   sc.obj
 0001:000104c0       ?g_visitAllObjects@Class_System_GCs_MemoryAccounting@@SIXPAUClass_System_GCs_ObjectLayout_ObjectVisitor@@PAUuintPtr@@1@Z 020114c0 f   sc.obj
 0001:00010824       ?g_TotalNumPages@Class_System_GCs_MemoryAccounting@@SIIUStruct_System_GCs_PageType@@@Z 02011824 f   sc.obj
 0001:00010978       ?g_ReportStackDetails@Class_System_GCs_MemoryAccounting@@SIXXZ 02011978 f   sc.obj
 0001:00010d84       ?g_ReportNonGCDetails@Class_System_GCs_MemoryAccounting@@SIXXZ 02011d84 f   sc.obj
 0001:0001101c       ?g_ReportHeapDetails@Class_System_GCs_MemoryAccounting@@SIXXZ 0201201c f   sc.obj
 0001:00011968       ?g_Report@Class_System_GCs_MemoryAccounting@@SIXUStruct_Microsoft_Bartok_Runtime_GCType@@@Z 02012968 f   sc.obj
 0001:00011b28       ?g_assertRuntimeTypeHeaders@Class_System_GCs_MemoryAccounting@@SIXPAUuintPtr@@0@Z 02012b28 f   sc.obj
 0001:00011b58       ?m__ctor@Class_System_GCs_MemoryAccounting@@SIXPAU1@@Z 02012b58 f   sc.obj
 0001:00011b70       ?m_ToString@bool@@SIPAUClass_System_String@@PA_N@Z 02012b70 f   sc.obj
 0001:00011ba0       ?m_ToString@bool@@SIPAUClass_System_String@@PAUClass_System_Boolean@@@Z 02012ba0 f   sc.obj
 0001:00011be8       ?m_GetHashCode@bool@@SIHPA_N@Z 02012be8 f   sc.obj
 0001:00011c1c       ?m_GetHashCode@bool@@SIHPAUClass_System_Boolean@@@Z 02012c1c f   sc.obj
 0001:00011c64       ?m_Equals@bool@@SI_NPA_NPAUClass_System_Object@@@Z 02012c64 f   sc.obj
 0001:00011cc4       ?m_Equals@bool@@SI_NPAUClass_System_Boolean@@PAUClass_System_Object@@@Z 02012cc4 f   sc.obj
 0001:00011d10       ?m_CompareTo@bool@@SIHPA_NPAUClass_System_Object@@@Z 02012d10 f   sc.obj
 0001:00011db8       ?m_CompareTo@bool@@SIHPAUClass_System_Boolean@@PAUClass_System_Object@@@Z 02012db8 f   sc.obj
 0001:00011e04       ?g__cctor@bool@@SIXXZ      02012e04 f   sc.obj
 0001:00011e18       ?m_StructCopy@Struct_Microsoft_Singularity_V1_Services_ProcessService@@SIXPAU1@0@Z 02012e18 f   sc.obj
 0001:00011e34       ?m_StructCopy@Struct_Microsoft_Singularity_V1_Services_ProcessService@@SIXPAU1@PAU1@@Z 02012e34 f   sc.obj
 0001:00011e88       ?g_GetStartupStringArg@Struct_Microsoft_Singularity_V1_Services_ProcessService@@SI?AUStruct_Microsoft_Singularity_V1_Services_ParameterCode@@HPA_WPAH@Z 02012e88 f   sc.obj
 0001:00011ed8       ?g_GetStartupLongArg@Struct_Microsoft_Singularity_V1_Services_ProcessService@@SI?AUStruct_Microsoft_Singularity_V1_Services_ParameterCode@@HPA_J@Z 02012ed8 f   sc.obj
 0001:00011f24       ?g_GetStartupBoolArg@Struct_Microsoft_Singularity_V1_Services_ProcessService@@SI?AUStruct_Microsoft_Singularity_V1_Services_ParameterCode@@HPA_N@Z 02012f24 f   sc.obj
 0001:00011f70       ?g_GetSharedSourceHandles@Struct_Microsoft_Singularity_V1_Services_ProcessService@@SI_NIPAPAUuintPtr@@00@Z 02012f70 f   sc.obj
 0001:00011ff4       ?m_Equals@Struct_Microsoft_Singularity_V1_Services_ProcessService@@SI_NPAU1@PAUClass_System_Object@@@Z 02012ff4 f   sc.obj
 0001:0001202c       ?m_Equals@Struct_Microsoft_Singularity_V1_Services_ProcessService@@SI_NPAUClass_Microsoft_Singularity_V1_Services_ProcessService@@PAUClass_System_Object@@@Z 0201302c f   sc.obj
 0001:00012058       ?g_RetStartupEndpoint@Class_System_Process@@SIXHPAUStruct_Microsoft_Singularity_Channels_Endpoint@@@Z 02013058 f   sc.obj
 0001:000120a8       ?g_GetStartupStringArg@Class_System_Process@@SI?AUStruct_Microsoft_Singularity_V1_Services_ParameterCode@@HPAPAUClass_System_String@@@Z 020130a8 f   sc.obj
 0001:000121a8       ?g_GetStartupEndpoint@Class_System_Process@@SIPAUStruct_Microsoft_Singularity_Channels_Endpoint@@H@Z 020131a8 f   sc.obj
 0001:00012228       ?m_Finalize@Class_System_Process@@SIXPAU1@@Z 02013228 f   sc.obj
 0001:00012240       ?m_Visit@Struct_System_MultiUseWord_STMHandle@@SI_NPAU1@PAUClass_System_GCs_DirectReferenceVisitor@@@Z 02013240 f   sc.obj
 0001:00012294       ?m_StructCopy@Struct_System_MultiUseWord_STMHandle@@SIXPAU1@0@Z 02013294 f   sc.obj
 0001:000122bc       ?m_StructCopy@Struct_System_MultiUseWord_STMHandle@@SIXPAU1@PAU1@@Z 020132bc f   sc.obj
 0001:00012334       ?m_SetSTMWordAtGC@Struct_System_MultiUseWord_STMHandle@@SIXPAU1@PAUClass_System_GCs_DirectReferenceVisitor@@UStruct_System_STMWord@@@Z 02013334 f   sc.obj
 0001:0001242c       ?m_SetMark@Struct_System_MultiUseWord_STMHandle@@SIXPAU1@_N@Z 0201342c f   sc.obj
 0001:000124c0       ?m_IsMarked@Struct_System_MultiUseWord_STMHandle@@SI_NPAU1@@Z 020134c0 f   sc.obj
 0001:00012504       ?m_GetSTMSnapshot@Struct_System_MultiUseWord_STMHandle@@SI?AUStruct_System_MultiUseWord_STMSnapshot@@PAU1@@Z 02013504 f   sc.obj
 0001:00012550       ?m_Equals@Struct_System_MultiUseWord_STMHandle@@SI_NPAU1@PAUClass_System_Object@@@Z 02013550 f   sc.obj
 0001:00012598       ?m_Equals@Struct_System_MultiUseWord_STMHandle@@SI_NPAUClass_System_MultiUseWord_STMHandle@@PAUClass_System_Object@@@Z 02013598 f   sc.obj
 0001:000125c4       ?m_Visit@Class_System_GCs_MemoryAccounting_ManagedPtrAccounting@@SIXPAU1@PAPAUuintPtr@@@Z 020135c4 f   sc.obj
 0001:000125e0       ?m_Initialize@Class_System_GCs_MemoryAccounting_ManagedPtrAccounting@@SIXPAU1@@Z 020135e0 f   sc.obj
 0001:000125f8       ?m__ctor@Class_System_GCs_MemoryAccounting_ManagedPtrAccounting@@SIXPAU1@@Z 020135f8 f   sc.obj
 0001:00012610       ?m__ctor@Class_Microsoft_Singularity_Monitoring@@SIXPAU1@@Z 02013610 f   sc.obj
 0001:0001262c       ?m_StructCopy@Struct_Microsoft_Singularity_Directory_DirectoryServiceContract_NakStoreACL@@SIXPAU1@0@Z 0201362c f   sc.obj
 0001:00012654       ?m_StructCopy@Struct_Microsoft_Singularity_Directory_DirectoryServiceContract_NakStoreACL@@SIXPAU1@PAU1@@Z 02013654 f   sc.obj
 0001:000126cc       ?m_Equals@Struct_Microsoft_Singularity_Directory_DirectoryServiceContract_NakStoreACL@@SI_NPAU1@PAUClass_System_Object@@@Z 020136cc f   sc.obj
 0001:0001276c       ?m_Equals@Struct_Microsoft_Singularity_Directory_DirectoryServiceContract_NakStoreACL@@SI_NPAUClass_Microsoft_Singularity_Directory_DirectoryServiceContract_NakStoreACL@@PAUClass_System_Object@@@Z 0201376c f   sc.obj
 0001:00012798       ?m_StructCopy@Struct_Microsoft_Singularity_Directory_DirectoryServiceContract_AckGetLinkValue@@SIXPAU1@0@Z 02013798 f   sc.obj
 0001:000127c0       ?m_StructCopy@Struct_Microsoft_Singularity_Directory_DirectoryServiceContract_AckGetLinkValue@@SIXPAU1@PAU1@@Z 020137c0 f   sc.obj
 0001:00012838       ?m_Equals@Struct_Microsoft_Singularity_Directory_DirectoryServiceContract_AckGetLinkValue@@SI_NPAU1@PAUClass_System_Object@@@Z 02013838 f   sc.obj
 0001:00012880       ?m_Equals@Struct_Microsoft_Singularity_Directory_DirectoryServiceContract_AckGetLinkValue@@SI_NPAUClass_Microsoft_Singularity_Directory_DirectoryServiceContract_AckGetLinkValue@@PAUClass_System_Object@@@Z 02013880 f   sc.obj
 0001:000128ac       ?m_ToString@Class_System_Version@@SIPAUClass_System_String@@PAU1@@Z 020138ac f   sc.obj
 0001:00012908       ?m_ToString@Class_System_Version@@SIPAUClass_System_String@@PAU1@H@Z 02013908 f   sc.obj
 0001:00012c88       ?m_GetHashCode@Class_System_Version@@SIHPAU1@@Z 02013c88 f   sc.obj
 0001:00012d0c       ?m_get$_Major@Class_System_Version@@SIHPAU1@@Z 02013d0c f   sc.obj
 0001:00012d2c       ?m_Equals@Class_System_Version@@SI_NPAU1@PAUClass_System_Object@@@Z 02013d2c f   sc.obj
 0001:00012dec       ?m_CompareTo@Class_System_Version@@SIHPAU1@PAUClass_System_Object@@@Z 02013dec f   sc.obj
 0001:00012f00       ?m__ctor@Class_System_Version@@SIXPAU1@@Z 02013f00 f   sc.obj
 0001:00012f44       ?m_StructCopy@Struct_Microsoft_Singularity_Directory_DirectoryServiceContract_NakQueryACLReparse@@SIXPAU1@0@Z 02013f44 f   sc.obj
 0001:00012f84       ?m_StructCopy@Struct_Microsoft_Singularity_Directory_DirectoryServiceContract_NakQueryACLReparse@@SIXPAU1@PAU1@@Z 02013f84 f   sc.obj
 0001:00013044       ?m_Equals@Struct_Microsoft_Singularity_Directory_DirectoryServiceContract_NakQueryACLReparse@@SI_NPAU1@PAUClass_System_Object@@@Z 02014044 f   sc.obj
 0001:000130ac       ?m_Equals@Struct_Microsoft_Singularity_Directory_DirectoryServiceContract_NakQueryACLReparse@@SI_NPAUClass_Microsoft_Singularity_Directory_DirectoryServiceContract_NakQueryACLReparse@@PAUClass_System_Object@@@Z 020140ac f   sc.obj
 0001:000130d8       ?m_StructCopy@Struct_Microsoft_Singularity_Directory_FileContract_Exp@@SIXPAU1@0@Z 020140d8 f   sc.obj
 0001:000131d8       ?m_StructCopy@Struct_Microsoft_Singularity_Directory_FileContract_Exp@@SIXPAU1@PAU1@@Z 020141d8 f   sc.obj
 0001:000134d8       ?m_Peek@Struct_Microsoft_Singularity_Directory_FileContract_Exp@@SIHPAU1@@Z 020144d8 f   sc.obj
 0001:0001376c       ?m_HeadMatches@Struct_Microsoft_Singularity_Directory_FileContract_Exp@@SI_NPAU1@HPA_NPAPAUClass_System_Object@@@Z 0201476c f   sc.obj
 0001:0001382c       ?m_HeadMatches@Struct_Microsoft_Singularity_Directory_FileContract_Exp@@SI_NPAUClass_Microsoft_Singularity_Directory_FileContract_Exp@@HPA_NPAPAUClass_System_Object@@@Z 0201482c f   sc.obj
 0001:00013864       ?m_Equals@Struct_Microsoft_Singularity_Directory_FileContract_Exp@@SI_NPAU1@PAUClass_System_Object@@@Z 02014864 f   sc.obj
 0001:00013c44       ?m_Equals@Struct_Microsoft_Singularity_Directory_FileContract_Exp@@SI_NPAUClass_Microsoft_Singularity_Directory_FileContract_Exp@@PAUClass_System_Object@@@Z 02014c44 f   sc.obj
 0001:00013c70       ?m_Dispose@Struct_Microsoft_Singularity_Directory_FileContract_Exp@@SIXPAU1@@Z 02014c70 f   sc.obj
 0001:00013c94       ?m_Dispose@Struct_Microsoft_Singularity_Directory_FileContract_Exp@@SIXPAUClass_Microsoft_Singularity_Directory_FileContract_Exp@@@Z 02014c94 f   sc.obj
 0001:00013cbc       ?m__ctor@Class_System_Runtime_CompilerServices_InlineAttribute@@SIXPAU1@@Z 02014cbc f   sc.obj
 0001:00013ce0       ?g_InitializeQuerySystem@Class_Microsoft_Singularity_Eventing_QuerySession@@SI_NXZ 02014ce0 f   sc.obj
 0001:00013d80       ?m__ctor@Class_Microsoft_Singularity_Eventing_QuerySession@@SIXPAU1@@Z 02014d80 f   sc.obj
 0001:00013db0       ?g__cctor@Class_Microsoft_Singularity_Eventing_QuerySession@@SIXXZ 02014db0 f   sc.obj
 0001:00013dc4       ?m__ctor@Class_System_Runtime_CompilerServices_CalledRarelyAttribute@@SIXPAU1@@Z 02014dc4 f   sc.obj
 0001:00013de8       ?g_VerifyPages@Class_System_GCs_Verifier@@SIXPAUClass_System_GCs_ObjectLayout_ObjectVisitor@@@Z 02014de8 f   sc.obj
 0001:0001420c       ?m_VerifyHeap@Class_System_GCs_Verifier@@SIXPAU1@@Z 0201520c f   sc.obj
 0001:000144b4       ?g_VerifyAllThreadsGCControlled@Class_System_GCs_Verifier@@SIXPAUClass_System_Threading_Thread@@@Z 020154b4 f   sc.obj
 0001:0001453c       ?m__ctor@Class_System_GCs_Verifier@@SIXPAU1@PAUClass_System_GCs_NonNullReferenceVisitor@@1PAUClass_System_GCs_ObjectLayout_ObjectVisitor@@PAUClass_System_GCs_Verifier_StackVerifier@@@Z 0201553c f   sc.obj
 0001:00014580       ?g__cctor@Class_System_GCs_Verifier@@SIXXZ 02015580 f   sc.obj
 0001:000146a4       ?m_StructCopy@Struct_Microsoft_Singularity_Directory_DirectoryServiceContract_AckDeleteLink@@SIXPAU1@0@Z 020156a4 f   sc.obj
 0001:000146c0       ?m_StructCopy@Struct_Microsoft_Singularity_Directory_DirectoryServiceContract_AckDeleteLink@@SIXPAU1@PAU1@@Z 020156c0 f   sc.obj
 0001:00014714       ?m_Equals@Struct_Microsoft_Singularity_Directory_DirectoryServiceContract_AckDeleteLink@@SI_NPAU1@PAUClass_System_Object@@@Z 02015714 f   sc.obj
 0001:0001474c       ?m_Equals@Struct_Microsoft_Singularity_Directory_DirectoryServiceContract_AckDeleteLink@@SI_NPAUClass_Microsoft_Singularity_Directory_DirectoryServiceContract_AckDeleteLink@@PAUClass_System_Object@@@Z 0201574c f   sc.obj
 0001:00014778       ?m_StructCopy@Struct_System_UpdateLogWriter@@SIXPAU1@0@Z 02015778 f   sc.obj
 0001:000147ac       ?m_StructCopy@Struct_System_UpdateLogWriter@@SIXPAU1@PAU1@@Z 020157ac f   sc.obj
 0001:00014848       ?m_Equals@Struct_System_UpdateLogWriter@@SI_NPAU1@PAUClass_System_Object@@@Z 02015848 f   sc.obj
 0001:000148a4       ?m_Equals@Struct_System_UpdateLogWriter@@SI_NPAUClass_System_UpdateLogWriter@@PAUClass_System_Object@@@Z 020158a4 f   sc.obj
 0001:000148d0       ?m_ToString@uint8@@SIPAUClass_System_String@@PAE@Z 020158d0 f   sc.obj
 0001:0001491c       ?m_ToString@uint8@@SIPAUClass_System_String@@PAEPAU2@@Z 0201591c f   sc.obj
 0001:00014968       ?m_ToString@uint8@@SIPAUClass_System_String@@PAUClass_System_Byte@@@Z 02015968 f   sc.obj
 0001:00014990       ?m_ToString@uint8@@SIPAUClass_System_String@@PAUClass_System_Byte@@PAU2@@Z 02015990 f   sc.obj
 0001:000149bc       ?m_GetHashCode@uint8@@SIHPAE@Z 020159bc f   sc.obj
 0001:000149e0       ?m_GetHashCode@uint8@@SIHPAUClass_System_Byte@@@Z 020159e0 f   sc.obj
 0001:00014a08       ?m_Equals@uint8@@SI_NPAEPAUClass_System_Object@@@Z 02015a08 f   sc.obj
 0001:00014a68       ?m_Equals@uint8@@SI_NPAUClass_System_Byte@@PAUClass_System_Object@@@Z 02015a68 f   sc.obj
 0001:00014a94       ?m_CompareTo@uint8@@SIHPAEPAUClass_System_Object@@@Z 02015a94 f   sc.obj
 0001:00014b20       ?m_CompareTo@uint8@@SIHPAUClass_System_Byte@@PAUClass_System_Object@@@Z 02015b20 f   sc.obj
 0001:00014b4c       ?m_StructCopy@Struct_Microsoft_Singularity_Directory_DirectoryServiceContract_GetAttributes@@SIXPAU1@0@Z 02015b4c f   sc.obj
 0001:00014b74       ?m_StructCopy@Struct_Microsoft_Singularity_Directory_DirectoryServiceContract_GetAttributes@@SIXPAU1@PAU1@@Z 02015b74 f   sc.obj
 0001:00014bec       ?m_Equals@Struct_Microsoft_Singularity_Directory_DirectoryServiceContract_GetAttributes@@SI_NPAU1@PAUClass_System_Object@@@Z 02015bec f   sc.obj
 0001:00014c34       ?m_Equals@Struct_Microsoft_Singularity_Directory_DirectoryServiceContract_GetAttributes@@SI_NPAUClass_Microsoft_Singularity_Directory_DirectoryServiceContract_GetAttributes@@PAUClass_System_Object@@@Z 02015c34 f   sc.obj
 0001:00014c60       ?m_StructCopy@Struct_Microsoft_Singularity_Directory_DirectoryServiceContract_DeleteFile@@SIXPAU1@0@Z 02015c60 f   sc.obj
 0001:00014c88       ?m_StructCopy@Struct_Microsoft_Singularity_Directory_DirectoryServiceContract_DeleteFile@@SIXPAU1@PAU1@@Z 02015c88 f   sc.obj
 0001:00014d00       ?m_Equals@Struct_Microsoft_Singularity_Directory_DirectoryServiceContract_DeleteFile@@SI_NPAU1@PAUClass_System_Object@@@Z 02015d00 f   sc.obj
 0001:00014d48       ?m_Equals@Struct_Microsoft_Singularity_Directory_DirectoryServiceContract_DeleteFile@@SI_NPAUClass_Microsoft_Singularity_Directory_DirectoryServiceContract_DeleteFile@@PAUClass_System_Object@@@Z 02015d48 f   sc.obj
 0001:00014d74       ?g_WaitForPending@Struct_System_Finalizer@@SIXXZ 02015d74 f   sc.obj
 0001:00014da4       ?g_VisitBootstrapData@Struct_System_Finalizer@@SIXPAUClass_System_GCs_DirectReferenceVisitor@@@Z 02015da4 f   sc.obj
 0001:00014e0c       ?g_VisitAllRunFinalizer@Struct_System_Finalizer@@SIXPAUClass_System_GCs_DirectReferenceVisitor@@_N1@Z 02015e0c f   sc.obj
 0001:00014f84       ?g_ThreadLoop@Struct_System_Finalizer@@SIXXZ 02015f84 f   sc.obj
 0001:00015020       ?g_SuppressCandidate@Struct_System_Finalizer@@SIXPAUClass_System_Object@@@Z 02016020 f   sc.obj
 0001:000151fc       ?m_StructCopy@Struct_System_Finalizer@@SIXPAU1@0@Z 020161fc f   sc.obj
 0001:00015218       ?m_StructCopy@Struct_System_Finalizer@@SIXPAU1@PAU1@@Z 02016218 f   sc.obj
 0001:0001526c       ?g_StartFinalizerThread@Struct_System_Finalizer@@SIXXZ 0201626c f   sc.obj
 0001:0001534c       ?g_Shutdown@Struct_System_Finalizer@@SIXXZ 0201634c f   sc.obj
 0001:000154c0       ?g_ResurrectCandidates@Struct_System_Finalizer@@SIXPAUClass_System_GCs_DirectReferenceVisitor@@0_N@Z 020164c0 f   sc.obj
 0001:00015a60       ?g_ReleaseCollectFinalizers@Struct_System_Finalizer@@SIXXZ 02016a60 f   sc.obj
 0001:00015aa8       ?g_RegisterCandidate@Struct_System_Finalizer@@SIXPAUClass_System_Object@@@Z 02016aa8 f   sc.obj
 0001:00015e6c       ?g_PrepareCollectFinalizers@Struct_System_Finalizer@@SIXXZ 02016e6c f   sc.obj
 0001:00015f58       ?g_LinkToIndex@Struct_System_Finalizer@@SIHH@Z 02016f58 f   sc.obj
 0001:00015f88       ?g_IsLink@Struct_System_Finalizer@@SI_NH@Z 02016f88 f   sc.obj
 0001:00015fb0       ?g_IndexToLink@Struct_System_Finalizer@@SIHH@Z 02016fb0 f   sc.obj
 0001:00015fd4       ?g_GetObjectFromRun@Struct_System_Finalizer@@SIPAUClass_System_Object@@XZ 02016fd4 f   sc.obj
 0001:00016170       ?m_Equals@Struct_System_Finalizer@@SI_NPAU1@PAUClass_System_Object@@@Z 02017170 f   sc.obj
 0001:000161a8       ?m_Equals@Struct_System_Finalizer@@SI_NPAUClass_System_Finalizer@@PAUClass_System_Object@@@Z 020171a8 f   sc.obj
 0001:000161d4       ?g_CompactTables@Struct_System_Finalizer@@SIXXZ 020171d4 f   sc.obj
 0001:000161e8       ?g__cctor@Struct_System_Finalizer@@SIXXZ 020171e8 f   sc.obj
 0001:0001637c       ?m_StructCopy@Struct_Microsoft_Bartok_Runtime_PostHeader@@SIXPAU1@0@Z 0201737c f   sc.obj
 0001:000163a4       ?m_StructCopy@Struct_Microsoft_Bartok_Runtime_PostHeader@@SIXPAU1@PAU1@@Z 020173a4 f   sc.obj
 0001:0001641c       ?m_Equals@Struct_Microsoft_Bartok_Runtime_PostHeader@@SI_NPAU1@PAUClass_System_Object@@@Z 0201741c f   sc.obj
 0001:00016468       ?m_Equals@Struct_Microsoft_Bartok_Runtime_PostHeader@@SI_NPAUClass_Microsoft_Bartok_Runtime_PostHeader@@PAUClass_System_Object@@@Z 02017468 f   sc.obj
 0001:00016494       ?m_StructCopy@Struct_Microsoft_Singularity_Directory_DirectoryServiceContract_AckDeregister@@SIXPAU1@0@Z 02017494 f   sc.obj
 0001:000164bc       ?m_StructCopy@Struct_Microsoft_Singularity_Directory_DirectoryServiceContract_AckDeregister@@SIXPAU1@PAU1@@Z 020174bc f   sc.obj
 0001:00016534       ?m_Equals@Struct_Microsoft_Singularity_Directory_DirectoryServiceContract_AckDeregister@@SI_NPAU1@PAUClass_System_Object@@@Z 02017534 f   sc.obj
 0001:0001657c       ?m_Equals@Struct_Microsoft_Singularity_Directory_DirectoryServiceContract_AckDeregister@@SI_NPAUClass_Microsoft_Singularity_Directory_DirectoryServiceContract_AckDeregister@@PAUClass_System_Object@@@Z 0201757c f   sc.obj
 0001:000165a8       ?m_StructCopy@Struct_System_ArgIterator@@SIXPAU1@0@Z 020175a8 f   sc.obj
 0001:000165dc       ?m_StructCopy@Struct_System_ArgIterator@@SIXPAU1@PAU1@@Z 020175dc f   sc.obj
 0001:00016678       ?m_GetArg@Struct_System_ArgIterator@@SIPAUClass_System_RuntimeType@@PAU1@HPAPAUintPtr@@@Z 02017678 f   sc.obj
 0001:000166fc       ?m_get$_Length@Struct_System_ArgIterator@@SIHPAU1@@Z 020176fc f   sc.obj
 0001:0001671c       ?m_Equals@Struct_System_ArgIterator@@SI_NPAU1@PAUClass_System_Object@@@Z 0201771c f   sc.obj
 0001:00016778       ?m_Equals@Struct_System_ArgIterator@@SI_NPAUClass_System_ArgIterator@@PAUClass_System_Object@@@Z 02017778 f   sc.obj
 0001:000167a4       ?m__ctor@Struct_System_ArgIterator@@SIXPAU1@UStruct_System_RuntimeArgumentHandle@@@Z 020177a4 f   sc.obj
 0001:000167ec       ?g_UnderGCControl@Class_System_GCs_Transitions@@SI_NH@Z 020177ec f   sc.obj
 0001:000168a0       ?g_TransferMutatorControl@Class_System_GCs_Transitions@@SIXPAUStruct_Microsoft_Singularity_ThreadContext@@@Z 020178a0 f   sc.obj
 0001:000169e0       ?g_TransferMutatorControl@Class_System_GCs_Transitions@@SIXPAHH@Z 020179e0 f   sc.obj
 0001:00016af4       ?g_ThreadStart@Class_System_GCs_Transitions@@SIXXZ 02017af4 f   sc.obj
 0001:00016cdc       ?g_ThreadEnd@Class_System_GCs_Transitions@@SIXH@Z 02017cdc f   sc.obj
 0001:00016f08       ?g_TakeMutatorControlSlowNoGC@Class_System_GCs_Transitions@@SIXPAHH@Z 02017f08 f   sc.obj
 0001:00016f34       ?g_TakeMutatorControlSlow@Class_System_GCs_Transitions@@SIXPAHH@Z 02017f34 f   sc.obj
 0001:00016f60       ?g_TakeMutatorControlSlow@Class_System_GCs_Transitions@@SIXPAHH_N1@Z 02017f60 f   sc.obj
 0001:0001712c       ?g_TakeMutatorControlNoGC@Class_System_GCs_Transitions@@SIXPAUStruct_Microsoft_Singularity_ThreadContext@@@Z 0201812c f   sc.obj
 0001:00017290       ?g_TakeMutatorControlNoGC@Class_System_GCs_Transitions@@SIXPAHH@Z 02018290 f   sc.obj
 0001:000173cc       ?g_TakeMutatorControlNoGC@Class_System_GCs_Transitions@@SIXH@Z 020183cc f   sc.obj
 0001:000175bc       ?g_TakeMutatorControl@Class_System_GCs_Transitions@@SIXPAUStruct_Microsoft_Singularity_ThreadContext@@@Z 020185bc f   sc.obj
 0001:00017720       ?g_TakeMutatorControl@Class_System_GCs_Transitions@@SIXPAHH@Z 02018720 f   sc.obj
 0001:0001785c       ?g_TakeMutatorControl@Class_System_GCs_Transitions@@SIXH@Z 0201885c f   sc.obj
 0001:00017a4c       ?g_TakeGCControl@Class_System_GCs_Transitions@@SI_NPAH@Z 02018a4c f   sc.obj
 0001:00017b10       ?g_TakeGCControl@Class_System_GCs_Transitions@@SI_NH@Z 02018b10 f   sc.obj
 0001:00017c8c       ?g_TakeDormantControlNoGC@Class_System_GCs_Transitions@@SIXPAH@Z 02018c8c f   sc.obj
 0001:00017d38       ?g_TakeDormantControlNoGC@Class_System_GCs_Transitions@@SIXH@Z 02018d38 f   sc.obj
 0001:00017e8c       ?g_TakeDormantControl@Class_System_GCs_Transitions@@SIXPAUStruct_Microsoft_Singularity_ThreadContext@@@Z 02018e8c f   sc.obj
 0001:00017f98       ?g_TakeDormantControl@Class_System_GCs_Transitions@@SIXPAHH@Z 02018f98 f   sc.obj
 0001:0001806c       ?g_TakeDormantControl@Class_System_GCs_Transitions@@SIXH@Z 0201906c f   sc.obj
 0001:000181d4       ?g_SwitchToMutatorStateWithGCRequest@Class_System_GCs_Transitions@@SI_NPAH@Z 020191d4 f   sc.obj
 0001:00018240       ?g_SwitchToMutatorState@Class_System_GCs_Transitions@@SI_NPAH@Z 02019240 f   sc.obj
 0001:000182f0       ?g_RuntimeInitialized@Class_System_GCs_Transitions@@SIXXZ 020192f0 f   sc.obj
 0001:0001830c       ?g_ReturnToManagedSpace@Class_System_GCs_Transitions@@SIXPAUStruct_Microsoft_Singularity_ThreadContext@@@Z 0201930c f   sc.obj
 0001:000184ec       ?g_ReturnFromManagedSpaceNoCallerTransition@Class_System_GCs_Transitions@@SIXXZ 020194ec f   sc.obj
 0001:00018600       ?g_ReturnFromManagedSpace@Class_System_GCs_Transitions@@SIXXZ 02019600 f   sc.obj
 0001:00018748       ?g_RestoreMutatorControlIfNeeded@Class_System_GCs_Transitions@@SIXXZ 02019748 f   sc.obj
 0001:00018880       ?g_ReleaseGCControl@Class_System_GCs_Transitions@@SIXPAHH@Z 02019880 f   sc.obj
 0001:00018944       ?g_ReleaseGCControl@Class_System_GCs_Transitions@@SIXH@Z 02019944 f   sc.obj
 0001:00018aa4       ?g_NewThreadNotification@Class_System_GCs_Transitions@@SIXH_N@Z 02019aa4 f   sc.obj
 0001:00018c44       ?g_MakeGCRequests@Class_System_GCs_Transitions@@SIXH@Z 02019c44 f   sc.obj
 0001:00018d6c       ?g_MakeGCRequest@Class_System_GCs_Transitions@@SIXPAHH@Z 02019d6c f   sc.obj
 0001:00018dd0       ?g_MakeGCRequest@Class_System_GCs_Transitions@@SIXH@Z 02019dd0 f   sc.obj
 0001:00018e74       ?g_LeaveManagedSpace@Class_System_GCs_Transitions@@SIXPAUStruct_Microsoft_Singularity_ThreadContext@@@Z 02019e74 f   sc.obj
 0001:00018fb4       ?g_LeaveLoadFunctionStub@Class_System_GCs_Transitions@@SIXXZ 02019fb4 f   sc.obj
 0001:00019120       ?g_InMutatorState@Class_System_GCs_Transitions@@SI_NPAUStruct_Microsoft_Singularity_ThreadContext@@@Z 0201a120 f   sc.obj
 0001:00019170       ?g_InMutatorState@Class_System_GCs_Transitions@@SI_NH@Z 0201a170 f   sc.obj
 0001:0001922c       ?g_Initialize@Class_System_GCs_Transitions@@SIXXZ 0201a22c f   sc.obj
 0001:00019240       ?g_InDormantState@Class_System_GCs_Transitions@@SI_NH@Z 0201a240 f   sc.obj
 0001:000192f0       ?g_HasGCRequest@Class_System_GCs_Transitions@@SI_NH@Z 0201a2f0 f   sc.obj
 0001:000193a0       ?g_GetThreadContext@Class_System_GCs_Transitions@@SIPAUStruct_Microsoft_Singularity_ThreadContext@@H@Z 0201a3a0 f   sc.obj
 0001:000193f0       ?g_GetCurrentThreadContext@Class_System_GCs_Transitions@@SIPAUStruct_Microsoft_Singularity_ThreadContext@@H@Z 0201a3f0 f   sc.obj
 0001:00019478       ?g_fUnderGCControl@Class_System_GCs_Transitions@@SI_NH@Z 0201a478 f   sc.obj
 0001:000194a0       ?g_fInMutatorState@Class_System_GCs_Transitions@@SI_NH@Z 0201a4a0 f   sc.obj
 0001:000194c8       ?g_fInDormantState@Class_System_GCs_Transitions@@SI_NH@Z 0201a4c8 f   sc.obj
 0001:000194f0       ?g_fHasGCRequest@Class_System_GCs_Transitions@@SI_NH@Z 0201a4f0 f   sc.obj
 0001:00019518       ?g_EntryIntoManagedSpace@Class_System_GCs_Transitions@@SIXXZ 0201a518 f   sc.obj
 0001:00019700       ?g_EnterLoadFunctionStub@Class_System_GCs_Transitions@@SIXXZ 0201a700 f   sc.obj
 0001:000198f8       ?g_EnsureMutatorControlNoGC@Class_System_GCs_Transitions@@SIXPAUStruct_Microsoft_Singularity_ThreadContext@@@Z 0201a8f8 f   sc.obj
 0001:00019ad8       ?g_EnsureMutatorControlNoGC@Class_System_GCs_Transitions@@SIXPAHH@Z 0201aad8 f   sc.obj
 0001:00019c90       ?g_EnsureMutatorControl@Class_System_GCs_Transitions@@SIXPAUStruct_Microsoft_Singularity_ThreadContext@@@Z 0201ac90 f   sc.obj
 0001:00019e70       ?g_EnsureMutatorControl@Class_System_GCs_Transitions@@SIXPAHH@Z 0201ae70 f   sc.obj
 0001:0001a028       ?g_DeadThreadNotification@Class_System_GCs_Transitions@@SIXH@Z 0201b028 f   sc.obj
 0001:0001a1d8       ?g_CompareAndSwap@Class_System_GCs_Transitions@@SI_NPAHHH@Z 0201b1d8 f   sc.obj
 0001:0001a20c       ?g_ClearGCRequest@Class_System_GCs_Transitions@@SIXPAHH@Z 0201b20c f   sc.obj
 0001:0001a2b8       ?g_ClearGCRequest@Class_System_GCs_Transitions@@SIXH@Z 0201b2b8 f   sc.obj
 0001:0001a35c       ?m__ctor@Class_System_GCs_Transitions@@SIXPAU1@@Z 0201b35c f   sc.obj
 0001:0001a378       ?m_StructCopy@Struct_Microsoft_Singularity_Directory_DirectoryServiceContract_AckCreateDirectory@@SIXPAU1@0@Z 0201b378 f   sc.obj
 0001:0001a394       ?m_StructCopy@Struct_Microsoft_Singularity_Directory_DirectoryServiceContract_AckCreateDirectory@@SIXPAU1@PAU1@@Z 0201b394 f   sc.obj
 0001:0001a3e8       ?m_Equals@Struct_Microsoft_Singularity_Directory_DirectoryServiceContract_AckCreateDirectory@@SI_NPAU1@PAUClass_System_Object@@@Z 0201b3e8 f   sc.obj
 0001:0001a420       ?m_Equals@Struct_Microsoft_Singularity_Directory_DirectoryServiceContract_AckCreateDirectory@@SI_NPAUClass_Microsoft_Singularity_Directory_DirectoryServiceContract_AckCreateDirectory@@PAUClass_System_Object@@@Z 0201b420 f   sc.obj
 0001:0001a44c       ?m_Visit@Class_System_GCs_Verifier_GenericObjectVisitor@@SIPAUuintPtr@@PAU1@PAUClass_System_Object@@@Z 0201b44c f   sc.obj
 0001:0001a478       ?m__ctor@Class_System_GCs_Verifier_GenericObjectVisitor@@SIXPAU1@PAUClass_System_GCs_NonNullReferenceVisitor@@@Z 0201b478 f   sc.obj
 0001:0001a4a8       ?m_ToString@int64@@SIPAUClass_System_String@@PA_J@Z 0201b4a8 f   sc.obj
 0001:0001a4d0       ?m_ToString@int64@@SIPAUClass_System_String@@PA_JPAU2@@Z 0201b4d0 f   sc.obj
 0001:0001a524       ?m_ToString@int64@@SIPAUClass_System_String@@PAUClass_System_Int64@@@Z 0201b524 f   sc.obj
 0001:0001a54c       ?m_ToString@int64@@SIPAUClass_System_String@@PAUClass_System_Int64@@PAU2@@Z 0201b54c f   sc.obj
 0001:0001a578       ?m_GetHashCode@int64@@SIHPA_J@Z 0201b578 f   sc.obj
 0001:0001a5ac       ?m_GetHashCode@int64@@SIHPAUClass_System_Int64@@@Z 0201b5ac f   sc.obj
 0001:0001a5d4       ?m_Equals@int64@@SI_NPA_JPAUClass_System_Object@@@Z 0201b5d4 f   sc.obj
 0001:0001a644       ?m_Equals@int64@@SI_NPAUClass_System_Int64@@PAUClass_System_Object@@@Z 0201b644 f   sc.obj
 0001:0001a670       ?m_CompareTo@int64@@SIHPA_JPAUClass_System_Object@@@Z 0201b670 f   sc.obj
 0001:0001a764       ?m_CompareTo@int64@@SIHPAUClass_System_Int64@@PAUClass_System_Object@@@Z 0201b764 f   sc.obj
 0001:0001a790       ?m_StructCopy@Struct_Microsoft_Singularity_Isal_IX_PE@@SIXPAU1@0@Z 0201b790 f   sc.obj
 0001:0001a7ac       ?m_StructCopy@Struct_Microsoft_Singularity_Isal_IX_PE@@SIXPAU1@PAU1@@Z 0201b7ac f   sc.obj
 0001:0001a800       ?m_Equals@Struct_Microsoft_Singularity_Isal_IX_PE@@SI_NPAU1@PAUClass_System_Object@@@Z 0201b800 f   sc.obj
 0001:0001a838       ?m_Equals@Struct_Microsoft_Singularity_Isal_IX_PE@@SI_NPAUClass_Microsoft_Singularity_Isal_IX_PE@@PAUClass_System_Object@@@Z 0201b838 f   sc.obj
 0001:0001a864       ?g_NewRegisteredCounters@Class_System_TryAllCounters@@SIPAU1@XZ 0201b864 f   sc.obj
 0001:0001a8f0       ?m_MergeCounters@Class_System_TryAllCounters@@SIXPAU1@0@Z 0201b8f0 f   sc.obj
 0001:0001b0b0       ?m_IncrementWeakRefsClearedInUpdateLog@Class_System_TryAllCounters@@SIXPAU1@@Z 0201c0b0 f   sc.obj
 0001:0001b0e0       ?m_IncrementWeakRefsClearedInUpdateEnlistmentLog@Class_System_TryAllCounters@@SIXPAU1@@Z 0201c0e0 f   sc.obj
 0001:0001b110       ?m_IncrementWeakRefsClearedInReadEnlistmentLog@Class_System_TryAllCounters@@SIXPAU1@@Z 0201c110 f   sc.obj
 0001:0001b140       ?m_IncrementUpdatesInReadEnlistmentsAtGC@Class_System_TryAllCounters@@SIXPAU1@@Z 0201c140 f   sc.obj
 0001:0001b170       ?m_IncrementReadDuplicatesRemoved@Class_System_TryAllCounters@@SIXPAU1@@Z 0201c170 f   sc.obj
 0001:0001b1a0       ?m_IncrementInvalidOutsideGC@Class_System_TryAllCounters@@SIXPAU1@@Z 0201c1a0 f   sc.obj
 0001:0001b1d0       ?m_IncrementInvalidDuringGC@Class_System_TryAllCounters@@SIXPAU1@@Z 0201c1d0 f   sc.obj
 0001:0001b1f8       ?m_IncrementInvalidConflict@Class_System_TryAllCounters@@SIXPAU1@@Z 0201c1f8 f   sc.obj
 0001:0001b220       ?m_IncrementInflationSeen@Class_System_TryAllCounters@@SIXPAU1@@Z 0201c220 f   sc.obj
 0001:0001b248       ?m_IncrementEnlistmentOverflow@Class_System_TryAllCounters@@SIXPAU1@@Z 0201c248 f   sc.obj
 0001:0001b270       ?m_IncrementCachesCreated@Class_System_TryAllCounters@@SIXPAU1@@Z 0201c270 f   sc.obj
 0001:0001b298       ?m_DumpStats@Class_System_TryAllCounters@@SIXPAU1@@Z 0201c298 f   sc.obj
 0001:0001d7c8       ?g_DumpRegisteredCounters@Class_System_TryAllCounters@@SIXXZ 0201e7c8 f   sc.obj
 0001:0001d858       ?m__ctor@Class_System_TryAllCounters@@SIXPAU1@@Z 0201e858 f   sc.obj
 0001:0001d874       ?g__cctor@Class_System_TryAllCounters@@SIXXZ 0201e874 f   sc.obj
 0001:0001d8a4       ?m_StructCopy@Struct_Microsoft_Singularity_Io_UnicodePipeContract_Imp@@SIXPAU1@0@Z 0201e8a4 f   sc.obj
 0001:0001d990       ?m_StructCopy@Struct_Microsoft_Singularity_Io_UnicodePipeContract_Imp@@SIXPAU1@PAU1@@Z 0201e990 f   sc.obj
 0001:0001dc54       ?m_SendWrite@Struct_Microsoft_Singularity_Io_UnicodePipeContract_Imp@@SIXPAU1@PA_WHH@Z 0201ec54 f   sc.obj
 0001:0001dd7c       ?m_Release@Struct_Microsoft_Singularity_Io_UnicodePipeContract_Imp@@SIXPAU1@@Z 0201ed7c f   sc.obj
 0001:0001dd98       ?m_RecvAckWrite@Struct_Microsoft_Singularity_Io_UnicodePipeContract_Imp@@SIXPAU1@PAPA_W@Z 0201ed98 f   sc.obj
 0001:0001df20       ?m_Peek@Struct_Microsoft_Singularity_Io_UnicodePipeContract_Imp@@SIHPAU1@@Z 0201ef20 f   sc.obj
 0001:0001e0c8       ?m_MarshallDeliverAckWrite0@Struct_Microsoft_Singularity_Io_UnicodePipeContract_Imp@@SIXPAU1@PA_WPAUStruct_Microsoft_Singularity_Channels_Endpoint@@@Z 0201f0c8 f   sc.obj
 0001:0001e118       ?m_HeadMatches@Struct_Microsoft_Singularity_Io_UnicodePipeContract_Imp@@SI_NPAU1@HPA_NPAPAUClass_System_Object@@@Z 0201f118 f   sc.obj
 0001:0001e1d8       ?m_HeadMatches@Struct_Microsoft_Singularity_Io_UnicodePipeContract_Imp@@SI_NPAUClass_Microsoft_Singularity_Io_UnicodePipeContract_Imp@@HPA_NPAPAUClass_System_Object@@@Z 0201f1d8 f   sc.obj
 0001:0001e210       ?m_Equals@Struct_Microsoft_Singularity_Io_UnicodePipeContract_Imp@@SI_NPAU1@PAUClass_System_Object@@@Z 0201f210 f   sc.obj
 0001:0001e548       ?m_Equals@Struct_Microsoft_Singularity_Io_UnicodePipeContract_Imp@@SI_NPAUClass_Microsoft_Singularity_Io_UnicodePipeContract_Imp@@PAUClass_System_Object@@@Z 0201f548 f   sc.obj
 0001:0001e574       ?m_Dispose@Struct_Microsoft_Singularity_Io_UnicodePipeContract_Imp@@SIXPAU1@@Z 0201f574 f   sc.obj
 0001:0001e598       ?m_Dispose@Struct_Microsoft_Singularity_Io_UnicodePipeContract_Imp@@SIXPAUClass_Microsoft_Singularity_Io_UnicodePipeContract_Imp@@@Z 0201f598 f   sc.obj
 0001:0001e5c0       ?m_DeliverAckWrite0@Struct_Microsoft_Singularity_Io_UnicodePipeContract_Imp@@SIXPAU1@PA_W@Z 0201f5c0 f   sc.obj
 0001:0001e608       ?m_CurrentState@Struct_Microsoft_Singularity_Io_UnicodePipeContract_Imp@@SIPAUClass_System_String@@PAU1@@Z 0201f608 f   sc.obj
 0001:0001e694       ?g_WriteHelperShort@Class_System_Buffer@@SIXPAFF_N@Z 0201f694 f   sc.obj
 0001:0001e6d8       ?g_WriteHelperInt@Class_System_Buffer@@SIXPAHH_N@Z 0201f6d8 f   sc.obj
 0001:0001e714       ?g_WriteHelperByte@Class_System_Buffer@@SIXPAEE_N@Z 0201f714 f   sc.obj
 0001:0001e750       ?g_ReadHelperShort@Class_System_Buffer@@SIFPAF_N@Z 0201f750 f   sc.obj
 0001:0001e788       ?g_ReadHelperInt@Class_System_Buffer@@SIHPAH_N@Z 0201f788 f   sc.obj
 0001:0001e7bc       ?g_ReadHelperByte@Class_System_Buffer@@SIEPAE_N@Z 0201f7bc f   sc.obj
 0001:0001e7f0       ?g_MoveMemoryVolatile@Class_System_Buffer@@SIXPAE0H@Z 0201f7f0 f   sc.obj
 0001:0001f0d4       ?g_MoveMemoryImpl@Class_System_Buffer@@SIXPAE0H_N@Z 020200d4 f   sc.obj
 0001:0001fe1c       ?g_MoveMemory@Class_System_Buffer@@SIXPAE0PAUuintPtr@@@Z 02020e1c f   sc.obj
 0001:0001fe4c       ?g_InitMemoryVolatile@Class_System_Buffer@@SIXPAEEH@Z 02020e4c f   sc.obj
 0001:000200ac       ?g_InitMemoryImpl@Class_System_Buffer@@SIXPAEEH_N@Z 020210ac f   sc.obj
 0001:0002033c       ?g_InitMemory@Class_System_Buffer@@SIXPAEEH@Z 0202133c f   sc.obj
 0001:0002059c       ?m__ctor@Class_System_Buffer@@SIXPAU1@@Z 0202159c f   sc.obj
 0001:000205b8       ?g_ReleaseDSPChannel@Class_Microsoft_Singularity_Directory_SdsUtils@@SIXPAUClass_System_String@@PAUStruct_Microsoft_Singularity_Directory_DirectoryServiceContract_Imp@@@Z 020215b8 f   sc.obj
 0001:000206cc       ?g_GetDSPChannel@Class_Microsoft_Singularity_Directory_SdsUtils@@SIPAUStruct_Microsoft_Singularity_Directory_DirectoryServiceContract_Imp@@PAU2@PAUClass_System_String@@PAUStruct_Microsoft_Singularity_Directory_ErrorCode@@@Z 020216cc f   sc.obj
 0001:000208f0       ?g_ErrorCodeToString@Class_Microsoft_Singularity_Directory_SdsUtils@@SIPAUClass_System_String@@UStruct_Microsoft_Singularity_Directory_ErrorCode@@@Z 020218f0 f   sc.obj
 0001:00020ad8       ?g_BindDSP@Class_Microsoft_Singularity_Directory_SdsUtils@@SI_NPAUClass_System_String@@PAUStruct_Microsoft_Singularity_Directory_DirectoryServiceContract_Imp@@PAUStruct_Microsoft_Singularity_Directory_ServiceContract_Exp@@PAUStruct_Microsoft_Singularity_Directory_ErrorCode@@@Z 02021ad8 f   sc.obj
 0001:00020d70       ?g_Bind@Class_Microsoft_Singularity_Directory_SdsUtils@@SI_NPAUClass_System_String@@PAUStruct_Microsoft_Singularity_Directory_DirectoryServiceContract_Imp@@PAUStruct_Microsoft_Singularity_Directory_ServiceContract_Exp@@PAUStruct_Microsoft_Singularity_Directory_ErrorCode@@@Z 02021d70 f   sc.obj
 0001:000210f0       ?m__ctor@Class_Microsoft_Singularity_Directory_SdsUtils@@SIXPAU1@@Z 020220f0 f   sc.obj
 0001:00021108       ?g__cctor@Class_Microsoft_Singularity_Directory_SdsUtils@@SIXXZ 02022108 f   sc.obj
 0001:000218e4       ?m_StructCopy@Struct_Microsoft_Singularity_Directory_DirectoryServiceContract_Success@@SIXPAU1@0@Z 020228e4 f   sc.obj
 0001:00021900       ?m_StructCopy@Struct_Microsoft_Singularity_Directory_DirectoryServiceContract_Success@@SIXPAU1@PAU1@@Z 02022900 f   sc.obj
 0001:00021954       ?m_Equals@Struct_Microsoft_Singularity_Directory_DirectoryServiceContract_Success@@SI_NPAU1@PAUClass_System_Object@@@Z 02022954 f   sc.obj
 0001:0002198c       ?m_Equals@Struct_Microsoft_Singularity_Directory_DirectoryServiceContract_Success@@SI_NPAUClass_Microsoft_Singularity_Directory_DirectoryServiceContract_Success@@PAUClass_System_Object@@@Z 0202298c f   sc.obj
 0001:000219b8       ?m_StructCopy@Struct_Microsoft_Singularity_V1_Services_PageTableService@@SIXPAU1@0@Z 020229b8 f   sc.obj
 0001:000219d4       ?m_StructCopy@Struct_Microsoft_Singularity_V1_Services_PageTableService@@SIXPAU1@PAU1@@Z 020229d4 f   sc.obj
 0001:00021a28       ?g_Query@Struct_Microsoft_Singularity_V1_Services_PageTableService@@SI_NPAUuintPtr@@PAPAU2@1@Z 02022a28 f   sc.obj
 0001:00021a90       ?m_Equals@Struct_Microsoft_Singularity_V1_Services_PageTableService@@SI_NPAU1@PAUClass_System_Object@@@Z 02022a90 f   sc.obj
 0001:00021ac8       ?m_Equals@Struct_Microsoft_Singularity_V1_Services_PageTableService@@SI_NPAUClass_Microsoft_Singularity_V1_Services_PageTableService@@PAUClass_System_Object@@@Z 02022ac8 f   sc.obj
 0001:00021af4       ?m_StructCopy@Struct_Microsoft_Singularity_ThreadContext@@SIXPAU1@0@Z 02022af4 f   sc.obj
 0001:00021ca4       ?m_StructCopy@Struct_Microsoft_Singularity_ThreadContext@@SIXPAU1@PAU1@@Z 02022ca4 f   sc.obj
 0001:000221b4       ?m_SetProcessMode@Struct_Microsoft_Singularity_ThreadContext@@SIXPAU1@@Z 020231b4 f   sc.obj
 0001:000221f0       ?m_SetKernelMode@Struct_Microsoft_Singularity_ThreadContext@@SIXPAU1@@Z 020231f0 f   sc.obj
 0001:00022230       ?g_ParentModeMarker@Struct_Microsoft_Singularity_ThreadContext@@SIPAUStruct_System_GCs_CallStack_TransitionRecord@@PAU2@@Z 02023230 f   sc.obj
 0001:00022284       ?m_IsInKernelMode@Struct_Microsoft_Singularity_ThreadContext@@SI_NPAU1@@Z 02023284 f   sc.obj
 0001:000222e0       ?m_get$_thread@Struct_Microsoft_Singularity_ThreadContext@@SIPAUClass_System_Threading_Thread@@PAU1@@Z 020232e0 f   sc.obj
 0001:00022304       ?m_Equals@Struct_Microsoft_Singularity_ThreadContext@@SI_NPAU1@PAUClass_System_Object@@@Z 02023304 f   sc.obj
 0001:000225a4       ?m_Equals@Struct_Microsoft_Singularity_ThreadContext@@SI_NPAUClass_Microsoft_Singularity_ThreadContext@@PAUClass_System_Object@@@Z 020235a4 f   sc.obj
 0001:000225d0       ?g_Truncate@Class_System_GCs_BootstrapMemory@@SIXXZ 020235d0 f   sc.obj
 0001:00022734       ?g_Initialize@Class_System_GCs_BootstrapMemory@@SIXPAUuintPtr@@@Z 02023734 f   sc.obj
 0001:00022778       ?g_AllocateBlock@Class_System_GCs_BootstrapMemory@@SIPAUuintPtr@@PAU2@I@Z 02023778 f   sc.obj
 0001:000228a8       ?g_Allocate@Class_System_GCs_BootstrapMemory@@SIPAUClass_System_Object@@PAUClass_System_VTable@@@Z 020238a8 f   sc.obj
 0001:00022960       ?g_Allocate@Class_System_GCs_BootstrapMemory@@SIPAUClass_System_Object@@PAUClass_System_VTable@@I@Z 02023960 f   sc.obj
 0001:000229d8       ?g_Allocate@Class_System_GCs_BootstrapMemory@@SIPAUClass_System_Object@@PAUClass_System_Type@@@Z 020239d8 f   sc.obj
 0001:000229fc       ?g_Allocate@Class_System_GCs_BootstrapMemory@@SIPAUClass_System_Object@@PAUClass_System_Type@@I@Z 020239fc f   sc.obj
 0001:00022a28       ?g_Allocate@Class_System_GCs_BootstrapMemory@@SIPAUClass_System_Object@@PAUClass_System_RuntimeType@@@Z 02023a28 f   sc.obj
 0001:00022a4c       ?g_Allocate@Class_System_GCs_BootstrapMemory@@SIPAUClass_System_Object@@PAUClass_System_RuntimeType@@I@Z 02023a4c f   sc.obj
 0001:00022a78       ?m__ctor@Class_System_GCs_BootstrapMemory@@SIXPAU1@@Z 02023a78 f   sc.obj
 0001:00022a90       ?m_ToString@int8@@SIPAUClass_System_String@@PAC@Z 02023a90 f   sc.obj
 0001:00022ab8       ?m_ToString@int8@@SIPAUClass_System_String@@PACPAU2@@Z 02023ab8 f   sc.obj
 0001:00022bb0       ?m_ToString@int8@@SIPAUClass_System_String@@PAUClass_System_SByte@@@Z 02023bb0 f   sc.obj
 0001:00022bd8       ?m_ToString@int8@@SIPAUClass_System_String@@PAUClass_System_SByte@@PAU2@@Z 02023bd8 f   sc.obj
 0001:00022c04       ?m_GetHashCode@int8@@SIHPAC@Z 02023c04 f   sc.obj
 0001:00022c34       ?m_GetHashCode@int8@@SIHPAUClass_System_SByte@@@Z 02023c34 f   sc.obj
 0001:00022c5c       ?m_Equals@int8@@SI_NPACPAUClass_System_Object@@@Z 02023c5c f   sc.obj
 0001:00022cbc       ?m_Equals@int8@@SI_NPAUClass_System_SByte@@PAUClass_System_Object@@@Z 02023cbc f   sc.obj
 0001:00022ce8       ?m_CompareTo@int8@@SIHPACPAUClass_System_Object@@@Z 02023ce8 f   sc.obj
 0001:00022d74       ?m_CompareTo@int8@@SIHPAUClass_System_SByte@@PAUClass_System_Object@@@Z 02023d74 f   sc.obj
 0001:00022da0       ?m_Visit@Class_System_GCs_MarkSweepCollector_UpdateReferenceVisitor@@SIXPAU1@PAPAUuintPtr@@@Z 02023da0 f   sc.obj
 0001:00023048       ?m__ctor@Class_System_GCs_MarkSweepCollector_UpdateReferenceVisitor@@SIXPAU1@@Z 02024048 f   sc.obj
 0001:0002306c       ?m_StructCopy@Struct_Microsoft_Singularity_Directory_DirectoryServiceContract_EnumerationTerminated@@SIXPAU1@0@Z 0202406c f   sc.obj
 0001:00023094       ?m_StructCopy@Struct_Microsoft_Singularity_Directory_DirectoryServiceContract_EnumerationTerminated@@SIXPAU1@PAU1@@Z 02024094 f   sc.obj
 0001:0002310c       ?m_Equals@Struct_Microsoft_Singularity_Directory_DirectoryServiceContract_EnumerationTerminated@@SI_NPAU1@PAUClass_System_Object@@@Z 0202410c f   sc.obj
 0001:000231ac       ?m_Equals@Struct_Microsoft_Singularity_Directory_DirectoryServiceContract_EnumerationTerminated@@SI_NPAUClass_Microsoft_Singularity_Directory_DirectoryServiceContract_EnumerationTerminated@@PAUClass_System_Object@@@Z 020241ac f   sc.obj
 0001:000231d8       ?m_set$_Value@Class_System_MutableInt32@@SIXPAU1@H@Z 020241d8 f   sc.obj
 0001:00023200       ?m_get$_Value@Class_System_MutableInt32@@SIHPAU1@@Z 02024200 f   sc.obj
 0001:00023220       ?m__ctor@Class_System_MutableInt32@@SIXPAU1@H@Z 02024220 f   sc.obj
 0001:00023248       ?m_StructCopy@Struct_Microsoft_Singularity_Isal_IX_Gdtp@@SIXPAU1@0@Z 02024248 f   sc.obj
 0001:0002328c       ?m_StructCopy@Struct_Microsoft_Singularity_Isal_IX_Gdtp@@SIXPAU1@PAU1@@Z 0202428c f   sc.obj
 0001:00023358       ?m_Equals@Struct_Microsoft_Singularity_Isal_IX_Gdtp@@SI_NPAU1@PAUClass_System_Object@@@Z 02024358 f   sc.obj
 0001:000233c8       ?m_Equals@Struct_Microsoft_Singularity_Isal_IX_Gdtp@@SI_NPAUClass_Microsoft_Singularity_Isal_IX_Gdtp@@PAUClass_System_Object@@@Z 020243c8 f   sc.obj
 0001:000233f4       ?m__ctor@Class_System_Threading_ThreadStateException@@SIXPAU1@@Z 020243f4 f   sc.obj
 0001:0002341c       ?m__ctor@Class_System_Threading_ThreadStateException@@SIXPAU1@PAUClass_System_String@@@Z 0202441c f   sc.obj
 0001:00023444       ?g_WaitForPendingFinalizers@Class_System_GC@@SIXXZ 02024444 f   sc.obj
 0001:0002345c       ?g_ThreadStartNotification@Class_System_GC@@SIXH@Z 0202445c f   sc.obj
 0001:00023488       ?g_ThreadDormantGCNotification@Class_System_GC@@SIXH@Z 02024488 f   sc.obj
 0001:000234b4       ?g_SuppressFinalize@Class_System_GC@@SIXPAUClass_System_Object@@@Z 020244b4 f   sc.obj
 0001:0002351c       ?g_Shutdown@Class_System_GC@@SIXXZ 0202451c f   sc.obj
 0001:00023544       ?g_SetProfiler@Class_System_GC@@SIXPAUClass_System_GCs_GCProfiler@@@Z 02024544 f   sc.obj
 0001:00023578       ?g_NewThreadNotification@Class_System_GC@@SIXPAUClass_System_Threading_Thread@@_N@Z 02024578 f   sc.obj
 0001:000235b4       ?g_nativeSuppressFinalize@Class_System_GC@@SIXPAUClass_System_Object@@@Z 020245b4 f   sc.obj
 0001:000235d8       ?g_KeepAlive@Class_System_GC@@SIXPAUClass_System_Object@@@Z 020245d8 f   sc.obj
 0001:00023604       ?g_InvokeCollection@Class_System_GC@@SIXPAUClass_System_Threading_Thread@@@Z 02024604 f   sc.obj
 0001:00023630       ?g_Initialize@Class_System_GC@@SIXXZ 02024630 f   sc.obj
 0001:00023668       ?g_GetTotalMemory@Class_System_GC@@SI_J_N@Z 02024668 f   sc.obj
 0001:000237d8       ?g_get$_MaxGeneration@Class_System_GC@@SIHXZ 020247d8 f   sc.obj
 0001:000237fc       ?g_get$_IsProfiling@Class_System_GC@@SI_NXZ 020247fc f   sc.obj
 0001:00023814       ?g_FinishInitializeThread@Class_System_GC@@SIXXZ 02024814 f   sc.obj
 0001:0002382c       ?g_EnableHeap@Class_System_GC@@SIXXZ 0202482c f   sc.obj
 0001:00023874       ?g_DestructHeap@Class_System_GC@@SIXXZ 02024874 f   sc.obj
 0001:0002389c       ?g_DeadThreadNotification@Class_System_GC@@SIXPAUClass_System_Threading_Thread@@@Z 0202489c f   sc.obj
 0001:000238c8       ?g_ConstructHeap@Class_System_GC@@SIXXZ 020248c8 f   sc.obj
 0001:00023968       ?g_CollectTransition@Class_System_GC@@SIXPAUClass_System_Threading_Thread@@H@Z 02024968 f   sc.obj
 0001:00023990       ?g_CollectBody@Class_System_GC@@SIPAUClass_System_Threading_Thread@@PAU2@H@Z 02024990 f   sc.obj
 0001:000239f4       ?g_Collect@Class_System_GC@@SIXXZ 020249f4 f   sc.obj
 0001:00023a38       ?g_CheckForNeededGCWork@Class_System_GC@@SIXPAUClass_System_Threading_Thread@@@Z 02024a38 f   sc.obj
 0001:00023a60       ?g_AllocateVector@Class_System_GC@@SIPAUClass_System_Array@@PAUClass_System_VTable@@H@Z 02024a60 f   sc.obj
 0001:00023b64       ?g_AllocateVector@Class_System_GC@@SIPAUClass_System_Array@@PAUClass_System_VTable@@HPAUClass_System_Threading_Thread@@@Z 02024b64 f   sc.obj
 0001:00023c54       ?g_AllocateString@Class_System_GC@@SIPAUClass_System_String@@H@Z 02024c54 f   sc.obj
 0001:00023d48       ?g_AllocateString@Class_System_GC@@SIPAUClass_System_String@@HPAUClass_System_Threading_Thread@@@Z 02024d48 f   sc.obj
 0001:00023e34       ?g_AllocateObjectNoInline@Class_System_GC@@SIPAUClass_System_Object@@PAUClass_System_VTable@@@Z 02024e34 f   sc.obj
 0001:00023f38       ?g_AllocateObjectNoInline@Class_System_GC@@SIPAUClass_System_Object@@PAUClass_System_VTable@@PAUClass_System_Threading_Thread@@@Z 02024f38 f   sc.obj
 0001:00024030       ?g_AllocateObject@Class_System_GC@@SIPAUClass_System_Object@@PAUClass_System_VTable@@@Z 02025030 f   sc.obj
 0001:00024124       ?g_AllocateObject@Class_System_GC@@SIPAUClass_System_Object@@PAUClass_System_VTable@@PAUuintPtr@@IPAUClass_System_Threading_Thread@@@Z 02025124 f   sc.obj
 0001:00024214       ?g_AllocateObject@Class_System_GC@@SIPAUClass_System_Object@@PAUClass_System_VTable@@PAUClass_System_Threading_Thread@@@Z 02025214 f   sc.obj
 0001:00024300       ?m__ctor@Class_System_GC@@SIXPAU1@@Z 02025300 f   sc.obj
 0001:0002431c       ?g__cctor@Class_System_GC@@SIXXZ 0202531c f   sc.obj
 0001:0002436c       ?m_StructCopy@Struct_System_ReadEnlistmentLog_Entry@@SIXPAU1@0@Z 0202536c f   sc.obj
 0001:000243a8       ?m_StructCopy@Struct_System_ReadEnlistmentLog_Entry@@SIXPAU1@PAU1@@Z 020253a8 f   sc.obj
 0001:0002445c       ?m_Equals@Struct_System_ReadEnlistmentLog_Entry@@SI_NPAU1@PAUClass_System_Object@@@Z 0202545c f   sc.obj
 0001:00024574       ?m_Equals@Struct_System_ReadEnlistmentLog_Entry@@SI_NPAUClass_System_ReadEnlistmentLog_Entry@@PAUClass_System_Object@@@Z 02025574 f   sc.obj
 0001:000245a0       ?m_StructCopy@Struct_Microsoft_Singularity_Directory_DirectoryServiceContract_StoreACL@@SIXPAU1@0@Z 020255a0 f   sc.obj
 0001:000245e0       ?m_StructCopy@Struct_Microsoft_Singularity_Directory_DirectoryServiceContract_StoreACL@@SIXPAU1@PAU1@@Z 020255e0 f   sc.obj
 0001:000246a0       ?m_Equals@Struct_Microsoft_Singularity_Directory_DirectoryServiceContract_StoreACL@@SI_NPAU1@PAUClass_System_Object@@@Z 020256a0 f   sc.obj
 0001:00024708       ?m_Equals@Struct_Microsoft_Singularity_Directory_DirectoryServiceContract_StoreACL@@SI_NPAUClass_Microsoft_Singularity_Directory_DirectoryServiceContract_StoreACL@@PAUClass_System_Object@@@Z 02025708 f   sc.obj
 0001:00024734       ?m__ctor@Class_Microsoft_Singularity_Memory_Stacks@@SIXPAU1@@Z 02025734 f   sc.obj
 0001:00024750       ?m_StructCopy@Struct_System_Threading_SpinLock@@SIXPAU1@0@Z 02025750 f   sc.obj
 0001:0002477c       ?m_StructCopy@Struct_System_Threading_SpinLock@@SIXPAU1@PAU1@@Z 0202577c f   sc.obj
 0001:00024800       ?m_ReleaseInternal@Struct_System_Threading_SpinLock@@SIXPAU1@PAUClass_System_Threading_Thread@@H@Z 02025800 f   sc.obj
 0001:0002487c       ?m_Release@Struct_System_Threading_SpinLock@@SIXPAU1@@Z 0202587c f   sc.obj
 0001:000248c0       ?m_Release@Struct_System_Threading_SpinLock@@SIXPAU1@PAUClass_System_Threading_Thread@@@Z 020258c0 f   sc.obj
 0001:000248f8       ?m_Equals@Struct_System_Threading_SpinLock@@SI_NPAU1@PAUClass_System_Object@@@Z 020258f8 f   sc.obj
 0001:000249bc       ?m_Equals@Struct_System_Threading_SpinLock@@SI_NPAUClass_System_Threading_SpinLock@@PAUClass_System_Object@@@Z 020259bc f   sc.obj
 0001:000249e8       ?m_AcquireInternal@Struct_System_Threading_SpinLock@@SIXPAU1@PAUClass_System_Threading_Thread@@H@Z 020259e8 f   sc.obj
 0001:00024ab0       ?m_Acquire@Struct_System_Threading_SpinLock@@SIXPAU1@@Z 02025ab0 f   sc.obj
 0001:00024af4       ?m_Acquire@Struct_System_Threading_SpinLock@@SIXPAU1@PAUClass_System_Threading_Thread@@@Z 02025af4 f   sc.obj
 0001:00024b2c       ?m_InvokeStaticStub@Class_System_TryAllManager_VisitMethod@@SIXPAU1@PAUClass_System_GCs_DirectReferenceVisitor@@@Z 02025b2c f   sc.obj
 0001:00024b5c       ?m_Invoke@Class_System_TryAllManager_VisitMethod@@SIXPAU1@PAUClass_System_GCs_DirectReferenceVisitor@@@Z 02025b5c f   sc.obj
 0001:00024bb8       ?m_EndInvoke@Class_System_TryAllManager_VisitMethod@@SIXPAU1@PAUClass_System_IAsyncResult@@@Z 02025bb8 f   sc.obj
 0001:00024bd4       ?m_BeginInvoke@Class_System_TryAllManager_VisitMethod@@SIPAUClass_System_IAsyncResult@@PAU1@PAUClass_System_GCs_DirectReferenceVisitor@@PAUClass_System_AsyncCallback@@PAUClass_System_Object@@@Z 02025bd4 f   sc.obj
 0001:00024bf4       ?m__ctor@Class_System_TryAllManager_VisitMethod@@SIXPAU1@PAUClass_System_Object@@PAUintPtr@@@Z 02025bf4 f   sc.obj
 0001:00024c34       ?m_InvokeStaticStub@Class_System_AsyncCallback@@SIXPAU1@PAUClass_System_IAsyncResult@@@Z 02025c34 f   sc.obj
 0001:00024c64       ?m_Invoke@Class_System_AsyncCallback@@SIXPAU1@PAUClass_System_IAsyncResult@@@Z 02025c64 f   sc.obj
 0001:00024cc0       ?m_EndInvoke@Class_System_AsyncCallback@@SIXPAU1@PAUClass_System_IAsyncResult@@@Z 02025cc0 f   sc.obj
 0001:00024cdc       ?m_BeginInvoke@Class_System_AsyncCallback@@SIPAUClass_System_IAsyncResult@@PAU1@PAU2@0PAUClass_System_Object@@@Z 02025cdc f   sc.obj
 0001:00024cfc       ?m__ctor@Class_System_AsyncCallback@@SIXPAU1@PAUClass_System_Object@@PAUintPtr@@@Z 02025cfc f   sc.obj
 0001:00024d60       ?m_StructCopy@Struct_Microsoft_Singularity_Directory_DirectoryServiceContract_Exp@@SIXPAU1@0@Z 02025d60 f   sc.obj
 0001:00024f88       ?m_StructCopy@Struct_Microsoft_Singularity_Directory_DirectoryServiceContract_Exp@@SIXPAU1@PAU1@@Z 02025f88 f   sc.obj
 0001:00025600       ?m_Peek@Struct_Microsoft_Singularity_Directory_DirectoryServiceContract_Exp@@SIHPAU1@@Z 02026600 f   sc.obj
 0001:00025fa8       ?m_MarshallDeliverBind0@Struct_Microsoft_Singularity_Directory_DirectoryServiceContract_Exp@@SIXPAU1@PA_WPAUStruct_Microsoft_Singularity_Directory_ServiceContract_Exp@@PAUStruct_Microsoft_Singularity_Channels_Endpoint@@@Z 02026fa8 f   sc.obj
 0001:00026004       ?m_HeadMatches@Struct_Microsoft_Singularity_Directory_DirectoryServiceContract_Exp@@SI_NPAU1@HPA_NPAPAUClass_System_Object@@@Z 02027004 f   sc.obj
 0001:000260c4       ?m_HeadMatches@Struct_Microsoft_Singularity_Directory_DirectoryServiceContract_Exp@@SI_NPAUClass_Microsoft_Singularity_Directory_DirectoryServiceContract_Exp@@HPA_NPAPAUClass_System_Object@@@Z 020270c4 f   sc.obj
 0001:000260fc       ?m_Equals@Struct_Microsoft_Singularity_Directory_DirectoryServiceContract_Exp@@SI_NPAU1@PAUClass_System_Object@@@Z 020270fc f   sc.obj
 0001:00026c60       ?m_Equals@Struct_Microsoft_Singularity_Directory_DirectoryServiceContract_Exp@@SI_NPAUClass_Microsoft_Singularity_Directory_DirectoryServiceContract_Exp@@PAUClass_System_Object@@@Z 02027c60 f   sc.obj
 0001:00026c8c       ?m_Dispose@Struct_Microsoft_Singularity_Directory_DirectoryServiceContract_Exp@@SIXPAU1@@Z 02027c8c f   sc.obj
 0001:00026cb0       ?m_Dispose@Struct_Microsoft_Singularity_Directory_DirectoryServiceContract_Exp@@SIXPAUClass_Microsoft_Singularity_Directory_DirectoryServiceContract_Exp@@@Z 02027cb0 f   sc.obj
 0001:00026cd8       ?m_DeliverBind0@Struct_Microsoft_Singularity_Directory_DirectoryServiceContract_Exp@@SIXPAU1@PA_WPAUStruct_Microsoft_Singularity_Directory_ServiceContract_Exp@@@Z 02027cd8 f   sc.obj
 0001:00026d28       ?m__ctor@Struct_Microsoft_Singularity_Directory_DirectoryServiceContract_Exp@@SIXPAU1@H@Z 02027d28 f   sc.obj
 0001:00026d54       ?m_VisitSmall@Class_System_GCs_SegregatedFreeList_ObjectVisitorWrapper@@SIXPAU1@PAUClass_System_Object@@PAUuintPtr@@@Z 02027d54 f   sc.obj
 0001:00026d80       ?m_VisitLarge@Class_System_GCs_SegregatedFreeList_ObjectVisitorWrapper@@SIPAUuintPtr@@PAU1@PAUClass_System_Object@@@Z 02027d80 f   sc.obj
 0001:00026dac       ?m__ctor@Class_System_GCs_SegregatedFreeList_ObjectVisitorWrapper@@SIXPAU1@PAUClass_System_GCs_ObjectLayout_ObjectVisitor@@@Z 02027dac f   sc.obj
 0001:00026ddc       ?m_StructCopy@Struct_System_GCs_CompressedFrameDescriptor@@SIXPAU1@0@Z 02027ddc f   sc.obj
 0001:00026e04       ?m_StructCopy@Struct_System_GCs_CompressedFrameDescriptor@@SIXPAU1@PAU1@@Z 02027e04 f   sc.obj
 0001:00026e7c       ?m_StackArgSize@Struct_System_GCs_CompressedFrameDescriptor@@SIIPAU1@@Z 02027e7c f   sc.obj
 0001:00026ea0       ?m_OverflowDescriptor@Struct_System_GCs_CompressedFrameDescriptor@@SIPAUStruct_System_GCs_OverflowFrameDescriptor@@PAU1@@Z 02027ea0 f   sc.obj
 0001:00026ec0       ?m_IsFramePointerOmitted@Struct_System_GCs_CompressedFrameDescriptor@@SI_NPAU1@@Z 02027ec0 f   sc.obj
 0001:00026ee8       ?m_IsFramePointerOmitted@Struct_System_GCs_CompressedFrameDescriptor@@SI_NPAU1@PAUStruct_System_GCs_OverflowFrameDescriptor@@@Z 02027ee8 f   sc.obj
 0001:00026f14       ?m_IsCompressed@Struct_System_GCs_CompressedFrameDescriptor@@SI_NPAU1@@Z 02027f14 f   sc.obj
 0001:00026f3c       ?m_InBetweenSlotsBelowWithFP@Struct_System_GCs_CompressedFrameDescriptor@@SIHPAU1@@Z 02027f3c f   sc.obj
 0001:00026f5c       ?m_InBetweenSlotsBelowNoFP@Struct_System_GCs_CompressedFrameDescriptor@@SIHPAU1@@Z 02027f5c f   sc.obj
 0001:00026f7c       ?m_InBetweenSlotsAboveWithFP@Struct_System_GCs_CompressedFrameDescriptor@@SIHPAU1@@Z 02027f7c f   sc.obj
 0001:00026f9c       ?m_InBetweenSlotsAboveNoFP@Struct_System_GCs_CompressedFrameDescriptor@@SIHPAU1@@Z 02027f9c f   sc.obj
 0001:00026fbc       ?m_HasTransitionRecord@Struct_System_GCs_CompressedFrameDescriptor@@SI_NPAU1@@Z 02027fbc f   sc.obj
 0001:00026fe4       ?m_HasTransitionRecord@Struct_System_GCs_CompressedFrameDescriptor@@SI_NPAU1@PAUStruct_System_GCs_OverflowFrameDescriptor@@@Z 02027fe4 f   sc.obj
 0001:00027010       ?m_HasPinnedPointersWithFP@Struct_System_GCs_CompressedFrameDescriptor@@SI_NPAU1@PAUStruct_System_GCs_OverflowFrameDescriptor@@@Z 02028010 f   sc.obj
 0001:0002703c       ?m_HasPinnedPointersNoFP@Struct_System_GCs_CompressedFrameDescriptor@@SI_NPAU1@PAUStruct_System_GCs_OverflowFrameDescriptor@@@Z 0202803c f   sc.obj
 0001:00027068       ?m_FrameSizeNoFP@Struct_System_GCs_CompressedFrameDescriptor@@SIHPAU1@@Z 02028068 f   sc.obj
 0001:0002708c       ?m_FrameSizeNoFP@Struct_System_GCs_CompressedFrameDescriptor@@SIHPAU1@PAUStruct_System_GCs_OverflowFrameDescriptor@@@Z 0202808c f   sc.obj
 0001:000270b0       ?m_Equals@Struct_System_GCs_CompressedFrameDescriptor@@SI_NPAU1@PAUClass_System_Object@@@Z 020280b0 f   sc.obj
 0001:000270f8       ?m_Equals@Struct_System_GCs_CompressedFrameDescriptor@@SI_NPAUClass_System_GCs_CompressedFrameDescriptor@@PAUClass_System_Object@@@Z 020280f8 f   sc.obj
 0001:00027124       ?m_EntrySizeWithFP@Struct_System_GCs_CompressedFrameDescriptor@@SIIPAU1@PAUStruct_System_GCs_OverflowFrameDescriptor@@@Z 02028124 f   sc.obj
 0001:0002714c       ?m_EntrySizeNoFP@Struct_System_GCs_CompressedFrameDescriptor@@SIIPAU1@PAUStruct_System_GCs_OverflowFrameDescriptor@@@Z 0202814c f   sc.obj
 0001:00027174       ?m_CalleeSaveValueMaskWithFP@Struct_System_GCs_CompressedFrameDescriptor@@SIPAUuintPtr@@PAU1@@Z 02028174 f   sc.obj
 0001:00027198       ?m_CalleeSaveValueMaskWithFP@Struct_System_GCs_CompressedFrameDescriptor@@SIPAUuintPtr@@PAU1@PAUStruct_System_GCs_OverflowFrameDescriptor@@@Z 02028198 f   sc.obj
 0001:000271c0       ?m_CalleeSaveValueMaskNoFP@Struct_System_GCs_CompressedFrameDescriptor@@SIPAUuintPtr@@PAU1@@Z 020281c0 f   sc.obj
 0001:000271e8       ?m_CalleeSaveValueMaskNoFP@Struct_System_GCs_CompressedFrameDescriptor@@SIPAUuintPtr@@PAU1@PAUStruct_System_GCs_OverflowFrameDescriptor@@@Z 020281e8 f   sc.obj
 0001:00027214       ?m_CalleeSaveMaskWithFP@Struct_System_GCs_CompressedFrameDescriptor@@SIPAUuintPtr@@PAU1@@Z 02028214 f   sc.obj
 0001:00027238       ?m_CalleeSaveMaskWithFP@Struct_System_GCs_CompressedFrameDescriptor@@SIPAUuintPtr@@PAU1@PAUStruct_System_GCs_OverflowFrameDescriptor@@@Z 02028238 f   sc.obj
 0001:00027260       ?m_CalleeSaveMaskNoFP@Struct_System_GCs_CompressedFrameDescriptor@@SIPAUuintPtr@@PAU1@@Z 02028260 f   sc.obj
 0001:00027284       ?m_CalleeSaveMaskNoFP@Struct_System_GCs_CompressedFrameDescriptor@@SIPAUuintPtr@@PAU1@PAUStruct_System_GCs_OverflowFrameDescriptor@@@Z 02028284 f   sc.obj
 0001:000272ac       ?m_ArgumentMaskWithFP@Struct_System_GCs_CompressedFrameDescriptor@@SIPAUuintPtr@@PAU1@@Z 020282ac f   sc.obj
 0001:000272d0       ?m_ArgumentMaskNoFP@Struct_System_GCs_CompressedFrameDescriptor@@SIPAUuintPtr@@PAU1@@Z 020282d0 f   sc.obj
 0001:000272f4       ?m_Write@Struct_System_GCs_UIntPtrStack@@SIXPAU1@PAUuintPtr@@@Z 020282f4 f   sc.obj
 0001:00027344       ?m_StructCopy@Struct_System_GCs_UIntPtrStack@@SIXPAU1@0@Z 02028344 f   sc.obj
 0001:000273a0       ?m_StructCopy@Struct_System_GCs_UIntPtrStack@@SIXPAU1@PAU1@@Z 020283a0 f   sc.obj
 0001:000274b4       ?m_RetractPage@Struct_System_GCs_UIntPtrStack@@SIXPAU1@@Z 020284b4 f   sc.obj
 0001:0002751c       ?m_Read@Struct_System_GCs_UIntPtrStack@@SIPAUuintPtr@@PAU1@@Z 0202851c f   sc.obj
 0001:00027560       ?m_get$_IsEmpty@Struct_System_GCs_UIntPtrStack@@SI_NPAU1@@Z 02028560 f   sc.obj
 0001:000275b8       ?m_Equals@Struct_System_GCs_UIntPtrStack@@SI_NPAU1@PAUClass_System_Object@@@Z 020285b8 f   sc.obj
 0001:000276bc       ?m_Equals@Struct_System_GCs_UIntPtrStack@@SI_NPAUClass_System_GCs_UIntPtrStack@@PAUClass_System_Object@@@Z 020286bc f   sc.obj
 0001:000276e8       ?m_Cleanup@Struct_System_GCs_UIntPtrStack@@SIXPAU1@_N@Z 020286e8 f   sc.obj
 0001:000277bc       ?m_AdvancePage@Struct_System_GCs_UIntPtrStack@@SIXPAU1@@Z 020287bc f   sc.obj
 0001:0002789c       ?g_RestoreLocalPreemption@Class_Microsoft_Singularity_Processor@@SIX_N@Z 0202889c f   sc.obj
 0001:000278b8       ?g_GetCycleCount@Class_Microsoft_Singularity_Processor@@SI_KXZ 020288b8 f   sc.obj
 0001:000278d0       ?g_GetCurrentThreadContext@Class_Microsoft_Singularity_Processor@@SIPAUStruct_Microsoft_Singularity_ThreadContext@@XZ 020288d0 f   sc.obj
 0001:000278e8       ?g_GetCurrentThread@Class_Microsoft_Singularity_Processor@@SIPAUClass_System_Threading_Thread@@XZ 020288e8 f   sc.obj
 0001:00027908       ?g_GetCurrentProcessorContext@Class_Microsoft_Singularity_Processor@@SIPAUStruct_Microsoft_Singularity_ProcessorContext@@XZ 02028908 f   sc.obj
 0001:00027920       ?g_get$_CycleCount@Class_Microsoft_Singularity_Processor@@SI_KXZ 02028920 f   sc.obj
 0001:00027938       ?g_DisableLocalPreemption@Class_Microsoft_Singularity_Processor@@SI_NXZ 02028938 f   sc.obj
 0001:00027950       ?m__ctor@Class_Microsoft_Singularity_Processor@@SIXPAU1@@Z 02028950 f   sc.obj
 0001:0002796c       ?m_StructCopy@Struct_Microsoft_Singularity_Directory_ServiceContract_ContractNotSupported@@SIXPAU1@0@Z 0202896c f   sc.obj
 0001:00027988       ?m_StructCopy@Struct_Microsoft_Singularity_Directory_ServiceContract_ContractNotSupported@@SIXPAU1@PAU1@@Z 02028988 f   sc.obj
 0001:000279dc       ?m_Equals@Struct_Microsoft_Singularity_Directory_ServiceContract_ContractNotSupported@@SI_NPAU1@PAUClass_System_Object@@@Z 020289dc f   sc.obj
 0001:00027a14       ?m_Equals@Struct_Microsoft_Singularity_Directory_ServiceContract_ContractNotSupported@@SI_NPAUClass_Microsoft_Singularity_Directory_ServiceContract_ContractNotSupported@@PAUClass_System_Object@@@Z 02028a14 f   sc.obj
 0001:00027a40       ?m_StructCopy@Struct_Microsoft_Singularity_Directory_DirectoryServiceContract_NakRegister@@SIXPAU1@0@Z 02028a40 f   sc.obj
 0001:00027a74       ?m_StructCopy@Struct_Microsoft_Singularity_Directory_DirectoryServiceContract_NakRegister@@SIXPAU1@PAU1@@Z 02028a74 f   sc.obj
 0001:00027b10       ?m_Equals@Struct_Microsoft_Singularity_Directory_DirectoryServiceContract_NakRegister@@SI_NPAU1@PAUClass_System_Object@@@Z 02028b10 f   sc.obj
 0001:00027bc0       ?m_Equals@Struct_Microsoft_Singularity_Directory_DirectoryServiceContract_NakRegister@@SI_NPAUClass_Microsoft_Singularity_Directory_DirectoryServiceContract_NakRegister@@PAUClass_System_Object@@@Z 02028bc0 f   sc.obj
 0001:00027bec       ?m_ToString@uint32@@SIPAUClass_System_String@@PAI@Z 02028bec f   sc.obj
 0001:00027c14       ?m_ToString@uint32@@SIPAUClass_System_String@@PAIPAU2@@Z 02028c14 f   sc.obj
 0001:00027c5c       ?m_ToString@uint32@@SIPAUClass_System_String@@PAUClass_System_UInt32@@@Z 02028c5c f   sc.obj
 0001:00027c84       ?m_ToString@uint32@@SIPAUClass_System_String@@PAUClass_System_UInt32@@PAU2@@Z 02028c84 f   sc.obj
 0001:00027cb0       ?m_GetHashCode@uint32@@SIHPAI@Z 02028cb0 f   sc.obj
 0001:00027cd0       ?m_GetHashCode@uint32@@SIHPAUClass_System_UInt32@@@Z 02028cd0 f   sc.obj
 0001:00027cf8       ?m_Equals@uint32@@SI_NPAIPAUClass_System_Object@@@Z 02028cf8 f   sc.obj
 0001:00027d54       ?m_Equals@uint32@@SI_NPAUClass_System_UInt32@@PAUClass_System_Object@@@Z 02028d54 f   sc.obj
 0001:00027d80       ?m_CompareTo@uint32@@SIHPAIPAUClass_System_Object@@@Z 02028d80 f   sc.obj
 0001:00027e30       ?m_CompareTo@uint32@@SIHPAUClass_System_UInt32@@PAUClass_System_Object@@@Z 02028e30 f   sc.obj
 0001:00027e5c       ?g_ConvertToLong@Class_System_RuntimeTypeHash@@SI_JPAUClassVector_uint8@@H@Z 02028e5c f   sc.obj
 0001:00027f30       ?g_ComputeHashAndReturnName@Class_System_RuntimeTypeHash@@SIPAUClassVector_uint8@@PAUClass_System_String@@PA_J1@Z 02028f30 f   sc.obj
 0001:00027fa0       ?g_ComputeHash@Class_System_RuntimeTypeHash@@SIXPAUClassVector_uint8@@PA_J1@Z 02028fa0 f   sc.obj
 0001:00028040       ?m__ctor@Class_System_RuntimeTypeHash@@SIXPAU1@@Z 02029040 f   sc.obj
 0001:00028058       ?m_StructCopy@Struct_Microsoft_Singularity_Directory_EnumerationRecords@@SIXPAU1@0@Z 02029058 f   sc.obj
 0001:0002808c       ?m_StructCopy@Struct_Microsoft_Singularity_Directory_EnumerationRecords@@SIXPAU1@PAU1@@Z 0202908c f   sc.obj
 0001:00028128       ?m_Release@Struct_Microsoft_Singularity_Directory_EnumerationRecords@@SIXPAU1@@Z 02029128 f   sc.obj
 0001:00028144       ?m_Release@Struct_Microsoft_Singularity_Directory_EnumerationRecords@@SIXPAUClass_Microsoft_Singularity_Directory_EnumerationRecords@@@Z 02029144 f   sc.obj
 0001:0002816c       ?m_Equals@Struct_Microsoft_Singularity_Directory_EnumerationRecords@@SI_NPAU1@PAUClass_System_Object@@@Z 0202916c f   sc.obj
 0001:00028220       ?m_Equals@Struct_Microsoft_Singularity_Directory_EnumerationRecords@@SI_NPAUClass_Microsoft_Singularity_Directory_EnumerationRecords@@PAUClass_System_Object@@@Z 02029220 f   sc.obj
 0001:0002824c       ?m_Dispose@Struct_Microsoft_Singularity_Directory_EnumerationRecords@@SIXPAU1@@Z 0202924c f   sc.obj
 0001:00028290       ?m_Dispose@Struct_Microsoft_Singularity_Directory_EnumerationRecords@@SIXPAUClass_Microsoft_Singularity_Directory_EnumerationRecords@@@Z 02029290 f   sc.obj
 0001:000282b8       ?m_Acquire@Struct_Microsoft_Singularity_Directory_EnumerationRecords@@SIXPAU1@@Z 020292b8 f   sc.obj
 0001:000282d4       ?m_Acquire@Struct_Microsoft_Singularity_Directory_EnumerationRecords@@SIXPAUClass_Microsoft_Singularity_Directory_EnumerationRecords@@@Z 020292d4 f   sc.obj
 0001:000282fc       ?m_StructCopy@Struct_Microsoft_Singularity_Directory_DirectoryServiceContract_AckBind@@SIXPAU1@0@Z 020292fc f   sc.obj
 0001:00028318       ?m_StructCopy@Struct_Microsoft_Singularity_Directory_DirectoryServiceContract_AckBind@@SIXPAU1@PAU1@@Z 02029318 f   sc.obj
 0001:0002836c       ?m_Equals@Struct_Microsoft_Singularity_Directory_DirectoryServiceContract_AckBind@@SI_NPAU1@PAUClass_System_Object@@@Z 0202936c f   sc.obj
 0001:000283a4       ?m_Equals@Struct_Microsoft_Singularity_Directory_DirectoryServiceContract_AckBind@@SI_NPAUClass_Microsoft_Singularity_Directory_DirectoryServiceContract_AckBind@@PAUClass_System_Object@@@Z 020293a4 f   sc.obj
 0001:000283d0       ?g_WriterIsValid@Class_System_ReadEnlistmentLog@@SI_NUStruct_System_ReadEnlistmentLogWriter@@@Z 020293d0 f   sc.obj
 0001:000283f0       ?m_VisitWeakRefs@Class_System_ReadEnlistmentLog@@SIXPAU1@PAUClass_System_TryAllManager@@PAUClass_System_GCs_DirectReferenceVisitor@@@Z 020293f0 f   sc.obj
 0001:00028964       ?m_ValidateAndRemoveDuplicates@Class_System_ReadEnlistmentLog@@SIXPAU1@PAUClass_System_TryAllManager@@@Z 02029964 f   sc.obj
 0001:00029444       ?m_Validate@Class_System_ReadEnlistmentLog@@SIXPAU1@PAUClass_System_TryAllManager@@_N@Z 0202a444 f   sc.obj
 0001:00029ad4       ?g_SyncFromWriter@Class_System_ReadEnlistmentLog@@SIXPAUClass_System_TryAllManager@@@Z 0202aad4 f   sc.obj
 0001:00029b58       ?g_InitWriter@Class_System_ReadEnlistmentLog@@SIXPAUClass_System_TryAllManager@@@Z 0202ab58 f   sc.obj
 0001:00029bd4       ?m_get$_CurrentLocation@Class_System_ReadEnlistmentLog@@SI?AUStruct_System_ReadEnlistmentLog_Location@@PAU1@@Z 0202abd4 f   sc.obj
 0001:00029c68       ?m_AddrToIndex@Class_System_ReadEnlistmentLog@@SIIPAU1@PAUStruct_System_ReadEnlistmentLog_Entry@@@Z 0202ac68 f   sc.obj
 0001:00029cf8       ?m_AddrOfEntry@Class_System_ReadEnlistmentLog@@SIPAUStruct_System_ReadEnlistmentLog_Entry@@PAU1@H@Z 0202acf8 f   sc.obj
 0001:00029d98       ?m__ctor@Class_System_ReadEnlistmentLog@@SIXPAU1@@Z 0202ad98 f   sc.obj
 0001:00029dfc       ?m_StructCopy@Struct_System_GCs_CalleeSaveLocations@@SIXPAU1@0@Z 0202adfc f   sc.obj
 0001:00029e6c       ?m_StructCopy@Struct_System_GCs_CalleeSaveLocations@@SIXPAU1@PAU1@@Z 0202ae6c f   sc.obj
 0001:00029fbc       ?m_SetCalleeSaves@Struct_System_GCs_CalleeSaveLocations@@SIXPAU1@PAUStruct_System_GCs_CalleeSaveRegisters@@@Z 0202afbc f   sc.obj
 0001:0002a058       ?m_ScanLiveRegs@Struct_System_GCs_CalleeSaveLocations@@SIXPAU1@PAUuintPtr@@PAUClass_System_GCs_NonNullReferenceVisitor@@@Z 0202b058 f   sc.obj
 0001:0002a0e4       ?m_PopFrame@Struct_System_GCs_CalleeSaveLocations@@SIXPAU1@PAPAUuintPtr@@PAU2@_N3@Z 0202b0e4 f   sc.obj
 0001:0002a20c       ?m_GetFramePointer@Struct_System_GCs_CalleeSaveLocations@@SIPAUuintPtr@@PAU1@@Z 0202b20c f   sc.obj
 0001:0002a234       ?m_Equals@Struct_System_GCs_CalleeSaveLocations@@SI_NPAU1@PAUClass_System_Object@@@Z 0202b234 f   sc.obj
 0001:0002a564       ?m_Equals@Struct_System_GCs_CalleeSaveLocations@@SI_NPAUClass_System_GCs_CalleeSaveLocations@@PAUClass_System_Object@@@Z 0202b564 f   sc.obj
 0001:0002a590       ?m_ClearFrame@Struct_System_GCs_CalleeSaveLocations@@SIXPAU1@PAUuintPtr@@_N@Z 0202b590 f   sc.obj
 0001:0002a654       ?m_ClearCalleeSaves@Struct_System_GCs_CalleeSaveLocations@@SIXPAU1@@Z 0202b654 f   sc.obj
 0001:0002a6a0       ?m_StructCopy@Struct_Microsoft_Singularity_Directory_FileAttributesRecord@@SIXPAU1@0@Z 0202b6a0 f   sc.obj
 0001:0002a728       ?m_StructCopy@Struct_Microsoft_Singularity_Directory_FileAttributesRecord@@SIXPAU1@PAU1@@Z 0202b728 f   sc.obj
 0001:0002a8c0       ?m_Equals@Struct_Microsoft_Singularity_Directory_FileAttributesRecord@@SI_NPAU1@PAUClass_System_Object@@@Z 0202b8c0 f   sc.obj
 0001:0002aa08       ?m_Equals@Struct_Microsoft_Singularity_Directory_FileAttributesRecord@@SI_NPAUClass_Microsoft_Singularity_Directory_FileAttributesRecord@@PAUClass_System_Object@@@Z 0202ba08 f   sc.obj
 0001:0002aa34       ?m_StructCopy@Struct_Microsoft_Singularity_ServiceManager_ServiceManagerContract_WaitNextServiceManagerChange@@SIXPAU1@0@Z 0202ba34 f   sc.obj
 0001:0002aa50       ?m_StructCopy@Struct_Microsoft_Singularity_ServiceManager_ServiceManagerContract_WaitNextServiceManagerChange@@SIXPAU1@PAU1@@Z 0202ba50 f   sc.obj
 0001:0002aaa4       ?m_MarshallContent@Struct_Microsoft_Singularity_ServiceManager_ServiceManagerContract_WaitNextServiceManagerChange@@SIXPAU1@PAEPAUStruct_Microsoft_Singularity_Channels_Endpoint@@1PAH@Z 0202baa4 f   sc.obj
 0001:0002aac4       ?m_MarshallAll@Struct_Microsoft_Singularity_ServiceManager_ServiceManagerContract_WaitNextServiceManagerChange@@SIXPAU1@PAEPAUStruct_Microsoft_Singularity_Channels_Endpoint@@PAH@Z 0202bac4 f   sc.obj
 0001:0002ab1c       ?m_Equals@Struct_Microsoft_Singularity_ServiceManager_ServiceManagerContract_WaitNextServiceManagerChange@@SI_NPAU1@PAUClass_System_Object@@@Z 0202bb1c f   sc.obj
 0001:0002ab54       ?m_Equals@Struct_Microsoft_Singularity_ServiceManager_ServiceManagerContract_WaitNextServiceManagerChange@@SI_NPAUClass_Microsoft_Singularity_ServiceManager_ServiceManagerContract_WaitNextServiceManagerChange@@PAUClass_System_Object@@@Z 0202bb54 f   sc.obj
 0001:0002ab80       ?m_ToString@int16@@SIPAUClass_System_String@@PAF@Z 0202bb80 f   sc.obj
 0001:0002aba8       ?m_ToString@int16@@SIPAUClass_System_String@@PAFPAU2@@Z 0202bba8 f   sc.obj
 0001:0002aca4       ?m_ToString@int16@@SIPAUClass_System_String@@PAUClass_System_Int16@@@Z 0202bca4 f   sc.obj
 0001:0002accc       ?m_ToString@int16@@SIPAUClass_System_String@@PAUClass_System_Int16@@PAU2@@Z 0202bccc f   sc.obj
 0001:0002acf8       ?m_GetHashCode@int16@@SIHPAF@Z 0202bcf8 f   sc.obj
 0001:0002ad2c       ?m_GetHashCode@int16@@SIHPAUClass_System_Int16@@@Z 0202bd2c f   sc.obj
 0001:0002ad54       ?m_Equals@int16@@SI_NPAFPAUClass_System_Object@@@Z 0202bd54 f   sc.obj
 0001:0002adb8       ?m_Equals@int16@@SI_NPAUClass_System_Int16@@PAUClass_System_Object@@@Z 0202bdb8 f   sc.obj
 0001:0002ade4       ?m_CompareTo@int16@@SIHPAFPAUClass_System_Object@@@Z 0202bde4 f   sc.obj
 0001:0002ae70       ?m_CompareTo@int16@@SIHPAUClass_System_Int16@@PAUClass_System_Object@@@Z 0202be70 f   sc.obj
 0001:0002ae9c       ?m_TransferContentsOwnership@Struct_Microsoft_Singularity_ServiceManager_ServiceConfig@@SIXPAU1@PAUStruct_Microsoft_Singularity_Channels_Endpoint@@@Z 0202be9c f   sc.obj
 0001:0002af0c       ?m_StructCopy@Struct_Microsoft_Singularity_ServiceManager_ServiceConfig@@SIXPAU1@0@Z 0202bf0c f   sc.obj
 0001:0002af94       ?m_StructCopy@Struct_Microsoft_Singularity_ServiceManager_ServiceConfig@@SIXPAU1@PAU1@@Z 0202bf94 f   sc.obj
 0001:0002b12c       ?m_Release@Struct_Microsoft_Singularity_ServiceManager_ServiceConfig@@SIXPAU1@@Z 0202c12c f   sc.obj
 0001:0002b148       ?m_Release@Struct_Microsoft_Singularity_ServiceManager_ServiceConfig@@SIXPAUClass_Microsoft_Singularity_ServiceManager_ServiceConfig@@@Z 0202c148 f   sc.obj
 0001:0002b170       ?m_MarshallContent@Struct_Microsoft_Singularity_ServiceManager_ServiceConfig@@SIXPAU1@PAEPAUStruct_Microsoft_Singularity_Channels_Endpoint@@1@Z 0202c170 f   sc.obj
 0001:0002b36c       ?m_Equals@Struct_Microsoft_Singularity_ServiceManager_ServiceConfig@@SI_NPAU1@PAUClass_System_Object@@@Z 0202c36c f   sc.obj
 0001:0002b48c       ?m_Equals@Struct_Microsoft_Singularity_ServiceManager_ServiceConfig@@SI_NPAUClass_Microsoft_Singularity_ServiceManager_ServiceConfig@@PAUClass_System_Object@@@Z 0202c48c f   sc.obj
 0001:0002b4b8       ?m_Dispose@Struct_Microsoft_Singularity_ServiceManager_ServiceConfig@@SIXPAU1@@Z 0202c4b8 f   sc.obj
 0001:0002b554       ?m_Dispose@Struct_Microsoft_Singularity_ServiceManager_ServiceConfig@@SIXPAUClass_Microsoft_Singularity_ServiceManager_ServiceConfig@@@Z 0202c554 f   sc.obj
 0001:0002b57c       ?m_Acquire@Struct_Microsoft_Singularity_ServiceManager_ServiceConfig@@SIXPAU1@@Z 0202c57c f   sc.obj
 0001:0002b598       ?m_Acquire@Struct_Microsoft_Singularity_ServiceManager_ServiceConfig@@SIXPAUClass_Microsoft_Singularity_ServiceManager_ServiceConfig@@@Z 0202c598 f   sc.obj
 0001:0002b5c0       ?m_StructCopy@Struct_Microsoft_Singularity_ServiceManager_ServiceManagerContract_WatchServiceStatus@@SIXPAU1@0@Z 0202c5c0 f   sc.obj
 0001:0002b5dc       ?m_StructCopy@Struct_Microsoft_Singularity_ServiceManager_ServiceManagerContract_WatchServiceStatus@@SIXPAU1@PAU1@@Z 0202c5dc f   sc.obj
 0001:0002b630       ?m_MarshallContent@Struct_Microsoft_Singularity_ServiceManager_ServiceManagerContract_WatchServiceStatus@@SIXPAU1@PAEPAUStruct_Microsoft_Singularity_Channels_Endpoint@@1PAH@Z 0202c630 f   sc.obj
 0001:0002b650       ?m_MarshallAll@Struct_Microsoft_Singularity_ServiceManager_ServiceManagerContract_WatchServiceStatus@@SIXPAU1@PAEPAUStruct_Microsoft_Singularity_Channels_Endpoint@@PAH@Z 0202c650 f   sc.obj
 0001:0002b6a8       ?m_Equals@Struct_Microsoft_Singularity_ServiceManager_ServiceManagerContract_WatchServiceStatus@@SI_NPAU1@PAUClass_System_Object@@@Z 0202c6a8 f   sc.obj
 0001:0002b6e0       ?m_Equals@Struct_Microsoft_Singularity_ServiceManager_ServiceManagerContract_WatchServiceStatus@@SI_NPAUClass_Microsoft_Singularity_ServiceManager_ServiceManagerContract_WatchServiceStatus@@PAUClass_System_Object@@@Z 0202c6e0 f   sc.obj
 0001:0002b70c       ?m_GetSize@Class_Microsoft_Singularity_Eventing_UnmanagedMemoryBuffer@@SI_KPAU1@@Z 0202c70c f   sc.obj
 0001:0002b734       ?m_GetBuffer@Class_Microsoft_Singularity_Eventing_UnmanagedMemoryBuffer@@SIPAEPAU1@@Z 0202c734 f   sc.obj
 0001:0002b754       ?m_Finalize@Class_Microsoft_Singularity_Eventing_UnmanagedMemoryBuffer@@SIXPAU1@@Z 0202c754 f   sc.obj
 0001:0002b7d8       ?m_AllocateBuffer@Class_Microsoft_Singularity_Eventing_UnmanagedMemoryBuffer@@SI_NPAU1@_K@Z 0202c7d8 f   sc.obj
 0001:0002b868       ?m__ctor@Class_Microsoft_Singularity_Eventing_UnmanagedMemoryBuffer@@SIXPAU1@@Z 0202c868 f   sc.obj
 0001:0002b88c       ?g_Create@Class_Microsoft_Singularity_GCProfilerLogger_GCTypeSource@@SIPAU1@PAUClass_System_String@@I_K@Z 0202c88c f   sc.obj
 0001:0002b960       ?m__ctor@Class_Microsoft_Singularity_GCProfilerLogger_GCTypeSource@@SIXPAU1@PAUClass_System_String@@PAUClass_Microsoft_Singularity_Eventing_EventingStorage@@I@Z 0202c960 f   sc.obj
 0001:0002b994       ?m_MoveNext@Class_System_Collections_Hashtable_HashtableEnumerator@@SI_NPAU1@@Z 0202c994 f   sc.obj
 0001:0002ba64       ?m_get$_Current@Class_System_Collections_Hashtable_HashtableEnumerator@@SIPAUClass_System_Object@@PAU1@@Z 0202ca64 f   sc.obj
 0001:0002bb2c       ?m__ctor@Class_System_Collections_Hashtable_HashtableEnumerator@@SIXPAU1@PAUClass_System_Collections_Hashtable@@H@Z 0202cb2c f   sc.obj
 0001:0002bb80       ?m_Finalize@Class__Corlibsg_Microsoft_Singularity_Channels_TRef$_2$LMicrosoft_Singularity_Io_UnicodePipeContract_Exp_Microsoft_Singularity_Io_UnicodePipeContract_READY$G@@SIXPAU1@@Z 0202cb80 f   sc.obj
 0001:0002bc0c       ?m__ctor@Class__Corlibsg_Microsoft_Singularity_Channels_TRef$_2$LMicrosoft_Singularity_Io_UnicodePipeContract_Exp_Microsoft_Singularity_Io_UnicodePipeContract_READY$G@@SIXPAU1@PAUStruct_Microsoft_Singularity_Io_UnicodePipeContract_Exp@@@Z 0202cc0c f   sc.obj
 0001:0002bcb0       ?m__ctor@Class_System_TypeInitializationException@@SIXPAU1@@Z 0202ccb0 f   sc.obj
 0001:0002bcd8       ?m__ctor@Class_System_TypeInitializationException@@SIXPAU1@PAUClass_System_String@@PAUClass_System_Exception@@@Z 0202ccd8 f   sc.obj
 0001:0002bd1c       ?m_VisitPage@Class_System_GCs_SegregatedFreeList_NullPartialFreePageVisitor@@SI?AUStruct_System_GCs_SegregatedFreeList_PartialPageAction@@PAU1@PAUuintPtr@@PAUStruct_System_GCs_SegregatedFreeList_PageHeader@@H@Z 0202cd1c f   sc.obj
 0001:0002bd40       ?m_ObserveEmptyPage@Class_System_GCs_SegregatedFreeList_NullPartialFreePageVisitor@@SIXPAU1@@Z 0202cd40 f   sc.obj
 0001:0002bd5c       ?m__ctor@Class_System_GCs_SegregatedFreeList_NullPartialFreePageVisitor@@SIXPAU1@@Z 0202cd5c f   sc.obj
 0001:0002bd80       ?m_AppMain@Class_Microsoft_Singularity_Applications_ServiceManager_ShowServiceParameters@@SIHPAU1@@Z 0202cd80 f   sc.obj
 0001:0002c224       ?m__ctor@Class_Microsoft_Singularity_Applications_ServiceManager_ShowServiceParameters@@SIXPAU1@@Z 0202d224 f   sc.obj
 0001:0002c368       ?g__cctor@Class_Microsoft_Singularity_Applications_ServiceManager_ShowServiceParameters@@SIXXZ 0202d368 f   sc.obj
 0001:0002c460       ?m_StructCopy@Struct_Microsoft_Singularity_V1_Threads_ThreadHandle@@SIXPAU1@0@Z 0202d460 f   sc.obj
 0001:0002c488       ?m_StructCopy@Struct_Microsoft_Singularity_V1_Threads_ThreadHandle@@SIXPAU1@PAU1@@Z 0202d488 f   sc.obj
 0001:0002c500       ?m_Equals@Struct_Microsoft_Singularity_V1_Threads_ThreadHandle@@SI_NPAU1@PAUClass_System_Object@@@Z 0202d500 f   sc.obj
 0001:0002c548       ?m_Equals@Struct_Microsoft_Singularity_V1_Threads_ThreadHandle@@SI_NPAUClass_Microsoft_Singularity_V1_Threads_ThreadHandle@@PAUClass_System_Object@@@Z 0202d548 f   sc.obj
 0001:0002c574       ?g_Create@Struct_Microsoft_Singularity_V1_Threads_ThreadHandle@@SI_NHUStruct_Microsoft_Singularity_V1_Threads_ContainerHandle@@PAU1@PAPAUuintPtr@@@Z 0202d574 f   sc.obj
 0001:0002c5e0       ?m_StructCopy@Struct_Microsoft_Singularity_Directory_DirectoryServiceContract_NakDeregisterReparse@@SIXPAU1@0@Z 0202d5e0 f   sc.obj
 0001:0002c620       ?m_StructCopy@Struct_Microsoft_Singularity_Directory_DirectoryServiceContract_NakDeregisterReparse@@SIXPAU1@PAU1@@Z 0202d620 f   sc.obj
 0001:0002c6e0       ?m_Equals@Struct_Microsoft_Singularity_Directory_DirectoryServiceContract_NakDeregisterReparse@@SI_NPAU1@PAUClass_System_Object@@@Z 0202d6e0 f   sc.obj
 0001:0002c748       ?m_Equals@Struct_Microsoft_Singularity_Directory_DirectoryServiceContract_NakDeregisterReparse@@SI_NPAUClass_Microsoft_Singularity_Directory_DirectoryServiceContract_NakDeregisterReparse@@PAUClass_System_Object@@@Z 0202d748 f   sc.obj
 0001:0002c774       ?g_UIntPtrPad@Class_System_GCs_Util@@SIPAUuintPtr@@PAU2@@Z 0202d774 f   sc.obj
 0001:0002c7a4       ?g_PrintPageContents@Class_System_GCs_Util@@SIXPAUuintPtr@@@Z 0202d7a4 f   sc.obj
 0001:0002c830       ?g_PrintMemoryContents@Class_System_GCs_Util@@SIXPAUuintPtr@@0@Z 0202d830 f   sc.obj
 0001:0002cc1c       ?g_Pad@Class_System_GCs_Util@@SIPAUuintPtr@@PAU2@0@Z 0202dc1c f   sc.obj
 0001:0002cc4c       ?g_MemCopy@Class_System_GCs_Util@@SIXPAUuintPtr@@00@Z 0202dc4c f   sc.obj
 0001:0002cc7c       ?g_MemClear@Class_System_GCs_Util@@SIXPAUuintPtr@@0@Z 0202dc7c f   sc.obj
 0001:0002cca8       ?g_IsAligned@Class_System_GCs_Util@@SI_NII@Z 0202dca8 f   sc.obj
 0001:0002ccd8       ?g_Align@Class_System_GCs_Util@@SIPAUuintPtr@@PAU2@0@Z 0202dcd8 f   sc.obj
 0001:0002cd04       ?m__ctor@Class_System_GCs_Util@@SIXPAU1@@Z 0202dd04 f   sc.obj
 0001:0002cd1c       ?m_StructCopy@Struct_Microsoft_Singularity_Directory_FileContract_Read@@SIXPAU1@0@Z 0202dd1c f   sc.obj
 0001:0002cd8c       ?m_StructCopy@Struct_Microsoft_Singularity_Directory_FileContract_Read@@SIXPAU1@PAU1@@Z 0202dd8c f   sc.obj
 0001:0002cedc       ?m_Equals@Struct_Microsoft_Singularity_Directory_FileContract_Read@@SI_NPAU1@PAUClass_System_Object@@@Z 0202dedc f   sc.obj
 0001:0002cfa4       ?m_Equals@Struct_Microsoft_Singularity_Directory_FileContract_Read@@SI_NPAUClass_Microsoft_Singularity_Directory_FileContract_Read@@PAUClass_System_Object@@@Z 0202dfa4 f   sc.obj
 0001:0002cfd0       ?m_StructCopy@Struct_Microsoft_Singularity_ServiceManager_ServiceManagerContract_WaitServiceChange@@SIXPAU1@0@Z 0202dfd0 f   sc.obj
 0001:0002cfec       ?m_StructCopy@Struct_Microsoft_Singularity_ServiceManager_ServiceManagerContract_WaitServiceChange@@SIXPAU1@PAU1@@Z 0202dfec f   sc.obj
 0001:0002d040       ?m_MarshallContent@Struct_Microsoft_Singularity_ServiceManager_ServiceManagerContract_WaitServiceChange@@SIXPAU1@PAEPAUStruct_Microsoft_Singularity_Channels_Endpoint@@1PAH@Z 0202e040 f   sc.obj
 0001:0002d060       ?m_MarshallAll@Struct_Microsoft_Singularity_ServiceManager_ServiceManagerContract_WaitServiceChange@@SIXPAU1@PAEPAUStruct_Microsoft_Singularity_Channels_Endpoint@@PAH@Z 0202e060 f   sc.obj
 0001:0002d0b8       ?m_Equals@Struct_Microsoft_Singularity_ServiceManager_ServiceManagerContract_WaitServiceChange@@SI_NPAU1@PAUClass_System_Object@@@Z 0202e0b8 f   sc.obj
 0001:0002d0f0       ?m_Equals@Struct_Microsoft_Singularity_ServiceManager_ServiceManagerContract_WaitServiceChange@@SI_NPAUClass_Microsoft_Singularity_ServiceManager_ServiceManagerContract_WaitServiceChange@@PAUClass_System_Object@@@Z 0202e0f0 f   sc.obj
 0001:0002d11c       ?m_StructCopy@Struct_System_RuntimeArgumentHandle@@SIXPAU1@0@Z 0202e11c f   sc.obj
 0001:0002d144       ?m_StructCopy@Struct_System_RuntimeArgumentHandle@@SIXPAU1@PAU1@@Z 0202e144 f   sc.obj
 0001:0002d1bc       ?m_get$_Pointer@Struct_System_RuntimeArgumentHandle@@SIPAUintPtr@@PAU1@@Z 0202e1bc f   sc.obj
 0001:0002d1dc       ?m_Equals@Struct_System_RuntimeArgumentHandle@@SI_NPAU1@PAUClass_System_Object@@@Z 0202e1dc f   sc.obj
 0001:0002d224       ?m_Equals@Struct_System_RuntimeArgumentHandle@@SI_NPAUClass_System_RuntimeArgumentHandle@@PAUClass_System_Object@@@Z 0202e224 f   sc.obj
 0001:0002d250       ?g_Arglist@Struct_System_RuntimeArgumentHandle@@SI?AU1@PAUStruct_System_VarargList@@@Z 0202e250 f   sc.obj
 0001:0002d29c       ?m_StructCopy@Struct_Microsoft_Singularity_Isal_IX_TSS@@SIXPAU1@0@Z 0202e29c f   sc.obj
 0001:0002d4b0       ?m_StructCopy@Struct_Microsoft_Singularity_Isal_IX_TSS@@SIXPAU1@PAU1@@Z 0202e4b0 f   sc.obj
 0001:0002daec       ?m_Equals@Struct_Microsoft_Singularity_Isal_IX_TSS@@SI_NPAU1@PAUClass_System_Object@@@Z 0202eaec f   sc.obj
 0001:0002dddc       ?m_Equals@Struct_Microsoft_Singularity_Isal_IX_TSS@@SI_NPAUClass_Microsoft_Singularity_Isal_IX_TSS@@PAUClass_System_Object@@@Z 0202eddc f   sc.obj
 0001:0002de08       ?m_StructCopy@Struct_System_ReadEnlistmentLog_Location@@SIXPAU1@0@Z 0202ee08 f   sc.obj
 0001:0002de3c       ?m_StructCopy@Struct_System_ReadEnlistmentLog_Location@@SIXPAU1@PAU1@@Z 0202ee3c f   sc.obj
 0001:0002ded8       ?m_Equals@Struct_System_ReadEnlistmentLog_Location@@SI_NPAU1@PAUClass_System_Object@@@Z 0202eed8 f   sc.obj
 0001:0002df38       ?m_Equals@Struct_System_ReadEnlistmentLog_Location@@SI_NPAUClass_System_ReadEnlistmentLog_Location@@PAUClass_System_Object@@@Z 0202ef38 f   sc.obj
 0001:0002df64       ?m__ctor@Struct_System_ReadEnlistmentLog_Location@@SIXPAU1@PAUClass_System_ReadEnlistmentLog_LogChunk@@H@Z 0202ef64 f   sc.obj
 0001:0002df94       ?m_ToString@uintPtr@@SIPAUClass_System_String@@PAPAU1@@Z 0202ef94 f   sc.obj
 0001:0002dfc8       ?m_ToString@uintPtr@@SIPAUClass_System_String@@PAPAU1@PAU2@@Z 0202efc8 f   sc.obj
 0001:0002e000       ?m_ToString@uintPtr@@SIPAUClass_System_String@@PAUClass_System_UIntPtr@@@Z 0202f000 f   sc.obj
 0001:0002e054       ?m_ToString@uintPtr@@SIPAUClass_System_String@@PAUClass_System_UIntPtr@@PAU2@@Z 0202f054 f   sc.obj
 0001:0002e0ac       ?m_GetHashCode@uintPtr@@SIHPAPAU1@@Z 0202f0ac f   sc.obj
 0001:0002e0d0       ?m_GetHashCode@uintPtr@@SIHPAUClass_System_UIntPtr@@@Z 0202f0d0 f   sc.obj
 0001:0002e10c       ?m_Equals@uintPtr@@SI_NPAPAU1@PAUClass_System_Object@@@Z 0202f10c f   sc.obj
 0001:0002e168       ?m_Equals@uintPtr@@SI_NPAUClass_System_UIntPtr@@PAUClass_System_Object@@@Z 0202f168 f   sc.obj
 0001:0002e1f0       ?m_StructCopy@Struct_Microsoft_Singularity_Isal_IX_EVectors@@SIXPAU1@0@Z 0202f1f0 f   sc.obj
 0001:0002e20c       ?m_StructCopy@Struct_Microsoft_Singularity_Isal_IX_EVectors@@SIXPAU1@PAU1@@Z 0202f20c f   sc.obj
 0001:0002e260       ?m_Equals@Struct_Microsoft_Singularity_Isal_IX_EVectors@@SI_NPAU1@PAUClass_System_Object@@@Z 0202f260 f   sc.obj
 0001:0002e298       ?m_Equals@Struct_Microsoft_Singularity_Isal_IX_EVectors@@SI_NPAUClass_Microsoft_Singularity_Isal_IX_EVectors@@PAUClass_System_Object@@@Z 0202f298 f   sc.obj
 0001:0002e2c4       ?g_get$_RangeMessage@Class_System_ArgumentOutOfRangeException@@SIPAUClass_System_String@@XZ 0202f2c4 f   sc.obj
 0001:0002e2f0       ?m_get$_Message@Class_System_ArgumentOutOfRangeException@@SIPAUClass_System_String@@PAU1@@Z 0202f2f0 f   sc.obj
 0001:0002e368       ?m__ctor@Class_System_ArgumentOutOfRangeException@@SIXPAU1@@Z 0202f368 f   sc.obj
 0001:0002e390       ?m__ctor@Class_System_ArgumentOutOfRangeException@@SIXPAU1@PAUClass_System_String@@@Z 0202f390 f   sc.obj
 0001:0002e3c0       ?m__ctor@Class_System_ArgumentOutOfRangeException@@SIXPAU1@PAUClass_System_String@@1@Z 0202f3c0 f   sc.obj
 0001:0002e3f0       ?m__ctor@Class_System_ArgumentOutOfRangeException@@SIXPAU1@PAUClass_System_String@@PAUClass_System_Object@@1@Z 0202f3f0 f   sc.obj
 0001:0002e428       ?m_StructCopy@Struct_Microsoft_Singularity_Isal_ThreadRecord@@SIXPAU1@0@Z 0202f428 f   sc.obj
 0001:0002e468       ?m_StructCopy@Struct_Microsoft_Singularity_Isal_ThreadRecord@@SIXPAU1@PAU1@@Z 0202f468 f   sc.obj
 0001:0002e528       ?m_Equals@Struct_Microsoft_Singularity_Isal_ThreadRecord@@SI_NPAU1@PAUClass_System_Object@@@Z 0202f528 f   sc.obj
 0001:0002e5f8       ?m_Equals@Struct_Microsoft_Singularity_Isal_ThreadRecord@@SI_NPAUClass_Microsoft_Singularity_Isal_ThreadRecord@@PAUClass_System_Object@@@Z 0202f5f8 f   sc.obj
 0001:0002e624       ?m_GetController@Class_Microsoft_Singularity_Eventing_GlobalStorage@@SIPAUClass_Microsoft_Singularity_Eventing_Controller@@PAU1@@Z 0202f624 f   sc.obj
 0001:0002e658       ?m_Finalize@Class_Microsoft_Singularity_Eventing_GlobalStorage@@SIXPAU1@@Z 0202f658 f   sc.obj
 0001:0002e69c       ?m_Destroy@Class_Microsoft_Singularity_Eventing_GlobalStorage@@SIXPAU1@@Z 0202f69c f   sc.obj
 0001:0002e6d0       ?m_FieldOffset@Class_System_GCs_Barrier_SlowCopyFieldsVisitor@@SIXPAU1@PAUuintPtr@@PAUStruct_System_GCs_ReferenceVisitor_ObjectDescriptor@@@Z 0202f6d0 f   sc.obj
 0001:0002e830       ?m__ctor@Class_System_GCs_Barrier_SlowCopyFieldsVisitor@@SIXPAU1@@Z 0202f830 f   sc.obj
 0001:0002e854       ?m_ToString@Struct_System_Decimal@@SIPAUClass_System_String@@PAU1@@Z 0202f854 f   sc.obj
 0001:0002e87c       ?m_ToString@Struct_System_Decimal@@SIPAUClass_System_String@@PAU1@PAU2@@Z 0202f87c f   sc.obj
 0001:0002e900       ?m_ToString@Struct_System_Decimal@@SIPAUClass_System_String@@PAUClass_System_Decimal@@@Z 0202f900 f   sc.obj
 0001:0002e948       ?m_ToString@Struct_System_Decimal@@SIPAUClass_System_String@@PAUClass_System_Decimal@@PAU2@@Z 0202f948 f   sc.obj
 0001:0002e994       ?m_StructCopy@Struct_System_Decimal@@SIXPAU1@0@Z 0202f994 f   sc.obj
 0001:0002e9e0       ?m_StructCopy@Struct_System_Decimal@@SIXPAU1@PAU1@@Z 0202f9e0 f   sc.obj
 0001:0002eac4       ?m_set$_mid32@Struct_System_Decimal@@SIXPAU1@I@Z 0202fac4 f   sc.obj
 0001:0002eaec       ?m_set$_lo32@Struct_System_Decimal@@SIXPAU1@I@Z 0202faec f   sc.obj
 0001:0002eb14       ?m_set$_hi32@Struct_System_Decimal@@SIXPAU1@I@Z 0202fb14 f   sc.obj
 0001:0002eb3c       ?m_GetHashCode@Struct_System_Decimal@@SIHPAU1@@Z 0202fb3c f   sc.obj
 0001:0002eb9c       ?m_GetHashCode@Struct_System_Decimal@@SIHPAUClass_System_Decimal@@@Z 0202fb9c f   sc.obj
 0001:0002ebe4       ?m_get$_scale@Struct_System_Decimal@@SIEPAU1@@Z 0202fbe4 f   sc.obj
 0001:0002ec08       ?m_get$_negative@Struct_System_Decimal@@SI_NPAU1@@Z 0202fc08 f   sc.obj
 0001:0002ec2c       ?m_get$_mid32@Struct_System_Decimal@@SIIPAU1@@Z 0202fc2c f   sc.obj
 0001:0002ec4c       ?m_get$_lo32@Struct_System_Decimal@@SIIPAU1@@Z 0202fc4c f   sc.obj
 0001:0002ec6c       ?m_get$_hi32@Struct_System_Decimal@@SIIPAU1@@Z 0202fc6c f   sc.obj
 0001:0002ec8c       ?m_Equals@Struct_System_Decimal@@SI_NPAU1@PAUClass_System_Object@@@Z 0202fc8c f   sc.obj
 0001:0002ed60       ?m_Equals@Struct_System_Decimal@@SI_NPAUClass_System_Decimal@@PAUClass_System_Object@@@Z 0202fd60 f   sc.obj
 0001:0002edac       ?m_CompareTo@Struct_System_Decimal@@SIHPAU1@PAUClass_System_Object@@@Z 0202fdac f   sc.obj
 0001:0002eeb0       ?m_CompareTo@Struct_System_Decimal@@SIHPAUClass_System_Decimal@@PAUClass_System_Object@@@Z 0202feb0 f   sc.obj
 0001:0002eefc       ?g_Compare@Struct_System_Decimal@@SIHU1@0@Z 0202fefc f   sc.obj
 0001:0002ef20       ?m__ctor@Struct_System_Decimal@@SIXPAU1@H@Z 0202ff20 f   sc.obj
 0001:0002ef80       ?m__ctor@Struct_System_Decimal@@SIXPAU1@HHH_NE@Z 0202ff80 f   sc.obj
 0001:0002f010       ?g__cctor@Struct_System_Decimal@@SIXXZ 02030010 f   sc.obj
 0001:0002f1a0       ?m_StructCopy@Struct_Microsoft_Singularity_ServiceManager_ServiceManagerContract_QueryServiceConfig@@SIXPAU1@0@Z 020301a0 f   sc.obj
 0001:0002f1bc       ?m_StructCopy@Struct_Microsoft_Singularity_ServiceManager_ServiceManagerContract_QueryServiceConfig@@SIXPAU1@PAU1@@Z 020301bc f   sc.obj
 0001:0002f210       ?m_MarshallContent@Struct_Microsoft_Singularity_ServiceManager_ServiceManagerContract_QueryServiceConfig@@SIXPAU1@PAEPAUStruct_Microsoft_Singularity_Channels_Endpoint@@1PAH@Z 02030210 f   sc.obj
 0001:0002f230       ?m_MarshallAll@Struct_Microsoft_Singularity_ServiceManager_ServiceManagerContract_QueryServiceConfig@@SIXPAU1@PAEPAUStruct_Microsoft_Singularity_Channels_Endpoint@@PAH@Z 02030230 f   sc.obj
 0001:0002f288       ?m_Equals@Struct_Microsoft_Singularity_ServiceManager_ServiceManagerContract_QueryServiceConfig@@SI_NPAU1@PAUClass_System_Object@@@Z 02030288 f   sc.obj
 0001:0002f2c0       ?m_Equals@Struct_Microsoft_Singularity_ServiceManager_ServiceManagerContract_QueryServiceConfig@@SI_NPAUClass_Microsoft_Singularity_ServiceManager_ServiceManagerContract_QueryServiceConfig@@PAUClass_System_Object@@@Z 020302c0 f   sc.obj
 0001:0002f2ec       ?m_StructCopy@Struct_System_GCs_SegregatedFreeList_PageHeader@@SIXPAU1@0@Z 020302ec f   sc.obj
 0001:0002f348       ?m_StructCopy@Struct_System_GCs_SegregatedFreeList_PageHeader@@SIXPAU1@PAU1@@Z 02030348 f   sc.obj
 0001:0002f45c       ?g_get$_Size@Struct_System_GCs_SegregatedFreeList_PageHeader@@SIHXZ 0203045c f   sc.obj
 0001:0002f474       ?m_Equals@Struct_System_GCs_SegregatedFreeList_PageHeader@@SI_NPAU1@PAUClass_System_Object@@@Z 02030474 f   sc.obj
 0001:0002f4fc       ?m_Equals@Struct_System_GCs_SegregatedFreeList_PageHeader@@SI_NPAUClass_System_GCs_SegregatedFreeList_PageHeader@@PAUClass_System_Object@@@Z 020304fc f   sc.obj
 0001:0002f528       ?m_StructCopy@Struct_Microsoft_Singularity_ServiceManager_ServiceManagerContract_Success@@SIXPAU1@0@Z 02030528 f   sc.obj
 0001:0002f544       ?m_StructCopy@Struct_Microsoft_Singularity_ServiceManager_ServiceManagerContract_Success@@SIXPAU1@PAU1@@Z 02030544 f   sc.obj
 0001:0002f598       ?m_Equals@Struct_Microsoft_Singularity_ServiceManager_ServiceManagerContract_Success@@SI_NPAU1@PAUClass_System_Object@@@Z 02030598 f   sc.obj
 0001:0002f5d0       ?m_Equals@Struct_Microsoft_Singularity_ServiceManager_ServiceManagerContract_Success@@SI_NPAUClass_Microsoft_Singularity_ServiceManager_ServiceManagerContract_Success@@PAUClass_System_Object@@@Z 020305d0 f   sc.obj
 0001:0002f5fc       ?m_StructCopy@Struct_System_TypedReference@@SIXPAU1@0@Z 020305fc f   sc.obj
 0001:0002f630       ?m_StructCopy@Struct_System_TypedReference@@SIXPAU1@PAU1@@Z 02030630 f   sc.obj
 0001:0002f6cc       ?g_RefAnyType@Struct_System_TypedReference@@SI?AUStruct_System_RuntimeTypeHandle@@U1@@Z 020306cc f   sc.obj
 0001:0002f704       ?g_MakeRefAny@Struct_System_TypedReference@@SI?AU1@PAUvoid@@PAUClass_System_RuntimeType@@@Z 02030704 f   sc.obj
 0001:0002f7a4       ?m_GetHashCode@Struct_System_TypedReference@@SIHPAU1@@Z 020307a4 f   sc.obj
 0001:0002f818       ?m_GetHashCode@Struct_System_TypedReference@@SIHPAUClass_System_TypedReference@@@Z 02030818 f   sc.obj
 0001:0002f840       ?m_Equals@Struct_System_TypedReference@@SI_NPAU1@PAUClass_System_Object@@@Z 02030840 f   sc.obj
 0001:0002f880       ?m_Equals@Struct_System_TypedReference@@SI_NPAUClass_System_TypedReference@@PAUClass_System_Object@@@Z 02030880 f   sc.obj
 0001:0002f8ac       ?m__ctor@Struct_System_TypedReference@@SIXPAU1@PAUvoid@@PAUClass_System_RuntimeType@@@Z 020308ac f   sc.obj
 0001:0002f8dc       ?m_StructCopy@Struct_System_LogEntryUndoAction@@SIXPAU1@0@Z 020308dc f   sc.obj
 0001:0002f914       ?m_StructCopy@Struct_System_LogEntryUndoAction@@SIXPAU1@PAU1@@Z 02030914 f   sc.obj
 0001:0002f9bc       ?m_Equals@Struct_System_LogEntryUndoAction@@SI_NPAU1@PAUClass_System_Object@@@Z 020309bc f   sc.obj
 0001:0002fab8       ?m_Equals@Struct_System_LogEntryUndoAction@@SI_NPAUClass_System_LogEntryUndoAction@@PAUClass_System_Object@@@Z 02030ab8 f   sc.obj
 0001:0002fae4       ?m_StructCopy@Struct_Microsoft_Singularity_Directory_DirectoryServiceContract_CreateDirectory@@SIXPAU1@0@Z 02030ae4 f   sc.obj
 0001:0002fb0c       ?m_StructCopy@Struct_Microsoft_Singularity_Directory_DirectoryServiceContract_CreateDirectory@@SIXPAU1@PAU1@@Z 02030b0c f   sc.obj
 0001:0002fb84       ?m_Equals@Struct_Microsoft_Singularity_Directory_DirectoryServiceContract_CreateDirectory@@SI_NPAU1@PAUClass_System_Object@@@Z 02030b84 f   sc.obj
 0001:0002fbcc       ?m_Equals@Struct_Microsoft_Singularity_Directory_DirectoryServiceContract_CreateDirectory@@SI_NPAUClass_Microsoft_Singularity_Directory_DirectoryServiceContract_CreateDirectory@@PAUClass_System_Object@@@Z 02030bcc f   sc.obj
 0001:0002fbf8       ?m_StructCopy@Struct_Microsoft_Singularity_ProcessorContext@@SIXPAU1@0@Z 02030bf8 f   sc.obj
 0001:0002fc90       ?m_StructCopy@Struct_Microsoft_Singularity_ProcessorContext@@SIXPAU1@PAU1@@Z 02030c90 f   sc.obj
 0001:0002fe58       ?m_Equals@Struct_Microsoft_Singularity_ProcessorContext@@SI_NPAU1@PAUClass_System_Object@@@Z 02030e58 f   sc.obj
 0001:0002ff9c       ?m_Equals@Struct_Microsoft_Singularity_ProcessorContext@@SI_NPAUClass_Microsoft_Singularity_ProcessorContext@@PAUClass_System_Object@@@Z 02030f9c f   sc.obj
 0001:0002ffc8       ?g_StableState@Class_Microsoft_Singularity_Io_UnicodePipeContract@@SIHPAUStruct_Microsoft_Singularity_Channels_StateStack@@@Z 02030fc8 f   sc.obj
 0001:00030024       ?m__ctor@Class_Microsoft_Singularity_Io_UnicodePipeContract@@SIXPAU1@@Z 02031024 f   sc.obj
 0001:0003003c       ?m_WaitOneNoGC@Class_System_Threading_AutoResetEvent@@SI_NPAU1@@Z 0203103c f   sc.obj
 0001:000300a4       ?m_WaitOne@Class_System_Threading_AutoResetEvent@@SI_NPAU1@@Z 020310a4 f   sc.obj
 0001:00030118       ?m_WaitOne@Class_System_Threading_AutoResetEvent@@SI_NPAU1@UStruct_System_SchedulerTime@@@Z 02031118 f   sc.obj
 0001:000301a0       ?m_SetNoGC@Class_System_Threading_AutoResetEvent@@SIXPAU1@@Z 020311a0 f   sc.obj
 0001:000301d0       ?m_Set@Class_System_Threading_AutoResetEvent@@SIXPAU1@@Z 020311d0 f   sc.obj
 0001:00030208       ?m_Finalize@Class_System_Threading_AutoResetEvent@@SIXPAU1@@Z 02031208 f   sc.obj
 0001:0003026c       ?m_Dispose@Class_System_Threading_AutoResetEvent@@SIXPAU1@_N@Z 0203126c f   sc.obj
 0001:000302b8       ?m__ctor@Class_System_Threading_AutoResetEvent@@SIXPAU1@_N@Z 020312b8 f   sc.obj
 0001:00030324       ?m_StructCopy@Struct_Microsoft_Singularity_Directory_FileContract_Write@@SIXPAU1@0@Z 02031324 f   sc.obj
 0001:00030394       ?m_StructCopy@Struct_Microsoft_Singularity_Directory_FileContract_Write@@SIXPAU1@PAU1@@Z 02031394 f   sc.obj
 0001:000304e4       ?m_Equals@Struct_Microsoft_Singularity_Directory_FileContract_Write@@SI_NPAU1@PAUClass_System_Object@@@Z 020314e4 f   sc.obj
 0001:000305a8       ?m_Equals@Struct_Microsoft_Singularity_Directory_FileContract_Write@@SI_NPAUClass_Microsoft_Singularity_Directory_FileContract_Write@@PAUClass_System_Object@@@Z 020315a8 f   sc.obj
 0001:000305d4       ?m_StructCopy@Struct_Microsoft_Singularity_Directory_NotifyContract_Imp@@SIXPAU1@0@Z 020315d4 f   sc.obj
 0001:000306b0       ?m_StructCopy@Struct_Microsoft_Singularity_Directory_NotifyContract_Imp@@SIXPAU1@PAU1@@Z 020316b0 f   sc.obj
 0001:00030944       ?m_Peek@Struct_Microsoft_Singularity_Directory_NotifyContract_Imp@@SIHPAU1@@Z 02031944 f   sc.obj
 0001:00030aec       ?m_HeadMatches@Struct_Microsoft_Singularity_Directory_NotifyContract_Imp@@SI_NPAU1@HPA_NPAPAUClass_System_Object@@@Z 02031aec f   sc.obj
 0001:00030bac       ?m_HeadMatches@Struct_Microsoft_Singularity_Directory_NotifyContract_Imp@@SI_NPAUClass_Microsoft_Singularity_Directory_NotifyContract_Imp@@HPA_NPAPAUClass_System_Object@@@Z 02031bac f   sc.obj
 0001:00030be4       ?m_Equals@Struct_Microsoft_Singularity_Directory_NotifyContract_Imp@@SI_NPAU1@PAUClass_System_Object@@@Z 02031be4 f   sc.obj
 0001:00030eb8       ?m_Equals@Struct_Microsoft_Singularity_Directory_NotifyContract_Imp@@SI_NPAUClass_Microsoft_Singularity_Directory_NotifyContract_Imp@@PAUClass_System_Object@@@Z 02031eb8 f   sc.obj
 0001:00030ee4       ?m_Dispose@Struct_Microsoft_Singularity_Directory_NotifyContract_Imp@@SIXPAU1@@Z 02031ee4 f   sc.obj
 0001:00030f08       ?m_Dispose@Struct_Microsoft_Singularity_Directory_NotifyContract_Imp@@SIXPAUClass_Microsoft_Singularity_Directory_NotifyContract_Imp@@@Z 02031f08 f   sc.obj
 0001:00030f30       ?m_InitializeFromExistingHandle@Class_Microsoft_Singularity_Eventing_MemoryStorage@@SI_NPAU1@@Z 02031f30 f   sc.obj
 0001:00030fd8       ?m_Initialize@Class_Microsoft_Singularity_Eventing_MemoryStorage@@SI_NPAU1@_K@Z 02031fd8 f   sc.obj
 0001:0003111c       ?m_Finalize@Class_Microsoft_Singularity_Eventing_MemoryStorage@@SIXPAU1@@Z 0203211c f   sc.obj
 0001:00031160       ?m_Destroy@Class_Microsoft_Singularity_Eventing_MemoryStorage@@SIXPAU1@@Z 02032160 f   sc.obj
 0001:00031190       ?m_AddBuffer@Class_Microsoft_Singularity_Eventing_MemoryStorage@@SI_NPAU1@_K@Z 02032190 f   sc.obj
 0001:0003125c       ?m__ctor@Class_Microsoft_Singularity_Eventing_MemoryStorage@@SIXPAU1@@Z 0203225c f   sc.obj
 0001:00031288       ?m_StructCopy@Struct_Microsoft_Singularity_Directory_DirectoryServiceContract_Bind@@SIXPAU1@0@Z 02032288 f   sc.obj
 0001:000312bc       ?m_StructCopy@Struct_Microsoft_Singularity_Directory_DirectoryServiceContract_Bind@@SIXPAU1@PAU1@@Z 020322bc f   sc.obj
 0001:00031358       ?m_MarshallContent@Struct_Microsoft_Singularity_Directory_DirectoryServiceContract_Bind@@SIXPAU1@PAEPAUStruct_Microsoft_Singularity_Channels_Endpoint@@1PAH@Z 02032358 f   sc.obj
 0001:00031480       ?m_MarshallAll@Struct_Microsoft_Singularity_Directory_DirectoryServiceContract_Bind@@SIXPAU1@PAEPAUStruct_Microsoft_Singularity_Channels_Endpoint@@PAH@Z 02032480 f   sc.obj
 0001:000314d8       ?m_Equals@Struct_Microsoft_Singularity_Directory_DirectoryServiceContract_Bind@@SI_NPAU1@PAUClass_System_Object@@@Z 020324d8 f   sc.obj
 0001:00031534       ?m_Equals@Struct_Microsoft_Singularity_Directory_DirectoryServiceContract_Bind@@SI_NPAUClass_Microsoft_Singularity_Directory_DirectoryServiceContract_Bind@@PAUClass_System_Object@@@Z 02032534 f   sc.obj
 0001:00031560       ?m_StructCopy@Struct_System_InterfaceInfo@@SIXPAU1@0@Z 02032560 f   sc.obj
 0001:00031594       ?m_StructCopy@Struct_System_InterfaceInfo@@SIXPAU1@PAU1@@Z 02032594 f   sc.obj
 0001:00031630       ?m_Equals@Struct_System_InterfaceInfo@@SI_NPAU1@PAUClass_System_Object@@@Z 02032630 f   sc.obj
 0001:00031690       ?m_Equals@Struct_System_InterfaceInfo@@SI_NPAUClass_System_InterfaceInfo@@PAUClass_System_Object@@@Z 02032690 f   sc.obj
 0001:000316bc       ?m_StructCopy@Struct_Microsoft_Singularity_Directory_DirectoryServiceContract_NakQueryACL@@SIXPAU1@0@Z 020326bc f   sc.obj
 0001:000316e4       ?m_StructCopy@Struct_Microsoft_Singularity_Directory_DirectoryServiceContract_NakQueryACL@@SIXPAU1@PAU1@@Z 020326e4 f   sc.obj
 0001:0003175c       ?m_Equals@Struct_Microsoft_Singularity_Directory_DirectoryServiceContract_NakQueryACL@@SI_NPAU1@PAUClass_System_Object@@@Z 0203275c f   sc.obj
 0001:000317fc       ?m_Equals@Struct_Microsoft_Singularity_Directory_DirectoryServiceContract_NakQueryACL@@SI_NPAUClass_Microsoft_Singularity_Directory_DirectoryServiceContract_NakQueryACL@@PAUClass_System_Object@@@Z 020327fc f   sc.obj
 0001:00031828       ?g_UnExpose@Class_Microsoft_SingSharp_CustomVector@@SIXPAUvoid@@H@Z 02032828 f   sc.obj
 0001:00031844       ?g_Expose@Class_Microsoft_SingSharp_CustomVector@@SIXPAUvoid@@H@Z 02032844 f   sc.obj
 0001:00031860       ?m__ctor@Class_Microsoft_SingSharp_CustomVector@@SIXPAU1@@Z 02032860 f   sc.obj
 0001:00031878       ?m_InvokeStaticStub@Class_System_Threading_Thread_StopServiceNotice@@SIXPAU1@@Z 02032878 f   sc.obj
 0001:000318a0       ?m_Invoke@Class_System_Threading_Thread_StopServiceNotice@@SIXPAU1@@Z 020328a0 f   sc.obj
 0001:000318f4       ?m_EndInvoke@Class_System_Threading_Thread_StopServiceNotice@@SIXPAU1@PAUClass_System_IAsyncResult@@@Z 020328f4 f   sc.obj
 0001:00031910       ?m_BeginInvoke@Class_System_Threading_Thread_StopServiceNotice@@SIPAUClass_System_IAsyncResult@@PAU1@PAUClass_System_AsyncCallback@@PAUClass_System_Object@@@Z 02032910 f   sc.obj
 0001:00031930       ?m__ctor@Class_System_Threading_Thread_StopServiceNotice@@SIXPAU1@PAUClass_System_Object@@PAUintPtr@@@Z 02032930 f   sc.obj
 0001:00031994       ?m__ctor@Class_System_InvalidOperationException@@SIXPAU1@@Z 02032994 f   sc.obj
 0001:000319bc       ?m__ctor@Class_System_InvalidOperationException@@SIXPAU1@PAUClass_System_String@@@Z 020329bc f   sc.obj
 0001:000319e4       ?m__ctor@Class_System_InvalidOperationException@@SIXPAU1@PAUClass_System_String@@PAUClass_System_Exception@@@Z 020329e4 f   sc.obj
 0001:00031a14       ?m_StructCopy@Struct_Microsoft_Singularity_Directory_DirectoryServiceContract_CreateLink@@SIXPAU1@0@Z 02032a14 f   sc.obj
 0001:00031a48       ?m_StructCopy@Struct_Microsoft_Singularity_Directory_DirectoryServiceContract_CreateLink@@SIXPAU1@PAU1@@Z 02032a48 f   sc.obj
 0001:00031ae4       ?m_Equals@Struct_Microsoft_Singularity_Directory_DirectoryServiceContract_CreateLink@@SI_NPAU1@PAUClass_System_Object@@@Z 02032ae4 f   sc.obj
 0001:00031b40       ?m_Equals@Struct_Microsoft_Singularity_Directory_DirectoryServiceContract_CreateLink@@SI_NPAUClass_Microsoft_Singularity_Directory_DirectoryServiceContract_CreateLink@@PAUClass_System_Object@@@Z 02032b40 f   sc.obj
 0001:00031b6c       ?m_Visit@Class_System_GCs_GCProfiler_RootVisitor@@SIXPAU1@PAPAUuintPtr@@@Z 02032b6c f   sc.obj
 0001:00031b98       ?m__ctor@Class_System_GCs_GCProfiler_RootVisitor@@SIXPAU1@PAUClass_System_GCs_GCProfiler@@@Z 02032b98 f   sc.obj
 0001:00031bc8       ?m_StructCopy@Struct_Microsoft_Singularity_V1_Types_SystemType@@SIXPAU1@0@Z 02032bc8 f   sc.obj
 0001:00031bf0       ?m_StructCopy@Struct_Microsoft_Singularity_V1_Types_SystemType@@SIXPAU1@PAU1@@Z 02032bf0 f   sc.obj
 0001:00031c68       ?g_IsNull@Struct_Microsoft_Singularity_V1_Types_SystemType@@SI_NU1@@Z 02032c68 f   sc.obj
 0001:00031c8c       ?m_get$_TypeId@Struct_Microsoft_Singularity_V1_Types_SystemType@@SIPAUuintPtr@@PAU1@@Z 02032c8c f   sc.obj
 0001:00031cac       ?m_Equals@Struct_Microsoft_Singularity_V1_Types_SystemType@@SI_NPAU1@PAUClass_System_Object@@@Z 02032cac f   sc.obj
 0001:00031cf4       ?m_Equals@Struct_Microsoft_Singularity_V1_Types_SystemType@@SI_NPAUClass_Microsoft_Singularity_V1_Types_SystemType@@PAUClass_System_Object@@@Z 02032cf4 f   sc.obj
 0001:00031d20       ?m_StructCopy@Struct_System_VarargList@@SIXPAU1@0@Z 02032d20 f   sc.obj
 0001:00031d48       ?m_StructCopy@Struct_System_VarargList@@SIXPAU1@PAU1@@Z 02032d48 f   sc.obj
 0001:00031dc0       ?m_Equals@Struct_System_VarargList@@SI_NPAU1@PAUClass_System_Object@@@Z 02032dc0 f   sc.obj
 0001:00031e08       ?m_Equals@Struct_System_VarargList@@SI_NPAUClass_System_VarargList@@PAUClass_System_Object@@@Z 02032e08 f   sc.obj
 0001:00031e34       ?g_Create@Struct_System_VarargList@@SI?AU1@H@Z 02032e34 f   sc.obj
 0001:00031e64       ?m_StartScanOneObject@Class_Microsoft_Singularity_GCProfilerLogger@@SIXPAU1@PAUuintPtr@@PAUClass_System_Type@@1@Z 02032e64 f   sc.obj
 0001:00031f24       ?g_StartProfiling@Class_Microsoft_Singularity_GCProfilerLogger@@SIXXZ 02032f24 f   sc.obj
 0001:0003202c       ?m_Shutdown@Class_Microsoft_Singularity_GCProfilerLogger@@SIXPAU1@@Z 0203302c f   sc.obj
 0001:00032058       ?m_ScanOneRoot@Class_Microsoft_Singularity_GCProfilerLogger@@SIXPAU1@PAUuintPtr@@@Z 02033058 f   sc.obj
 0001:00032108       ?m_ScanOneObjectField@Class_Microsoft_Singularity_GCProfilerLogger@@SIXPAU1@PAUuintPtr@@@Z 02033108 f   sc.obj
 0001:0003217c       ?m_PreGC@Class_Microsoft_Singularity_GCProfilerLogger@@SIXPAU1@H@Z 0203317c f   sc.obj
 0001:0003225c       ?m_PostGC@Class_Microsoft_Singularity_GCProfilerLogger@@SIXPAU1@@Z 0203325c f   sc.obj
 0001:00032334       ?m_Initialize@Class_Microsoft_Singularity_GCProfilerLogger@@SIXPAU1@_K1@Z 02033334 f   sc.obj
 0001:00032524       ?m_GetTypeId@Class_Microsoft_Singularity_GCProfilerLogger@@SIIPAU1@PAUClass_System_Type@@@Z 02033524 f   sc.obj
 0001:000325ec       ?m_GetStackId@Class_Microsoft_Singularity_GCProfilerLogger@@SIIPAU1@PAUClass_System_Type@@PAUuintPtr@@PAUClassVector_uintPtr@@I@Z 020335ec f   sc.obj
 0001:0003294c       ?m_GetFunctionId@Class_Microsoft_Singularity_GCProfilerLogger@@SIIPAU1@PAUuintPtr@@@Z 0203394c f   sc.obj
 0001:00032a48       ?m_EndScanOneObject@Class_Microsoft_Singularity_GCProfilerLogger@@SIXPAU1@@Z 02033a48 f   sc.obj
 0001:00032aac       ?m_Allocation@Class_Microsoft_Singularity_GCProfilerLogger@@SIXPAU1@PAUuintPtr@@PAUClass_System_Type@@1@Z 02033aac f   sc.obj
 0001:00032c3c       ?m__ctor@Class_Microsoft_Singularity_GCProfilerLogger@@SIXPAU1@@Z 02033c3c f   sc.obj
 0001:00032c60       ?g__cctor@Class_Microsoft_Singularity_GCProfilerLogger@@SIXXZ 02033c60 f   sc.obj
 0001:00032c74       ?m_StructCopy@Struct_Microsoft_Singularity_Directory_DirectoryServiceContract_AckCreateFile@@SIXPAU1@0@Z 02033c74 f   sc.obj
 0001:00032c90       ?m_StructCopy@Struct_Microsoft_Singularity_Directory_DirectoryServiceContract_AckCreateFile@@SIXPAU1@PAU1@@Z 02033c90 f   sc.obj
 0001:00032ce4       ?m_Equals@Struct_Microsoft_Singularity_Directory_DirectoryServiceContract_AckCreateFile@@SI_NPAU1@PAUClass_System_Object@@@Z 02033ce4 f   sc.obj
 0001:00032d1c       ?m_Equals@Struct_Microsoft_Singularity_Directory_DirectoryServiceContract_AckCreateFile@@SI_NPAUClass_Microsoft_Singularity_Directory_DirectoryServiceContract_AckCreateFile@@PAUClass_System_Object@@@Z 02033d1c f   sc.obj
 0001:00032d48       ?m_StructCopy@Struct_Microsoft_Singularity_Directory_DirectoryServiceContract_AckGetAttributes@@SIXPAU1@0@Z 02033d48 f   sc.obj
 0001:00032d74       ?m_StructCopy@Struct_Microsoft_Singularity_Directory_DirectoryServiceContract_AckGetAttributes@@SIXPAU1@PAU1@@Z 02033d74 f   sc.obj
 0001:00032df8       ?m_Equals@Struct_Microsoft_Singularity_Directory_DirectoryServiceContract_AckGetAttributes@@SI_NPAU1@PAUClass_System_Object@@@Z 02033df8 f   sc.obj
 0001:00032ea0       ?m_Equals@Struct_Microsoft_Singularity_Directory_DirectoryServiceContract_AckGetAttributes@@SI_NPAUClass_Microsoft_Singularity_Directory_DirectoryServiceContract_AckGetAttributes@@PAUClass_System_Object@@@Z 02033ea0 f   sc.obj
 0001:00032ecc       ?g_WriterIsValid@Class_System_UpdateEnlistmentLog@@SI_NUStruct_System_UpdateEnlistmentLogWriter@@@Z 02033ecc f   sc.obj
 0001:00032eec       ?m_VisitWeakRefs@Class_System_UpdateEnlistmentLog@@SIXPAU1@PAUClass_System_TryAllManager@@PAUClass_System_GCs_DirectReferenceVisitor@@@Z 02033eec f   sc.obj
 0001:00033450       ?g_SyncFromWriter@Class_System_UpdateEnlistmentLog@@SIXPAUClass_System_TryAllManager@@@Z 02034450 f   sc.obj
 0001:000334d4       ?m_NotEmpty@Class_System_UpdateEnlistmentLog@@SI_NPAU1@@Z 020344d4 f   sc.obj
 0001:00033510       ?g_InitWriter@Class_System_UpdateEnlistmentLog@@SIXPAUClass_System_TryAllManager@@@Z 02034510 f   sc.obj
 0001:0003358c       ?m_get$_CurrentLocation@Class_System_UpdateEnlistmentLog@@SI?AUStruct_System_UpdateEnlistmentLog_Location@@PAU1@@Z 0203458c f   sc.obj
 0001:00033620       ?m_AddrToIndex@Class_System_UpdateEnlistmentLog@@SIIPAU1@PAUStruct_System_UpdateEnlistmentLog_Entry@@@Z 02034620 f   sc.obj
 0001:000336b0       ?g_AddrOfEntry@Class_System_UpdateEnlistmentLog@@SIPAUStruct_System_UpdateEnlistmentLog_Entry@@PAUClassVector_Struct_System_UpdateEnlistmentLog_Entry@@H@Z 020346b0 f   sc.obj
 0001:0003373c       ?m_AddrOfEntry@Class_System_UpdateEnlistmentLog@@SIPAUStruct_System_UpdateEnlistmentLog_Entry@@PAU1@H@Z 0203473c f   sc.obj
 0001:00033788       ?m_AddCapacity@Class_System_UpdateEnlistmentLog@@SIXPAU1@PAUClass_System_TryAllManager@@@Z 02034788 f   sc.obj
 0001:00033870       ?m__ctor@Class_System_UpdateEnlistmentLog@@SIXPAU1@PAUClass_System_TryAllManager@@@Z 02034870 f   sc.obj
 0001:00033898       ?m_StructCopy@Struct_System_GCs_CalleeSaveLocations_RegLocation@@SIXPAU1@0@Z 02034898 f   sc.obj
 0001:000338d8       ?m_StructCopy@Struct_System_GCs_CalleeSaveLocations_RegLocation@@SIXPAU1@PAU1@@Z 020348d8 f   sc.obj
 0001:00033998       ?m_SetCalleeReg@Struct_System_GCs_CalleeSaveLocations_RegLocation@@SIXPAU1@PAPAUuintPtr@@@Z 02034998 f   sc.obj
 0001:000339d8       ?m_ScanLiveReg@Struct_System_GCs_CalleeSaveLocations_RegLocation@@SIXPAU1@IPAUClass_System_GCs_NonNullReferenceVisitor@@@Z 020349d8 f   sc.obj
 0001:00033a88       ?m_PopFrameReg@Struct_System_GCs_CalleeSaveLocations_RegLocation@@SIXPAU1@PAPAPAUuintPtr@@@Z 02034a88 f   sc.obj
 0001:00033b40       ?m_Equals@Struct_System_GCs_CalleeSaveLocations_RegLocation@@SI_NPAU1@PAUClass_System_Object@@@Z 02034b40 f   sc.obj
 0001:00033ba8       ?m_Equals@Struct_System_GCs_CalleeSaveLocations_RegLocation@@SI_NPAUClass_System_GCs_CalleeSaveLocations_RegLocation@@PAUClass_System_Object@@@Z 02034ba8 f   sc.obj
 0001:00033bd4       ?m_ClearFrameReg@Struct_System_GCs_CalleeSaveLocations_RegLocation@@SIXPAU1@@Z 02034bd4 f   sc.obj
 0001:00033c54       ?m_ClearCalleeReg@Struct_System_GCs_CalleeSaveLocations_RegLocation@@SIXPAU1@@Z 02034c54 f   sc.obj
 0001:00033cd0       ?g_QuickScanLongerString@Class_System_Globalization_CompareInfo@@SIHPAUClass_System_String@@HHHHHHH@Z 02034cd0 f   sc.obj
 0001:00033d98       ?g_GetUnicode@Class_System_Globalization_CompareInfo@@SIG_W@Z 02034d98 f   sc.obj
 0001:00033e40       ?g_GetDiacritic@Class_System_Globalization_CompareInfo@@SIE_W@Z 02034e40 f   sc.obj
 0001:00033ee4       ?g_GetCase@Class_System_Globalization_CompareInfo@@SIE_W@Z 02034ee4 f   sc.obj
 0001:00033f88       ?g_GET$_SCRIPT$_MEMBER@Class_System_Globalization_CompareInfo@@SIEG@Z 02034f88 f   sc.obj
 0001:00033fb4       ?g_GET$_ALPHA$_NUMERIC@Class_System_Globalization_CompareInfo@@SIEG@Z 02034fb4 f   sc.obj
 0001:00033fdc       ?g_CompareString@Class_System_Globalization_CompareInfo@@SIHUStruct_System_Globalization_CompareOptions@@PAUClass_System_String@@HH1HH@Z 02034fdc f   sc.obj
 0001:000346d4       ?g_CompareOrdinal@Class_System_Globalization_CompareInfo@@SIHPAUClass_System_String@@HH0HH@Z 020356d4 f   sc.obj
 0001:000347d0       ?g_Compare@Class_System_Globalization_CompareInfo@@SIHPAUClass_System_String@@0@Z 020357d0 f   sc.obj
 0001:000347fc       ?g_Compare@Class_System_Globalization_CompareInfo@@SIHPAUClass_System_String@@0UStruct_System_Globalization_CompareOptions@@@Z 020357fc f   sc.obj
 0001:0003492c       ?m__ctor@Class_System_Globalization_CompareInfo@@SIXPAU1@@Z 0203592c f   sc.obj
 0001:00034944       ?g__cctor@Class_System_Globalization_CompareInfo@@SIXXZ 02035944 f   sc.obj
 0001:00034958       ?m_ToString@Class_System_String@@SIPAU1@PAU1@@Z 02035958 f   sc.obj
 0001:00034978       ?m_ToCharArray@Class_System_String@@SIPAUClassVector_bartok_char@@PAU1@HH@Z 02035978 f   sc.obj
 0001:00034a60       ?m_Substring@Class_System_String@@SIPAU1@PAU1@H@Z 02035a60 f   sc.obj
 0001:00034a98       ?m_Substring@Class_System_String@@SIPAU1@PAU1@HH@Z 02035a98 f   sc.obj
 0001:00034b98       ?g_StringCTOR@Class_System_String@@SIPAU1@PA_WHH@Z 02035b98 f   sc.obj
 0001:00034c70       ?g_StringCTOR@Class_System_String@@SIPAU1@PAUClassVector_bartok_char@@HH@Z 02035c70 f   sc.obj
 0001:00034d6c       ?g_StringCTOR@Class_System_String@@SIPAU1@_WH@Z 02035d6c f   sc.obj
 0001:00034dfc       ?m_SetLength@Class_System_String@@SIXPAU1@H@Z 02035dfc f   sc.obj
 0001:00034e3c       ?m_PadRight@Class_System_String@@SIPAU1@PAU1@H_W@Z 02035e3c f   sc.obj
 0001:00034e70       ?m_PadLeft@Class_System_String@@SIPAU1@PAU1@H_W@Z 02035e70 f   sc.obj
 0001:00034ea4       ?m_PadHelper@Class_System_String@@SIPAU1@PAU1@H_W_N@Z 02035ea4 f   sc.obj
 0001:00034f90       ?g_op$_Inequality@Class_System_String@@SI_NPAU1@0@Z 02035f90 f   sc.obj
 0001:00034fbc       ?m_NullTerminate@Class_System_String@@SIXPAU1@@Z 02035fbc f   sc.obj
 0001:00035014       ?g_LimitedFormatTo@Class_System_String@@SIHPAU1@UStruct_System_ArgIterator@@PA_WH@Z 02036014 f   sc.obj
 0001:000357f0       ?m_LastIndexOf@Class_System_String@@SIHPAU1@_W@Z 020367f0 f   sc.obj
 0001:00035838       ?m_LastIndexOf@Class_System_String@@SIHPAU1@_WHH@Z 02036838 f   sc.obj
 0001:000359b0       ?m_InternalLength@Class_System_String@@SIHPAU1@@Z 020369b0 f   sc.obj
 0001:000359d0       ?m_InternalGetChar@Class_System_String@@SI_WPAU1@H@Z 020369d0 f   sc.obj
 0001:00035a4c       ?m_InternalCopyTo@Class_System_String@@SIXPAU1@HPAUClassVector_bartok_char@@HH@Z 02036a4c f   sc.obj
 0001:00035b70       ?g_InternalCopy@Class_System_String@@SIPAU1@PAU1@@Z 02036b70 f   sc.obj
 0001:00035bd0       ?g_InternalCopy@Class_System_String@@SIXPAU1@PAUClassVector_uint8@@H@Z 02036bd0 f   sc.obj
 0001:00035c98       ?m_InitializeStringLength@Class_System_String@@SIXPAU1@H@Z 02036c98 f   sc.obj
 0001:00035ccc       ?g_GetStringForStringBuilder@Class_System_String@@SIPAU1@PAU1@H@Z 02036ccc f   sc.obj
 0001:00035d74       ?m_GetHashCode@Class_System_String@@SIHPAU1@@Z 02036d74 f   sc.obj
 0001:00035e70       ?m_get$_Length@Class_System_String@@SIHPAU1@@Z 02036e70 f   sc.obj
 0001:00035e94       ?m_get$_Item@Class_System_String@@SI_WPAU1@H@Z 02036e94 f   sc.obj
 0001:00035ebc       ?m_get$_Capacity@Class_System_String@@SIHPAU1@@Z 02036ebc f   sc.obj
 0001:00035ee0       ?m_get$_ArrayLength@Class_System_String@@SIHPAU1@@Z 02036ee0 f   sc.obj
 0001:00035f00       ?g_Format@Class_System_String@@SIPAU1@PAU1@PAUClassVector_Class_System_Object@@@Z 02036f00 f   sc.obj
 0001:00035ff8       ?g_Format@Class_System_String@@SIPAU1@PAU1@PAUClass_System_Object@@@Z 02036ff8 f   sc.obj
 0001:00036050       ?g_Format@Class_System_String@@SIPAU1@PAU1@PAUClass_System_Object@@1@Z 02037050 f   sc.obj
 0001:000360b4       ?g_FillSubstring@Class_System_String@@SIXPAU1@H0HH@Z 020370b4 f   sc.obj
 0001:00036118       ?g_FillStringEx@Class_System_String@@SIXPAU1@H0H@Z 02037118 f   sc.obj
 0001:00036174       ?g_FillStringChecked@Class_System_String@@SIXPAU1@H0@Z 02037174 f   sc.obj
 0001:00036214       ?g_FillStringCharPtr@Class_System_String@@SIXPAU1@HPA_WH@Z 02037214 f   sc.obj
 0001:00036288       ?g_FillStringChar@Class_System_String@@SIXPAU1@H_WH@Z 02037288 f   sc.obj
 0001:000363a4       ?g_FillStringArray@Class_System_String@@SIXPAU1@HPAUClassVector_bartok_char@@HH@Z 020373a4 f   sc.obj
 0001:00036410       ?g_FillString@Class_System_String@@SIXPAU1@H0@Z 02037410 f   sc.obj
 0001:00036470       ?g_FastAllocateString@Class_System_String@@SIPAU1@H@Z 02037470 f   sc.obj
 0001:00036574       ?m_Equals@Class_System_String@@SI_NPAU1@0@Z 02037574 f   sc.obj
 0001:00036674       ?g_Equals@Class_System_String@@SI_NPAU1@0@Z 02037674 f   sc.obj
 0001:000366d4       ?m_Equals@Class_System_String@@SI_NPAU1@PAUClass_System_Object@@@Z 020376d4 f   sc.obj
 0001:00036724       ?g_CountDigits@Class_System_String@@SIH_KI@Z 02037724 f   sc.obj
 0001:000367bc       ?g_ConcatArray@Class_System_String@@SIPAU1@PAUClassVector_Class_System_String@@H@Z 020377bc f   sc.obj
 0001:0003689c       ?g_Concat@Class_System_String@@SIPAU1@PAUClassVector_Class_System_String@@@Z 0203789c f   sc.obj
 0001:000369e8       ?g_Concat@Class_System_String@@SIPAU1@PAUClassVector_Class_System_Object@@@Z 020379e8 f   sc.obj
 0001:00036b40       ?g_Concat@Class_System_String@@SIPAU1@PAU1@0@Z 02037b40 f   sc.obj
 0001:00036be4       ?g_Concat@Class_System_String@@SIPAU1@PAU1@00@Z 02037be4 f   sc.obj
 0001:00036d24       ?g_Concat@Class_System_String@@SIPAU1@PAU1@000@Z 02037d24 f   sc.obj
 0001:00036ec4       ?g_Concat@Class_System_String@@SIPAU1@PAUClass_System_Object@@@Z 02037ec4 f   sc.obj
 0001:00036ef8       ?g_Concat@Class_System_String@@SIPAU1@PAUClass_System_Object@@0@Z 02037ef8 f   sc.obj
 0001:00036f60       ?g_Concat@Class_System_String@@SIPAU1@PAUClass_System_Object@@00@Z 02037f60 f   sc.obj
 0001:00036fec       ?m_CompareTo@Class_System_String@@SIHPAU1@PAUClass_System_Object@@@Z 02037fec f   sc.obj
 0001:00037070       ?g_Compare@Class_System_String@@SIHPAU1@0@Z 02038070 f   sc.obj
 0001:000370b0       ?m_ClearPostNullChar@Class_System_String@@SIXPAU1@@Z 020380b0 f   sc.obj
 0001:00037128       ?m_AppendInPlace@Class_System_String@@SIXPAU1@PAUClassVector_bartok_char@@HHH@Z 02038128 f   sc.obj
 0001:000371c4       ?m_AppendInPlace@Class_System_String@@SIXPAU1@0H@Z 020381c4 f   sc.obj
 0001:0003724c       ?m_AppendInPlace@Class_System_String@@SIXPAU1@_WH@Z 0203824c f   sc.obj
 0001:000372e4       ?m_AppendInPlace@Class_System_String@@SIXPAU1@_WHH@Z 020382e4 f   sc.obj
 0001:000373b0       ?g_AddString@Class_System_String@@SIPA_WPA_W00HH@Z 020383b0 f   sc.obj
 0001:000374cc       ?g_AddString@Class_System_String@@SIPA_WPA_W0PAU1@H@Z 020384cc f   sc.obj
 0001:00037528       ?g_AddNumber@Class_System_String@@SIPA_WPA_W0_KHI_W2@Z 02038528 f   sc.obj
 0001:000377d4       ?g_AddChar@Class_System_String@@SIPA_WPA_W0_WH@Z 020387d4 f   sc.obj
 0001:000378c4       ?g__cctor@Class_System_String@@SIXXZ 020388c4 f   sc.obj
 0001:000378d8       ?m_WaitOne@Class_System_Threading_Mutex@@SI_NPAU1@@Z 020388d8 f   sc.obj
 0001:0003794c       ?m_WaitOne@Class_System_Threading_Mutex@@SI_NPAU1@UStruct_System_SchedulerTime@@@Z 0203894c f   sc.obj
 0001:000379d4       ?m_ReleaseMutex@Class_System_Threading_Mutex@@SIXPAU1@@Z 020389d4 f   sc.obj
 0001:00037a0c       ?m_IsOwnedByCurrentThread@Class_System_Threading_Mutex@@SI_NPAU1@@Z 02038a0c f   sc.obj
 0001:00037a58       ?m_Finalize@Class_System_Threading_Mutex@@SIXPAU1@@Z 02038a58 f   sc.obj
 0001:00037abc       ?m_Dispose@Class_System_Threading_Mutex@@SIXPAU1@_N@Z 02038abc f   sc.obj
 0001:00037b08       ?m_AcquireMutex@Class_System_Threading_Mutex@@SI_NPAU1@@Z 02038b08 f   sc.obj
 0001:00037b2c       ?m_AcquireMutex@Class_System_Threading_Mutex@@SI_NPAU1@UStruct_System_SchedulerTime@@@Z 02038b2c f   sc.obj
 0001:00037b6c       ?m__ctor@Class_System_Threading_Mutex@@SIXPAU1@@Z 02038b6c f   sc.obj
 0001:00037bd4       ?m_System_IDisposable_Dispose@Class_System_Threading_WaitHandle@@SIXPAU1@@Z 02038bd4 f   sc.obj
 0001:00037c04       ?m_Finalize@Class_System_Threading_WaitHandle@@SIXPAU1@@Z 02038c04 f   sc.obj
 0001:00037c4c       ?m__ctor@Class_System_Threading_WaitHandle@@SIXPAU1@@Z 02038c4c f   sc.obj
 0001:00037c68       ?m_StructCopy@Struct_Microsoft_Singularity_ServiceManager_ServiceManagerContract_Imp@@SIXPAU1@0@Z 02038c68 f   sc.obj
 0001:00037e50       ?m_StructCopy@Struct_Microsoft_Singularity_ServiceManager_ServiceManagerContract_Imp@@SIXPAU1@PAU1@@Z 02038e50 f   sc.obj
 0001:00038408       ?m_SendWatchServiceStatus@Struct_Microsoft_Singularity_ServiceManager_ServiceManagerContract_Imp@@SIXPAU1@@Z 02039408 f   sc.obj
 0001:000384fc       ?m_SendWatchServiceManager@Struct_Microsoft_Singularity_ServiceManager_ServiceManagerContract_Imp@@SIXPAU1@UStruct_Microsoft_Singularity_ServiceManager_ServiceManagerEventMask@@@Z 020394fc f   sc.obj
 0001:000385f8       ?m_SendWaitServiceChange@Struct_Microsoft_Singularity_ServiceManager_ServiceManagerContract_Imp@@SIXPAU1@@Z 020395f8 f   sc.obj
 0001:000386ec       ?m_SendWaitNextServiceManagerChange@Struct_Microsoft_Singularity_ServiceManager_ServiceManagerContract_Imp@@SIXPAU1@@Z 020396ec f   sc.obj
 0001:000387e0       ?m_SendTerminateServiceProcess@Struct_Microsoft_Singularity_ServiceManager_ServiceManagerContract_Imp@@SIXPAU1@H@Z 020397e0 f   sc.obj
 0001:000388dc       ?m_SendTerminateServiceAllProcesses@Struct_Microsoft_Singularity_ServiceManager_ServiceManagerContract_Imp@@SIXPAU1@@Z 020398dc f   sc.obj
 0001:000389d0       ?m_SendStopServiceWait@Struct_Microsoft_Singularity_ServiceManager_ServiceManagerContract_Imp@@SIXPAU1@@Z 020399d0 f   sc.obj
 0001:00038ac4       ?m_SendStopServiceNoWait@Struct_Microsoft_Singularity_ServiceManager_ServiceManagerContract_Imp@@SIXPAU1@@Z 02039ac4 f   sc.obj
 0001:00038bb8       ?m_SendStartServiceWait@Struct_Microsoft_Singularity_ServiceManager_ServiceManagerContract_Imp@@SIXPAU1@@Z 02039bb8 f   sc.obj
 0001:00038cac       ?m_SendStartServiceNoWait@Struct_Microsoft_Singularity_ServiceManager_ServiceManagerContract_Imp@@SIXPAU1@@Z 02039cac f   sc.obj
 0001:00038da0       ?m_SendSelectService@Struct_Microsoft_Singularity_ServiceManager_ServiceManagerContract_Imp@@SIXPAU1@PA_W@Z 02039da0 f   sc.obj
 0001:00038eb4       ?m_SendQueryServiceStatus@Struct_Microsoft_Singularity_ServiceManager_ServiceManagerContract_Imp@@SIXPAU1@@Z 02039eb4 f   sc.obj
 0001:00038fa8       ?m_SendQueryServiceConfig@Struct_Microsoft_Singularity_ServiceManager_ServiceManagerContract_Imp@@SIXPAU1@@Z 02039fa8 f   sc.obj
 0001:0003909c       ?m_SendEnumerateServices@Struct_Microsoft_Singularity_ServiceManager_ServiceManagerContract_Imp@@SIXPAU1@PAUStruct_Microsoft_Singularity_ServiceManager_ServiceInfo@@@Z 0203a09c f   sc.obj
 0001:00039240       ?m_SendEnableService@Struct_Microsoft_Singularity_ServiceManager_ServiceManagerContract_Imp@@SIXPAU1@_N@Z 0203a240 f   sc.obj
 0001:0003933c       ?m_SendDeleteService@Struct_Microsoft_Singularity_ServiceManager_ServiceManagerContract_Imp@@SIXPAU1@@Z 0203a33c f   sc.obj
 0001:00039430       ?m_SendCreateService@Struct_Microsoft_Singularity_ServiceManager_ServiceManagerContract_Imp@@SIXPAU1@UStruct_Microsoft_Singularity_ServiceManager_ServiceConfig@@@Z 0203a430 f   sc.obj
 0001:0003955c       ?m_RecvSuccess@Struct_Microsoft_Singularity_ServiceManager_ServiceManagerContract_Imp@@SIXPAU1@@Z 0203a55c f   sc.obj
 0001:000396d4       ?m_RecvServiceStopping@Struct_Microsoft_Singularity_ServiceManager_ServiceManagerContract_Imp@@SIXPAU1@@Z 0203a6d4 f   sc.obj
 0001:0003984c       ?m_RecvServiceStatusChanged@Struct_Microsoft_Singularity_ServiceManager_ServiceManagerContract_Imp@@SIXPAU1@PAUStruct_Microsoft_Singularity_ServiceManager_ServiceStatus@@PA_N@Z 0203a84c f   sc.obj
 0001:00039a2c       ?m_RecvServiceStarting@Struct_Microsoft_Singularity_ServiceManager_ServiceManagerContract_Imp@@SIXPAU1@@Z 0203aa2c f   sc.obj
 0001:00039ba4       ?m_RecvServiceManagerChanged@Struct_Microsoft_Singularity_ServiceManager_ServiceManagerContract_Imp@@SIXPAU1@PAUStruct_Microsoft_Singularity_ServiceManager_ServiceManagerEventMask@@@Z 0203aba4 f   sc.obj
 0001:00039d2c       ?m_RecvRequestFailed@Struct_Microsoft_Singularity_ServiceManager_ServiceManagerContract_Imp@@SIXPAU1@PAUStruct_Microsoft_Singularity_ServiceManager_ServiceError@@@Z 0203ad2c f   sc.obj
 0001:0003aed8       ?m_RecvOk@Struct_Microsoft_Singularity_ServiceManager_ServiceManagerContract_Imp@@SIXPAU1@@Z 0203bed8 f   sc.obj
 0001:0003b7c8       ?m_RecvNextServiceInfo@Struct_Microsoft_Singularity_ServiceManager_ServiceManagerContract_Imp@@SIXPAU1@PAPAUStruct_Microsoft_Singularity_ServiceManager_ServiceInfo@@PAH@Z 0203c7c8 f   sc.obj
 0001:0003b964       ?m_RecvEnumerationTerminated@Struct_Microsoft_Singularity_ServiceManager_ServiceManagerContract_Imp@@SIXPAU1@PAPAUStruct_Microsoft_Singularity_ServiceManager_ServiceInfo@@PAH@Z 0203c964 f   sc.obj
 0001:0003bb00       ?m_RecvCurrentServiceStatus@Struct_Microsoft_Singularity_ServiceManager_ServiceManagerContract_Imp@@SIXPAU1@PAUStruct_Microsoft_Singularity_ServiceManager_ServiceStatus@@@Z 0203cb00 f   sc.obj
 0001:0003bcc8       ?m_RecvCurrentServiceConfig@Struct_Microsoft_Singularity_ServiceManager_ServiceManagerContract_Imp@@SIXPAU1@PAUStruct_Microsoft_Singularity_ServiceManager_ServiceConfig@@@Z 0203ccc8 f   sc.obj
 0001:0003be98       ?m_Peek@Struct_Microsoft_Singularity_ServiceManager_ServiceManagerContract_Imp@@SIHPAU1@@Z 0203ce98 f   sc.obj
 0001:0003caa8       ?m_HeadMatches@Struct_Microsoft_Singularity_ServiceManager_ServiceManagerContract_Imp@@SI_NPAU1@HPA_NPAPAUClass_System_Object@@@Z 0203daa8 f   sc.obj
 0001:0003cb68       ?m_HeadMatches@Struct_Microsoft_Singularity_ServiceManager_ServiceManagerContract_Imp@@SI_NPAUClass_Microsoft_Singularity_ServiceManager_ServiceManagerContract_Imp@@HPA_NPAPAUClass_System_Object@@@Z 0203db68 f   sc.obj
 0001:0003cba0       ?m_Equals@Struct_Microsoft_Singularity_ServiceManager_ServiceManagerContract_Imp@@SI_NPAU1@PAUClass_System_Object@@@Z 0203dba0 f   sc.obj
 0001:0003d454       ?m_Equals@Struct_Microsoft_Singularity_ServiceManager_ServiceManagerContract_Imp@@SI_NPAUClass_Microsoft_Singularity_ServiceManager_ServiceManagerContract_Imp@@PAUClass_System_Object@@@Z 0203e454 f   sc.obj
 0001:0003d480       ?m_Dispose@Struct_Microsoft_Singularity_ServiceManager_ServiceManagerContract_Imp@@SIXPAU1@@Z 0203e480 f   sc.obj
 0001:0003d4a4       ?m_Dispose@Struct_Microsoft_Singularity_ServiceManager_ServiceManagerContract_Imp@@SIXPAUClass_Microsoft_Singularity_ServiceManager_ServiceManagerContract_Imp@@@Z 0203e4a4 f   sc.obj
 0001:0003d4cc       ?m_CurrentState@Struct_Microsoft_Singularity_ServiceManager_ServiceManagerContract_Imp@@SIPAUClass_System_String@@PAU1@@Z 0203e4cc f   sc.obj
 0001:0003d7a0       ?m__ctor@Struct_Microsoft_Singularity_ServiceManager_ServiceManagerContract_Imp@@SIXPAU1@H@Z 0203e7a0 f   sc.obj
 0001:0003d7cc       ?g_Verify@Struct_System_GCs_PageManager_UnusedBlockHeader@@SIXPAU1@@Z 0203e7cc f   sc.obj
 0001:0003da74       ?m_StructCopy@Struct_System_GCs_PageManager_UnusedBlockHeader@@SIXPAU1@0@Z 0203ea74 f   sc.obj
 0001:0003dacc       ?m_StructCopy@Struct_System_GCs_PageManager_UnusedBlockHeader@@SIXPAU1@PAU1@@Z 0203eacc f   sc.obj
 0001:0003dbd4       ?g_Remove@Struct_System_GCs_PageManager_UnusedBlockHeader@@SIPAUuintPtr@@PAU1@@Z 0203ebd4 f   sc.obj
 0001:0003dc9c       ?g_InsertNext@Struct_System_GCs_PageManager_UnusedBlockHeader@@SIXPAU1@0@Z 0203ec9c f   sc.obj
 0001:0003dcf8       ?g_Initialize@Struct_System_GCs_PageManager_UnusedBlockHeader@@SIXPAU1@PAUuintPtr@@@Z 0203ecf8 f   sc.obj
 0001:0003dd7c       ?m_Equals@Struct_System_GCs_PageManager_UnusedBlockHeader@@SI_NPAU1@PAUClass_System_Object@@@Z 0203ed7c f   sc.obj
 0001:0003de00       ?m_Equals@Struct_System_GCs_PageManager_UnusedBlockHeader@@SI_NPAUClass_System_GCs_PageManager_UnusedBlockHeader@@PAUClass_System_Object@@@Z 0203ee00 f   sc.obj
 0001:0003de2c       ?m_Verify@Class_System_GCs_Verifier_GenericStackVerifier@@SIXPAU1@PAUClass_System_GCs_NonNullReferenceVisitor@@PAUClass_System_Threading_Thread@@@Z 0203ee2c f   sc.obj
 0001:0003de5c       ?m__ctor@Class_System_GCs_Verifier_GenericStackVerifier@@SIXPAU1@@Z 0203ee5c f   sc.obj
 0001:0003de80       ?m__ctor@Class_System_GCs_Verifier_StackVerifier@@SIXPAU1@@Z 0203ee80 f   sc.obj
 0001:0003de9c       ?g_SetPageTableEntryImpl@Class_System_GCs_CentralPT@@SIXPAUuintPtr@@I@Z 0203ee9c f   sc.obj
 0001:0003decc       ?g_PageTableEntryImpl@Class_System_GCs_CentralPT@@SIIPAUuintPtr@@@Z 0203eecc f   sc.obj
 0001:0003def8       ?m__ctor@Class_System_GCs_CentralPT@@SIXPAU1@@Z 0203eef8 f   sc.obj
 0001:0003df10       ?m_StructCopy@Struct_System_UpdateLog_Entry@@SIXPAU1@0@Z 0203ef10 f   sc.obj
 0001:0003df5c       ?m_StructCopy@Struct_System_UpdateLog_Entry@@SIXPAU1@PAU1@@Z 0203ef5c f   sc.obj
 0001:0003e040       ?m_Equals@Struct_System_UpdateLog_Entry@@SI_NPAU1@PAUClass_System_Object@@@Z 0203f040 f   sc.obj
 0001:0003e114       ?m_Equals@Struct_System_UpdateLog_Entry@@SI_NPAUClass_System_UpdateLog_Entry@@PAUClass_System_Object@@@Z 0203f114 f   sc.obj
 0001:0003e140       ?m_StructCopy@Struct_Microsoft_Singularity_ServiceManager_ServiceManagerContract_ServiceStopped@@SIXPAU1@0@Z 0203f140 f   sc.obj
 0001:0003e15c       ?m_StructCopy@Struct_Microsoft_Singularity_ServiceManager_ServiceManagerContract_ServiceStopped@@SIXPAU1@PAU1@@Z 0203f15c f   sc.obj
 0001:0003e1b0       ?m_Equals@Struct_Microsoft_Singularity_ServiceManager_ServiceManagerContract_ServiceStopped@@SI_NPAU1@PAUClass_System_Object@@@Z 0203f1b0 f   sc.obj
 0001:0003e1e8       ?m_Equals@Struct_Microsoft_Singularity_ServiceManager_ServiceManagerContract_ServiceStopped@@SI_NPAUClass_Microsoft_Singularity_ServiceManager_ServiceManagerContract_ServiceStopped@@PAUClass_System_Object@@@Z 0203f1e8 f   sc.obj
 0001:0003e214       ?g_StableState@Class_Microsoft_Singularity_Directory_ServiceProviderContract@@SIHPAUStruct_Microsoft_Singularity_Channels_StateStack@@@Z 0203f214 f   sc.obj
 0001:0003e270       ?m__ctor@Class_Microsoft_Singularity_Directory_ServiceProviderContract@@SIXPAU1@@Z 0203f270 f   sc.obj
 0001:0003e288       ?m__ctor@Class_System_UpdateLog_LogChunk@@SIXPAU1@PAUClassVector_Struct_System_UpdateLog_Entry@@0@Z 0203f288 f   sc.obj
 0001:0003e2d0       ?m_StructCopy@Struct_Microsoft_Singularity_ServiceManager_ServiceManagerContract_CurrentServiceConfig@@SIXPAU1@0@Z 0203f2d0 f   sc.obj
 0001:0003e2fc       ?m_StructCopy@Struct_Microsoft_Singularity_ServiceManager_ServiceManagerContract_CurrentServiceConfig@@SIXPAU1@PAU1@@Z 0203f2fc f   sc.obj
 0001:0003e380       ?m_Equals@Struct_Microsoft_Singularity_ServiceManager_ServiceManagerContract_CurrentServiceConfig@@SI_NPAU1@PAUClass_System_Object@@@Z 0203f380 f   sc.obj
 0001:0003e430       ?m_Equals@Struct_Microsoft_Singularity_ServiceManager_ServiceManagerContract_CurrentServiceConfig@@SI_NPAUClass_Microsoft_Singularity_ServiceManager_ServiceManagerContract_CurrentServiceConfig@@PAUClass_System_Object@@@Z 0203f430 f   sc.obj
 0001:0003e45c       ?m_AppMain@Class_Microsoft_Singularity_Applications_ServiceManager_DisableServiceCommand@@SIHPAU1@@Z 0203f45c f   sc.obj
 0001:0003e6cc       ?m__ctor@Class_Microsoft_Singularity_Applications_ServiceManager_DisableServiceCommand@@SIXPAU1@@Z 0203f6cc f   sc.obj
 0001:0003e810       ?g__cctor@Class_Microsoft_Singularity_Applications_ServiceManager_DisableServiceCommand@@SIXXZ 0203f810 f   sc.obj
 0001:0003e880       ?m_AppMain@Class_Microsoft_Singularity_Applications_ServiceManager_WatchAllConfig@@SIHPAU1@@Z 0203f880 f   sc.obj
 0001:0003ebd4       ?m__ctor@Class_Microsoft_Singularity_Applications_ServiceManager_WatchAllConfig@@SIXPAU1@@Z 0203fbd4 f   sc.obj
 0001:0003ec50       ?g__cctor@Class_Microsoft_Singularity_Applications_ServiceManager_WatchAllConfig@@SIXXZ 0203fc50 f   sc.obj
 0001:0003ecf4       ?m_StructCopy@Struct_System_GCs_BumpAllocator@@SIXPAU1@0@Z 0203fcf4 f   sc.obj
 0001:0003ed4c       ?m_StructCopy@Struct_System_GCs_BumpAllocator@@SIXPAU1@PAU1@@Z 0203fd4c f   sc.obj
 0001:0003ee54       ?m_Equals@Struct_System_GCs_BumpAllocator@@SI_NPAU1@PAUClass_System_Object@@@Z 0203fe54 f   sc.obj
 0001:0003ef2c       ?m_Equals@Struct_System_GCs_BumpAllocator@@SI_NPAUClass_System_GCs_BumpAllocator@@PAUClass_System_Object@@@Z 0203ff2c f   sc.obj
 0001:0003ef58       ?m__ctor@Class_Microsoft_Bartok_Runtime_Constants@@SIXPAU1@@Z 0203ff58 f   sc.obj
 0001:0003efa4       ?g__cctor@Class_Microsoft_Bartok_Runtime_Constants@@SIXXZ 0203ffa4 f   sc.obj
 0001:0003f144       ?g_WriteNewLine@Class_System_Console@@SIXXZ 02040144 f   sc.obj
 0001:0003f164       ?g_WriteLine@Class_System_Console@@SIXPAUClass_System_String@@@Z 02040164 f   sc.obj
 0001:0003f18c       ?g_WriteLine@Class_System_Console@@SIXPAUClass_System_String@@PAUClassVector_Class_System_Object@@@Z 0204018c f   sc.obj
 0001:0003f1c0       ?g_WriteLine@Class_System_Console@@SIXPAUClass_System_String@@PAUClass_System_Object@@@Z 020401c0 f   sc.obj
 0001:0003f1f4       ?g_WriteLine@Class_System_Console@@SIXPAUClass_System_String@@PAUClass_System_Object@@1@Z 020401f4 f   sc.obj
 0001:0003f230       ?g_WriteLine@Class_System_Console@@SIXXZ 02040230 f   sc.obj
 0001:0003f248       ?g_WriteInternal@Class_System_Console@@SIXPAUClass_System_String@@@Z 02040248 f   sc.obj
 0001:0003f298       ?g_ToString2@Class_Microsoft_Singularity_Bitter@@SIPAUClass_System_String@@PA_W@Z 02040298 f   sc.obj
 0001:0003f2f4       ?g_ToString2@Class_Microsoft_Singularity_Bitter@@SIPAUClass_System_String@@PA_WHH@Z 020402f4 f   sc.obj
 0001:0003f428       ?g_ToString@Class_Microsoft_Singularity_Bitter@@SIPAUClass_System_String@@PA_W@Z 02040428 f   sc.obj
 0001:0003f488       ?g_FromString2@Class_Microsoft_Singularity_Bitter@@SIPA_WPAUClass_System_String@@@Z 02040488 f   sc.obj
 0001:0003f4d4       ?g_FromString2@Class_Microsoft_Singularity_Bitter@@SIPA_WPAUClass_System_String@@HH@Z 020404d4 f   sc.obj
 0001:0003f604       ?g_Copy@Class_Microsoft_Singularity_Bitter@@SIXPA_WHH0H@Z 02040604 f   sc.obj
 0001:0003f6d4       ?g_BoundsCheck@Class_Microsoft_Singularity_Bitter@@SIXPA_WHH@Z 020406d4 f   sc.obj
 0001:0003f7b0       ?m__ctor@Class_Microsoft_Singularity_Bitter@@SIXPAU1@@Z 020407b0 f   sc.obj
 0001:0003f7c8       ?g_Allocate@Class_Microsoft_Singularity_Channels_ChannelHeap@@SIPAUvoid@@PAUClass_System_Type@@@Z 020407c8 f   sc.obj
 0001:0003f8b0       ?m__ctor@Class_Microsoft_Singularity_Channels_ChannelHeap@@SIXPAU1@@Z 020408b0 f   sc.obj
 0001:0003f8c8       ?m_StructCopy@Struct_Microsoft_Singularity_Directory_DirectoryServiceContract_AckCreateAndBindFile@@SIXPAU1@0@Z 020408c8 f   sc.obj
 0001:0003f8e4       ?m_StructCopy@Struct_Microsoft_Singularity_Directory_DirectoryServiceContract_AckCreateAndBindFile@@SIXPAU1@PAU1@@Z 020408e4 f   sc.obj
 0001:0003f938       ?m_Equals@Struct_Microsoft_Singularity_Directory_DirectoryServiceContract_AckCreateAndBindFile@@SI_NPAU1@PAUClass_System_Object@@@Z 02040938 f   sc.obj
 0001:0003f970       ?m_Equals@Struct_Microsoft_Singularity_Directory_DirectoryServiceContract_AckCreateAndBindFile@@SI_NPAUClass_Microsoft_Singularity_Directory_DirectoryServiceContract_AckCreateAndBindFile@@PAUClass_System_Object@@@Z 02040970 f   sc.obj
 0001:0003f99c       ?g_StringSize@Class_System_GCs_ObjectLayout@@SIPAUuintPtr@@PAUClass_System_VTable@@I@Z 0204099c f   sc.obj
 0001:0003fa0c       ?g_Sizeof@Class_System_GCs_ObjectLayout@@SIPAUuintPtr@@PAUClass_System_Object@@@Z 02040a0c f   sc.obj
 0001:0003fa48       ?g_ObjectSize@Class_System_GCs_ObjectLayout@@SIPAUuintPtr@@PAU2@PAUClass_System_VTable@@@Z 02040a48 f   sc.obj
 0001:0003fb04       ?g_ObjectSize@Class_System_GCs_ObjectLayout@@SIPAUuintPtr@@PAUClass_System_VTable@@@Z 02040b04 f   sc.obj
 0001:0003fb70       ?g_ArraySize@Class_System_GCs_ObjectLayout@@SIPAUuintPtr@@PAUClass_System_VTable@@I@Z 02040b70 f   sc.obj
 0001:0003fbe8       ?m__ctor@Class_System_GCs_ObjectLayout@@SIXPAU1@@Z 02040be8 f   sc.obj
 0001:0003fc00       ?m__ctor@Class_System_LocalDataStoreMgr@@SIXPAU1@@Z 02040c00 f   sc.obj
 0001:0003fc90       ?g_StableState@Class_Microsoft_Singularity_Directory_DirectoryServiceContract@@SIHPAUStruct_Microsoft_Singularity_Channels_StateStack@@@Z 02040c90 f   sc.obj
 0001:0003ff34       ?g_NewChannel@Class_Microsoft_Singularity_Directory_DirectoryServiceContract@@SIXPAPAUStruct_Microsoft_Singularity_Directory_DirectoryServiceContract_Imp@@PAPAUStruct_Microsoft_Singularity_Directory_DirectoryServiceContract_Exp@@@Z 02040f34 f   sc.obj
 0001:0003ffd0       ?m__ctor@Class_Microsoft_Singularity_Directory_DirectoryServiceContract@@SIXPAU1@@Z 02040fd0 f   sc.obj
 0001:0003ffe8       ?m_StructCopy@Struct_Microsoft_Singularity_V1_Services_SharedHeapService@@SIXPAU1@0@Z 02040fe8 f   sc.obj
 0001:00040004       ?m_StructCopy@Struct_Microsoft_Singularity_V1_Services_SharedHeapService@@SIXPAU1@PAU1@@Z 02041004 f   sc.obj
 0001:00040058       ?g_GetType@Struct_Microsoft_Singularity_V1_Services_SharedHeapService@@SIPAUuintPtr@@PAUStruct_Microsoft_Singularity_V1_Services_SharedHeapService_Allocation@@@Z 02041058 f   sc.obj
 0001:00040078       ?g_GetSize@Struct_Microsoft_Singularity_V1_Services_SharedHeapService@@SIPAUuintPtr@@PAUStruct_Microsoft_Singularity_V1_Services_SharedHeapService_Allocation@@@Z 02041078 f   sc.obj
 0001:00040098       ?g_GetData@Struct_Microsoft_Singularity_V1_Services_SharedHeapService@@SIPAUuintPtr@@PAUStruct_Microsoft_Singularity_V1_Services_SharedHeapService_Allocation@@@Z 02041098 f   sc.obj
 0001:000400b8       ?m_Equals@Struct_Microsoft_Singularity_V1_Services_SharedHeapService@@SI_NPAU1@PAUClass_System_Object@@@Z 020410b8 f   sc.obj
 0001:000400f0       ?m_Equals@Struct_Microsoft_Singularity_V1_Services_SharedHeapService@@SI_NPAUClass_Microsoft_Singularity_V1_Services_SharedHeapService@@PAUClass_System_Object@@@Z 020410f0 f   sc.obj
 0001:0004011c       ?g_WriteLine@Class_Microsoft_Singularity_DebugStub@@SIXPAUClass_System_String@@@Z 0204111c f   sc.obj
 0001:00040180       ?g_WriteLine@Class_Microsoft_Singularity_DebugStub@@SIXPAUClass_System_String@@UStruct_System_VarargList@@@Z 02041180 f   sc.obj
 0001:000401e8       ?g_WriteLine@Class_Microsoft_Singularity_DebugStub@@SIXPAUClass_System_String@@UStruct_System_ArgIterator@@@Z 020411e8 f   sc.obj
 0001:000403e0       ?g_Print@Class_Microsoft_Singularity_DebugStub@@SIXPAUClass_System_String@@@Z 020413e0 f   sc.obj
 0001:00040444       ?g_Print@Class_Microsoft_Singularity_DebugStub@@SIXPAUClass_System_String@@UStruct_System_VarargList@@@Z 02041444 f   sc.obj
 0001:000404ac       ?g_Print@Class_Microsoft_Singularity_DebugStub@@SIXPAUClass_System_String@@UStruct_System_ArgIterator@@@Z 020414ac f   sc.obj
 0001:000404e4       ?g_InsertFormat@Class_Microsoft_Singularity_DebugStub@@SIXPA_WPAHHPAUClass_System_String@@UStruct_System_VarargList@@@Z 020414e4 f   sc.obj
 0001:00040584       ?g_failAssert@Class_Microsoft_Singularity_DebugStub@@SIXPAUClass_System_String@@@Z 02041584 f   sc.obj
 0001:000405ac       ?g_Assert@Class_Microsoft_Singularity_DebugStub@@SIX_N@Z 020415ac f   sc.obj
 0001:000405dc       ?g_AddToPerfCounter@Class_Microsoft_Singularity_DebugStub@@SI_NI_K@Z 020415dc f   sc.obj
 0001:00040614       ?g_AddLineHeader@Class_Microsoft_Singularity_DebugStub@@SIXPA_WPAHH@Z 02041614 f   sc.obj
 0001:00040814       ?m__ctor@Class_Microsoft_Singularity_DebugStub@@SIXPAU1@@Z 02041814 f   sc.obj
 0001:00040830       ?m_StructCopy@Struct_Microsoft_Singularity_Directory_DirectoryServiceContract_NakGetAttributesReparse@@SIXPAU1@0@Z 02041830 f   sc.obj
 0001:00040870       ?m_StructCopy@Struct_Microsoft_Singularity_Directory_DirectoryServiceContract_NakGetAttributesReparse@@SIXPAU1@PAU1@@Z 02041870 f   sc.obj
 0001:00040930       ?m_Equals@Struct_Microsoft_Singularity_Directory_DirectoryServiceContract_NakGetAttributesReparse@@SI_NPAU1@PAUClass_System_Object@@@Z 02041930 f   sc.obj
 0001:00040998       ?m_Equals@Struct_Microsoft_Singularity_Directory_DirectoryServiceContract_NakGetAttributesReparse@@SI_NPAUClass_Microsoft_Singularity_Directory_DirectoryServiceContract_NakGetAttributesReparse@@PAUClass_System_Object@@@Z 02041998 f   sc.obj
 0001:000409c4       ?m_StructCopy@Struct_Microsoft_Singularity_Directory_DirectoryServiceContract_AckQueryACL@@SIXPAU1@0@Z 020419c4 f   sc.obj
 0001:000409f8       ?m_StructCopy@Struct_Microsoft_Singularity_Directory_DirectoryServiceContract_AckQueryACL@@SIXPAU1@PAU1@@Z 020419f8 f   sc.obj
 0001:00040a94       ?m_Equals@Struct_Microsoft_Singularity_Directory_DirectoryServiceContract_AckQueryACL@@SI_NPAU1@PAUClass_System_Object@@@Z 02041a94 f   sc.obj
 0001:00040af0       ?m_Equals@Struct_Microsoft_Singularity_Directory_DirectoryServiceContract_AckQueryACL@@SI_NPAUClass_Microsoft_Singularity_Directory_DirectoryServiceContract_AckQueryACL@@PAUClass_System_Object@@@Z 02041af0 f   sc.obj
 0001:00040b1c       ?m_StructCopy@Struct_System_GCs_ReferenceVisitor_ObjectDescriptor@@SIXPAU1@0@Z 02041b1c f   sc.obj
 0001:00040b80       ?m_StructCopy@Struct_System_GCs_ReferenceVisitor_ObjectDescriptor@@SIXPAU1@PAU1@@Z 02041b80 f   sc.obj
 0001:00040cac       ?m_Equals@Struct_System_GCs_ReferenceVisitor_ObjectDescriptor@@SI_NPAU1@PAUClass_System_Object@@@Z 02041cac f   sc.obj
 0001:00040d4c       ?m_Equals@Struct_System_GCs_ReferenceVisitor_ObjectDescriptor@@SI_NPAUClass_System_GCs_ReferenceVisitor_ObjectDescriptor@@PAUClass_System_Object@@@Z 02041d4c f   sc.obj
 0001:00040d78       ?m__ctor@Struct_System_GCs_ReferenceVisitor_ObjectDescriptor@@SIXPAU1@PAUClass_System_VTable@@PAUuintPtr@@@Z 02041d78 f   sc.obj
 0001:00040df0       ?m__ctor@Struct_System_GCs_ReferenceVisitor_ObjectDescriptor@@SIXPAU1@PAUClass_System_VTable@@PAUuintPtr@@2@Z 02041df0 f   sc.obj
 0001:00040e68       ?m__ctor@Struct_System_GCs_ReferenceVisitor_ObjectDescriptor@@SIXPAU1@PAUClass_System_VTable@@PAUuintPtr@@22@Z 02041e68 f   sc.obj
 0001:00040ee0       ?m__ctor@Struct_System_GCs_ReferenceVisitor_ObjectDescriptor@@SIXPAU1@PAUClass_System_VTable@@PAUuintPtr@@22PAUClass_System_Object@@3@Z 02041ee0 f   sc.obj
 0001:00040f38       ?m_Microsoft_SingSharp_ITracked_Release@Class_SurrogateMicrosoft_Singularity_Io_UnicodePipeContract_Imp@@SIXPAU1@@Z 02041f38 f   sc.obj
 0001:00040f5c       ?m_Microsoft_SingSharp_ITracked_Acquire@Class_SurrogateMicrosoft_Singularity_Io_UnicodePipeContract_Imp@@SIXPAU1@@Z 02041f5c f   sc.obj
 0001:00040f80       ?m_HeadMatches@Class_SurrogateMicrosoft_Singularity_Io_UnicodePipeContract_Imp@@SI_NPAU1@HPA_NPAPAUClass_System_Object@@@Z 02041f80 f   sc.obj
 0001:00040fb4       ?m_GetWaitHandle@Class_SurrogateMicrosoft_Singularity_Io_UnicodePipeContract_Imp@@SI?AUStruct_Microsoft_Singularity_V1_Threads_SyncHandle@@PAU1@@Z 02041fb4 f   sc.obj
 0001:00040fd8       ?m_Dispose@Class_SurrogateMicrosoft_Singularity_Io_UnicodePipeContract_Imp@@SIXPAU1@@Z 02041fd8 f   sc.obj
 0001:00040ffc       ?g__ctor@Class_SurrogateMicrosoft_Singularity_Io_UnicodePipeContract_Imp@@SIXPAU1@PAUStruct_Microsoft_Singularity_Io_UnicodePipeContract_Imp@@@Z 02041ffc f   sc.obj
 0001:00041024       ?m_StructCopy@Struct_Microsoft_Singularity_Directory_DirectoryServiceContract_AckDeleteDirectory@@SIXPAU1@0@Z 02042024 f   sc.obj
 0001:00041040       ?m_StructCopy@Struct_Microsoft_Singularity_Directory_DirectoryServiceContract_AckDeleteDirectory@@SIXPAU1@PAU1@@Z 02042040 f   sc.obj
 0001:00041094       ?m_Equals@Struct_Microsoft_Singularity_Directory_DirectoryServiceContract_AckDeleteDirectory@@SI_NPAU1@PAUClass_System_Object@@@Z 02042094 f   sc.obj
 0001:000410cc       ?m_Equals@Struct_Microsoft_Singularity_Directory_DirectoryServiceContract_AckDeleteDirectory@@SI_NPAUClass_Microsoft_Singularity_Directory_DirectoryServiceContract_AckDeleteDirectory@@PAUClass_System_Object@@@Z 020420cc f   sc.obj
 0001:000410f8       ?m_StructCopy@Struct_Microsoft_Singularity_Directory_DirectoryServiceContract_BeginEnumeration@@SIXPAU1@0@Z 020420f8 f   sc.obj
 0001:00041114       ?m_StructCopy@Struct_Microsoft_Singularity_Directory_DirectoryServiceContract_BeginEnumeration@@SIXPAU1@PAU1@@Z 02042114 f   sc.obj
 0001:00041168       ?m_Equals@Struct_Microsoft_Singularity_Directory_DirectoryServiceContract_BeginEnumeration@@SI_NPAU1@PAUClass_System_Object@@@Z 02042168 f   sc.obj
 0001:000411a0       ?m_Equals@Struct_Microsoft_Singularity_Directory_DirectoryServiceContract_BeginEnumeration@@SI_NPAUClass_Microsoft_Singularity_Directory_DirectoryServiceContract_BeginEnumeration@@PAUClass_System_Object@@@Z 020421a0 f   sc.obj
 0001:000411cc       ?m_StructCopy@Struct_Microsoft_Singularity_ServiceManager_ServiceManagerContract_StopServiceNoWait@@SIXPAU1@0@Z 020421cc f   sc.obj
 0001:000411e8       ?m_StructCopy@Struct_Microsoft_Singularity_ServiceManager_ServiceManagerContract_StopServiceNoWait@@SIXPAU1@PAU1@@Z 020421e8 f   sc.obj
 0001:0004123c       ?m_MarshallContent@Struct_Microsoft_Singularity_ServiceManager_ServiceManagerContract_StopServiceNoWait@@SIXPAU1@PAEPAUStruct_Microsoft_Singularity_Channels_Endpoint@@1PAH@Z 0204223c f   sc.obj
 0001:0004125c       ?m_MarshallAll@Struct_Microsoft_Singularity_ServiceManager_ServiceManagerContract_StopServiceNoWait@@SIXPAU1@PAEPAUStruct_Microsoft_Singularity_Channels_Endpoint@@PAH@Z 0204225c f   sc.obj
 0001:000412b4       ?m_Equals@Struct_Microsoft_Singularity_ServiceManager_ServiceManagerContract_StopServiceNoWait@@SI_NPAU1@PAUClass_System_Object@@@Z 020422b4 f   sc.obj
 0001:000412ec       ?m_Equals@Struct_Microsoft_Singularity_ServiceManager_ServiceManagerContract_StopServiceNoWait@@SI_NPAUClass_Microsoft_Singularity_ServiceManager_ServiceManagerContract_StopServiceNoWait@@PAUClass_System_Object@@@Z 020422ec f   sc.obj
 0001:00041318       ?m_StructCopy@Struct_Microsoft_Singularity_Directory_DirectoryServiceContract_AckStoreACL@@SIXPAU1@0@Z 02042318 f   sc.obj
 0001:00041334       ?m_StructCopy@Struct_Microsoft_Singularity_Directory_DirectoryServiceContract_AckStoreACL@@SIXPAU1@PAU1@@Z 02042334 f   sc.obj
 0001:00041388       ?m_Equals@Struct_Microsoft_Singularity_Directory_DirectoryServiceContract_AckStoreACL@@SI_NPAU1@PAUClass_System_Object@@@Z 02042388 f   sc.obj
 0001:000413c0       ?m_Equals@Struct_Microsoft_Singularity_Directory_DirectoryServiceContract_AckStoreACL@@SI_NPAUClass_Microsoft_Singularity_Directory_DirectoryServiceContract_AckStoreACL@@PAUClass_System_Object@@@Z 020423c0 f   sc.obj
 0001:000413ec       ?m__ctor@Class_System_StackOverflowException@@SIXPAU1@@Z 020423ec f   sc.obj
 0001:00041414       ?m__ctor@Class_System_StackOverflowException@@SIXPAU1@PAUClass_System_String@@@Z 02042414 f   sc.obj
 0001:0004143c       ?m__ctor@Class_System_StackOverflowException@@SIXPAU1@PAUClass_System_String@@PAUClass_System_Exception@@@Z 0204243c f   sc.obj
 0001:0004146c       ?m_StructCopy@Struct_System_Collections_DictionaryEntry@@SIXPAU1@0@Z 0204246c f   sc.obj
 0001:000414a0       ?m_StructCopy@Struct_System_Collections_DictionaryEntry@@SIXPAU1@PAU1@@Z 020424a0 f   sc.obj
 0001:0004153c       ?m_get$_Value@Struct_System_Collections_DictionaryEntry@@SIPAUClass_System_Object@@PAU1@@Z 0204253c f   sc.obj
 0001:0004155c       ?m_get$_Key@Struct_System_Collections_DictionaryEntry@@SIPAUClass_System_Object@@PAU1@@Z 0204255c f   sc.obj
 0001:0004157c       ?m_Equals@Struct_System_Collections_DictionaryEntry@@SI_NPAU1@PAUClass_System_Object@@@Z 0204257c f   sc.obj
 0001:000415e4       ?m_Equals@Struct_System_Collections_DictionaryEntry@@SI_NPAUClass_System_Collections_DictionaryEntry@@PAUClass_System_Object@@@Z 020425e4 f   sc.obj
 0001:00041610       ?m__ctor@Struct_System_Collections_DictionaryEntry@@SIXPAU1@PAUClass_System_Object@@1@Z 02042610 f   sc.obj
 0001:00041684       ?m__ctor@Class_System_GCs_StopTheWorldGCData@@SIXPAU1@@Z 02042684 f   sc.obj
 0001:0004169c       ?m_AppMain@Class_Microsoft_Singularity_Applications_ServiceManager_WatchConfig@@SIHPAU1@@Z 0204269c f   sc.obj
 0001:00041708       ?m__ctor@Class_Microsoft_Singularity_Applications_ServiceManager_WatchConfig@@SIXPAU1@@Z 02042708 f   sc.obj
 0001:0004184c       ?m_StructCopy@Struct_Microsoft_Singularity_Directory_DirectoryServiceContract_AckDeleteFile@@SIXPAU1@0@Z 0204284c f   sc.obj
 0001:00041868       ?m_StructCopy@Struct_Microsoft_Singularity_Directory_DirectoryServiceContract_AckDeleteFile@@SIXPAU1@PAU1@@Z 02042868 f   sc.obj
 0001:000418bc       ?m_Equals@Struct_Microsoft_Singularity_Directory_DirectoryServiceContract_AckDeleteFile@@SI_NPAU1@PAUClass_System_Object@@@Z 020428bc f   sc.obj
 0001:000418f4       ?m_Equals@Struct_Microsoft_Singularity_Directory_DirectoryServiceContract_AckDeleteFile@@SI_NPAUClass_Microsoft_Singularity_Directory_DirectoryServiceContract_AckDeleteFile@@PAUClass_System_Object@@@Z 020428f4 f   sc.obj
 0001:00041920       ?m_StructCopy@Struct_Microsoft_Singularity_ServiceManager_ServiceManagerContract_EndEnumeration@@SIXPAU1@0@Z 02042920 f   sc.obj
 0001:0004193c       ?m_StructCopy@Struct_Microsoft_Singularity_ServiceManager_ServiceManagerContract_EndEnumeration@@SIXPAU1@PAU1@@Z 0204293c f   sc.obj
 0001:00041990       ?m_Equals@Struct_Microsoft_Singularity_ServiceManager_ServiceManagerContract_EndEnumeration@@SI_NPAU1@PAUClass_System_Object@@@Z 02042990 f   sc.obj
 0001:000419c8       ?m_Equals@Struct_Microsoft_Singularity_ServiceManager_ServiceManagerContract_EndEnumeration@@SI_NPAUClass_Microsoft_Singularity_ServiceManager_ServiceManagerContract_EndEnumeration@@PAUClass_System_Object@@@Z 020429c8 f   sc.obj
 0001:000419f4       ?m__ctor@Class_System_AtomicIsInvalidException@@SIXPAU1@@Z 020429f4 f   sc.obj
 0001:00041a18       ?m__ctor@Class_System_AtomicException@@SIXPAU1@@Z 02042a18 f   sc.obj
 0001:00041a3c       ?m_StructCopy@Struct_Microsoft_Singularity_Directory_DirectoryServiceContract_AckRegister@@SIXPAU1@0@Z 02042a3c f   sc.obj
 0001:00041a58       ?m_StructCopy@Struct_Microsoft_Singularity_Directory_DirectoryServiceContract_AckRegister@@SIXPAU1@PAU1@@Z 02042a58 f   sc.obj
 0001:00041aac       ?m_Equals@Struct_Microsoft_Singularity_Directory_DirectoryServiceContract_AckRegister@@SI_NPAU1@PAUClass_System_Object@@@Z 02042aac f   sc.obj
 0001:00041ae4       ?m_Equals@Struct_Microsoft_Singularity_Directory_DirectoryServiceContract_AckRegister@@SI_NPAUClass_Microsoft_Singularity_Directory_DirectoryServiceContract_AckRegister@@PAUClass_System_Object@@@Z 02042ae4 f   sc.obj
 0001:00041b10       ?m_StructCopy@Struct_Microsoft_Singularity_Directory_DirectoryServiceContract_Imp@@SIXPAU1@0@Z 02042b10 f   sc.obj
 0001:00041ff4       ?m_StructCopy@Struct_Microsoft_Singularity_Directory_DirectoryServiceContract_Imp@@SIXPAU1@PAU1@@Z 02042ff4 f   sc.obj
 0001:00042ea0       ?m_SendBind@Struct_Microsoft_Singularity_Directory_DirectoryServiceContract_Imp@@SIXPAU1@PA_WPAUStruct_Microsoft_Singularity_Directory_ServiceContract_Exp@@@Z 02043ea0 f   sc.obj
 0001:00043044       ?m_Release@Struct_Microsoft_Singularity_Directory_DirectoryServiceContract_Imp@@SIXPAU1@@Z 02044044 f   sc.obj
 0001:00043060       ?m_RecvSuccess@Struct_Microsoft_Singularity_Directory_DirectoryServiceContract_Imp@@SIXPAU1@@Z 02044060 f   sc.obj
 0001:000431d8       ?m_RecvNakBindReparse@Struct_Microsoft_Singularity_Directory_DirectoryServiceContract_Imp@@SIXPAU1@PAPA_W1PA_NPAPAUStruct_Microsoft_Singularity_Directory_ServiceContract_Exp@@@Z 020441d8 f   sc.obj
 0001:0004338c       ?m_RecvNakBind@Struct_Microsoft_Singularity_Directory_DirectoryServiceContract_Imp@@SIXPAU1@PAPAUStruct_Microsoft_Singularity_Directory_ServiceContract_Exp@@PAUStruct_Microsoft_Singularity_Directory_ErrorCode@@@Z 0204438c f   sc.obj
 0001:00043528       ?m_RecvAckBind@Struct_Microsoft_Singularity_Directory_DirectoryServiceContract_Imp@@SIXPAU1@@Z 02044528 f   sc.obj
 0001:000436a0       ?m_Peek@Struct_Microsoft_Singularity_Directory_DirectoryServiceContract_Imp@@SIHPAU1@@Z 020446a0 f   sc.obj
 0001:00044048       ?m_HeadMatches@Struct_Microsoft_Singularity_Directory_DirectoryServiceContract_Imp@@SI_NPAU1@HPA_NPAPAUClass_System_Object@@@Z 02045048 f   sc.obj
 0001:00044108       ?m_HeadMatches@Struct_Microsoft_Singularity_Directory_DirectoryServiceContract_Imp@@SI_NPAUClass_Microsoft_Singularity_Directory_DirectoryServiceContract_Imp@@HPA_NPAPAUClass_System_Object@@@Z 02045108 f   sc.obj
 0001:00044140       ?m_Equals@Struct_Microsoft_Singularity_Directory_DirectoryServiceContract_Imp@@SI_NPAU1@PAUClass_System_Object@@@Z 02045140 f   sc.obj
 0001:00045cbc       ?m_Equals@Struct_Microsoft_Singularity_Directory_DirectoryServiceContract_Imp@@SI_NPAUClass_Microsoft_Singularity_Directory_DirectoryServiceContract_Imp@@PAUClass_System_Object@@@Z 02046cbc f   sc.obj
 0001:00045ce8       ?m_Dispose@Struct_Microsoft_Singularity_Directory_DirectoryServiceContract_Imp@@SIXPAU1@@Z 02046ce8 f   sc.obj
 0001:00045d0c       ?m_Dispose@Struct_Microsoft_Singularity_Directory_DirectoryServiceContract_Imp@@SIXPAUClass_Microsoft_Singularity_Directory_DirectoryServiceContract_Imp@@@Z 02046d0c f   sc.obj
 0001:00045d34       ?m_CurrentState@Struct_Microsoft_Singularity_Directory_DirectoryServiceContract_Imp@@SIPAUClass_System_String@@PAU1@@Z 02046d34 f   sc.obj
 0001:0004605c       ?m_Acquire@Struct_Microsoft_Singularity_Directory_DirectoryServiceContract_Imp@@SIXPAU1@@Z 0204705c f   sc.obj
 0001:00046078       ?m__ctor@Struct_Microsoft_Singularity_Directory_DirectoryServiceContract_Imp@@SIXPAU1@H@Z 02047078 f   sc.obj
 0001:000460a4       ?m_Visit@Class_System_GCs_Verifier_GenericReferenceVisitor@@SIXPAU1@PAPAUuintPtr@@@Z 020470a4 f   sc.obj
 0001:000463a8       ?m__ctor@Class_System_GCs_Verifier_GenericReferenceVisitor@@SIXPAU1@@Z 020473a8 f   sc.obj
 0001:000463cc       ?m_ToString@intPtr@@SIPAUClass_System_String@@PAPAU1@@Z 020473cc f   sc.obj
 0001:00046400       ?m_ToString@intPtr@@SIPAUClass_System_String@@PAUClass_System_IntPtr@@@Z 02047400 f   sc.obj
 0001:00046454       ?m_GetHashCode@intPtr@@SIHPAPAU1@@Z 02047454 f   sc.obj
 0001:00046474       ?m_GetHashCode@intPtr@@SIHPAUClass_System_IntPtr@@@Z 02047474 f   sc.obj
 0001:0004649c       ?m_Equals@intPtr@@SI_NPAPAU1@PAUClass_System_Object@@@Z 0204749c f   sc.obj
 0001:000464f8       ?m_Equals@intPtr@@SI_NPAUClass_System_IntPtr@@PAUClass_System_Object@@@Z 020474f8 f   sc.obj
 0001:00046524       ?m_StructCopy@Struct_Microsoft_Singularity_Directory_DirectoryServiceContract_NakGetLinkValueReparse@@SIXPAU1@0@Z 02047524 f   sc.obj
 0001:00046564       ?m_StructCopy@Struct_Microsoft_Singularity_Directory_DirectoryServiceContract_NakGetLinkValueReparse@@SIXPAU1@PAU1@@Z 02047564 f   sc.obj
 0001:00046624       ?m_Equals@Struct_Microsoft_Singularity_Directory_DirectoryServiceContract_NakGetLinkValueReparse@@SI_NPAU1@PAUClass_System_Object@@@Z 02047624 f   sc.obj
 0001:0004668c       ?m_Equals@Struct_Microsoft_Singularity_Directory_DirectoryServiceContract_NakGetLinkValueReparse@@SI_NPAUClass_Microsoft_Singularity_Directory_DirectoryServiceContract_NakGetLinkValueReparse@@PAUClass_System_Object@@@Z 0204768c f   sc.obj
 0001:000466b8       ?m_Finalize@Class__Corlibsg_Microsoft_Singularity_Channels_TRef$_2$LMicrosoft_Singularity_Io_UnicodePipeContract_Imp_Microsoft_Singularity_Io_UnicodePipeContract_READY$G@@SIXPAU1@@Z 020476b8 f   sc.obj
 0001:00046744       ?m__ctor@Class__Corlibsg_Microsoft_Singularity_Channels_TRef$_2$LMicrosoft_Singularity_Io_UnicodePipeContract_Imp_Microsoft_Singularity_Io_UnicodePipeContract_READY$G@@SIXPAU1@PAUStruct_Microsoft_Singularity_Io_UnicodePipeContract_Imp@@@Z 02047744 f   sc.obj
 0001:000467e8       ?m_AppMain@Class_Microsoft_Singularity_Applications_ServiceManager_ListConfig@@SIHPAU1@@Z 020477e8 f   sc.obj
 0001:0004683c       ?m__ctor@Class_Microsoft_Singularity_Applications_ServiceManager_ListConfig@@SIXPAU1@@Z 0204783c f   sc.obj
 0001:000468b8       ?m_AppMain@Class_Microsoft_Singularity_Applications_ServiceManager_CreateServiceCommand@@SIHPAU1@@Z 020478b8 f   sc.obj
 0001:00046c78       ?m__ctor@Class_Microsoft_Singularity_Applications_ServiceManager_CreateServiceCommand@@SIXPAU1@@Z 02047c78 f   sc.obj
 0001:00046ffc       ?g__cctor@Class_Microsoft_Singularity_Applications_ServiceManager_CreateServiceCommand@@SIXXZ 02047ffc f   sc.obj
 0001:0004706c       ?g_VerifyUnusedRegion@Class_System_GCs_PageManager@@SIXPAUuintPtr@@0@Z 0204806c f   sc.obj
 0001:000476f8       ?g_VerifyUnusedPage@Class_System_GCs_PageManager@@SIXPAUuintPtr@@_N@Z 020486f8 f   sc.obj
 0001:000478ac       ?g_UnlinkUnusedPages@Class_System_GCs_PageManager@@SIPAUuintPtr@@PAU2@@Z 020488ac f   sc.obj
 0001:00047b58       ?g_SlotFromCount@Class_System_GCs_PageManager@@SIHPAUuintPtr@@@Z 02048b58 f   sc.obj
 0001:00047ba4       ?g_SetStaticDataPages@Class_System_GCs_PageManager@@SIXPAUuintPtr@@0@Z 02048ba4 f   sc.obj
 0001:00047dc4       ?g_SetPageTypeClean@Class_System_GCs_PageManager@@SIXPAUuintPtr@@0UStruct_System_GCs_PageType@@@Z 02048dc4 f   sc.obj
 0001:00048354       ?g_ReleaseUnusedPages@Class_System_GCs_PageManager@@SIXPAUuintPtr@@0_N@Z 02049354 f   sc.obj
 0001:00048b7c       ?g_MarkUnusedPages@Class_System_GCs_PageManager@@SIXPAUClass_System_Threading_Thread@@PAUuintPtr@@1_N@Z 02049b7c f   sc.obj
 0001:0004916c       ?g_LinkUnusedPages@Class_System_GCs_PageManager@@SIXPAUuintPtr@@0_N@Z 0204a16c f   sc.obj
 0001:000496a4       ?g_LeaveMutex@Class_System_GCs_PageManager@@SIXPAUClass_System_Threading_Thread@@_N@Z 0204a6a4 f   sc.obj
 0001:000496f4       ?g_Initialize@Class_System_GCs_PageManager@@SIXPAUuintPtr@@0@Z 0204a6f4 f   sc.obj
 0001:000497e8       ?g_get$_SlowDebug@Class_System_GCs_PageManager@@SI_NXZ 0204a7e8 f   sc.obj
 0001:00049800       ?g_get$_AggressiveMemReset@Class_System_GCs_PageManager@@SI_NXZ 0204a800 f   sc.obj
 0001:00049818       ?g_FoundOnlyCleanPages@Class_System_GCs_PageManager@@SI_NPAUuintPtr@@@Z 0204a818 f   sc.obj
 0001:00049904       ?g_FinishInitializeThread@Class_System_GCs_PageManager@@SIXXZ 0204a904 f   sc.obj
 0001:00049954       ?g_FindUnusedPages@Class_System_GCs_PageManager@@SIPAUuintPtr@@PAUClass_System_Threading_Thread@@PAU2@UStruct_System_GCs_PageType@@@Z 0204a954 f   sc.obj
 0001:00049b3c       ?g_EnterMutex@Class_System_GCs_PageManager@@SI_NPAUClass_System_Threading_Thread@@@Z 0204ab3c f   sc.obj
 0001:00049b98       ?g_EnsurePages@Class_System_GCs_PageManager@@SIPAUuintPtr@@PAUClass_System_Threading_Thread@@PAU2@UStruct_System_GCs_PageType@@PA_N@Z 0204ab98 f   sc.obj
 0001:0004a05c       ?g_CleanFoundPages@Class_System_GCs_PageManager@@SIXPAUuintPtr@@@Z 0204b05c f   sc.obj
 0001:0004a158       ?m__ctor@Class_System_GCs_PageManager@@SIXPAU1@@Z 0204b158 f   sc.obj
 0001:0004a170       ?m__ctor@Class_Microsoft_Contracts_AssumeException@@SIXPAU1@@Z 0204b170 f   sc.obj
 0001:0004a194       ?m_Compare@Class_System_Collections_Comparer@@SIHPAU1@PAUClass_System_Object@@1@Z 0204b194 f   sc.obj
 0001:0004a328       ?m__ctor@Class_System_Collections_Comparer@@SIXPAU1@@Z 0204b328 f   sc.obj
 0001:0004a344       ?g__cctor@Class_System_Collections_Comparer@@SIXXZ 0204b344 f   sc.obj
 0001:0004a384       ?m_StructCopy@Struct_Microsoft_Singularity_Directory_ServiceProviderContract_Imp@@SIXPAU1@0@Z 0204b384 f   sc.obj
 0001:0004a470       ?m_StructCopy@Struct_Microsoft_Singularity_Directory_ServiceProviderContract_Imp@@SIXPAU1@PAU1@@Z 0204b470 f   sc.obj
 0001:0004a734       ?m_Peek@Struct_Microsoft_Singularity_Directory_ServiceProviderContract_Imp@@SIHPAU1@@Z 0204b734 f   sc.obj
 0001:0004a868       ?m_HeadMatches@Struct_Microsoft_Singularity_Directory_ServiceProviderContract_Imp@@SI_NPAU1@HPA_NPAPAUClass_System_Object@@@Z 0204b868 f   sc.obj
 0001:0004a928       ?m_HeadMatches@Struct_Microsoft_Singularity_Directory_ServiceProviderContract_Imp@@SI_NPAUClass_Microsoft_Singularity_Directory_ServiceProviderContract_Imp@@HPA_NPAPAUClass_System_Object@@@Z 0204b928 f   sc.obj
 0001:0004a960       ?m_Equals@Struct_Microsoft_Singularity_Directory_ServiceProviderContract_Imp@@SI_NPAU1@PAUClass_System_Object@@@Z 0204b960 f   sc.obj
 0001:0004ac98       ?m_Equals@Struct_Microsoft_Singularity_Directory_ServiceProviderContract_Imp@@SI_NPAUClass_Microsoft_Singularity_Directory_ServiceProviderContract_Imp@@PAUClass_System_Object@@@Z 0204bc98 f   sc.obj
 0001:0004acc4       ?m_Dispose@Struct_Microsoft_Singularity_Directory_ServiceProviderContract_Imp@@SIXPAU1@@Z 0204bcc4 f   sc.obj
 0001:0004ace8       ?m_Dispose@Struct_Microsoft_Singularity_Directory_ServiceProviderContract_Imp@@SIXPAUClass_Microsoft_Singularity_Directory_ServiceProviderContract_Imp@@@Z 0204bce8 f   sc.obj
 0001:0004ad10       ?m_StructCopy@Struct_Microsoft_Singularity_ServiceManager_ServiceManagerContract_UnselectService@@SIXPAU1@0@Z 0204bd10 f   sc.obj
 0001:0004ad2c       ?m_StructCopy@Struct_Microsoft_Singularity_ServiceManager_ServiceManagerContract_UnselectService@@SIXPAU1@PAU1@@Z 0204bd2c f   sc.obj
 0001:0004ad80       ?m_Equals@Struct_Microsoft_Singularity_ServiceManager_ServiceManagerContract_UnselectService@@SI_NPAU1@PAUClass_System_Object@@@Z 0204bd80 f   sc.obj
 0001:0004adb8       ?m_Equals@Struct_Microsoft_Singularity_ServiceManager_ServiceManagerContract_UnselectService@@SI_NPAUClass_Microsoft_Singularity_ServiceManager_ServiceManagerContract_UnselectService@@PAUClass_System_Object@@@Z 0204bdb8 f   sc.obj
 0001:0004ade4       ?g_TransferVectorOwnership@Struct_Microsoft_Singularity_ServiceManager_ServiceInfo@@SIXPAUStruct_Microsoft_Singularity_Channels_Endpoint@@PAU1@@Z 0204bde4 f   sc.obj
 0001:0004ae9c       ?m_TransferContentsOwnership@Struct_Microsoft_Singularity_ServiceManager_ServiceInfo@@SIXPAU1@PAUStruct_Microsoft_Singularity_Channels_Endpoint@@@Z 0204be9c f   sc.obj
 0001:0004aecc       ?m_StructCopy@Struct_Microsoft_Singularity_ServiceManager_ServiceInfo@@SIXPAU1@0@Z 0204becc f   sc.obj
 0001:0004af08       ?m_StructCopy@Struct_Microsoft_Singularity_ServiceManager_ServiceInfo@@SIXPAU1@PAU1@@Z 0204bf08 f   sc.obj
 0001:0004afbc       ?m_Release@Struct_Microsoft_Singularity_ServiceManager_ServiceInfo@@SIXPAU1@@Z 0204bfbc f   sc.obj
 0001:0004afd8       ?m_Release@Struct_Microsoft_Singularity_ServiceManager_ServiceInfo@@SIXPAUClass_Microsoft_Singularity_ServiceManager_ServiceInfo@@@Z 0204bfd8 f   sc.obj
 0001:0004b000       ?g_MarshallVector@Struct_Microsoft_Singularity_ServiceManager_ServiceInfo@@SIXPAEPAUStruct_Microsoft_Singularity_Channels_Endpoint@@0PAU1@@Z 0204c000 f   sc.obj
 0001:0004b0c0       ?m_MarshallContent@Struct_Microsoft_Singularity_ServiceManager_ServiceInfo@@SIXPAU1@PAEPAUStruct_Microsoft_Singularity_Channels_Endpoint@@1@Z 0204c0c0 f   sc.obj
 0001:0004b110       ?m_Equals@Struct_Microsoft_Singularity_ServiceManager_ServiceInfo@@SI_NPAU1@PAUClass_System_Object@@@Z 0204c110 f   sc.obj
 0001:0004b23c       ?m_Equals@Struct_Microsoft_Singularity_ServiceManager_ServiceInfo@@SI_NPAUClass_Microsoft_Singularity_ServiceManager_ServiceInfo@@PAUClass_System_Object@@@Z 0204c23c f   sc.obj
 0001:0004b268       ?m_Dispose@Struct_Microsoft_Singularity_ServiceManager_ServiceInfo@@SIXPAU1@@Z 0204c268 f   sc.obj
 0001:0004b294       ?m_Dispose@Struct_Microsoft_Singularity_ServiceManager_ServiceInfo@@SIXPAUClass_Microsoft_Singularity_ServiceManager_ServiceInfo@@@Z 0204c294 f   sc.obj
 0001:0004b2bc       ?m_Acquire@Struct_Microsoft_Singularity_ServiceManager_ServiceInfo@@SIXPAU1@@Z 0204c2bc f   sc.obj
 0001:0004b2d8       ?m_Acquire@Struct_Microsoft_Singularity_ServiceManager_ServiceInfo@@SIXPAUClass_Microsoft_Singularity_ServiceManager_ServiceInfo@@@Z 0204c2d8 f   sc.obj
 0001:0004b300       ?m_StructCopy@Struct_Microsoft_Singularity_Directory_DirectoryServiceContract_NakCreateDirectory@@SIXPAU1@0@Z 0204c300 f   sc.obj
 0001:0004b328       ?m_StructCopy@Struct_Microsoft_Singularity_Directory_DirectoryServiceContract_NakCreateDirectory@@SIXPAU1@PAU1@@Z 0204c328 f   sc.obj
 0001:0004b3a0       ?m_Equals@Struct_Microsoft_Singularity_Directory_DirectoryServiceContract_NakCreateDirectory@@SI_NPAU1@PAUClass_System_Object@@@Z 0204c3a0 f   sc.obj
 0001:0004b440       ?m_Equals@Struct_Microsoft_Singularity_Directory_DirectoryServiceContract_NakCreateDirectory@@SI_NPAUClass_Microsoft_Singularity_Directory_DirectoryServiceContract_NakCreateDirectory@@PAUClass_System_Object@@@Z 0204c440 f   sc.obj
 0001:0004b46c       ?m_StructCopy@Struct_Microsoft_Singularity_V1_Services_DiagnosisService@@SIXPAU1@0@Z 0204c46c f   sc.obj
 0001:0004b488       ?m_StructCopy@Struct_Microsoft_Singularity_V1_Services_DiagnosisService@@SIXPAU1@PAU1@@Z 0204c488 f   sc.obj
 0001:0004b4dc       ?g_GCProfileSettingsImpl@Struct_Microsoft_Singularity_V1_Services_DiagnosisService@@SIHPA_K0@Z 0204c4dc f   sc.obj
 0001:0004b560       ?m_Equals@Struct_Microsoft_Singularity_V1_Services_DiagnosisService@@SI_NPAU1@PAUClass_System_Object@@@Z 0204c560 f   sc.obj
 0001:0004b598       ?m_Equals@Struct_Microsoft_Singularity_V1_Services_DiagnosisService@@SI_NPAUClass_Microsoft_Singularity_V1_Services_DiagnosisService@@PAUClass_System_Object@@@Z 0204c598 f   sc.obj
 0001:0004b5c4       ?m_StructCopy@Struct_System_GCs_SegregatedFreeList_TempList@@SIXPAU1@0@Z 0204c5c4 f   sc.obj
 0001:0004b5ec       ?m_StructCopy@Struct_System_GCs_SegregatedFreeList_TempList@@SIXPAU1@PAU1@@Z 0204c5ec f   sc.obj
 0001:0004b664       ?m_GetList@Struct_System_GCs_SegregatedFreeList_TempList@@SIPAUuintPtr@@PAU1@@Z 0204c664 f   sc.obj
 0001:0004b698       ?m_Equals@Struct_System_GCs_SegregatedFreeList_TempList@@SI_NPAU1@PAUClass_System_Object@@@Z 0204c698 f   sc.obj
 0001:0004b6e0       ?m_Equals@Struct_System_GCs_SegregatedFreeList_TempList@@SI_NPAUClass_System_GCs_SegregatedFreeList_TempList@@PAUClass_System_Object@@@Z 0204c6e0 f   sc.obj
 0001:0004b70c       ?m_Add@Struct_System_GCs_SegregatedFreeList_TempList@@SIXPAU1@PAUuintPtr@@@Z 0204c70c f   sc.obj
 0001:0004b73c       ?m_StructCopy@Struct_Microsoft_Singularity_ServiceManager_ServiceManagerContract_NextServiceInfo@@SIXPAU1@0@Z 0204c73c f   sc.obj
 0001:0004b770       ?m_StructCopy@Struct_Microsoft_Singularity_ServiceManager_ServiceManagerContract_NextServiceInfo@@SIXPAU1@PAU1@@Z 0204c770 f   sc.obj
 0001:0004b80c       ?m_Equals@Struct_Microsoft_Singularity_ServiceManager_ServiceManagerContract_NextServiceInfo@@SI_NPAU1@PAUClass_System_Object@@@Z 0204c80c f   sc.obj
 0001:0004b868       ?m_Equals@Struct_Microsoft_Singularity_ServiceManager_ServiceManagerContract_NextServiceInfo@@SI_NPAUClass_Microsoft_Singularity_ServiceManager_ServiceManagerContract_NextServiceInfo@@PAUClass_System_Object@@@Z 0204c868 f   sc.obj
 0001:0004b894       ?m_StructCopy@Struct_Microsoft_Singularity_ServiceManager_ServiceManagerContract_TerminateServiceAllProcesses@@SIXPAU1@0@Z 0204c894 f   sc.obj
 0001:0004b8b0       ?m_StructCopy@Struct_Microsoft_Singularity_ServiceManager_ServiceManagerContract_TerminateServiceAllProcesses@@SIXPAU1@PAU1@@Z 0204c8b0 f   sc.obj
 0001:0004b904       ?m_MarshallContent@Struct_Microsoft_Singularity_ServiceManager_ServiceManagerContract_TerminateServiceAllProcesses@@SIXPAU1@PAEPAUStruct_Microsoft_Singularity_Channels_Endpoint@@1PAH@Z 0204c904 f   sc.obj
 0001:0004b924       ?m_MarshallAll@Struct_Microsoft_Singularity_ServiceManager_ServiceManagerContract_TerminateServiceAllProcesses@@SIXPAU1@PAEPAUStruct_Microsoft_Singularity_Channels_Endpoint@@PAH@Z 0204c924 f   sc.obj
 0001:0004b97c       ?m_Equals@Struct_Microsoft_Singularity_ServiceManager_ServiceManagerContract_TerminateServiceAllProcesses@@SI_NPAU1@PAUClass_System_Object@@@Z 0204c97c f   sc.obj
 0001:0004b9b4       ?m_Equals@Struct_Microsoft_Singularity_ServiceManager_ServiceManagerContract_TerminateServiceAllProcesses@@SI_NPAUClass_Microsoft_Singularity_ServiceManager_ServiceManagerContract_TerminateServiceAllProcesses@@PAUClass_System_Object@@@Z 0204c9b4 f   sc.obj
 0001:0004b9e0       ?m__ctor@Class_System_Runtime_CompilerServices_ForceInlineAttribute@@SIXPAU1@@Z 0204c9e0 f   sc.obj
 0001:0004ba04       ?m_ToString@bartok_char@@SIPAUClass_System_String@@PA_W@Z 0204ca04 f   sc.obj
 0001:0004ba28       ?m_ToString@bartok_char@@SIPAUClass_System_String@@PAUClass_System_Char@@@Z 0204ca28 f   sc.obj
 0001:0004ba50       ?g_ToString@bartok_char@@SIPAUClass_System_String@@_W@Z 0204ca50 f   sc.obj
 0001:0004ba88       ?m_GetHashCode@bartok_char@@SIHPA_W@Z 0204ca88 f   sc.obj
 0001:0004babc       ?m_GetHashCode@bartok_char@@SIHPAUClass_System_Char@@@Z 0204cabc f   sc.obj
 0001:0004bae4       ?m_Equals@bartok_char@@SI_NPA_WPAUClass_System_Object@@@Z 0204cae4 f   sc.obj
 0001:0004bb48       ?m_Equals@bartok_char@@SI_NPAUClass_System_Char@@PAUClass_System_Object@@@Z 0204cb48 f   sc.obj
 0001:0004bb74       ?m_CompareTo@bartok_char@@SIHPA_WPAUClass_System_Object@@@Z 0204cb74 f   sc.obj
 0001:0004bc00       ?m_CompareTo@bartok_char@@SIHPAUClass_System_Char@@PAUClass_System_Object@@@Z 0204cc00 f   sc.obj
 0001:0004bc2c       ?m_StructCopy@Struct_Microsoft_Singularity_ServiceManager_ServiceManagerContract_QueryServiceStatus@@SIXPAU1@0@Z 0204cc2c f   sc.obj
 0001:0004bc48       ?m_StructCopy@Struct_Microsoft_Singularity_ServiceManager_ServiceManagerContract_QueryServiceStatus@@SIXPAU1@PAU1@@Z 0204cc48 f   sc.obj
 0001:0004bc9c       ?m_MarshallContent@Struct_Microsoft_Singularity_ServiceManager_ServiceManagerContract_QueryServiceStatus@@SIXPAU1@PAEPAUStruct_Microsoft_Singularity_Channels_Endpoint@@1PAH@Z 0204cc9c f   sc.obj
 0001:0004bcbc       ?m_MarshallAll@Struct_Microsoft_Singularity_ServiceManager_ServiceManagerContract_QueryServiceStatus@@SIXPAU1@PAEPAUStruct_Microsoft_Singularity_Channels_Endpoint@@PAH@Z 0204ccbc f   sc.obj
 0001:0004bd14       ?m_Equals@Struct_Microsoft_Singularity_ServiceManager_ServiceManagerContract_QueryServiceStatus@@SI_NPAU1@PAUClass_System_Object@@@Z 0204cd14 f   sc.obj
 0001:0004bd4c       ?m_Equals@Struct_Microsoft_Singularity_ServiceManager_ServiceManagerContract_QueryServiceStatus@@SI_NPAUClass_Microsoft_Singularity_ServiceManager_ServiceManagerContract_QueryServiceStatus@@PAUClass_System_Object@@@Z 0204cd4c f   sc.obj
 0001:0004bd78       ?g_Assert@Class_System_Diagnostics_Debug@@SIX_N@Z 0204cd78 f   sc.obj
 0001:0004bd9c       ?g_Assert@Class_System_Diagnostics_Debug@@SIX_NPAUClass_System_String@@@Z 0204cd9c f   sc.obj
 0001:0004bdc4       ?m__ctor@Class_System_Diagnostics_Debug@@SIXPAU1@@Z 0204cdc4 f   sc.obj
 0001:0004bddc       ?m_GetHandle@Class_Microsoft_Singularity_Eventing_EventingStorage@@SIPAUuintPtr@@PAU1@@Z 0204cddc f   sc.obj
 0001:0004bdfc       ?m_GetController@Class_Microsoft_Singularity_Eventing_EventingStorage@@SIPAUClass_Microsoft_Singularity_Eventing_Controller@@PAU1@@Z 0204cdfc f   sc.obj
 0001:0004be30       ?g_CreateStorageFromHandle@Class_Microsoft_Singularity_Eventing_EventingStorage@@SIPAU1@PAUuintPtr@@@Z 0204ce30 f   sc.obj
 0001:0004bea8       ?g_CreateLocalStorage@Class_Microsoft_Singularity_Eventing_EventingStorage@@SIPAU1@II@Z 0204cea8 f   sc.obj
 0001:0004bf28       ?m_AddBuffer@Class_Microsoft_Singularity_Eventing_EventingStorage@@SI_NPAU1@_K@Z 0204cf28 f   sc.obj
 0001:0004bf48       ?m__ctor@Class_Microsoft_Singularity_Eventing_EventingStorage@@SIXPAU1@@Z 0204cf48 f   sc.obj
 0001:0004bf64       ?m_StructCopy@Struct_System_UpdateEnlistmentLogWriter@@SIXPAU1@0@Z 0204cf64 f   sc.obj
 0001:0004bf98       ?m_StructCopy@Struct_System_UpdateEnlistmentLogWriter@@SIXPAU1@PAU1@@Z 0204cf98 f   sc.obj
 0001:0004c034       ?m_Equals@Struct_System_UpdateEnlistmentLogWriter@@SI_NPAU1@PAUClass_System_Object@@@Z 0204d034 f   sc.obj
 0001:0004c090       ?m_Equals@Struct_System_UpdateEnlistmentLogWriter@@SI_NPAUClass_System_UpdateEnlistmentLogWriter@@PAUClass_System_Object@@@Z 0204d090 f   sc.obj
 0001:0004c0bc       ?m_StructCopy@Struct_System_Delegate_NativeDelegateRecord@@SIXPAU1@0@Z 0204d0bc f   sc.obj
 0001:0004c0f0       ?m_StructCopy@Struct_System_Delegate_NativeDelegateRecord@@SIXPAU1@PAU1@@Z 0204d0f0 f   sc.obj
 0001:0004c18c       ?m_Equals@Struct_System_Delegate_NativeDelegateRecord@@SI_NPAU1@PAUClass_System_Object@@@Z 0204d18c f   sc.obj
 0001:0004c1ec       ?m_Equals@Struct_System_Delegate_NativeDelegateRecord@@SI_NPAUClass_System_Delegate_NativeDelegateRecord@@PAUClass_System_Object@@@Z 0204d1ec f   sc.obj
 0001:0004c218       ?m_Delegate@Struct_System_Delegate_NativeDelegateRecord@@SIPAUClass_System_Delegate@@PAU1@@Z 0204d218 f   sc.obj
 0001:0004c248       ?m__ctor@Class_System_FormatException@@SIXPAU1@@Z 0204d248 f   sc.obj
 0001:0004c270       ?m__ctor@Class_System_FormatException@@SIXPAU1@PAUClass_System_String@@@Z 0204d270 f   sc.obj
 0001:0004c298       ?m_StructCopy@Struct_Microsoft_Singularity_Directory_DirectoryServiceContract_NakGetLinkValue@@SIXPAU1@0@Z 0204d298 f   sc.obj
 0001:0004c2c0       ?m_StructCopy@Struct_Microsoft_Singularity_Directory_DirectoryServiceContract_NakGetLinkValue@@SIXPAU1@PAU1@@Z 0204d2c0 f   sc.obj
 0001:0004c338       ?m_Equals@Struct_Microsoft_Singularity_Directory_DirectoryServiceContract_NakGetLinkValue@@SI_NPAU1@PAUClass_System_Object@@@Z 0204d338 f   sc.obj
 0001:0004c3d8       ?m_Equals@Struct_Microsoft_Singularity_Directory_DirectoryServiceContract_NakGetLinkValue@@SI_NPAUClass_Microsoft_Singularity_Directory_DirectoryServiceContract_NakGetLinkValue@@PAUClass_System_Object@@@Z 0204d3d8 f   sc.obj
 0001:0004c404       ?m_StructCopy@Struct_Microsoft_Singularity_Directory_DirectoryServiceContract_NakStoreACLReparse@@SIXPAU1@0@Z 0204d404 f   sc.obj
 0001:0004c444       ?m_StructCopy@Struct_Microsoft_Singularity_Directory_DirectoryServiceContract_NakStoreACLReparse@@SIXPAU1@PAU1@@Z 0204d444 f   sc.obj
 0001:0004c504       ?m_Equals@Struct_Microsoft_Singularity_Directory_DirectoryServiceContract_NakStoreACLReparse@@SI_NPAU1@PAUClass_System_Object@@@Z 0204d504 f   sc.obj
 0001:0004c56c       ?m_Equals@Struct_Microsoft_Singularity_Directory_DirectoryServiceContract_NakStoreACLReparse@@SI_NPAUClass_Microsoft_Singularity_Directory_DirectoryServiceContract_NakStoreACLReparse@@PAUClass_System_Object@@@Z 0204d56c f   sc.obj
 0001:0004c598       ?m_VisitSmallPageEnd@Class_System_GCs_MarkSweepCollector_SweepVisitor@@SIXPAU1@@Z 0204d598 f   sc.obj
 0001:0004c5c4       ?m_VisitSmall@Class_System_GCs_MarkSweepCollector_SweepVisitor@@SIXPAU1@PAUClass_System_Object@@PAUuintPtr@@@Z 0204d5c4 f   sc.obj
 0001:0004c610       ?m_VisitLarge@Class_System_GCs_MarkSweepCollector_SweepVisitor@@SIPAUuintPtr@@PAU1@PAUClass_System_Object@@@Z 0204d610 f   sc.obj
 0001:0004c698       ?m__ctor@Class_System_GCs_MarkSweepCollector_SweepVisitor@@SIXPAU1@@Z 0204d698 f   sc.obj
 0001:0004c6bc       ?m_VisitSmallPageEnd@Class_System_GCs_SegregatedFreeList_ObjectVisitor@@SIXPAU1@@Z 0204d6bc f   sc.obj
 0001:0004c6d8       ?m_VisitSmall@Class_System_GCs_SegregatedFreeList_ObjectVisitor@@SIXPAU1@PAUClass_System_Object@@PAUuintPtr@@@Z 0204d6d8 f   sc.obj
 0001:0004c704       ?m_VisitLarge@Class_System_GCs_SegregatedFreeList_ObjectVisitor@@SIPAUuintPtr@@PAU1@PAUClass_System_Object@@@Z 0204d704 f   sc.obj
 0001:0004c730       ?m_Visit@Class_System_GCs_SegregatedFreeList_ObjectVisitor@@SIPAUuintPtr@@PAU1@PAUClass_System_Object@@@Z 0204d730 f   sc.obj
 0001:0004c75c       ?m_get$_Continue@Class_System_GCs_SegregatedFreeList_ObjectVisitor@@SI_NPAU1@@Z 0204d75c f   sc.obj
 0001:0004c778       ?m__ctor@Class_System_GCs_SegregatedFreeList_ObjectVisitor@@SIXPAU1@@Z 0204d778 f   sc.obj
 0001:0004c79c       ?m_Finalize@Class_Microsoft_Singularity_Channels_TContainer$_1$LMicrosoft_Singularity_Io_PipeLookAhead$G@@SIXPAU1@@Z 0204d79c f   sc.obj
 0001:0004c818       ?m_Acquire@Class_Microsoft_Singularity_Channels_TContainer$_1$LMicrosoft_Singularity_Io_PipeLookAhead$G@@SIPAUClass_Microsoft_Singularity_Io_PipeLookAhead@@PAU1@@Z 0204d818 f   sc.obj
 0001:0004c8c0       ?m__ctor@Class_Microsoft_Singularity_Channels_TContainer$_1$LMicrosoft_Singularity_Io_PipeLookAhead$G@@SIXPAU1@PAUClass_Microsoft_Singularity_Io_PipeLookAhead@@@Z 0204d8c0 f   sc.obj
 0001:0004c974       ?m__ctor@Class_System_Reflection_AssemblyName@@SIXPAU1@@Z 0204d974 f   sc.obj
 0001:0004c990       ?m_InvokeStaticStub@Class_System_GCs_ProfileObjectsDelegate@@SIXPAU1@PAUClass_System_GCs_SegregatedFreeList_ObjectVisitor@@@Z 0204d990 f   sc.obj
 0001:0004c9c0       ?m_Invoke@Class_System_GCs_ProfileObjectsDelegate@@SIXPAU1@PAUClass_System_GCs_SegregatedFreeList_ObjectVisitor@@@Z 0204d9c0 f   sc.obj
 0001:0004ca1c       ?m_EndInvoke@Class_System_GCs_ProfileObjectsDelegate@@SIXPAU1@PAUClass_System_IAsyncResult@@@Z 0204da1c f   sc.obj
 0001:0004ca38       ?m_BeginInvoke@Class_System_GCs_ProfileObjectsDelegate@@SIPAUClass_System_IAsyncResult@@PAU1@PAUClass_System_GCs_SegregatedFreeList_ObjectVisitor@@PAUClass_System_AsyncCallback@@PAUClass_System_Object@@@Z 0204da38 f   sc.obj
 0001:0004ca58       ?m__ctor@Class_System_GCs_ProfileObjectsDelegate@@SIXPAU1@PAUClass_System_Object@@PAUintPtr@@@Z 0204da58 f   sc.obj
 0001:0004cabc       ?m_ToString@Class_System_Text_StringBuilder@@SIPAUClass_System_String@@PAU1@@Z 0204dabc f   sc.obj
 0001:0004cb68       ?m_ReplaceString@Class_System_Text_StringBuilder@@SIXPAU1@HPAUClass_System_String@@@Z 0204db68 f   sc.obj
 0001:0004cbac       ?m_NeedsAllocation@Class_System_Text_StringBuilder@@SI_NPAU1@PAUClass_System_String@@H@Z 0204dbac f   sc.obj
 0001:0004cbe0       ?g_InternalGetCurrentThread@Class_System_Text_StringBuilder@@SIHXZ 0204dbe0 f   sc.obj
 0001:0004cc04       ?m_GetThreadSafeString@Class_System_Text_StringBuilder@@SIPAUClass_System_String@@PAU1@PAH@Z 0204dc04 f   sc.obj
 0001:0004cc68       ?m_GetNewString@Class_System_Text_StringBuilder@@SIPAUClass_System_String@@PAU1@PAU2@H@Z 0204dc68 f   sc.obj
 0001:0004cd5c       ?g_FormatError@Class_System_Text_StringBuilder@@SIXXZ 0204dd5c f   sc.obj
 0001:0004cd98       ?m_AppendFormat@Class_System_Text_StringBuilder@@SIPAU1@PAU1@PAUClass_System_String@@PAUClassVector_Class_System_Object@@@Z 0204dd98 f   sc.obj
 0001:0004d630       ?m_Append@Class_System_Text_StringBuilder@@SIPAU1@PAU1@PAUClassVector_bartok_char@@HH@Z 0204e630 f   sc.obj
 0001:0004d858       ?m_Append@Class_System_Text_StringBuilder@@SIPAU1@PAU1@H@Z 0204e858 f   sc.obj
 0001:0004d888       ?m_Append@Class_System_Text_StringBuilder@@SIPAU1@PAU1@PAUClass_System_String@@@Z 0204e888 f   sc.obj
 0001:0004d9b8       ?m_Append@Class_System_Text_StringBuilder@@SIPAU1@PAU1@_W@Z 0204e9b8 f   sc.obj
 0001:0004dabc       ?m_Append@Class_System_Text_StringBuilder@@SIPAU1@PAU1@_WH@Z 0204eabc f   sc.obj
 0001:0004dc20       ?m__ctor@Class_System_Text_StringBuilder@@SIXPAU1@@Z 0204ec20 f   sc.obj
 0001:0004dc48       ?m__ctor@Class_System_Text_StringBuilder@@SIXPAU1@H@Z 0204ec48 f   sc.obj
 0001:0004dce8       ?m_StructCopy@Struct_Microsoft_Singularity_Isal_IX_DescriptorTable_Gdt@@SIXPAU1@0@Z 0204ece8 f   sc.obj
 0001:0004dde0       ?m_StructCopy@Struct_Microsoft_Singularity_Isal_IX_DescriptorTable_Gdt@@SIXPAU1@PAU1@@Z 0204ede0 f   sc.obj
 0001:0004e0c8       ?m_Equals@Struct_Microsoft_Singularity_Isal_IX_DescriptorTable_Gdt@@SI_NPAU1@PAUClass_System_Object@@@Z 0204f0c8 f   sc.obj
 0001:0004e6dc       ?m_Equals@Struct_Microsoft_Singularity_Isal_IX_DescriptorTable_Gdt@@SI_NPAUClass_Microsoft_Singularity_Isal_IX_DescriptorTable_Gdt@@PAUClass_System_Object@@@Z 0204f6dc f   sc.obj
 0001:0004e708       ?m_StructCopy@Struct_Microsoft_Singularity_V1_Services_DebugService@@SIXPAU1@0@Z 0204f708 f   sc.obj
 0001:0004e724       ?m_StructCopy@Struct_Microsoft_Singularity_V1_Services_DebugService@@SIXPAU1@PAU1@@Z 0204f724 f   sc.obj
 0001:0004e778       ?g_PrintBegin@Struct_Microsoft_Singularity_V1_Services_DebugService@@SIXPAPA_WPAH@Z 0204f778 f   sc.obj
 0001:0004e7ec       ?m_Equals@Struct_Microsoft_Singularity_V1_Services_DebugService@@SI_NPAU1@PAUClass_System_Object@@@Z 0204f7ec f   sc.obj
 0001:0004e824       ?m_Equals@Struct_Microsoft_Singularity_V1_Services_DebugService@@SI_NPAUClass_Microsoft_Singularity_V1_Services_DebugService@@PAUClass_System_Object@@@Z 0204f824 f   sc.obj
 0001:0004e850       ?m_VisitReferenceFields@Class_System_GCs_MarkSweepCollector_MarkReferenceVisitor@@SIPAUuintPtr@@PAU1@PAU2@PAUClass_System_VTable@@@Z 0204f850 f   sc.obj
 0001:0004efec       ?m_VisitReferenceFields@Class_System_GCs_MarkSweepCollector_MarkReferenceVisitor@@SIPAUuintPtr@@PAU1@PAUClass_System_Object@@@Z 0204ffec f   sc.obj
 0001:0004f054       ?m_Visit@Class_System_GCs_MarkSweepCollector_MarkReferenceVisitor@@SIXPAU1@PAPAUuintPtr@@@Z 02050054 f   sc.obj
 0001:0004f350       ?m_ProcessScheduledObjects@Class_System_GCs_MarkSweepCollector_MarkReferenceVisitor@@SIXPAU1@@Z 02050350 f   sc.obj
 0001:0004f3fc       ?m_Filter@Class_System_GCs_MarkSweepCollector_MarkReferenceVisitor@@SIXPAU1@PAPAUuintPtr@@PAUStruct_System_GCs_ReferenceVisitor_ObjectDescriptor@@@Z 020503fc f   sc.obj
 0001:0004f434       ?m_Cleanup@Class_System_GCs_MarkSweepCollector_MarkReferenceVisitor@@SIXPAU1@@Z 02050434 f   sc.obj
 0001:0004f46c       ?m__ctor@Class_System_GCs_MarkSweepCollector_MarkReferenceVisitor@@SIXPAU1@@Z 0205046c f   sc.obj
 0001:0004f490       ?m__ctor@Class_System_Threading_SynchronizationLockException@@SIXPAU1@@Z 02050490 f   sc.obj
 0001:0004f4b8       ?m__ctor@Class_System_Threading_SynchronizationLockException@@SIXPAU1@PAUClass_System_String@@@Z 020504b8 f   sc.obj
 0001:0004f4e0       ?m_StructCopy@Struct_System_UpdateLog_Location@@SIXPAU1@0@Z 020504e0 f   sc.obj
 0001:0004f514       ?m_StructCopy@Struct_System_UpdateLog_Location@@SIXPAU1@PAU1@@Z 02050514 f   sc.obj
 0001:0004f5b0       ?m_Equals@Struct_System_UpdateLog_Location@@SI_NPAU1@PAUClass_System_Object@@@Z 020505b0 f   sc.obj
 0001:0004f610       ?m_Equals@Struct_System_UpdateLog_Location@@SI_NPAUClass_System_UpdateLog_Location@@PAUClass_System_Object@@@Z 02050610 f   sc.obj
 0001:0004f63c       ?m__ctor@Struct_System_UpdateLog_Location@@SIXPAU1@PAUClass_System_UpdateLog_LogChunk@@H@Z 0205063c f   sc.obj
 0001:0004f66c       ?m_StructCopy@Struct_Microsoft_Singularity_Isal_IX_CR4@@SIXPAU1@0@Z 0205066c f   sc.obj
 0001:0004f688       ?m_StructCopy@Struct_Microsoft_Singularity_Isal_IX_CR4@@SIXPAU1@PAU1@@Z 02050688 f   sc.obj
 0001:0004f6dc       ?m_Equals@Struct_Microsoft_Singularity_Isal_IX_CR4@@SI_NPAU1@PAUClass_System_Object@@@Z 020506dc f   sc.obj
 0001:0004f714       ?m_Equals@Struct_Microsoft_Singularity_Isal_IX_CR4@@SI_NPAUClass_Microsoft_Singularity_Isal_IX_CR4@@PAUClass_System_Object@@@Z 02050714 f   sc.obj
 0001:0004f740       ?m__ctor@Class_System_VTable_ClassConstructorLock@@SIXPAU1@@Z 02050740 f   sc.obj
 0001:0004f75c       ?m_StructCopy@Struct_Microsoft_Singularity_Isal_IX_CR0@@SIXPAU1@0@Z 0205075c f   sc.obj
 0001:0004f778       ?m_StructCopy@Struct_Microsoft_Singularity_Isal_IX_CR0@@SIXPAU1@PAU1@@Z 02050778 f   sc.obj
 0001:0004f7cc       ?m_Equals@Struct_Microsoft_Singularity_Isal_IX_CR0@@SI_NPAU1@PAUClass_System_Object@@@Z 020507cc f   sc.obj
 0001:0004f804       ?m_Equals@Struct_Microsoft_Singularity_Isal_IX_CR0@@SI_NPAUClass_Microsoft_Singularity_Isal_IX_CR0@@PAUClass_System_Object@@@Z 02050804 f   sc.obj
 0001:0004f830       ?m_StructCopy@Struct_Microsoft_Singularity_Isal_IX_CR3@@SIXPAU1@0@Z 02050830 f   sc.obj
 0001:0004f84c       ?m_StructCopy@Struct_Microsoft_Singularity_Isal_IX_CR3@@SIXPAU1@PAU1@@Z 0205084c f   sc.obj
 0001:0004f8a0       ?m_Equals@Struct_Microsoft_Singularity_Isal_IX_CR3@@SI_NPAU1@PAUClass_System_Object@@@Z 020508a0 f   sc.obj
 0001:0004f8d8       ?m_Equals@Struct_Microsoft_Singularity_Isal_IX_CR3@@SI_NPAUClass_Microsoft_Singularity_Isal_IX_CR3@@PAUClass_System_Object@@@Z 020508d8 f   sc.obj
 0001:0004f904       ?m_StructCopy@Struct_Microsoft_Singularity_ServiceManager_ServiceStatus@@SIXPAU1@0@Z 02050904 f   sc.obj
 0001:0004f980       ?m_StructCopy@Struct_Microsoft_Singularity_ServiceManager_ServiceStatus@@SIXPAU1@PAU1@@Z 02050980 f   sc.obj
 0001:0004faf4       ?m_MarshallContent@Struct_Microsoft_Singularity_ServiceManager_ServiceStatus@@SIXPAU1@PAEPAUStruct_Microsoft_Singularity_Channels_Endpoint@@1@Z 02050af4 f   sc.obj
 0001:0004fb14       ?m_Equals@Struct_Microsoft_Singularity_ServiceManager_ServiceStatus@@SI_NPAU1@PAUClass_System_Object@@@Z 02050b14 f   sc.obj
 0001:0004fc74       ?m_Equals@Struct_Microsoft_Singularity_ServiceManager_ServiceStatus@@SI_NPAUClass_Microsoft_Singularity_ServiceManager_ServiceStatus@@PAUClass_System_Object@@@Z 02050c74 f   sc.obj
 0001:0004fca0       ?m_Dispose@Struct_Microsoft_Singularity_ServiceManager_ServiceStatus@@SIXPAU1@@Z 02050ca0 f   sc.obj
 0001:0004fcbc       ?m_StructCopy@Struct_Microsoft_Singularity_ServiceManager_ServiceManagerContract_RequestFailed@@SIXPAU1@0@Z 02050cbc f   sc.obj
 0001:0004fce4       ?m_StructCopy@Struct_Microsoft_Singularity_ServiceManager_ServiceManagerContract_RequestFailed@@SIXPAU1@PAU1@@Z 02050ce4 f   sc.obj
 0001:0004fd5c       ?m_Equals@Struct_Microsoft_Singularity_ServiceManager_ServiceManagerContract_RequestFailed@@SI_NPAU1@PAUClass_System_Object@@@Z 02050d5c f   sc.obj
 0001:0004fdfc       ?m_Equals@Struct_Microsoft_Singularity_ServiceManager_ServiceManagerContract_RequestFailed@@SI_NPAUClass_Microsoft_Singularity_ServiceManager_ServiceManagerContract_RequestFailed@@PAUClass_System_Object@@@Z 02050dfc f   sc.obj
 0001:0004fe28       ?m_FieldOffset@Class_System_GCs_Barrier_ZeroFieldsVisitor@@SIXPAU1@PAUuintPtr@@PAUStruct_System_GCs_ReferenceVisitor_ObjectDescriptor@@@Z 02050e28 f   sc.obj
 0001:0004fec4       ?m__ctor@Class_System_GCs_Barrier_ZeroFieldsVisitor@@SIXPAU1@@Z 02050ec4 f   sc.obj
 0001:0004fee8       ?m_StructCopy@Struct_Microsoft_Singularity_Eventing_QualityOfService@@SIXPAU1@0@Z 02050ee8 f   sc.obj
 0001:0004ff34       ?m_StructCopy@Struct_Microsoft_Singularity_Eventing_QualityOfService@@SIXPAU1@PAU1@@Z 02050f34 f   sc.obj
 0001:00050018       ?m_Equals@Struct_Microsoft_Singularity_Eventing_QualityOfService@@SI_NPAU1@PAUClass_System_Object@@@Z 02051018 f   sc.obj
 0001:00050090       ?m_Equals@Struct_Microsoft_Singularity_Eventing_QualityOfService@@SI_NPAUClass_Microsoft_Singularity_Eventing_QualityOfService@@PAUClass_System_Object@@@Z 02051090 f   sc.obj
 0001:000500bc       ?m_StructCopy@Struct_Microsoft_Singularity_Directory_DirectoryServiceContract_EndEnumeration@@SIXPAU1@0@Z 020510bc f   sc.obj
 0001:000500d8       ?m_StructCopy@Struct_Microsoft_Singularity_Directory_DirectoryServiceContract_EndEnumeration@@SIXPAU1@PAU1@@Z 020510d8 f   sc.obj
 0001:0005012c       ?m_Equals@Struct_Microsoft_Singularity_Directory_DirectoryServiceContract_EndEnumeration@@SI_NPAU1@PAUClass_System_Object@@@Z 0205112c f   sc.obj
 0001:00050164       ?m_Equals@Struct_Microsoft_Singularity_Directory_DirectoryServiceContract_EndEnumeration@@SI_NPAUClass_Microsoft_Singularity_Directory_DirectoryServiceContract_EndEnumeration@@PAUClass_System_Object@@@Z 02051164 f   sc.obj
 0001:00050190       ?m_StructCopy@Struct_Microsoft_Singularity_ServiceManager_ServiceManagerContract_CreateService@@SIXPAU1@0@Z 02051190 f   sc.obj
 0001:000501bc       ?m_StructCopy@Struct_Microsoft_Singularity_ServiceManager_ServiceManagerContract_CreateService@@SIXPAU1@PAU1@@Z 020511bc f   sc.obj
 0001:00050240       ?m_MarshallContent@Struct_Microsoft_Singularity_ServiceManager_ServiceManagerContract_CreateService@@SIXPAU1@PAEPAUStruct_Microsoft_Singularity_Channels_Endpoint@@1PAH@Z 02051240 f   sc.obj
 0001:0005027c       ?m_MarshallAll@Struct_Microsoft_Singularity_ServiceManager_ServiceManagerContract_CreateService@@SIXPAU1@PAEPAUStruct_Microsoft_Singularity_Channels_Endpoint@@PAH@Z 0205127c f   sc.obj
 0001:000502d4       ?m_Equals@Struct_Microsoft_Singularity_ServiceManager_ServiceManagerContract_CreateService@@SI_NPAU1@PAUClass_System_Object@@@Z 020512d4 f   sc.obj
 0001:00050384       ?m_Equals@Struct_Microsoft_Singularity_ServiceManager_ServiceManagerContract_CreateService@@SI_NPAUClass_Microsoft_Singularity_ServiceManager_ServiceManagerContract_CreateService@@PAUClass_System_Object@@@Z 02051384 f   sc.obj
 0001:000503b0       ?m_StructCopy@Struct_Microsoft_Singularity_ServiceManager_ServiceManagerContract_EnumerationTerminated@@SIXPAU1@0@Z 020513b0 f   sc.obj
 0001:000503e4       ?m_StructCopy@Struct_Microsoft_Singularity_ServiceManager_ServiceManagerContract_EnumerationTerminated@@SIXPAU1@PAU1@@Z 020513e4 f   sc.obj
 0001:00050480       ?m_Equals@Struct_Microsoft_Singularity_ServiceManager_ServiceManagerContract_EnumerationTerminated@@SI_NPAU1@PAUClass_System_Object@@@Z 02051480 f   sc.obj
 0001:000504dc       ?m_Equals@Struct_Microsoft_Singularity_ServiceManager_ServiceManagerContract_EnumerationTerminated@@SI_NPAUClass_Microsoft_Singularity_ServiceManager_ServiceManagerContract_EnumerationTerminated@@PAUClass_System_Object@@@Z 020514dc f   sc.obj
 0001:00050508       ?m_Visit@Class_System_GCs_MemoryAccounting_RuntimeTypeMapper@@SIPAUuintPtr@@PAU1@PAUClass_System_Object@@@Z 02051508 f   sc.obj
 0001:00050524       ?m_Initialize@Class_System_GCs_MemoryAccounting_RuntimeTypeMapper@@SIXPAU1@_NPAUClassVector_Struct_System_GCs_MemoryAccounting_RuntimeTypeAccounting@@@Z 02051524 f   sc.obj
 0001:00050544       ?m__ctor@Class_System_GCs_MemoryAccounting_RuntimeTypeMapper@@SIXPAU1@@Z 02051544 f   sc.obj
 0001:0005055c       ?m_StructCopy@Struct_Microsoft_Singularity_Isal_IX_MmxContext@@SIXPAU1@0@Z 0205155c f   sc.obj
 0001:000508a4       ?m_StructCopy@Struct_Microsoft_Singularity_Isal_IX_MmxContext@@SIXPAU1@PAU1@@Z 020518a4 f   sc.obj
 0001:0005127c       ?m_Equals@Struct_Microsoft_Singularity_Isal_IX_MmxContext@@SI_NPAU1@PAUClass_System_Object@@@Z 0205227c f   sc.obj
 0001:0005269c       ?m_Equals@Struct_Microsoft_Singularity_Isal_IX_MmxContext@@SI_NPAUClass_Microsoft_Singularity_Isal_IX_MmxContext@@PAUClass_System_Object@@@Z 0205369c f   sc.obj
 0001:000526c8       ?m_StructCopy@Struct_Microsoft_Singularity_Io_UnicodePipeContract_AckWrite@@SIXPAU1@0@Z 020536c8 f   sc.obj
 0001:000526f0       ?m_StructCopy@Struct_Microsoft_Singularity_Io_UnicodePipeContract_AckWrite@@SIXPAU1@PAU1@@Z 020536f0 f   sc.obj
 0001:00052768       ?m_MarshallContent@Struct_Microsoft_Singularity_Io_UnicodePipeContract_AckWrite@@SIXPAU1@PAEPAUStruct_Microsoft_Singularity_Channels_Endpoint@@1PAH@Z 02053768 f   sc.obj
 0001:00052828       ?m_MarshallAll@Struct_Microsoft_Singularity_Io_UnicodePipeContract_AckWrite@@SIXPAU1@PAEPAUStruct_Microsoft_Singularity_Channels_Endpoint@@PAH@Z 02053828 f   sc.obj
 0001:00052880       ?m_Equals@Struct_Microsoft_Singularity_Io_UnicodePipeContract_AckWrite@@SI_NPAU1@PAUClass_System_Object@@@Z 02053880 f   sc.obj
 0001:000528c8       ?m_Equals@Struct_Microsoft_Singularity_Io_UnicodePipeContract_AckWrite@@SI_NPAUClass_Microsoft_Singularity_Io_UnicodePipeContract_AckWrite@@PAUClass_System_Object@@@Z 020538c8 f   sc.obj
 0001:000528f4       ?m_TryAcquire@Struct_System_Threading_SpinLockBase@@SI_NPAU1@H@Z 020538f4 f   sc.obj
 0001:0005294c       ?m_StructCopy@Struct_System_Threading_SpinLockBase@@SIXPAU1@0@Z 0205394c f   sc.obj
 0001:00052980       ?m_StructCopy@Struct_System_Threading_SpinLockBase@@SIXPAU1@PAU1@@Z 02053980 f   sc.obj
 0001:00052a1c       ?m_SpinToAcquire@Struct_System_Threading_SpinLockBase@@SIXPAU1@H@Z 02053a1c f   sc.obj
 0001:00052b00       ?m_Release@Struct_System_Threading_SpinLockBase@@SIXPAU1@H@Z 02053b00 f   sc.obj
 0001:00052b40       ?m_get$_Type@Struct_System_Threading_SpinLockBase@@SIHPAU1@@Z 02053b40 f   sc.obj
 0001:00052b60       ?m_Equals@Struct_System_Threading_SpinLockBase@@SI_NPAU1@PAUClass_System_Object@@@Z 02053b60 f   sc.obj
 0001:00052bbc       ?m_Equals@Struct_System_Threading_SpinLockBase@@SI_NPAUClass_System_Threading_SpinLockBase@@PAUClass_System_Object@@@Z 02053bbc f   sc.obj
 0001:00052be8       ?m_Acquire@Struct_System_Threading_SpinLockBase@@SIXPAU1@H@Z 02053be8 f   sc.obj
 0001:00052c64       ?m__ctor@Class_Microsoft_Contracts_NullException@@SIXPAU1@@Z 02053c64 f   sc.obj
 0001:00052c88       ?m_Microsoft_SingSharp_ITracked_Release@Class_SurrogateMicrosoft_Singularity_ServiceManager_ServiceManagerContract_Imp@@SIXPAU1@@Z 02053c88 f   sc.obj
 0001:00052cac       ?m_Microsoft_SingSharp_ITracked_Acquire@Class_SurrogateMicrosoft_Singularity_ServiceManager_ServiceManagerContract_Imp@@SIXPAU1@@Z 02053cac f   sc.obj
 0001:00052cd0       ?m_HeadMatches@Class_SurrogateMicrosoft_Singularity_ServiceManager_ServiceManagerContract_Imp@@SI_NPAU1@HPA_NPAPAUClass_System_Object@@@Z 02053cd0 f   sc.obj
 0001:00052d04       ?m_GetWaitHandle@Class_SurrogateMicrosoft_Singularity_ServiceManager_ServiceManagerContract_Imp@@SI?AUStruct_Microsoft_Singularity_V1_Threads_SyncHandle@@PAU1@@Z 02053d04 f   sc.obj
 0001:00052d28       ?m_Dispose@Class_SurrogateMicrosoft_Singularity_ServiceManager_ServiceManagerContract_Imp@@SIXPAU1@@Z 02053d28 f   sc.obj
 0001:00052d4c       ?g__ctor@Class_SurrogateMicrosoft_Singularity_ServiceManager_ServiceManagerContract_Imp@@SIXPAU1@PAUStruct_Microsoft_Singularity_ServiceManager_ServiceManagerContract_Imp@@@Z 02053d4c f   sc.obj
 0001:00052d74       ?g_Initialize@Class_Microsoft_Singularity_Io_ConsoleInput@@SIXXZ 02053d74 f   sc.obj
 0001:00052e2c       ?g_GetPipe@Class_Microsoft_Singularity_Io_ConsoleInput@@SIPAUStruct_Microsoft_Singularity_Io_UnicodePipeContract_Exp@@XZ 02053e2c f   sc.obj
 0001:00052f08       ?g_Finalize@Class_Microsoft_Singularity_Io_ConsoleInput@@SIXXZ 02053f08 f   sc.obj
 0001:00052f60       ?m__ctor@Class_Microsoft_Singularity_Io_ConsoleInput@@SIXPAU1@@Z 02053f60 f   sc.obj
 0001:00052f78       ?g__cctor@Class_Microsoft_Singularity_Io_ConsoleInput@@SIXXZ 02053f78 f   sc.obj
 0001:00052fa0       ?m_StructCopy@Struct_Microsoft_Singularity_Eventing_ArrayType@@SIXPAU1@0@Z 02053fa0 f   sc.obj
 0001:00052ff0       ?m_StructCopy@Struct_Microsoft_Singularity_Eventing_ArrayType@@SIXPAU1@PAU1@@Z 02053ff0 f   sc.obj
 0001:000530e0       ?m_Equals@Struct_Microsoft_Singularity_Eventing_ArrayType@@SI_NPAU1@PAUClass_System_Object@@@Z 020540e0 f   sc.obj
 0001:0005315c       ?m_Equals@Struct_Microsoft_Singularity_Eventing_ArrayType@@SI_NPAUClass_Microsoft_Singularity_Eventing_ArrayType@@PAUClass_System_Object@@@Z 0205415c f   sc.obj
 0001:00053188       ?m_VisitReferenceFields@Class_System_GCs_MarkSweepCollector_MarkAndProcessReferenceVisitor@@SIPAUuintPtr@@PAU1@PAUClass_System_Object@@@Z 02054188 f   sc.obj
 0001:000531f0       ?m_Visit@Class_System_GCs_MarkSweepCollector_MarkAndProcessReferenceVisitor@@SIXPAU1@PAPAUuintPtr@@@Z 020541f0 f   sc.obj
 0001:00053228       ?m__ctor@Class_System_GCs_MarkSweepCollector_MarkAndProcessReferenceVisitor@@SIXPAU1@@Z 02054228 f   sc.obj
 0001:0005324c       ?m_StructCopy@Struct_Microsoft_Singularity_ServiceManager_ServiceManagerContract_ServiceStarted@@SIXPAU1@0@Z 0205424c f   sc.obj
 0001:00053268       ?m_StructCopy@Struct_Microsoft_Singularity_ServiceManager_ServiceManagerContract_ServiceStarted@@SIXPAU1@PAU1@@Z 02054268 f   sc.obj
 0001:000532bc       ?m_Equals@Struct_Microsoft_Singularity_ServiceManager_ServiceManagerContract_ServiceStarted@@SI_NPAU1@PAUClass_System_Object@@@Z 020542bc f   sc.obj
 0001:000532f4       ?m_Equals@Struct_Microsoft_Singularity_ServiceManager_ServiceManagerContract_ServiceStarted@@SI_NPAUClass_Microsoft_Singularity_ServiceManager_ServiceManagerContract_ServiceStarted@@PAUClass_System_Object@@@Z 020542f4 f   sc.obj
 0001:00053320       ?m_StructCopy@Struct_Microsoft_Singularity_ServiceManager_ServiceManagerContract_TerminateServiceProcess@@SIXPAU1@0@Z 02054320 f   sc.obj
 0001:00053348       ?m_StructCopy@Struct_Microsoft_Singularity_ServiceManager_ServiceManagerContract_TerminateServiceProcess@@SIXPAU1@PAU1@@Z 02054348 f   sc.obj
 0001:000533c0       ?m_MarshallContent@Struct_Microsoft_Singularity_ServiceManager_ServiceManagerContract_TerminateServiceProcess@@SIXPAU1@PAEPAUStruct_Microsoft_Singularity_Channels_Endpoint@@1PAH@Z 020543c0 f   sc.obj
 0001:000533e0       ?m_MarshallAll@Struct_Microsoft_Singularity_ServiceManager_ServiceManagerContract_TerminateServiceProcess@@SIXPAU1@PAEPAUStruct_Microsoft_Singularity_Channels_Endpoint@@PAH@Z 020543e0 f   sc.obj
 0001:00053438       ?m_Equals@Struct_Microsoft_Singularity_ServiceManager_ServiceManagerContract_TerminateServiceProcess@@SI_NPAU1@PAUClass_System_Object@@@Z 02054438 f   sc.obj
 0001:00053480       ?m_Equals@Struct_Microsoft_Singularity_ServiceManager_ServiceManagerContract_TerminateServiceProcess@@SI_NPAUClass_Microsoft_Singularity_ServiceManager_ServiceManagerContract_TerminateServiceProcess@@PAUClass_System_Object@@@Z 02054480 f   sc.obj
 0001:000534ac       ?m__ctor@Class_System_GCs_SegregatedFreeList_PartialFreePageVisitor@@SIXPAU1@@Z 020544ac f   sc.obj
 0001:000534c8       ?m_FieldOffset@Class_System_GCs_Barrier_SlowZeroFieldsVisitor@@SIXPAU1@PAUuintPtr@@PAUStruct_System_GCs_ReferenceVisitor_ObjectDescriptor@@@Z 020544c8 f   sc.obj
 0001:000535b4       ?m__ctor@Class_System_GCs_Barrier_SlowZeroFieldsVisitor@@SIXPAU1@@Z 020545b4 f   sc.obj
 0001:000535d8       ?m_RegisterController@Class_Microsoft_Singularity_Eventing_SystemControllerProxy@@SI_NPAU1@@Z 020545d8 f   sc.obj
 0001:00053694       ?g_DebugPrintLogEntry@Class_Microsoft_Singularity_Eventing_SystemControllerProxy@@SI_NPAUuintPtr@@@Z 02054694 f   sc.obj
 0001:000536c4       ?m__ctor@Class_Microsoft_Singularity_Eventing_SystemControllerProxy@@SIXPAU1@@Z 020546c4 f   sc.obj
 0001:000536e8       ?g__cctor@Class_Microsoft_Singularity_Eventing_SystemControllerProxy@@SIXXZ 020546e8 f   sc.obj
 0001:00053710       ?m_StructCopy@Struct_Microsoft_Singularity_Directory_DirectoryServiceContract_Deregister@@SIXPAU1@0@Z 02054710 f   sc.obj
 0001:00053738       ?m_StructCopy@Struct_Microsoft_Singularity_Directory_DirectoryServiceContract_Deregister@@SIXPAU1@PAU1@@Z 02054738 f   sc.obj
 0001:000537b0       ?m_Equals@Struct_Microsoft_Singularity_Directory_DirectoryServiceContract_Deregister@@SI_NPAU1@PAUClass_System_Object@@@Z 020547b0 f   sc.obj
 0001:000537f8       ?m_Equals@Struct_Microsoft_Singularity_Directory_DirectoryServiceContract_Deregister@@SI_NPAUClass_Microsoft_Singularity_Directory_DirectoryServiceContract_Deregister@@PAUClass_System_Object@@@Z 020547f8 f   sc.obj
 0001:00053824       ?g_ToString@Class_Microsoft_Singularity_ServiceManager_ServiceEnums@@SIPAUClass_System_String@@UStruct_Microsoft_Singularity_ServiceManager_ServiceState@@@Z 02054824 f   sc.obj
 0001:000538b8       ?g_ToString@Class_Microsoft_Singularity_ServiceManager_ServiceEnums@@SIPAUClass_System_String@@UStruct_Microsoft_Singularity_ServiceManager_ServiceError@@@Z 020548b8 f   sc.obj
 0001:00053ad0       ?g_ToString@Class_Microsoft_Singularity_ServiceManager_ServiceEnums@@SIPAUClass_System_String@@UStruct_Microsoft_Singularity_ServiceManager_ServiceActivationMode@@@Z 02054ad0 f   sc.obj
 0001:00053b54       ?m_StructCopy@Struct_Microsoft_Singularity_Directory_DirectoryServiceContract_NakCreateAndBindFile@@SIXPAU1@0@Z 02054b54 f   sc.obj
 0001:00053b88       ?m_StructCopy@Struct_Microsoft_Singularity_Directory_DirectoryServiceContract_NakCreateAndBindFile@@SIXPAU1@PAU1@@Z 02054b88 f   sc.obj
 0001:00053c24       ?m_Equals@Struct_Microsoft_Singularity_Directory_DirectoryServiceContract_NakCreateAndBindFile@@SI_NPAU1@PAUClass_System_Object@@@Z 02054c24 f   sc.obj
 0001:00053cd8       ?m_Equals@Struct_Microsoft_Singularity_Directory_DirectoryServiceContract_NakCreateAndBindFile@@SI_NPAUClass_Microsoft_Singularity_Directory_DirectoryServiceContract_NakCreateAndBindFile@@PAUClass_System_Object@@@Z 02054cd8 f   sc.obj
 0001:00053d04       ?g_Create@Class_Microsoft_Singularity_Eventing_ControllerLogger@@SIPAU1@PAUClass_System_String@@PAUClass_Microsoft_Singularity_Eventing_EventingStorage@@@Z 02054d04 f   sc.obj
 0001:00053d78       ?m__ctor@Class_Microsoft_Singularity_Eventing_ControllerLogger@@SIXPAU1@PAUClass_System_String@@PAUClass_Microsoft_Singularity_Eventing_EventingStorage@@I@Z 02054d78 f   sc.obj
 0001:00053dac       ?m_StructCopy@Struct_Microsoft_Singularity_ServiceManager_ServiceManagerContract_CurrentServiceStatus@@SIXPAU1@0@Z 02054dac f   sc.obj
 0001:00053dd8       ?m_StructCopy@Struct_Microsoft_Singularity_ServiceManager_ServiceManagerContract_CurrentServiceStatus@@SIXPAU1@PAU1@@Z 02054dd8 f   sc.obj
 0001:00053e5c       ?m_Equals@Struct_Microsoft_Singularity_ServiceManager_ServiceManagerContract_CurrentServiceStatus@@SI_NPAU1@PAUClass_System_Object@@@Z 02054e5c f   sc.obj
 0001:00053f04       ?m_Equals@Struct_Microsoft_Singularity_ServiceManager_ServiceManagerContract_CurrentServiceStatus@@SI_NPAUClass_Microsoft_Singularity_ServiceManager_ServiceManagerContract_CurrentServiceStatus@@PAUClass_System_Object@@@Z 02054f04 f   sc.obj
 0001:00053f30       ?m_StructCopy@Struct_Microsoft_Singularity_ServiceManager_ServiceManagerContract_WatchServiceManager@@SIXPAU1@0@Z 02054f30 f   sc.obj
 0001:00053f58       ?m_StructCopy@Struct_Microsoft_Singularity_ServiceManager_ServiceManagerContract_WatchServiceManager@@SIXPAU1@PAU1@@Z 02054f58 f   sc.obj
 0001:00053fd0       ?m_MarshallContent@Struct_Microsoft_Singularity_ServiceManager_ServiceManagerContract_WatchServiceManager@@SIXPAU1@PAEPAUStruct_Microsoft_Singularity_Channels_Endpoint@@1PAH@Z 02054fd0 f   sc.obj
 0001:00053ff0       ?m_MarshallAll@Struct_Microsoft_Singularity_ServiceManager_ServiceManagerContract_WatchServiceManager@@SIXPAU1@PAEPAUStruct_Microsoft_Singularity_Channels_Endpoint@@PAH@Z 02054ff0 f   sc.obj
 0001:00054048       ?m_Equals@Struct_Microsoft_Singularity_ServiceManager_ServiceManagerContract_WatchServiceManager@@SI_NPAU1@PAUClass_System_Object@@@Z 02055048 f   sc.obj
 0001:000540e8       ?m_Equals@Struct_Microsoft_Singularity_ServiceManager_ServiceManagerContract_WatchServiceManager@@SI_NPAUClass_Microsoft_Singularity_ServiceManager_ServiceManagerContract_WatchServiceManager@@PAUClass_System_Object@@@Z 020550e8 f   sc.obj
 0001:00054114       ?m_StructCopy@Struct_Microsoft_Singularity_ServiceManager_ServiceManagerContract_StopWatchingService@@SIXPAU1@0@Z 02055114 f   sc.obj
 0001:00054130       ?m_StructCopy@Struct_Microsoft_Singularity_ServiceManager_ServiceManagerContract_StopWatchingService@@SIXPAU1@PAU1@@Z 02055130 f   sc.obj
 0001:00054184       ?m_Equals@Struct_Microsoft_Singularity_ServiceManager_ServiceManagerContract_StopWatchingService@@SI_NPAU1@PAUClass_System_Object@@@Z 02055184 f   sc.obj
 0001:000541bc       ?m_Equals@Struct_Microsoft_Singularity_ServiceManager_ServiceManagerContract_StopWatchingService@@SI_NPAUClass_Microsoft_Singularity_ServiceManager_ServiceManagerContract_StopWatchingService@@PAUClass_System_Object@@@Z 020551bc f   sc.obj
 0001:000541e8       ?m_StructCopy@Struct_Microsoft_Singularity_Directory_DirectoryServiceContract_GetLinkValue@@SIXPAU1@0@Z 020551e8 f   sc.obj
 0001:00054210       ?m_StructCopy@Struct_Microsoft_Singularity_Directory_DirectoryServiceContract_GetLinkValue@@SIXPAU1@PAU1@@Z 02055210 f   sc.obj
 0001:00054288       ?m_Equals@Struct_Microsoft_Singularity_Directory_DirectoryServiceContract_GetLinkValue@@SI_NPAU1@PAUClass_System_Object@@@Z 02055288 f   sc.obj
 0001:000542d0       ?m_Equals@Struct_Microsoft_Singularity_Directory_DirectoryServiceContract_GetLinkValue@@SI_NPAUClass_Microsoft_Singularity_Directory_DirectoryServiceContract_GetLinkValue@@PAUClass_System_Object@@@Z 020552d0 f   sc.obj
 0001:000542fc       ?m_StructCopy@Struct_Microsoft_Singularity_Isal_IX_DescriptorTable@@SIXPAU1@0@Z 020552fc f   sc.obj
 0001:00054338       ?m_StructCopy@Struct_Microsoft_Singularity_Isal_IX_DescriptorTable@@SIXPAU1@PAU1@@Z 02055338 f   sc.obj
 0001:000543ec       ?m_Equals@Struct_Microsoft_Singularity_Isal_IX_DescriptorTable@@SI_NPAU1@PAUClass_System_Object@@@Z 020553ec f   sc.obj
 0001:00054564       ?m_Equals@Struct_Microsoft_Singularity_Isal_IX_DescriptorTable@@SI_NPAUClass_Microsoft_Singularity_Isal_IX_DescriptorTable@@PAUClass_System_Object@@@Z 02055564 f   sc.obj
 0001:00054590       ?m__ctor@Class_System_Runtime_CompilerServices_SelfPointAttribute@@SIXPAU1@@Z 02055590 f   sc.obj
 0001:000545b4       ?m_StructCopy@Struct_Microsoft_Singularity_Directory_DirectoryServiceContract_NakNotify@@SIXPAU1@0@Z 020555b4 f   sc.obj
 0001:000545e8       ?m_StructCopy@Struct_Microsoft_Singularity_Directory_DirectoryServiceContract_NakNotify@@SIXPAU1@PAU1@@Z 020555e8 f   sc.obj
 0001:00054684       ?m_Equals@Struct_Microsoft_Singularity_Directory_DirectoryServiceContract_NakNotify@@SI_NPAU1@PAUClass_System_Object@@@Z 02055684 f   sc.obj
 0001:00054734       ?m_Equals@Struct_Microsoft_Singularity_Directory_DirectoryServiceContract_NakNotify@@SI_NPAUClass_Microsoft_Singularity_Directory_DirectoryServiceContract_NakNotify@@PAUClass_System_Object@@@Z 02055734 f   sc.obj
 0001:00054760       ?m_VisitReferenceFields@Class_System_GCs_Barrier_CopyFieldsVisitor@@SIXPAU1@PAUClass_System_VTable@@PAUuintPtr@@2@Z 02055760 f   sc.obj
 0001:00055030       ?m_VisitReferenceFields@Class_System_GCs_Barrier_CopyFieldsVisitor@@SIXPAU1@PAUClass_System_VTable@@PAUuintPtr@@2H@Z 02056030 f   sc.obj
 0001:000551fc       ?m_FieldOffset@Class_System_GCs_Barrier_CopyFieldsVisitor@@SIXPAU1@PAUuintPtr@@PAUStruct_System_GCs_ReferenceVisitor_ObjectDescriptor@@@Z 020561fc f   sc.obj
 0001:000552f0       ?m__ctor@Class_System_GCs_Barrier_CopyFieldsVisitor@@SIXPAU1@@Z 020562f0 f   sc.obj
 0001:00055314       ?m_VisitReferenceFields@Class_System_GCs_OffsetReferenceVisitor@@SIPAUuintPtr@@PAU1@PAU2@PAUClass_System_VTable@@@Z 02056314 f   sc.obj
 0001:00055ab0       ?m_Filter@Class_System_GCs_OffsetReferenceVisitor@@SIXPAU1@PAPAUuintPtr@@PAUStruct_System_GCs_ReferenceVisitor_ObjectDescriptor@@@Z 02056ab0 f   sc.obj
 0001:00055b00       ?m__ctor@Class_System_GCs_OffsetReferenceVisitor@@SIXPAU1@@Z 02056b00 f   sc.obj
 0001:00055b24       ?m__ctor@Class_System_DivideByZeroException@@SIXPAU1@@Z 02056b24 f   sc.obj
 0001:00055b4c       ?m__ctor@Class_System_DivideByZeroException@@SIXPAU1@PAUClass_System_String@@@Z 02056b4c f   sc.obj
 0001:00055b74       ?m__ctor@Class_System_DivideByZeroException@@SIXPAU1@PAUClass_System_String@@PAUClass_System_Exception@@@Z 02056b74 f   sc.obj
 0001:00055ba4       ?m_StructCopy@Struct_Microsoft_Singularity_Directory_DirectoryServiceContract_CreateAndBindFile@@SIXPAU1@0@Z 02056ba4 f   sc.obj
 0001:00055bd8       ?m_StructCopy@Struct_Microsoft_Singularity_Directory_DirectoryServiceContract_CreateAndBindFile@@SIXPAU1@PAU1@@Z 02056bd8 f   sc.obj
 0001:00055c74       ?m_Equals@Struct_Microsoft_Singularity_Directory_DirectoryServiceContract_CreateAndBindFile@@SI_NPAU1@PAUClass_System_Object@@@Z 02056c74 f   sc.obj
 0001:00055cd0       ?m_Equals@Struct_Microsoft_Singularity_Directory_DirectoryServiceContract_CreateAndBindFile@@SI_NPAUClass_Microsoft_Singularity_Directory_DirectoryServiceContract_CreateAndBindFile@@PAUClass_System_Object@@@Z 02056cd0 f   sc.obj
 0001:00055cfc       ?m_StructCopy@Struct_Microsoft_Singularity_Io_UnicodePipeContract_Write@@SIXPAU1@0@Z 02056cfc f   sc.obj
 0001:00055d3c       ?m_StructCopy@Struct_Microsoft_Singularity_Io_UnicodePipeContract_Write@@SIXPAU1@PAU1@@Z 02056d3c f   sc.obj
 0001:00055dfc       ?m_MarshallContent@Struct_Microsoft_Singularity_Io_UnicodePipeContract_Write@@SIXPAU1@PAEPAUStruct_Microsoft_Singularity_Channels_Endpoint@@1PAH@Z 02056dfc f   sc.obj
 0001:00055ebc       ?m_MarshallAll@Struct_Microsoft_Singularity_Io_UnicodePipeContract_Write@@SIXPAU1@PAEPAUStruct_Microsoft_Singularity_Channels_Endpoint@@PAH@Z 02056ebc f   sc.obj
 0001:00055f14       ?m_Equals@Struct_Microsoft_Singularity_Io_UnicodePipeContract_Write@@SI_NPAU1@PAUClass_System_Object@@@Z 02056f14 f   sc.obj
 0001:00055f7c       ?m_Equals@Struct_Microsoft_Singularity_Io_UnicodePipeContract_Write@@SI_NPAUClass_Microsoft_Singularity_Io_UnicodePipeContract_Write@@PAUClass_System_Object@@@Z 02056f7c f   sc.obj
 0001:00055fa8       ?m_StructCopy@Struct_Microsoft_Singularity_ServiceManager_ServiceManagerContract_ServiceStopping@@SIXPAU1@0@Z 02056fa8 f   sc.obj
 0001:00055fc4       ?m_StructCopy@Struct_Microsoft_Singularity_ServiceManager_ServiceManagerContract_ServiceStopping@@SIXPAU1@PAU1@@Z 02056fc4 f   sc.obj
 0001:00056018       ?m_Equals@Struct_Microsoft_Singularity_ServiceManager_ServiceManagerContract_ServiceStopping@@SI_NPAU1@PAUClass_System_Object@@@Z 02057018 f   sc.obj
 0001:00056050       ?m_Equals@Struct_Microsoft_Singularity_ServiceManager_ServiceManagerContract_ServiceStopping@@SI_NPAUClass_Microsoft_Singularity_ServiceManager_ServiceManagerContract_ServiceStopping@@PAUClass_System_Object@@@Z 02057050 f   sc.obj
 0001:0005607c       ?m_StructCopy@Struct_Microsoft_Singularity_Isal_IX_EFlagsShift@@SIXPAU1@0@Z 0205707c f   sc.obj
 0001:00056098       ?m_StructCopy@Struct_Microsoft_Singularity_Isal_IX_EFlagsShift@@SIXPAU1@PAU1@@Z 02057098 f   sc.obj
 0001:000560ec       ?m_Equals@Struct_Microsoft_Singularity_Isal_IX_EFlagsShift@@SI_NPAU1@PAUClass_System_Object@@@Z 020570ec f   sc.obj
 0001:00056124       ?m_Equals@Struct_Microsoft_Singularity_Isal_IX_EFlagsShift@@SI_NPAUClass_Microsoft_Singularity_Isal_IX_EFlagsShift@@PAUClass_System_Object@@@Z 02057124 f   sc.obj
 0001:00056150       ?m_StructCopy@Struct_Microsoft_Singularity_Directory_DirectoryServiceContract_EnumerationEntries@@SIXPAU1@0@Z 02057150 f   sc.obj
 0001:00056184       ?m_StructCopy@Struct_Microsoft_Singularity_Directory_DirectoryServiceContract_EnumerationEntries@@SIXPAU1@PAU1@@Z 02057184 f   sc.obj
 0001:00056220       ?m_Equals@Struct_Microsoft_Singularity_Directory_DirectoryServiceContract_EnumerationEntries@@SI_NPAU1@PAUClass_System_Object@@@Z 02057220 f   sc.obj
 0001:0005627c       ?m_Equals@Struct_Microsoft_Singularity_Directory_DirectoryServiceContract_EnumerationEntries@@SI_NPAUClass_Microsoft_Singularity_Directory_DirectoryServiceContract_EnumerationEntries@@PAUClass_System_Object@@@Z 0205727c f   sc.obj
 0001:000562a8       ?m__ctor@Class_System_Runtime_CompilerServices_NoStackOverflowCheckAttribute@@SIXPAU1@@Z 020572a8 f   sc.obj
 0001:000562cc       ?m_ToString@uint64@@SIPAUClass_System_String@@PA_K@Z 020572cc f   sc.obj
 0001:000562f4       ?m_ToString@uint64@@SIPAUClass_System_String@@PA_KPAU2@@Z 020572f4 f   sc.obj
 0001:00056348       ?m_ToString@uint64@@SIPAUClass_System_String@@PAUClass_System_UInt64@@@Z 02057348 f   sc.obj
 0001:00056370       ?m_ToString@uint64@@SIPAUClass_System_String@@PAUClass_System_UInt64@@PAU2@@Z 02057370 f   sc.obj
 0001:0005639c       ?m_GetHashCode@uint64@@SIHPA_K@Z 0205739c f   sc.obj
 0001:000563d0       ?m_GetHashCode@uint64@@SIHPAUClass_System_UInt64@@@Z 020573d0 f   sc.obj
 0001:000563f8       ?m_Equals@uint64@@SI_NPA_KPAUClass_System_Object@@@Z 020573f8 f   sc.obj
 0001:00056468       ?m_Equals@uint64@@SI_NPAUClass_System_UInt64@@PAUClass_System_Object@@@Z 02057468 f   sc.obj
 0001:00056494       ?m_CompareTo@uint64@@SIHPA_KPAUClass_System_Object@@@Z 02057494 f   sc.obj
 0001:00056588       ?m_CompareTo@uint64@@SIHPAUClass_System_UInt64@@PAUClass_System_Object@@@Z 02057588 f   sc.obj
 0001:000565b4       ?m__ctor@Class_System_Threading_HandleCreateException@@SIXPAU1@@Z 020575b4 f   sc.obj
 0001:000565dc       ?m_ToString@Struct_System_SchedulerTime@@SIPAUClass_System_String@@PAU1@@Z 020575dc f   sc.obj
 0001:000566fc       ?m_ToString@Struct_System_SchedulerTime@@SIPAUClass_System_String@@PAUClass_System_SchedulerTime@@@Z 020576fc f   sc.obj
 0001:00056744       ?m_StructCopy@Struct_System_SchedulerTime@@SIXPAU1@0@Z 02057744 f   sc.obj
 0001:00056778       ?m_StructCopy@Struct_System_SchedulerTime@@SIXPAU1@PAU1@@Z 02057778 f   sc.obj
 0001:00056814       ?g_op$_Equality@Struct_System_SchedulerTime@@SI_NU1@0@Z 02057814 f   sc.obj
 0001:00056850       ?g_op$_Addition@Struct_System_SchedulerTime@@SI?AU1@U1@UStruct_System_TimeSpan@@@Z 02057850 f   sc.obj
 0001:00056944       ?m_GetHashCode@Struct_System_SchedulerTime@@SIHPAU1@@Z 02057944 f   sc.obj
 0001:00056970       ?m_GetHashCode@Struct_System_SchedulerTime@@SIHPAUClass_System_SchedulerTime@@@Z 02057970 f   sc.obj
 0001:000569b8       ?m_get$_TotalDays@Struct_System_SchedulerTime@@SI_JPAU1@@Z 020579b8 f   sc.obj
 0001:000569f0       ?m_get$_Second@Struct_System_SchedulerTime@@SIHPAU1@@Z 020579f0 f   sc.obj
 0001:00056a30       ?g_get$_Now@Struct_System_SchedulerTime@@SI?AU1@XZ 02057a30 f   sc.obj
 0001:00056adc       ?m_get$_Minute@Struct_System_SchedulerTime@@SIHPAU1@@Z 02057adc f   sc.obj
 0001:00056b1c       ?m_get$_Hour@Struct_System_SchedulerTime@@SIHPAU1@@Z 02057b1c f   sc.obj
 0001:00056b5c       ?m_Equals@Struct_System_SchedulerTime@@SI_NPAU1@PAUClass_System_Object@@@Z 02057b5c f   sc.obj
 0001:00056bd4       ?m_Equals@Struct_System_SchedulerTime@@SI_NPAUClass_System_SchedulerTime@@PAUClass_System_Object@@@Z 02057bd4 f   sc.obj
 0001:00056c20       ?m_CompareTo@Struct_System_SchedulerTime@@SIHPAU1@PAUClass_System_Object@@@Z 02057c20 f   sc.obj
 0001:00056d0c       ?m_CompareTo@Struct_System_SchedulerTime@@SIHPAUClass_System_SchedulerTime@@PAUClass_System_Object@@@Z 02057d0c f   sc.obj
 0001:00056d58       ?m__ctor@Struct_System_SchedulerTime@@SIXPAU1@_J@Z 02057d58 f   sc.obj
 0001:00056de8       ?g__cctor@Struct_System_SchedulerTime@@SIXXZ 02057de8 f   sc.obj
 0001:00056e64       ?m_StructCopy@Struct_Microsoft_Singularity_V1_Services_StackService@@SIXPAU1@0@Z 02057e64 f   sc.obj
 0001:00056e80       ?m_StructCopy@Struct_Microsoft_Singularity_V1_Services_StackService@@SIXPAU1@PAU1@@Z 02057e80 f   sc.obj
 0001:00056ed4       ?g_FreeStackSegment@Struct_Microsoft_Singularity_V1_Services_StackService@@SIXXZ 02057ed4 f   sc.obj
 0001:00056ee4       ?m_Equals@Struct_Microsoft_Singularity_V1_Services_StackService@@SI_NPAU1@PAUClass_System_Object@@@Z 02057ee4 f   sc.obj
 0001:00056f1c       ?m_Equals@Struct_Microsoft_Singularity_V1_Services_StackService@@SI_NPAUClass_Microsoft_Singularity_V1_Services_StackService@@PAUClass_System_Object@@@Z 02057f1c f   sc.obj
 0001:00056f48       ?g_AllocateStackSegment@Struct_Microsoft_Singularity_V1_Services_StackService@@SIPAUuintPtr@@PAU2@@Z 02057f48 f   sc.obj
 0001:00056f90       ?m__ctor@Class_System_UpdateEnlistmentLog_LogChunk@@SIXPAU1@PAUClassVector_Struct_System_UpdateEnlistmentLog_Entry@@0@Z 02057f90 f   sc.obj
 0001:00056fcc       ?m__ctor@Class_System_UndoLog@@SIXPAU1@@Z 02057fcc f   sc.obj
 0001:00056ffc       ?m_StructCopy@Struct_Microsoft_Singularity_Directory_DirectoryServiceContract_NakNotifyReparse@@SIXPAU1@0@Z 02057ffc f   sc.obj
 0001:00057048       ?m_StructCopy@Struct_Microsoft_Singularity_Directory_DirectoryServiceContract_NakNotifyReparse@@SIXPAU1@PAU1@@Z 02058048 f   sc.obj
 0001:0005712c       ?m_Equals@Struct_Microsoft_Singularity_Directory_DirectoryServiceContract_NakNotifyReparse@@SI_NPAU1@PAUClass_System_Object@@@Z 0205812c f   sc.obj
 0001:000571a4       ?m_Equals@Struct_Microsoft_Singularity_Directory_DirectoryServiceContract_NakNotifyReparse@@SI_NPAUClass_Microsoft_Singularity_Directory_DirectoryServiceContract_NakNotifyReparse@@PAUClass_System_Object@@@Z 020581a4 f   sc.obj
 0001:000571d0       ?m_ToString@float64@@SIPAUClass_System_String@@PAN@Z 020581d0 f   sc.obj
 0001:000571f8       ?m_ToString@float64@@SIPAUClass_System_String@@PANPAU2@@Z 020581f8 f   sc.obj
 0001:00057244       ?m_ToString@float64@@SIPAUClass_System_String@@PAUClass_System_Double@@@Z 02058244 f   sc.obj
 0001:0005726c       ?m_ToString@float64@@SIPAUClass_System_String@@PAUClass_System_Double@@PAU2@@Z 0205826c f   sc.obj
 0001:00057298       ?g_IsNaN@float64@@SI_NN@Z  02058298 f   sc.obj
 0001:00057348       ?m_GetHashCode@float64@@SIHPAN@Z 02058348 f   sc.obj
 0001:000573b4       ?m_GetHashCode@float64@@SIHPAUClass_System_Double@@@Z 020583b4 f   sc.obj
 0001:000573dc       ?m_Equals@float64@@SI_NPANPAUClass_System_Object@@@Z 020583dc f   sc.obj
 0001:00057484       ?m_Equals@float64@@SI_NPAUClass_System_Double@@PAUClass_System_Object@@@Z 02058484 f   sc.obj
 0001:000574b0       ?m_CompareTo@float64@@SIHPANPAUClass_System_Object@@@Z 020584b0 f   sc.obj
 0001:000575f4       ?m_CompareTo@float64@@SIHPAUClass_System_Double@@PAUClass_System_Object@@@Z 020585f4 f   sc.obj
 0001:00057620       ?m_AppMain@Class_Microsoft_Singularity_Applications_ServiceManager_EnableServiceCommand@@SIHPAU1@@Z 02058620 f   sc.obj
 0001:00057890       ?m__ctor@Class_Microsoft_Singularity_Applications_ServiceManager_EnableServiceCommand@@SIXPAU1@@Z 02058890 f   sc.obj
 0001:000579d4       ?g__cctor@Class_Microsoft_Singularity_Applications_ServiceManager_EnableServiceCommand@@SIXXZ 020589d4 f   sc.obj
 0001:00057a44       ?m_set$_Capacity@Class_System_Collections_SortedList@@SIXPAU1@H@Z 02058a44 f   sc.obj
 0001:00057b60       ?m_Insert@Class_System_Collections_SortedList@@SIXPAU1@HPAUClass_System_Object@@1@Z 02058b60 f   sc.obj
 0001:00057c64       ?m_IndexOfKey@Class_System_Collections_SortedList@@SIHPAU1@PAUClass_System_Object@@@Z 02058c64 f   sc.obj
 0001:00057d08       ?m_get$_Item@Class_System_Collections_SortedList@@SIPAUClass_System_Object@@PAU1@PAU2@@Z 02058d08 f   sc.obj
 0001:00057d68       ?m_EnsureCapacity@Class_System_Collections_SortedList@@SIXPAU1@H@Z 02058d68 f   sc.obj
 0001:00057dc8       ?m_Add@Class_System_Collections_SortedList@@SIXPAU1@PAUClass_System_Object@@1@Z 02058dc8 f   sc.obj
 0001:00057eb0       ?m__ctor@Class_System_Collections_SortedList@@SIXPAU1@@Z 02058eb0 f   sc.obj
 0001:00057f18       ?m_VisitObjects@Class_System_GCs_MarkSweepCollector@@SIXPAU1@PAUClass_System_GCs_ObjectLayout_ObjectVisitor@@PAUuintPtr@@2@Z 02058f18 f   sc.obj
 0001:000588c0       ?m_VerifyHeap@Class_System_GCs_MarkSweepCollector@@SIXPAU1@_N@Z 020598c0 f   sc.obj
 0001:000588ec       ?m_NewThreadNotification@Class_System_GCs_MarkSweepCollector@@SIXPAU1@PAUClass_System_Threading_Thread@@_N@Z 020598ec f   sc.obj
 0001:00058928       ?g_IsPossiblyObject@Class_System_GCs_MarkSweepCollector@@SI_NPAUClass_System_Object@@@Z 02059928 f   sc.obj
 0001:00058a14       ?g_Initialize@Class_System_GCs_MarkSweepCollector@@SIXXZ 02059a14 f   sc.obj
 0001:00058b30       ?m_get$_TotalMemory@Class_System_GCs_MarkSweepCollector@@SI_JPAU1@@Z 02059b30 f   sc.obj
 0001:00058b54       ?m_get$_MinGeneration@Class_System_GCs_MarkSweepCollector@@SIHPAU1@@Z 02059b54 f   sc.obj
 0001:00058b74       ?m_get$_MaxGeneration@Class_System_GCs_MarkSweepCollector@@SIHPAU1@@Z 02059b74 f   sc.obj
 0001:00058b94       ?m_get$_IsOnTheFlyCollector@Class_System_GCs_MarkSweepCollector@@SI_NPAU1@@Z 02059b94 f   sc.obj
 0001:00058bb0       ?m_FindObjectAddr@Class_System_GCs_MarkSweepCollector@@SIPAUuintPtr@@PAU1@PAU2@@Z 02059bb0 f   sc.obj
 0001:00058bd4       ?m_EnableHeap@Class_System_GCs_MarkSweepCollector@@SIXPAU1@@Z 02059bd4 f   sc.obj
 0001:00058bf0       ?m_DestructHeap@Class_System_GCs_MarkSweepCollector@@SIXPAU1@@Z 02059bf0 f   sc.obj
 0001:00058d20       ?m_DeadThreadNotification@Class_System_GCs_MarkSweepCollector@@SIXPAU1@PAUClass_System_Threading_Thread@@@Z 02059d20 f   sc.obj
 0001:00058d50       ?m_CreateObject@Class_System_GCs_MarkSweepCollector@@SIXPAU1@PAUClass_System_Object@@PAUClass_System_VTable@@PAUClass_System_Threading_Thread@@@Z 02059d50 f   sc.obj
 0001:00058d98       ?m_CollectStopped@Class_System_GCs_MarkSweepCollector@@SIXPAU1@HH@Z 02059d98 f   sc.obj
 0001:00059b3c       ?m_AllocateObjectMemorySlow@Class_System_GCs_MarkSweepCollector@@SIPAUuintPtr@@PAU1@PAU2@IPAUClass_System_Threading_Thread@@@Z 0205ab3c f   sc.obj
 0001:00059bd4       ?m_AllocateObjectMemory@Class_System_GCs_MarkSweepCollector@@SIPAUuintPtr@@PAU1@PAU2@IPAUClass_System_Threading_Thread@@@Z 0205abd4 f   sc.obj
 0001:00059fa0       ?m__ctor@Class_System_GCs_MarkSweepCollector@@SIXPAU1@@Z 0205afa0 f   sc.obj
 0001:00059fc4       ?m_ThreadDormantGCNotification@Class_System_GCs_StopTheWorldCollector@@SIXPAU1@H@Z 0205afc4 f   sc.obj
 0001:0005a00c       ?m_StopTheWorld@Class_System_GCs_StopTheWorldCollector@@SIXPAU1@@Z 0205b00c f   sc.obj
 0001:0005a0d4       ?g_set$_CurrentPhase@Class_System_GCs_StopTheWorldCollector@@SIXUStruct_System_GCs_StopTheWorldPhase@@@Z 0205b0d4 f   sc.obj
 0001:0005a0f8       ?g_set$_collectorThreadIndex@Class_System_GCs_StopTheWorldCollector@@SIXH@Z 0205b0f8 f   sc.obj
 0001:0005a11c       ?m_ResumeTheWorld@Class_System_GCs_StopTheWorldCollector@@SIXPAU1@@Z 0205b11c f   sc.obj
 0001:0005a160       ?m_PerformCollection@Class_System_GCs_StopTheWorldCollector@@SIXPAU1@HH@Z 0205b160 f   sc.obj
 0001:0005a800       ?m_NewThreadNotification@Class_System_GCs_StopTheWorldCollector@@SIXPAU1@PAUClass_System_Threading_Thread@@_N@Z 0205b800 f   sc.obj
 0001:0005a8dc       ?g_Initialize@Class_System_GCs_StopTheWorldCollector@@SIXXZ 0205b8dc f   sc.obj
 0001:0005a904       ?m_get$_IsOnTheFlyCollector@Class_System_GCs_StopTheWorldCollector@@SI_NPAU1@@Z 0205b904 f   sc.obj
 0001:0005a920       ?g_get$_CurrentPhase@Class_System_GCs_StopTheWorldCollector@@SI?AUStruct_System_GCs_StopTheWorldPhase@@XZ 0205b920 f   sc.obj
 0001:0005a938       ?g_get$_collectorThreadIndex@Class_System_GCs_StopTheWorldCollector@@SIHXZ 0205b938 f   sc.obj
 0001:0005a950       ?m_EnableHeap@Class_System_GCs_StopTheWorldCollector@@SIXPAU1@@Z 0205b950 f   sc.obj
 0001:0005a994       ?m_DeadThreadNotification@Class_System_GCs_StopTheWorldCollector@@SIXPAU1@PAUClass_System_Threading_Thread@@@Z 0205b994 f   sc.obj
 0001:0005a9c4       ?m_CollectStoppable@Class_System_GCs_StopTheWorldCollector@@SIXPAU1@HH@Z 0205b9c4 f   sc.obj
 0001:0005af7c       ?m_Collect@Class_System_GCs_StopTheWorldCollector@@SIXPAU1@PAUClass_System_Threading_Thread@@H@Z 0205bf7c f   sc.obj
 0001:0005afe4       ?m_CheckForNeededGCWork@Class_System_GCs_StopTheWorldCollector@@SIXPAU1@PAUClass_System_Threading_Thread@@@Z 0205bfe4 f   sc.obj
 0001:0005b038       ?m__ctor@Class_System_GCs_StopTheWorldCollector@@SIXPAU1@@Z 0205c038 f   sc.obj
 0001:0005b05c       ?g_VisitSmallObjects@Struct_System_GCs_SegregatedFreeList@@SIXPAUuintPtr@@PAUClass_System_GCs_SegregatedFreeList_ObjectVisitor@@@Z 0205c05c f   sc.obj
 0001:0005b640       ?g_VisitObjects@Struct_System_GCs_SegregatedFreeList@@SIXPAUuintPtr@@0PAUClass_System_GCs_SegregatedFreeList_ObjectVisitor@@@Z 0205c640 f   sc.obj
 0001:0005bdb4       ?g_VisitObjects@Struct_System_GCs_SegregatedFreeList@@SIXPAUuintPtr@@0PAUClass_System_GCs_ObjectLayout_ObjectVisitor@@@Z 0205cdb4 f   sc.obj
 0001:0005c57c       ?g_VisitLargeObject@Struct_System_GCs_SegregatedFreeList@@SIPAUuintPtr@@PAU2@PAUClass_System_GCs_SegregatedFreeList_ObjectVisitor@@@Z 0205d57c f   sc.obj
 0001:0005c828       ?g_VisitAllObjects@Struct_System_GCs_SegregatedFreeList@@SIXPAUClass_System_GCs_SegregatedFreeList_ObjectVisitor@@@Z 0205d828 f   sc.obj
 0001:0005cfc0       ?g_VerifySimpleList@Struct_System_GCs_SegregatedFreeList@@SIPAUStruct_System_GCs_SegregatedFreeList_PageHeader@@PAU2@@Z 0205dfc0 f   sc.obj
 0001:0005d0a4       ?g_SubSmallPage@Struct_System_GCs_SegregatedFreeList@@SIXPAUStruct_System_GCs_SegregatedFreeList_PageHeader@@@Z 0205e0a4 f   sc.obj
 0001:0005d150       ?g_SubSmallBytes@Struct_System_GCs_SegregatedFreeList@@SIXPAUuintPtr@@@Z 0205e150 f   sc.obj
 0001:0005d17c       ?g_SubLargePages@Struct_System_GCs_SegregatedFreeList@@SIXPAUuintPtr@@@Z 0205e17c f   sc.obj
 0001:0005d1a8       ?m_StructCopy@Struct_System_GCs_SegregatedFreeList@@SIXPAU1@0@Z 0205e1a8 f   sc.obj
 0001:0005d1dc       ?m_StructCopy@Struct_System_GCs_SegregatedFreeList@@SIXPAU1@PAU1@@Z 0205e1dc f   sc.obj
 0001:0005d278       ?g_SplitList@Struct_System_GCs_SegregatedFreeList@@SI_NPAUStruct_System_GCs_SegregatedFreeList_PageHeader@@HHPAUClass_System_GCs_SegregatedFreeList_PartialFreePageVisitor@@PAUStruct_System_GCs_SegregatedFreeList_PageSeparation@@@Z 0205e278 f   sc.obj
 0001:0005d718       ?m_ReleaseLocalPage@Struct_System_GCs_SegregatedFreeList@@SIXPAU1@I@Z 0205e718 f   sc.obj
 0001:0005d8ec       ?g_RecycleGlobalPagesPhase2@Struct_System_GCs_SegregatedFreeList@@SIXPAUClass_System_GCs_SegregatedFreeList_PartialFreePageVisitor@@@Z 0205e8ec f   sc.obj
 0001:0005dca8       ?g_RecycleGlobalPagesPhase2@Struct_System_GCs_SegregatedFreeList@@SIXXZ 0205eca8 f   sc.obj
 0001:0005dcc8       ?g_RecycleGlobalPagesPhase1@Struct_System_GCs_SegregatedFreeList@@SIXPAUClass_System_GCs_SegregatedFreeList_PartialFreePageVisitor@@@Z 0205ecc8 f   sc.obj
 0001:0005def0       ?g_RecycleGlobalPagesPhase1@Struct_System_GCs_SegregatedFreeList@@SIXXZ 0205eef0 f   sc.obj
 0001:0005df10       ?g_RecycleGlobalPages@Struct_System_GCs_SegregatedFreeList@@SIXXZ 0205ef10 f   sc.obj
 0001:0005df30       ?g_NewThreadNotification@Struct_System_GCs_SegregatedFreeList@@SIXPAUClass_System_Threading_Thread@@_N@Z 0205ef30 f   sc.obj
 0001:0005e010       ?m_NewLocalPage@Struct_System_GCs_SegregatedFreeList@@SIPAUStruct_System_GCs_SegregatedFreeList_PageHeader@@PAU1@IPAUClass_System_Threading_Thread@@@Z 0205f010 f   sc.obj
 0001:0005e394       ?g_MixinThread@Struct_System_GCs_SegregatedFreeList@@SIPAUClass_System_Threading_Thread@@PAU2@@Z 0205f394 f   sc.obj
 0001:0005e3b0       ?g_Initialize@Struct_System_GCs_SegregatedFreeList@@SIXXZ 0205f3b0 f   sc.obj
 0001:0005e480       ?g_GetSizeClass@Struct_System_GCs_SegregatedFreeList@@SIIPAUuintPtr@@@Z 0205f480 f   sc.obj
 0001:0005e510       ?m_GetLocalPage@Struct_System_GCs_SegregatedFreeList@@SIPAUStruct_System_GCs_SegregatedFreeList_PageHeader@@PAU1@IPAUClass_System_Threading_Thread@@@Z 0205f510 f   sc.obj
 0001:0005e598       ?g_GetCellSize@Struct_System_GCs_SegregatedFreeList@@SIII@Z 0205f598 f   sc.obj
 0001:0005e640       ?g_get$_TotalBytes@Struct_System_GCs_SegregatedFreeList@@SIPAUuintPtr@@XZ 0205f640 f   sc.obj
 0001:0005e670       ?g_get$_SIZE$_CLASSES@Struct_System_GCs_SegregatedFreeList@@SIIXZ 0205f670 f   sc.obj
 0001:0005e694       ?g_get$_LazyMemClear@Struct_System_GCs_SegregatedFreeList@@SI_NXZ 0205f694 f   sc.obj
 0001:0005e6ac       ?g_get$_LargeBytes@Struct_System_GCs_SegregatedFreeList@@SIPAUuintPtr@@XZ 0205f6ac f   sc.obj
 0001:0005e6e8       ?g_get$_LARGE$_OBJECT$_THRESHOLD@Struct_System_GCs_SegregatedFreeList@@SIPAUuintPtr@@XZ 0205f6e8 f   sc.obj
 0001:0005e708       ?g_get$_fVerifyLists@Struct_System_GCs_SegregatedFreeList@@SI_NXZ 0205f708 f   sc.obj
 0001:0005e720       ?g_get$_EagerMemClear@Struct_System_GCs_SegregatedFreeList@@SI_NXZ 0205f720 f   sc.obj
 0001:0005e738       ?g_get$_BLOCK$_SIZE@Struct_System_GCs_SegregatedFreeList@@SIHXZ 0205f738 f   sc.obj
 0001:0005e75c       ?g_FreeSmallList@Struct_System_GCs_SegregatedFreeList@@SIXPAUStruct_System_GCs_SegregatedFreeList_TempList@@@Z 0205f75c f   sc.obj
 0001:0005e920       ?g_FreeListContains@Struct_System_GCs_SegregatedFreeList@@SI_NPAUuintPtr@@0@Z 0205f920 f   sc.obj
 0001:0005e970       ?g_FreeLarge@Struct_System_GCs_SegregatedFreeList@@SIXPAUClass_System_Object@@@Z 0205f970 f   sc.obj
 0001:0005ed7c       ?g_FindSmallCell@Struct_System_GCs_SegregatedFreeList@@SIPAUuintPtr@@PAU2@@Z 0205fd7c f   sc.obj
 0001:0005ee8c       ?g_FindSmall@Struct_System_GCs_SegregatedFreeList@@SIPAUuintPtr@@PAU2@@Z 0205fe8c f   sc.obj
 0001:0005ef50       ?g_FindLarge@Struct_System_GCs_SegregatedFreeList@@SIPAUuintPtr@@PAU2@@Z 0205ff50 f   sc.obj
 0001:0005f1d4       ?g_Find@Struct_System_GCs_SegregatedFreeList@@SIPAUuintPtr@@PAU2@@Z 020601d4 f   sc.obj
 0001:0005f2f4       ?m_Equals@Struct_System_GCs_SegregatedFreeList@@SI_NPAU1@PAUClass_System_Object@@@Z 020602f4 f   sc.obj
 0001:0005f35c       ?m_Equals@Struct_System_GCs_SegregatedFreeList@@SI_NPAUClass_System_GCs_SegregatedFreeList@@PAUClass_System_Object@@@Z 0206035c f   sc.obj
 0001:0005f388       ?g_DoLazyMemClear@Struct_System_GCs_SegregatedFreeList@@SIXPAUuintPtr@@I@Z 02060388 f   sc.obj
 0001:0005f3cc       ?g_DeadThreadNotification@Struct_System_GCs_SegregatedFreeList@@SIXPAUClass_System_Threading_Thread@@@Z 020603cc f   sc.obj
 0001:0005f464       ?g_CountListElements@Struct_System_GCs_SegregatedFreeList@@SIHPAUuintPtr@@@Z 02060464 f   sc.obj
 0001:0005f59c       ?g_CompilerAllocateMarkSweep@Struct_System_GCs_SegregatedFreeList@@SIPAUClass_System_Object@@PAUClass_System_VTable@@PAUClass_System_Threading_Thread@@PAUuintPtr@@I@Z 0206059c f   sc.obj
 0001:0005f8e8       ?g_CommitFreedData@Struct_System_GCs_SegregatedFreeList@@SIXXZ 020608e8 f   sc.obj
 0001:0005f950       ?g_AtomicSwitchChains@Struct_System_GCs_SegregatedFreeList@@SIPAUStruct_System_GCs_SegregatedFreeList_PageHeader@@PAPAUuintPtr@@PAU2@@Z 02060950 f   sc.obj
 0001:0005f974       ?g_AtomicPushIncrementList@Struct_System_GCs_SegregatedFreeList@@SIXPAPAUuintPtr@@UStruct_System_GCs_SegregatedFreeList_PageHeaderList@@@Z 02060974 f   sc.obj
 0001:0005fa10       ?g_AtomicPushDecrementList@Struct_System_GCs_SegregatedFreeList@@SIPAUStruct_System_GCs_SegregatedFreeList_PageHeader@@PAPAUuintPtr@@UStruct_System_GCs_SegregatedFreeList_PageHeaderList@@@Z 02060a10 f   sc.obj
 0001:0005faac       ?g_AtomicPush@Struct_System_GCs_SegregatedFreeList@@SIXPAPAUuintPtr@@PAUStruct_System_GCs_SegregatedFreeList_PageHeader@@@Z 02060aac f   sc.obj
 0001:0005fb0c       ?g_AtomicPopChain@Struct_System_GCs_SegregatedFreeList@@SIPAUStruct_System_GCs_SegregatedFreeList_PageHeader@@PAPAUuintPtr@@@Z 02060b0c f   sc.obj
 0001:0005fb30       ?g_AtomicPop@Struct_System_GCs_SegregatedFreeList@@SIPAUStruct_System_GCs_SegregatedFreeList_PageHeader@@PAPAUuintPtr@@@Z 02060b30 f   sc.obj
 0001:0005fb94       ?g_AtomicAdd@Struct_System_GCs_SegregatedFreeList@@SIXPAHH@Z 02060b94 f   sc.obj
 0001:0005fbec       ?m_AllocateSmallSlow@Struct_System_GCs_SegregatedFreeList@@SIPAUuintPtr@@PAU1@IPAUClass_System_Threading_Thread@@@Z 02060bec f   sc.obj
 0001:0005fe9c       ?m_AllocateSmallFast@Struct_System_GCs_SegregatedFreeList@@SIPAUuintPtr@@PAU1@I@Z 02060e9c f   sc.obj
 0001:0005ff00       ?m_AllocateSmall@Struct_System_GCs_SegregatedFreeList@@SIPAUuintPtr@@PAU1@IPAUClass_System_Threading_Thread@@@Z 02060f00 f   sc.obj
 0001:0005ff70       ?m_AllocateSlow@Struct_System_GCs_SegregatedFreeList@@SIPAUuintPtr@@PAU1@PAU2@IPAUClass_System_Threading_Thread@@@Z 02060f70 f   sc.obj
 0001:00060294       ?g_AllocateSlow@Struct_System_GCs_SegregatedFreeList@@SIPAUuintPtr@@PAUClass_System_Threading_Thread@@PAU2@I@Z 02061294 f   sc.obj
 0001:000602e8       ?g_AllocateLarge@Struct_System_GCs_SegregatedFreeList@@SIPAUuintPtr@@IPAU2@PAUClass_System_Threading_Thread@@@Z 020612e8 f   sc.obj
 0001:00060944       ?m_AllocateFast@Struct_System_GCs_SegregatedFreeList@@SIPAUuintPtr@@PAU1@PAU2@I@Z 02061944 f   sc.obj
 0001:00060c6c       ?g_AllocateFast@Struct_System_GCs_SegregatedFreeList@@SIPAUuintPtr@@PAUClass_System_Threading_Thread@@PAU2@I@Z 02061c6c f   sc.obj
 0001:00060ff8       ?g_AddSmallPage@Struct_System_GCs_SegregatedFreeList@@SIXPAUStruct_System_GCs_SegregatedFreeList_PageHeader@@@Z 02061ff8 f   sc.obj
 0001:000610ac       ?g_AddSmallBytes@Struct_System_GCs_SegregatedFreeList@@SIXPAUuintPtr@@@Z 020620ac f   sc.obj
 0001:000610e0       ?g_AddLargePages@Struct_System_GCs_SegregatedFreeList@@SIXPAUuintPtr@@@Z 020620e0 f   sc.obj
 0001:0006113c       ?m_StructCopy@Struct_Microsoft_Singularity_ServiceManager_ServiceManagerContract_StartServiceNoWait@@SIXPAU1@0@Z 0206213c f   sc.obj
 0001:00061158       ?m_StructCopy@Struct_Microsoft_Singularity_ServiceManager_ServiceManagerContract_StartServiceNoWait@@SIXPAU1@PAU1@@Z 02062158 f   sc.obj
 0001:000611ac       ?m_MarshallContent@Struct_Microsoft_Singularity_ServiceManager_ServiceManagerContract_StartServiceNoWait@@SIXPAU1@PAEPAUStruct_Microsoft_Singularity_Channels_Endpoint@@1PAH@Z 020621ac f   sc.obj
 0001:000611cc       ?m_MarshallAll@Struct_Microsoft_Singularity_ServiceManager_ServiceManagerContract_StartServiceNoWait@@SIXPAU1@PAEPAUStruct_Microsoft_Singularity_Channels_Endpoint@@PAH@Z 020621cc f   sc.obj
 0001:00061224       ?m_Equals@Struct_Microsoft_Singularity_ServiceManager_ServiceManagerContract_StartServiceNoWait@@SI_NPAU1@PAUClass_System_Object@@@Z 02062224 f   sc.obj
 0001:0006125c       ?m_Equals@Struct_Microsoft_Singularity_ServiceManager_ServiceManagerContract_StartServiceNoWait@@SI_NPAUClass_Microsoft_Singularity_ServiceManager_ServiceManagerContract_StartServiceNoWait@@PAUClass_System_Object@@@Z 0206225c f   sc.obj
 0001:00061288       ?m_VerifyTailedList@Struct_System_GCs_SegregatedFreeList_PageHeaderList@@SIXPAU1@@Z 02062288 f   sc.obj
 0001:0006132c       ?m_StructCopy@Struct_System_GCs_SegregatedFreeList_PageHeaderList@@SIXPAU1@0@Z 0206232c f   sc.obj
 0001:00061360       ?m_StructCopy@Struct_System_GCs_SegregatedFreeList_PageHeaderList@@SIXPAU1@PAU1@@Z 02062360 f   sc.obj
 0001:000613fc       ?m_RemoveHead@Struct_System_GCs_SegregatedFreeList_PageHeaderList@@SIPAUStruct_System_GCs_SegregatedFreeList_PageHeader@@PAU1@@Z 020623fc f   sc.obj
 0001:00061434       ?m_get$_IsEmpty@Struct_System_GCs_SegregatedFreeList_PageHeaderList@@SI_NPAU1@@Z 02062434 f   sc.obj
 0001:00061458       ?m_Equals@Struct_System_GCs_SegregatedFreeList_PageHeaderList@@SI_NPAU1@PAUClass_System_Object@@@Z 02062458 f   sc.obj
 0001:000614b4       ?m_Equals@Struct_System_GCs_SegregatedFreeList_PageHeaderList@@SI_NPAUClass_System_GCs_SegregatedFreeList_PageHeaderList@@PAUClass_System_Object@@@Z 020624b4 f   sc.obj
 0001:000614e0       ?m_Append@Struct_System_GCs_SegregatedFreeList_PageHeaderList@@SIXPAU1@PAUStruct_System_GCs_SegregatedFreeList_PageHeader@@@Z 020624e0 f   sc.obj
 0001:00061550       ?m_Append@Struct_System_GCs_SegregatedFreeList_PageHeaderList@@SIXPAU1@U1@@Z 02062550 f   sc.obj
 0001:000615b4       ?m_StructCopy@Struct_Microsoft_Singularity_ServiceManager_ServiceManagerContract_EnableService@@SIXPAU1@0@Z 020625b4 f   sc.obj
 0001:000615dc       ?m_StructCopy@Struct_Microsoft_Singularity_ServiceManager_ServiceManagerContract_EnableService@@SIXPAU1@PAU1@@Z 020625dc f   sc.obj
 0001:00061654       ?m_MarshallContent@Struct_Microsoft_Singularity_ServiceManager_ServiceManagerContract_EnableService@@SIXPAU1@PAEPAUStruct_Microsoft_Singularity_Channels_Endpoint@@1PAH@Z 02062654 f   sc.obj
 0001:00061674       ?m_MarshallAll@Struct_Microsoft_Singularity_ServiceManager_ServiceManagerContract_EnableService@@SIXPAU1@PAEPAUStruct_Microsoft_Singularity_Channels_Endpoint@@PAH@Z 02062674 f   sc.obj
 0001:000616cc       ?m_Equals@Struct_Microsoft_Singularity_ServiceManager_ServiceManagerContract_EnableService@@SI_NPAU1@PAUClass_System_Object@@@Z 020626cc f   sc.obj
 0001:00061714       ?m_Equals@Struct_Microsoft_Singularity_ServiceManager_ServiceManagerContract_EnableService@@SI_NPAUClass_Microsoft_Singularity_ServiceManager_ServiceManagerContract_EnableService@@PAUClass_System_Object@@@Z 02062714 f   sc.obj
 0001:00061740       ?m_StructCopy@Struct_Microsoft_Singularity_Directory_DirectoryServiceContract_NakCreateLinkReparse@@SIXPAU1@0@Z 02062740 f   sc.obj
 0001:00061780       ?m_StructCopy@Struct_Microsoft_Singularity_Directory_DirectoryServiceContract_NakCreateLinkReparse@@SIXPAU1@PAU1@@Z 02062780 f   sc.obj
 0001:00061840       ?m_Equals@Struct_Microsoft_Singularity_Directory_DirectoryServiceContract_NakCreateLinkReparse@@SI_NPAU1@PAUClass_System_Object@@@Z 02062840 f   sc.obj
 0001:000618a8       ?m_Equals@Struct_Microsoft_Singularity_Directory_DirectoryServiceContract_NakCreateLinkReparse@@SI_NPAUClass_Microsoft_Singularity_Directory_DirectoryServiceContract_NakCreateLinkReparse@@PAUClass_System_Object@@@Z 020628a8 f   sc.obj
 0001:000618d4       ?g_UncheckedCopyUInt8Up@Class_System_ArrayHelper@@SIXPAUClassVector_uint8@@H0HH@Z 020628d4 f   sc.obj
 0001:00061980       ?g_UncheckedCopyUInt8Down@Class_System_ArrayHelper@@SIXPAUClassVector_uint8@@H0HH@Z 02062980 f   sc.obj
 0001:00061a44       ?g_UncheckedCopyUInt64Up@Class_System_ArrayHelper@@SIXPAUClassVector_uint64@@H0HH@Z 02062a44 f   sc.obj
 0001:00061b0c       ?g_UncheckedCopyUInt64Down@Class_System_ArrayHelper@@SIXPAUClassVector_uint64@@H0HH@Z 02062b0c f   sc.obj
 0001:00061bec       ?g_UncheckedCopyUInt32Down@Class_System_ArrayHelper@@SIXPAUClassVector_uint32@@H0HH@Z 02062bec f   sc.obj
 0001:00061cb0       ?g_UncheckedCopyUInt16Up@Class_System_ArrayHelper@@SIXPAUClassVector_uint16@@H0HH@Z 02062cb0 f   sc.obj
 0001:00061d60       ?g_UncheckedCopyUInt16Down@Class_System_ArrayHelper@@SIXPAUClassVector_uint16@@H0HH@Z 02062d60 f   sc.obj
 0001:00061e28       ?g_UncheckedCopyInt8Up@Class_System_ArrayHelper@@SIXPAUClassVector_int8@@H0HH@Z 02062e28 f   sc.obj
 0001:00061ed4       ?g_UncheckedCopyInt8Down@Class_System_ArrayHelper@@SIXPAUClassVector_int8@@H0HH@Z 02062ed4 f   sc.obj
 0001:00061f98       ?g_UncheckedCopyInt64Up@Class_System_ArrayHelper@@SIXPAUClassVector_int64@@H0HH@Z 02062f98 f   sc.obj
 0001:00062060       ?g_UncheckedCopyInt64Down@Class_System_ArrayHelper@@SIXPAUClassVector_int64@@H0HH@Z 02063060 f   sc.obj
 0001:00062140       ?g_UncheckedCopyInt32Down@Class_System_ArrayHelper@@SIXPAUClassVector_int32@@H0HH@Z 02063140 f   sc.obj
 0001:00062204       ?g_UncheckedCopyInt16Up@Class_System_ArrayHelper@@SIXPAUClassVector_int16@@H0HH@Z 02063204 f   sc.obj
 0001:000622b4       ?g_UncheckedCopyInt16Down@Class_System_ArrayHelper@@SIXPAUClassVector_int16@@H0HH@Z 020632b4 f   sc.obj
 0001:0006237c       ?g_UncheckedCopyFloat64Up@Class_System_ArrayHelper@@SIXPAUClassVector_float64@@H0HH@Z 0206337c f   sc.obj
 0001:00062428       ?g_UncheckedCopyFloat64Down@Class_System_ArrayHelper@@SIXPAUClassVector_float64@@H0HH@Z 02063428 f   sc.obj
 0001:000624ec       ?g_UncheckedCopyFloat32Up@Class_System_ArrayHelper@@SIXPAUClassVector_float32@@H0HH@Z 020634ec f   sc.obj
 0001:00062598       ?g_UncheckedCopyFloat32Down@Class_System_ArrayHelper@@SIXPAUClassVector_float32@@H0HH@Z 02063598 f   sc.obj
 0001:0006265c       ?g_UncheckedCopyCharUp@Class_System_ArrayHelper@@SIXPAUClassVector_bartok_char@@H0HH@Z 0206365c f   sc.obj
 0001:0006270c       ?g_UncheckedCopyCharDown@Class_System_ArrayHelper@@SIXPAUClassVector_bartok_char@@H0HH@Z 0206370c f   sc.obj
 0001:000627d4       ?g_UncheckedCopyBoolUp@Class_System_ArrayHelper@@SIXPAUClassVector_bool@@H0HH@Z 020637d4 f   sc.obj
 0001:00062880       ?g_UncheckedCopyBoolDown@Class_System_ArrayHelper@@SIXPAUClassVector_bool@@H0HH@Z 02063880 f   sc.obj
 0001:00062944       ?g_CopyUInt8Up@Class_System_ArrayHelper@@SIXPAUClassVector_uint8@@H0HH@Z 02063944 f   sc.obj
 0001:000629f0       ?g_CopyUInt8Down@Class_System_ArrayHelper@@SIXPAUClassVector_uint8@@H0HH@Z 020639f0 f   sc.obj
 0001:00062ab4       ?g_CopyUInt64Up@Class_System_ArrayHelper@@SIXPAUClassVector_uint64@@H0HH@Z 02063ab4 f   sc.obj
 0001:00062b7c       ?g_CopyUInt64Down@Class_System_ArrayHelper@@SIXPAUClassVector_uint64@@H0HH@Z 02063b7c f   sc.obj
 0001:00062c5c       ?g_CopyUInt32Up@Class_System_ArrayHelper@@SIXPAUClassVector_uint32@@H0HH@Z 02063c5c f   sc.obj
 0001:00062d08       ?g_CopyUInt32Down@Class_System_ArrayHelper@@SIXPAUClassVector_uint32@@H0HH@Z 02063d08 f   sc.obj
 0001:00062dcc       ?g_CopyUInt16Up@Class_System_ArrayHelper@@SIXPAUClassVector_uint16@@H0HH@Z 02063dcc f   sc.obj
 0001:00062e7c       ?g_CopyUInt16Down@Class_System_ArrayHelper@@SIXPAUClassVector_uint16@@H0HH@Z 02063e7c f   sc.obj
 0001:00062f44       ?g_CopyInt8Up@Class_System_ArrayHelper@@SIXPAUClassVector_int8@@H0HH@Z 02063f44 f   sc.obj
 0001:00062ff0       ?g_CopyInt8Down@Class_System_ArrayHelper@@SIXPAUClassVector_int8@@H0HH@Z 02063ff0 f   sc.obj
 0001:000630b4       ?g_CopyInt64Up@Class_System_ArrayHelper@@SIXPAUClassVector_int64@@H0HH@Z 020640b4 f   sc.obj
 0001:0006317c       ?g_CopyInt64Down@Class_System_ArrayHelper@@SIXPAUClassVector_int64@@H0HH@Z 0206417c f   sc.obj
 0001:0006325c       ?g_CopyInt32Up@Class_System_ArrayHelper@@SIXPAUClassVector_int32@@H0HH@Z 0206425c f   sc.obj
 0001:00063308       ?g_CopyInt32Down@Class_System_ArrayHelper@@SIXPAUClassVector_int32@@H0HH@Z 02064308 f   sc.obj
 0001:000633cc       ?g_CopyInt16Up@Class_System_ArrayHelper@@SIXPAUClassVector_int16@@H0HH@Z 020643cc f   sc.obj
 0001:0006347c       ?g_CopyInt16Down@Class_System_ArrayHelper@@SIXPAUClassVector_int16@@H0HH@Z 0206447c f   sc.obj
 0001:00063544       ?g_CopyFloat64Up@Class_System_ArrayHelper@@SIXPAUClassVector_float64@@H0HH@Z 02064544 f   sc.obj
 0001:000635f0       ?g_CopyFloat64Down@Class_System_ArrayHelper@@SIXPAUClassVector_float64@@H0HH@Z 020645f0 f   sc.obj
 0001:000636b4       ?g_CopyFloat32Up@Class_System_ArrayHelper@@SIXPAUClassVector_float32@@H0HH@Z 020646b4 f   sc.obj
 0001:00063760       ?g_CopyFloat32Down@Class_System_ArrayHelper@@SIXPAUClassVector_float32@@H0HH@Z 02064760 f   sc.obj
 0001:00063824       ?g_CopyCharUp@Class_System_ArrayHelper@@SIXPAUClassVector_bartok_char@@H0HH@Z 02064824 f   sc.obj
 0001:000638d4       ?g_CopyCharDown@Class_System_ArrayHelper@@SIXPAUClassVector_bartok_char@@H0HH@Z 020648d4 f   sc.obj
 0001:0006399c       ?g_CopyBoolUp@Class_System_ArrayHelper@@SIXPAUClassVector_bool@@H0HH@Z 0206499c f   sc.obj
 0001:00063a48       ?g_CopyBoolDown@Class_System_ArrayHelper@@SIXPAUClassVector_bool@@H0HH@Z 02064a48 f   sc.obj
 0001:00063b0c       ?m__ctor@Class_System_ArrayHelper@@SIXPAU1@@Z 02064b0c f   sc.obj
 0001:00063b28       ?m__ctor@Class_System_Reflection_Assembly@@SIXPAU1@@Z 02064b28 f   sc.obj
 0001:00063b44       ?g__cctor@Class_System_Reflection_Assembly@@SIXXZ 02064b44 f   sc.obj
 0001:00063b58       ?m_set$_Target@Class_System_EMU@@SIXPAU1@PAUClass_System_Object@@@Z 02064b58 f   sc.obj
 0001:00063b9c       ?m_set$_NextShadow@Class_System_EMU@@SIXPAU1@0@Z 02064b9c f   sc.obj
 0001:00063bc4       ?m_set$_Monitor@Class_System_EMU@@SIXPAU1@PAUClass_System_Threading_Monitor@@@Z 02064bc4 f   sc.obj
 0001:00063bec       ?m_set$_HashCode@Class_System_EMU@@SIXPAU1@H@Z 02064bec f   sc.obj
 0001:00063c14       ?m_Register@Class_System_EMU@@SIXPAU1@@Z 02064c14 f   sc.obj
 0001:00063c9c       ?m_IsMonitor@Class_System_EMU@@SI_NPAU1@@Z 02064c9c f   sc.obj
 0001:00063cc4       ?m_get$_Target@Class_System_EMU@@SIPAUClass_System_Object@@PAU1@@Z 02064cc4 f   sc.obj
 0001:00063d08       ?m_get$_NextShadow@Class_System_EMU@@SIPAU1@PAU1@@Z 02064d08 f   sc.obj
 0001:00063d2c       ?m_get$_Next@Class_System_EMU@@SIPAU1@PAU1@@Z 02064d2c f   sc.obj
 0001:00063d50       ?m_get$_Monitor@Class_System_EMU@@SIPAUClass_System_Threading_Monitor@@PAU1@@Z 02064d50 f   sc.obj
 0001:00063d88       ?m_get$_HashCode@Class_System_EMU@@SIHPAU1@@Z 02064d88 f   sc.obj
 0001:00063da8       ?g_FromAddress@Class_System_EMU@@SIPAU1@PAUuintPtr@@@Z 02064da8 f   sc.obj
 0001:00063dc4       ?m__ctor@Class_System_EMU@@SIXPAU1@@Z 02064dc4 f   sc.obj
 0001:00063de0       ?m_InvokeStaticStub@Class_System_GCs_ProfileRootsDelegate@@SIXPAU1@PAUClass_System_GCs_NonNullReferenceVisitor@@@Z 02064de0 f   sc.obj
 0001:00063e10       ?m_Invoke@Class_System_GCs_ProfileRootsDelegate@@SIXPAU1@PAUClass_System_GCs_NonNullReferenceVisitor@@@Z 02064e10 f   sc.obj
 0001:00063e6c       ?m_EndInvoke@Class_System_GCs_ProfileRootsDelegate@@SIXPAU1@PAUClass_System_IAsyncResult@@@Z 02064e6c f   sc.obj
 0001:00063e88       ?m_BeginInvoke@Class_System_GCs_ProfileRootsDelegate@@SIPAUClass_System_IAsyncResult@@PAU1@PAUClass_System_GCs_NonNullReferenceVisitor@@PAUClass_System_AsyncCallback@@PAUClass_System_Object@@@Z 02064e88 f   sc.obj
 0001:00063ea8       ?m__ctor@Class_System_GCs_ProfileRootsDelegate@@SIXPAU1@PAUClass_System_Object@@PAUintPtr@@@Z 02064ea8 f   sc.obj
 0001:00063f0c       ?g_StableState@Class_Microsoft_Singularity_Directory_NotifyContract@@SIHPAUStruct_Microsoft_Singularity_Channels_StateStack@@@Z 02064f0c f   sc.obj
 0001:00063f68       ?m__ctor@Class_Microsoft_Singularity_Directory_NotifyContract@@SIXPAU1@@Z 02064f68 f   sc.obj
 0001:00063f80       ?m_StructCopy@Struct_Microsoft_Singularity_V1_Threads_ContainerHandle@@SIXPAU1@0@Z 02064f80 f   sc.obj
 0001:00063fa8       ?m_StructCopy@Struct_Microsoft_Singularity_V1_Threads_ContainerHandle@@SIXPAU1@PAU1@@Z 02064fa8 f   sc.obj
 0001:00064020       ?m_Equals@Struct_Microsoft_Singularity_V1_Threads_ContainerHandle@@SI_NPAU1@PAUClass_System_Object@@@Z 02065020 f   sc.obj
 0001:00064068       ?m_Equals@Struct_Microsoft_Singularity_V1_Threads_ContainerHandle@@SI_NPAUClass_Microsoft_Singularity_V1_Threads_ContainerHandle@@PAUClass_System_Object@@@Z 02065068 f   sc.obj
 0001:00064094       ?m_Visit@Class_System_GCs_GCProfiler_OneObjectVisitor@@SIXPAU1@PAPAUuintPtr@@@Z 02065094 f   sc.obj
 0001:000640c0       ?m__ctor@Class_System_GCs_GCProfiler_OneObjectVisitor@@SIXPAU1@PAUClass_System_GCs_GCProfiler@@@Z 020650c0 f   sc.obj
 0001:000640f0       ?m_ScanRoots@Class_System_GCs_GCProfiler@@SIXPAU1@@Z 020650f0 f   sc.obj
 0001:0006411c       ?m_ScanObjects@Class_System_GCs_GCProfiler@@SIXPAU1@@Z 0206511c f   sc.obj
 0001:00064148       ?m_NotifyShutdown@Class_System_GCs_GCProfiler@@SIXPAU1@@Z 02065148 f   sc.obj
 0001:0006416c       ?m_NotifyPreGC@Class_System_GCs_GCProfiler@@SIXPAU1@H@Z 0206516c f   sc.obj
 0001:00064198       ?m_NotifyPostGC@Class_System_GCs_GCProfiler@@SIXPAU1@PAUClass_System_GCs_ProfileRootsDelegate@@PAUClass_System_GCs_ProfileObjectsDelegate@@@Z 02065198 f   sc.obj
 0001:000641d4       ?m_NotifyAllocation@Class_System_GCs_GCProfiler@@SIXPAU1@PAUuintPtr@@PAUClass_System_Type@@1@Z 020651d4 f   sc.obj
 0001:00064208       ?m__ctor@Class_System_GCs_GCProfiler@@SIXPAU1@@Z 02065208 f   sc.obj
 0001:00064278       ?g_StableState@Class_Microsoft_Singularity_Directory_FileContract@@SIHPAUStruct_Microsoft_Singularity_Channels_StateStack@@@Z 02065278 f   sc.obj
 0001:000642f4       ?m__ctor@Class_Microsoft_Singularity_Directory_FileContract@@SIXPAU1@@Z 020652f4 f   sc.obj
 0001:0006430c       ?m_StructCopy@Struct_System_GCs_UnmanagedPageList@@SIXPAU1@0@Z 0206530c f   sc.obj
 0001:00064340       ?m_StructCopy@Struct_System_GCs_UnmanagedPageList@@SIXPAU1@PAU1@@Z 02065340 f   sc.obj
 0001:000643dc       ?g_SetNext@Struct_System_GCs_UnmanagedPageList@@SIXPAUuintPtr@@0@Z 020653dc f   sc.obj
 0001:00064400       ?m_RemoveHead@Struct_System_GCs_UnmanagedPageList@@SIPAUuintPtr@@PAU1@@Z 02065400 f   sc.obj
 0001:0006446c       ?g_ReleaseStandbyPages@Struct_System_GCs_UnmanagedPageList@@SIXXZ 0206546c f   sc.obj
 0001:00064530       ?g_Next@Struct_System_GCs_UnmanagedPageList@@SIPAUuintPtr@@PAU2@@Z 02065530 f   sc.obj
 0001:00064550       ?m_get$_IsEmpty@Struct_System_GCs_UnmanagedPageList@@SI_NPAU1@@Z 02065550 f   sc.obj
 0001:00064574       ?g_FirstPageAddr@Struct_System_GCs_UnmanagedPageList@@SIPAPAUuintPtr@@PAU2@@Z 02065574 f   sc.obj
 0001:00064594       ?m_Equals@Struct_System_GCs_UnmanagedPageList@@SI_NPAU1@PAUClass_System_Object@@@Z 02065594 f   sc.obj
 0001:000645f0       ?m_Equals@Struct_System_GCs_UnmanagedPageList@@SI_NPAUClass_System_GCs_UnmanagedPageList@@PAUClass_System_Object@@@Z 020655f0 f   sc.obj
 0001:0006461c       ?g_EndPageAddr@Struct_System_GCs_UnmanagedPageList@@SIPAPAUuintPtr@@PAU2@@Z 0206561c f   sc.obj
 0001:00064658       ?m_AddHead@Struct_System_GCs_UnmanagedPageList@@SIXPAU1@PAUuintPtr@@@Z 02065658 f   sc.obj
 0001:0006469c       ?m_Release@Class__Directory_Contracts_Microsoft_Singularity_Channels_TRef$_2$LMicrosoft_Singularity_Directory_DirectoryServiceContract_Imp_Microsoft_Singularity_Directory_DirectoryServiceContract_Ready$G@@SIXPAU1@PAUStruct_Microsoft_Singularity_Directory_DirectoryServiceContract_Imp@@@Z 0206569c f   sc.obj
 0001:00064720       ?m_Finalize@Class__Directory_Contracts_Microsoft_Singularity_Channels_TRef$_2$LMicrosoft_Singularity_Directory_DirectoryServiceContract_Imp_Microsoft_Singularity_Directory_DirectoryServiceContract_Ready$G@@SIXPAU1@@Z 02065720 f   sc.obj
 0001:000647ac       ?m_Acquire@Class__Directory_Contracts_Microsoft_Singularity_Channels_TRef$_2$LMicrosoft_Singularity_Directory_DirectoryServiceContract_Imp_Microsoft_Singularity_Directory_DirectoryServiceContract_Ready$G@@SIPAUStruct_Microsoft_Singularity_Directory_DirectoryServiceContract_Imp@@PAU1@@Z 020657ac f   sc.obj
 0001:00064848       ?m__ctor@Class__Directory_Contracts_Microsoft_Singularity_Channels_TRef$_2$LMicrosoft_Singularity_Directory_DirectoryServiceContract_Imp_Microsoft_Singularity_Directory_DirectoryServiceContract_Ready$G@@SIXPAU1@PAUStruct_Microsoft_Singularity_Directory_DirectoryServiceContract_Imp@@@Z 02065848 f   sc.obj
 0001:000648ec       ?m_StructCopy@Struct_Microsoft_Singularity_Io_PipeLookAhead_CircularBuffer@@SIXPAU1@0@Z 020658ec f   sc.obj
 0001:0006495c       ?m_StructCopy@Struct_Microsoft_Singularity_Io_PipeLookAhead_CircularBuffer@@SIXPAU1@PAU1@@Z 0206595c f   sc.obj
 0001:00064aac       ?m_Microsoft_SingSharp_ITracked_UnExpose@Struct_Microsoft_Singularity_Io_PipeLookAhead_CircularBuffer@@SIXPAU1@@Z 02065aac f   sc.obj
 0001:00064ac8       ?m_Microsoft_SingSharp_ITracked_Release@Struct_Microsoft_Singularity_Io_PipeLookAhead_CircularBuffer@@SIXPAU1@@Z 02065ac8 f   sc.obj
 0001:00064ae4       ?m_Microsoft_SingSharp_ITracked_Release@Struct_Microsoft_Singularity_Io_PipeLookAhead_CircularBuffer@@SIXPAUClass_Microsoft_Singularity_Io_PipeLookAhead_CircularBuffer@@@Z 02065ae4 f   sc.obj
 0001:00064b0c       ?m_Microsoft_SingSharp_ITracked_Expose@Struct_Microsoft_Singularity_Io_PipeLookAhead_CircularBuffer@@SIXPAU1@@Z 02065b0c f   sc.obj
 0001:00064b28       ?m_Microsoft_SingSharp_ITracked_Acquire@Struct_Microsoft_Singularity_Io_PipeLookAhead_CircularBuffer@@SIXPAU1@@Z 02065b28 f   sc.obj
 0001:00064b44       ?m_Microsoft_SingSharp_ITracked_Acquire@Struct_Microsoft_Singularity_Io_PipeLookAhead_CircularBuffer@@SIXPAUClass_Microsoft_Singularity_Io_PipeLookAhead_CircularBuffer@@@Z 02065b44 f   sc.obj
 0001:00064b6c       ?m_get$_HasControlZ@Struct_Microsoft_Singularity_Io_PipeLookAhead_CircularBuffer@@SI_NPAU1@@Z 02065b6c f   sc.obj
 0001:00064bac       ?m_get$_HasControlC@Struct_Microsoft_Singularity_Io_PipeLookAhead_CircularBuffer@@SI_NPAU1@@Z 02065bac f   sc.obj
 0001:00064bec       ?m_get$_FreeSpace@Struct_Microsoft_Singularity_Io_PipeLookAhead_CircularBuffer@@SIHPAU1@@Z 02065bec f   sc.obj
 0001:00064c84       ?m_get$_CharsInBuffer@Struct_Microsoft_Singularity_Io_PipeLookAhead_CircularBuffer@@SIHPAU1@@Z 02065c84 f   sc.obj
 0001:00064d30       ?m_get$_CharsAvailable@Struct_Microsoft_Singularity_Io_PipeLookAhead_CircularBuffer@@SIHPAU1@@Z 02065d30 f   sc.obj
 0001:00064d90       ?m_Equals@Struct_Microsoft_Singularity_Io_PipeLookAhead_CircularBuffer@@SI_NPAU1@PAUClass_System_Object@@@Z 02065d90 f   sc.obj
 0001:00064e2c       ?m_Equals@Struct_Microsoft_Singularity_Io_PipeLookAhead_CircularBuffer@@SI_NPAUClass_Microsoft_Singularity_Io_PipeLookAhead_CircularBuffer@@PAUClass_System_Object@@@Z 02065e2c f   sc.obj
 0001:00064e58       ?m_EnsureCapacity@Struct_Microsoft_Singularity_Io_PipeLookAhead_CircularBuffer@@SIXPAU1@H@Z 02065e58 f   sc.obj
 0001:00065004       ?m_Dispose@Struct_Microsoft_Singularity_Io_PipeLookAhead_CircularBuffer@@SIXPAU1@@Z 02066004 f   sc.obj
 0001:00065040       ?m_Dispose@Struct_Microsoft_Singularity_Io_PipeLookAhead_CircularBuffer@@SIXPAUClass_Microsoft_Singularity_Io_PipeLookAhead_CircularBuffer@@@Z 02066040 f   sc.obj
 0001:00065068       ?m_Add@Struct_Microsoft_Singularity_Io_PipeLookAhead_CircularBuffer@@SIXPAU1@PA_WHH@Z 02066068 f   sc.obj
 0001:00065118       ?m_Add@Struct_Microsoft_Singularity_Io_PipeLookAhead_CircularBuffer@@SIXPAU1@_W@Z 02066118 f   sc.obj
 0001:00065244       ?m__ctor@Struct_Microsoft_Singularity_Io_PipeLookAhead_CircularBuffer@@SIXPAU1@H@Z 02066244 f   sc.obj
 0001:000652bc       ?m_StructCopy@Struct_Microsoft_Singularity_Monitoring_LogEntry@@SIXPAU1@0@Z 020662bc f   sc.obj
 0001:00065398       ?m_StructCopy@Struct_Microsoft_Singularity_Monitoring_LogEntry@@SIXPAU1@PAU1@@Z 02066398 f   sc.obj
 0001:0006562c       ?m_Equals@Struct_Microsoft_Singularity_Monitoring_LogEntry@@SI_NPAU1@PAUClass_System_Object@@@Z 0206662c f   sc.obj
 0001:00065774       ?m_Equals@Struct_Microsoft_Singularity_Monitoring_LogEntry@@SI_NPAUClass_Microsoft_Singularity_Monitoring_LogEntry@@PAUClass_System_Object@@@Z 02066774 f   sc.obj
 0001:000657a0       ?g_NewClientEndpoint@Class_Microsoft_Singularity_Directory_DirectoryService@@SIPAUStruct_Microsoft_Singularity_Directory_DirectoryServiceContract_Imp@@XZ 020667a0 f   sc.obj
 0001:00065814       ?m__ctor@Class_Microsoft_Singularity_Directory_DirectoryService@@SIXPAU1@@Z 02066814 f   sc.obj
 0001:0006582c       ?m_StructCopy@Struct_Microsoft_Singularity_ServiceManager_ServiceManagerContract_Exp@@SIXPAU1@0@Z 0206682c f   sc.obj
 0001:00065a8c       ?m_StructCopy@Struct_Microsoft_Singularity_ServiceManager_ServiceManagerContract_Exp@@SIXPAU1@PAU1@@Z 02066a8c f   sc.obj
 0001:000661ac       ?m_Peek@Struct_Microsoft_Singularity_ServiceManager_ServiceManagerContract_Exp@@SIHPAU1@@Z 020671ac f   sc.obj
 0001:00066dbc       ?m_MarshallDeliverWatchServiceStatus1@Struct_Microsoft_Singularity_ServiceManager_ServiceManagerContract_Exp@@SIXPAU1@PAUStruct_Microsoft_Singularity_Channels_Endpoint@@@Z 02067dbc f   sc.obj
 0001:00066e08       ?m_MarshallDeliverWatchServiceManager0@Struct_Microsoft_Singularity_ServiceManager_ServiceManagerContract_Exp@@SIXPAU1@UStruct_Microsoft_Singularity_ServiceManager_ServiceManagerEventMask@@PAUStruct_Microsoft_Singularity_Channels_Endpoint@@@Z 02067e08 f   sc.obj
 0001:00066e60       ?m_MarshallDeliverWaitServiceChange1@Struct_Microsoft_Singularity_ServiceManager_ServiceManagerContract_Exp@@SIXPAU1@PAUStruct_Microsoft_Singularity_Channels_Endpoint@@@Z 02067e60 f   sc.obj
 0001:00066eb0       ?m_MarshallDeliverWaitNextServiceManagerChange1@Struct_Microsoft_Singularity_ServiceManager_ServiceManagerContract_Exp@@SIXPAU1@PAUStruct_Microsoft_Singularity_Channels_Endpoint@@@Z 02067eb0 f   sc.obj
 0001:00066efc       ?m_MarshallDeliverTerminateServiceProcess1@Struct_Microsoft_Singularity_ServiceManager_ServiceManagerContract_Exp@@SIXPAU1@HPAUStruct_Microsoft_Singularity_Channels_Endpoint@@@Z 02067efc f   sc.obj
 0001:00066f50       ?m_MarshallDeliverTerminateServiceAllProcesses1@Struct_Microsoft_Singularity_ServiceManager_ServiceManagerContract_Exp@@SIXPAU1@PAUStruct_Microsoft_Singularity_Channels_Endpoint@@@Z 02067f50 f   sc.obj
 0001:00066f9c       ?m_MarshallDeliverStopServiceWait1@Struct_Microsoft_Singularity_ServiceManager_ServiceManagerContract_Exp@@SIXPAU1@PAUStruct_Microsoft_Singularity_Channels_Endpoint@@@Z 02067f9c f   sc.obj
 0001:00066fe8       ?m_MarshallDeliverStopServiceNoWait1@Struct_Microsoft_Singularity_ServiceManager_ServiceManagerContract_Exp@@SIXPAU1@PAUStruct_Microsoft_Singularity_Channels_Endpoint@@@Z 02067fe8 f   sc.obj
 0001:00067034       ?m_MarshallDeliverStartServiceWait1@Struct_Microsoft_Singularity_ServiceManager_ServiceManagerContract_Exp@@SIXPAU1@PAUStruct_Microsoft_Singularity_Channels_Endpoint@@@Z 02068034 f   sc.obj
 0001:00067080       ?m_MarshallDeliverStartServiceNoWait1@Struct_Microsoft_Singularity_ServiceManager_ServiceManagerContract_Exp@@SIXPAU1@PAUStruct_Microsoft_Singularity_Channels_Endpoint@@@Z 02068080 f   sc.obj
 0001:000670cc       ?m_MarshallDeliverSelectService0@Struct_Microsoft_Singularity_ServiceManager_ServiceManagerContract_Exp@@SIXPAU1@PA_WPAUStruct_Microsoft_Singularity_Channels_Endpoint@@@Z 020680cc f   sc.obj
 0001:00067124       ?m_MarshallDeliverQueryServiceStatus1@Struct_Microsoft_Singularity_ServiceManager_ServiceManagerContract_Exp@@SIXPAU1@PAUStruct_Microsoft_Singularity_Channels_Endpoint@@@Z 02068124 f   sc.obj
 0001:00067170       ?m_MarshallDeliverQueryServiceConfig1@Struct_Microsoft_Singularity_ServiceManager_ServiceManagerContract_Exp@@SIXPAU1@PAUStruct_Microsoft_Singularity_Channels_Endpoint@@@Z 02068170 f   sc.obj
 0001:000671bc       ?m_MarshallDeliverEnumerateServices1@Struct_Microsoft_Singularity_ServiceManager_ServiceManagerContract_Exp@@SIXPAU1@PAUStruct_Microsoft_Singularity_ServiceManager_ServiceInfo@@PAUStruct_Microsoft_Singularity_Channels_Endpoint@@@Z 020681bc f   sc.obj
 0001:0006720c       ?m_MarshallDeliverEnumerateServices0@Struct_Microsoft_Singularity_ServiceManager_ServiceManagerContract_Exp@@SIXPAU1@PAUStruct_Microsoft_Singularity_ServiceManager_ServiceInfo@@PAUStruct_Microsoft_Singularity_Channels_Endpoint@@@Z 0206820c f   sc.obj
 0001:00067264       ?m_MarshallDeliverEnableService1@Struct_Microsoft_Singularity_ServiceManager_ServiceManagerContract_Exp@@SIXPAU1@_NPAUStruct_Microsoft_Singularity_Channels_Endpoint@@@Z 02068264 f   sc.obj
 0001:000672b4       ?m_MarshallDeliverDeleteService1@Struct_Microsoft_Singularity_ServiceManager_ServiceManagerContract_Exp@@SIXPAU1@PAUStruct_Microsoft_Singularity_Channels_Endpoint@@@Z 020682b4 f   sc.obj
 0001:00067300       ?m_MarshallDeliverCreateService0@Struct_Microsoft_Singularity_ServiceManager_ServiceManagerContract_Exp@@SIXPAU1@UStruct_Microsoft_Singularity_ServiceManager_ServiceConfig@@PAUStruct_Microsoft_Singularity_Channels_Endpoint@@@Z 02068300 f   sc.obj
 0001:00067370       ?m_HeadMatches@Struct_Microsoft_Singularity_ServiceManager_ServiceManagerContract_Exp@@SI_NPAU1@HPA_NPAPAUClass_System_Object@@@Z 02068370 f   sc.obj
 0001:00067430       ?m_HeadMatches@Struct_Microsoft_Singularity_ServiceManager_ServiceManagerContract_Exp@@SI_NPAUClass_Microsoft_Singularity_ServiceManager_ServiceManagerContract_Exp@@HPA_NPAPAUClass_System_Object@@@Z 02068430 f   sc.obj
 0001:00067468       ?m_Equals@Struct_Microsoft_Singularity_ServiceManager_ServiceManagerContract_Exp@@SI_NPAU1@PAUClass_System_Object@@@Z 02068468 f   sc.obj
 0001:00067ff8       ?m_Equals@Struct_Microsoft_Singularity_ServiceManager_ServiceManagerContract_Exp@@SI_NPAUClass_Microsoft_Singularity_ServiceManager_ServiceManagerContract_Exp@@PAUClass_System_Object@@@Z 02068ff8 f   sc.obj
 0001:00068024       ?m_Dispose@Struct_Microsoft_Singularity_ServiceManager_ServiceManagerContract_Exp@@SIXPAU1@@Z 02069024 f   sc.obj
 0001:00068048       ?m_Dispose@Struct_Microsoft_Singularity_ServiceManager_ServiceManagerContract_Exp@@SIXPAUClass_Microsoft_Singularity_ServiceManager_ServiceManagerContract_Exp@@@Z 02069048 f   sc.obj
 0001:00068070       ?m_DeliverWatchServiceStatus1@Struct_Microsoft_Singularity_ServiceManager_ServiceManagerContract_Exp@@SIXPAU1@@Z 02069070 f   sc.obj
 0001:000680a4       ?m_DeliverWatchServiceManager0@Struct_Microsoft_Singularity_ServiceManager_ServiceManagerContract_Exp@@SIXPAU1@UStruct_Microsoft_Singularity_ServiceManager_ServiceManagerEventMask@@@Z 020690a4 f   sc.obj
 0001:000680ec       ?m_DeliverWaitServiceChange1@Struct_Microsoft_Singularity_ServiceManager_ServiceManagerContract_Exp@@SIXPAU1@@Z 020690ec f   sc.obj
 0001:00068120       ?m_DeliverWaitNextServiceManagerChange1@Struct_Microsoft_Singularity_ServiceManager_ServiceManagerContract_Exp@@SIXPAU1@@Z 02069120 f   sc.obj
 0001:00068154       ?m_DeliverTerminateServiceProcess1@Struct_Microsoft_Singularity_ServiceManager_ServiceManagerContract_Exp@@SIXPAU1@H@Z 02069154 f   sc.obj
 0001:000681a0       ?m_DeliverTerminateServiceAllProcesses1@Struct_Microsoft_Singularity_ServiceManager_ServiceManagerContract_Exp@@SIXPAU1@@Z 020691a0 f   sc.obj
 0001:000681d4       ?m_DeliverStopServiceWait1@Struct_Microsoft_Singularity_ServiceManager_ServiceManagerContract_Exp@@SIXPAU1@@Z 020691d4 f   sc.obj
 0001:00068208       ?m_DeliverStopServiceNoWait1@Struct_Microsoft_Singularity_ServiceManager_ServiceManagerContract_Exp@@SIXPAU1@@Z 02069208 f   sc.obj
 0001:0006823c       ?m_DeliverStartServiceWait1@Struct_Microsoft_Singularity_ServiceManager_ServiceManagerContract_Exp@@SIXPAU1@@Z 0206923c f   sc.obj
 0001:00068270       ?m_DeliverStartServiceNoWait1@Struct_Microsoft_Singularity_ServiceManager_ServiceManagerContract_Exp@@SIXPAU1@@Z 02069270 f   sc.obj
 0001:000682a4       ?m_DeliverSelectService0@Struct_Microsoft_Singularity_ServiceManager_ServiceManagerContract_Exp@@SIXPAU1@PA_W@Z 020692a4 f   sc.obj
 0001:000682ec       ?m_DeliverQueryServiceStatus1@Struct_Microsoft_Singularity_ServiceManager_ServiceManagerContract_Exp@@SIXPAU1@@Z 020692ec f   sc.obj
 0001:00068320       ?m_DeliverQueryServiceConfig1@Struct_Microsoft_Singularity_ServiceManager_ServiceManagerContract_Exp@@SIXPAU1@@Z 02069320 f   sc.obj
 0001:00068354       ?m_DeliverEnumerateServices1@Struct_Microsoft_Singularity_ServiceManager_ServiceManagerContract_Exp@@SIXPAU1@PAUStruct_Microsoft_Singularity_ServiceManager_ServiceInfo@@@Z 02069354 f   sc.obj
 0001:0006839c       ?m_DeliverEnumerateServices0@Struct_Microsoft_Singularity_ServiceManager_ServiceManagerContract_Exp@@SIXPAU1@PAUStruct_Microsoft_Singularity_ServiceManager_ServiceInfo@@@Z 0206939c f   sc.obj
 0001:000683e4       ?m_DeliverEnableService1@Struct_Microsoft_Singularity_ServiceManager_ServiceManagerContract_Exp@@SIXPAU1@_N@Z 020693e4 f   sc.obj
 0001:0006842c       ?m_DeliverDeleteService1@Struct_Microsoft_Singularity_ServiceManager_ServiceManagerContract_Exp@@SIXPAU1@@Z 0206942c f   sc.obj
 0001:00068460       ?m_DeliverCreateService0@Struct_Microsoft_Singularity_ServiceManager_ServiceManagerContract_Exp@@SIXPAU1@UStruct_Microsoft_Singularity_ServiceManager_ServiceConfig@@@Z 02069460 f   sc.obj
 0001:000684ac       ?m__ctor@Struct_Microsoft_Singularity_ServiceManager_ServiceManagerContract_Exp@@SIXPAU1@H@Z 020694ac f   sc.obj
 0001:000684d8       ?g_IntToString@Class_System_ParseNumbers@@SIPAUClass_System_String@@HHH_WH@Z 020694d8 f   sc.obj
 0001:000688e4       ?m__ctor@Class_System_ParseNumbers@@SIXPAU1@@Z 020698e4 f   sc.obj
 0001:000688fc       ?g__cctor@Class_System_ParseNumbers@@SIXXZ 020698fc f   sc.obj
 0001:00068924       ?m_StructCopy@Struct_Microsoft_Singularity_Directory_DirectoryServiceContract_NakCreateDirectoryReparse@@SIXPAU1@0@Z 02069924 f   sc.obj
 0001:00068964       ?m_StructCopy@Struct_Microsoft_Singularity_Directory_DirectoryServiceContract_NakCreateDirectoryReparse@@SIXPAU1@PAU1@@Z 02069964 f   sc.obj
 0001:00068a24       ?m_Equals@Struct_Microsoft_Singularity_Directory_DirectoryServiceContract_NakCreateDirectoryReparse@@SI_NPAU1@PAUClass_System_Object@@@Z 02069a24 f   sc.obj
 0001:00068a8c       ?m_Equals@Struct_Microsoft_Singularity_Directory_DirectoryServiceContract_NakCreateDirectoryReparse@@SI_NPAUClass_Microsoft_Singularity_Directory_DirectoryServiceContract_NakCreateDirectoryReparse@@PAUClass_System_Object@@@Z 02069a8c f   sc.obj
 0001:00068ab8       ?m_ToString@uint16@@SIPAUClass_System_String@@PAG@Z 02069ab8 f   sc.obj
 0001:00068ae0       ?m_ToString@uint16@@SIPAUClass_System_String@@PAGPAU2@@Z 02069ae0 f   sc.obj
 0001:00068b2c       ?m_ToString@uint16@@SIPAUClass_System_String@@PAUClass_System_UInt16@@@Z 02069b2c f   sc.obj
 0001:00068b54       ?m_ToString@uint16@@SIPAUClass_System_String@@PAUClass_System_UInt16@@PAU2@@Z 02069b54 f   sc.obj
 0001:00068b80       ?m_GetHashCode@uint16@@SIHPAG@Z 02069b80 f   sc.obj
 0001:00068ba4       ?m_GetHashCode@uint16@@SIHPAUClass_System_UInt16@@@Z 02069ba4 f   sc.obj
 0001:00068bcc       ?m_Equals@uint16@@SI_NPAGPAUClass_System_Object@@@Z 02069bcc f   sc.obj
 0001:00068c30       ?m_Equals@uint16@@SI_NPAUClass_System_UInt16@@PAUClass_System_Object@@@Z 02069c30 f   sc.obj
 0001:00068c5c       ?m_CompareTo@uint16@@SIHPAGPAUClass_System_Object@@@Z 02069c5c f   sc.obj
 0001:00068ce8       ?m_CompareTo@uint16@@SIHPAUClass_System_UInt16@@PAUClass_System_Object@@@Z 02069ce8 f   sc.obj
 0001:00068d14       ?g_Process@Class_System_WeakReference@@SIXPAUClass_System_GCs_DirectReferenceVisitor@@_N1@Z 02069d14 f   sc.obj
 0001:00068e4c       ?m__ctor@Class_System_WeakReference@@SIXPAU1@@Z 02069e4c f   sc.obj
 0001:00068e68       ?g__cctor@Class_System_WeakReference@@SIXXZ 02069e68 f   sc.obj
 0001:00068ea8       ?g_IsInUserMode@Class_Microsoft_Singularity_Isal_Isa@@SI_NXZ 02069ea8 f   sc.obj
 0001:00068ecc       ?g_GetStackReturnAddresses@Class_Microsoft_Singularity_Isal_Isa@@SIIPAUClassVector_uintPtr@@@Z 02069ecc f   sc.obj
 0001:00068fa8       ?g_get$_StackLimit@Class_Microsoft_Singularity_Isal_Isa@@SIPAUuintPtr@@XZ 02069fa8 f   sc.obj
 0001:00068fc8       ?g_get$_IsRunningOnInterruptStack@Class_Microsoft_Singularity_Isal_Isa@@SI_NXZ 02069fc8 f   sc.obj
 0001:00068ffc       ?m__ctor@Class_Microsoft_Singularity_Isal_Isa@@SIXPAU1@@Z 02069ffc f   sc.obj
 0001:00069018       ?m_StructCopy@Struct_Microsoft_Singularity_V1_Services_PlatformService@@SIXPAU1@0@Z 0206a018 f   sc.obj
 0001:00069034       ?m_StructCopy@Struct_Microsoft_Singularity_V1_Services_PlatformService@@SIXPAU1@PAU1@@Z 0206a034 f   sc.obj
 0001:00069088       ?m_Equals@Struct_Microsoft_Singularity_V1_Services_PlatformService@@SI_NPAU1@PAUClass_System_Object@@@Z 0206a088 f   sc.obj
 0001:000690c0       ?m_Equals@Struct_Microsoft_Singularity_V1_Services_PlatformService@@SI_NPAUClass_Microsoft_Singularity_V1_Services_PlatformService@@PAUClass_System_Object@@@Z 0206a0c0 f   sc.obj
 0001:000690ec       ?m_StructCopy@Struct_Microsoft_Singularity_V1_Threads_SyncHandle@@SIXPAU1@0@Z 0206a0ec f   sc.obj
 0001:00069114       ?m_StructCopy@Struct_Microsoft_Singularity_V1_Threads_SyncHandle@@SIXPAU1@PAU1@@Z 0206a114 f   sc.obj
 0001:0006918c       ?g_op$_Implicit@Struct_Microsoft_Singularity_V1_Threads_SyncHandle@@SI?AU1@UStruct_Microsoft_Singularity_V1_Threads_MutexHandle@@@Z 0206a18c f   sc.obj
 0001:000691bc       ?g_op$_Implicit@Struct_Microsoft_Singularity_V1_Threads_SyncHandle@@SI?AU1@UStruct_Microsoft_Singularity_V1_Threads_ManualResetEventHandle@@@Z 0206a1bc f   sc.obj
 0001:000691ec       ?g_op$_Implicit@Struct_Microsoft_Singularity_V1_Threads_SyncHandle@@SI?AU1@UStruct_Microsoft_Singularity_V1_Threads_AutoResetEventHandle@@@Z 0206a1ec f   sc.obj
 0001:0006921c       ?m_Equals@Struct_Microsoft_Singularity_V1_Threads_SyncHandle@@SI_NPAU1@PAUClass_System_Object@@@Z 0206a21c f   sc.obj
 0001:00069264       ?m_Equals@Struct_Microsoft_Singularity_V1_Threads_SyncHandle@@SI_NPAUClass_Microsoft_Singularity_V1_Threads_SyncHandle@@PAUClass_System_Object@@@Z 0206a264 f   sc.obj
 0001:00069290       ?m__ctor@Struct_Microsoft_Singularity_V1_Threads_SyncHandle@@SIXPAU1@PAUuintPtr@@@Z 0206a290 f   sc.obj
 0001:000692b4       ?g_Min@Class_System_Math@@SIIII@Z 0206a2b4 f   sc.obj
 0001:000692e4       ?m__ctor@Class_System_Math@@SIXPAU1@@Z 0206a2e4 f   sc.obj
 0001:00069300       ?g__cctor@Class_System_Math@@SIXXZ 0206a300 f   sc.obj
 0001:00069340       ?m_StructCopy@Struct_Microsoft_Singularity_Directory_DirectoryServiceContract_NakCreateFileReparse@@SIXPAU1@0@Z 0206a340 f   sc.obj
 0001:00069380       ?m_StructCopy@Struct_Microsoft_Singularity_Directory_DirectoryServiceContract_NakCreateFileReparse@@SIXPAU1@PAU1@@Z 0206a380 f   sc.obj
 0001:00069440       ?m_Equals@Struct_Microsoft_Singularity_Directory_DirectoryServiceContract_NakCreateFileReparse@@SI_NPAU1@PAUClass_System_Object@@@Z 0206a440 f   sc.obj
 0001:000694a8       ?m_Equals@Struct_Microsoft_Singularity_Directory_DirectoryServiceContract_NakCreateFileReparse@@SI_NPAUClass_Microsoft_Singularity_Directory_DirectoryServiceContract_NakCreateFileReparse@@PAUClass_System_Object@@@Z 0206a4a8 f   sc.obj
 0001:000694d4       ?m_WriteImpl@Class_System_GCs_EmptyWriteBarrier@@SIXPAU1@PAPAUuintPtr@@PAUClass_System_Object@@H@Z 0206a4d4 f   sc.obj
 0001:000694fc       ?g_Initialize@Class_System_GCs_EmptyWriteBarrier@@SIXXZ 0206a4fc f   sc.obj
 0001:00069574       ?m_CopyStructImpl@Class_System_GCs_EmptyWriteBarrier@@SIXPAU1@PAUClass_System_Object@@1PAUClass_System_VTable@@PAUuintPtr@@3@Z 0206a574 f   sc.obj
 0001:000695d8       ?m_ArrayCopyImpl@Class_System_GCs_EmptyWriteBarrier@@SIXPAU1@PAUClass_System_Array@@H1HH@Z 0206a5d8 f   sc.obj
 0001:000696e0       ?m__ctor@Class_System_GCs_EmptyWriteBarrier@@SIXPAU1@@Z 0206a6e0 f   sc.obj
 0001:00069704       ?m_WriteImpl@Class_System_GCs_RefWriteBarrier@@SIXPAU1@PAPAUuintPtr@@PAU2@H@Z 0206a704 f   sc.obj
 0001:0006972c       ?m_WeakRefWriteImpl@Class_System_GCs_RefWriteBarrier@@SIPAUuintPtr@@PAU1@PAUClass_System_Object@@H@Z 0206a72c f   sc.obj
 0001:00069750       ?m_WeakRefReadImpl@Class_System_GCs_RefWriteBarrier@@SIPAUClass_System_Object@@PAU1@PAUuintPtr@@H@Z 0206a750 f   sc.obj
 0001:00069774       ?m_ReadObjImpl@Class_System_GCs_RefWriteBarrier@@SIPAUClass_System_Object@@PAU1@PAPAUuintPtr@@H@Z 0206a774 f   sc.obj
 0001:00069798       ?m_ReadImpl@Class_System_GCs_RefWriteBarrier@@SIPAUuintPtr@@PAU1@PAPAU2@H@Z 0206a798 f   sc.obj
 0001:000697bc       ?m__ctor@Class_System_GCs_RefWriteBarrier@@SIXPAU1@@Z 0206a7bc f   sc.obj
 0001:000697e0       ?m_WriteImpl@Class_System_GCs_Barrier@@SIXPAU1@PAPAUuintPtr@@PAU2@H@Z 0206a7e0 f   sc.obj
 0001:00069808       ?m_WriteImpl@Class_System_GCs_Barrier@@SIXPAU1@PAPAUuintPtr@@PAUClass_System_Object@@H@Z 0206a808 f   sc.obj
 0001:00069830       ?m_WriteImpl@Class_System_GCs_Barrier@@SIXPAU1@PAUClass_System_Object@@PAPAUuintPtr@@PAU3@H@Z 0206a830 f   sc.obj
 0001:00069868       ?m_WriteImpl@Class_System_GCs_Barrier@@SIXPAU1@PAUClass_System_Object@@PAPAUuintPtr@@1H@Z 0206a868 f   sc.obj
 0001:000698a0       ?m_WriteImpl@Class_System_GCs_Barrier@@SIXPAU1@PAUClass_System_Object@@PAUuintPtr@@2H@Z 0206a8a0 f   sc.obj
 0001:000698e4       ?m_WriteImpl@Class_System_GCs_Barrier@@SIXPAU1@PAUClass_System_Object@@PAUuintPtr@@1H@Z 0206a8e4 f   sc.obj
 0001:00069928       ?m_WeakRefWriteImpl@Class_System_GCs_Barrier@@SIPAUuintPtr@@PAU1@PAUClass_System_Object@@H@Z 0206a928 f   sc.obj
 0001:0006994c       ?g_WeakRefWrite@Class_System_GCs_Barrier@@SIPAUuintPtr@@PAUClass_System_Object@@H@Z 0206a94c f   sc.obj
 0001:00069984       ?m_WeakRefReadImpl@Class_System_GCs_Barrier@@SIPAUClass_System_Object@@PAU1@PAUuintPtr@@H@Z 0206a984 f   sc.obj
 0001:000699a8       ?g_WeakRefRead@Class_System_GCs_Barrier@@SIPAUClass_System_Object@@PAUuintPtr@@H@Z 0206a9a8 f   sc.obj
 0001:000699e0       ?m_StoreIndirectImpl@Class_System_GCs_Barrier@@SIXPAU1@PAPAUuintPtr@@PAUClass_System_Object@@H@Z 0206a9e0 f   sc.obj
 0001:00069a18       ?g_StoreIndirect@Class_System_GCs_Barrier@@SIXPAPAUuintPtr@@PAUClass_System_Object@@H@Z 0206aa18 f   sc.obj
 0001:00069a58       ?m_ReadUIntPtrImpl@Class_System_GCs_Barrier@@SIPAUuintPtr@@PAU1@PAUClass_System_Object@@PAU2@H@Z 0206aa58 f   sc.obj
 0001:00069a94       ?m_ReadObjImpl@Class_System_GCs_Barrier@@SIPAUClass_System_Object@@PAU1@PAPAUuintPtr@@H@Z 0206aa94 f   sc.obj
 0001:00069ab8       ?m_ReadObjImpl@Class_System_GCs_Barrier@@SIPAUClass_System_Object@@PAU1@PAU2@PAPAUuintPtr@@H@Z 0206aab8 f   sc.obj
 0001:00069af4       ?m_ReadObjImpl@Class_System_GCs_Barrier@@SIPAUClass_System_Object@@PAU1@PAU2@PAUuintPtr@@H@Z 0206aaf4 f   sc.obj
 0001:00069b34       ?m_ReadImpl@Class_System_GCs_Barrier@@SIPAUuintPtr@@PAU1@PAPAU2@H@Z 0206ab34 f   sc.obj
 0001:00069b58       ?m_ReadImpl@Class_System_GCs_Barrier@@SIPAUuintPtr@@PAU1@PAUClass_System_Object@@PAPAU2@H@Z 0206ab58 f   sc.obj
 0001:00069b90       ?g_MyInitObject@Class_System_GCs_Barrier@@SIXPAUClass_System_Object@@PAUClass_System_VTable@@@Z 0206ab90 f   sc.obj
 0001:00069bbc       ?g_MemZeroBarrierSlow@Class_System_GCs_Barrier@@SIXPAUClass_System_Object@@PAUuintPtr@@1@Z 0206abbc f   sc.obj
 0001:00069c1c       ?g_MemCopyBarrierSlow@Class_System_GCs_Barrier@@SIXPAUClass_System_Object@@PAUuintPtr@@011@Z 0206ac1c f   sc.obj
 0001:00069ca0       ?m_InitObjectImpl@Class_System_GCs_Barrier@@SIXPAU1@PAUClass_System_Object@@PAUClass_System_VTable@@@Z 0206aca0 f   sc.obj
 0001:00069cd0       ?g_InitObject@Class_System_GCs_Barrier@@SIXPAUClass_System_Object@@PAUClass_System_VTable@@@Z 0206acd0 f   sc.obj
 0001:00069d04       ?g_Initialize@Class_System_GCs_Barrier@@SIXXZ 0206ad04 f   sc.obj
 0001:00069e9c       ?g_IndexedDataPtr@Class_System_GCs_Barrier@@SIPAUuintPtr@@PAUClass_System_Array@@@Z 0206ae9c f   sc.obj
 0001:00069edc       ?m_ForwardImpl@Class_System_GCs_Barrier@@SIPAUClass_System_Object@@PAU1@PAU2@H@Z 0206aedc f   sc.obj
 0001:00069f00       ?m_CopyStructWithBarrier@Class_System_GCs_Barrier@@SIXPAU1@PAUClass_System_VTable@@PAUuintPtr@@2@Z 0206af00 f   sc.obj
 0001:00069f38       ?m_CopyStructNoBarrier@Class_System_GCs_Barrier@@SIXPAU1@PAUClass_System_VTable@@PAUuintPtr@@2@Z 0206af38 f   sc.obj
 0001:00069f9c       ?m_CopyStructImpl@Class_System_GCs_Barrier@@SIXPAU1@PAUClass_System_Object@@1PAUClass_System_VTable@@PAUuintPtr@@3@Z 0206af9c f   sc.obj
 0001:00069fd4       ?g_CopyStruct@Class_System_GCs_Barrier@@SIXPAUClass_System_Object@@0PAUClass_System_VTable@@PAUuintPtr@@2@Z 0206afd4 f   sc.obj
 0001:0006a010       ?g_BootstrapInitObjectImpl@Class_System_GCs_Barrier@@SIXPAUClass_System_Object@@PAUClass_System_VTable@@@Z 0206b010 f   sc.obj
 0001:0006a03c       ?g_BootstrapInitObject@Class_System_GCs_Barrier@@SIXPAUClass_System_Object@@PAUClass_System_VTable@@@Z 0206b03c f   sc.obj
 0001:0006a064       ?m_ArrayCopyWithBarrier@Class_System_GCs_Barrier@@SIXPAU1@PAUClass_System_Array@@H1HH@Z 0206b064 f   sc.obj
 0001:0006a1a0       ?m_ArrayCopyNoBarrier@Class_System_GCs_Barrier@@SIXPAU1@PAUClass_System_Array@@H1HH@Z 0206b1a0 f   sc.obj
 0001:0006a2a8       ?m_ArrayCopyImpl@Class_System_GCs_Barrier@@SIXPAU1@PAUClass_System_Array@@H1HH@Z 0206b2a8 f   sc.obj
 0001:0006a3e4       ?g_ArrayCopy@Class_System_GCs_Barrier@@SIXPAUClass_System_Array@@H0HH@Z 0206b3e4 f   sc.obj
 0001:0006a420       ?m__ctor@Class_System_GCs_Barrier@@SIXPAU1@@Z 0206b420 f   sc.obj
 0001:0006a43c       ?m_StructCopy@Struct_Microsoft_Singularity_Directory_DirectoryServiceContract_NakGetAttributes@@SIXPAU1@0@Z 0206b43c f   sc.obj
 0001:0006a464       ?m_StructCopy@Struct_Microsoft_Singularity_Directory_DirectoryServiceContract_NakGetAttributes@@SIXPAU1@PAU1@@Z 0206b464 f   sc.obj
 0001:0006a4dc       ?m_Equals@Struct_Microsoft_Singularity_Directory_DirectoryServiceContract_NakGetAttributes@@SI_NPAU1@PAUClass_System_Object@@@Z 0206b4dc f   sc.obj
 0001:0006a57c       ?m_Equals@Struct_Microsoft_Singularity_Directory_DirectoryServiceContract_NakGetAttributes@@SI_NPAUClass_Microsoft_Singularity_Directory_DirectoryServiceContract_NakGetAttributes@@PAUClass_System_Object@@@Z 0206b57c f   sc.obj
 0001:0006a5a8       ?m_StructCopy@Struct_Microsoft_Singularity_V1_Threads_AutoResetEventHandle@@SIXPAU1@0@Z 0206b5a8 f   sc.obj
 0001:0006a5d0       ?m_StructCopy@Struct_Microsoft_Singularity_V1_Threads_AutoResetEventHandle@@SIXPAU1@PAU1@@Z 0206b5d0 f   sc.obj
 0001:0006a648       ?m_Equals@Struct_Microsoft_Singularity_V1_Threads_AutoResetEventHandle@@SI_NPAU1@PAUClass_System_Object@@@Z 0206b648 f   sc.obj
 0001:0006a690       ?m_Equals@Struct_Microsoft_Singularity_V1_Threads_AutoResetEventHandle@@SI_NPAUClass_Microsoft_Singularity_V1_Threads_AutoResetEventHandle@@PAUClass_System_Object@@@Z 0206b690 f   sc.obj
 0001:0006a6bc       ?g_Create@Struct_Microsoft_Singularity_V1_Threads_AutoResetEventHandle@@SI_N_NPAU1@@Z 0206b6bc f   sc.obj
 0001:0006a708       ?m_StructCopy@Struct_Microsoft_Singularity_ServiceManager_ServiceManagerContract_DeleteService@@SIXPAU1@0@Z 0206b708 f   sc.obj
 0001:0006a724       ?m_StructCopy@Struct_Microsoft_Singularity_ServiceManager_ServiceManagerContract_DeleteService@@SIXPAU1@PAU1@@Z 0206b724 f   sc.obj
 0001:0006a778       ?m_MarshallContent@Struct_Microsoft_Singularity_ServiceManager_ServiceManagerContract_DeleteService@@SIXPAU1@PAEPAUStruct_Microsoft_Singularity_Channels_Endpoint@@1PAH@Z 0206b778 f   sc.obj
 0001:0006a798       ?m_MarshallAll@Struct_Microsoft_Singularity_ServiceManager_ServiceManagerContract_DeleteService@@SIXPAU1@PAEPAUStruct_Microsoft_Singularity_Channels_Endpoint@@PAH@Z 0206b798 f   sc.obj
 0001:0006a7f0       ?m_Equals@Struct_Microsoft_Singularity_ServiceManager_ServiceManagerContract_DeleteService@@SI_NPAU1@PAUClass_System_Object@@@Z 0206b7f0 f   sc.obj
 0001:0006a828       ?m_Equals@Struct_Microsoft_Singularity_ServiceManager_ServiceManagerContract_DeleteService@@SI_NPAUClass_Microsoft_Singularity_ServiceManager_ServiceManagerContract_DeleteService@@PAUClass_System_Object@@@Z 0206b828 f   sc.obj
 0001:0006a854       ?g_UInt64BitsToDouble@Class_System_BitConverter@@SIN_K@Z 0206b854 f   sc.obj
 0001:0006a878       ?g_SingleToUInt32Bits@Class_System_BitConverter@@SIIM@Z 0206b878 f   sc.obj
 0001:0006a894       ?g_GetBytes@Class_System_BitConverter@@SIPAUClassVector_uint8@@F@Z 0206b894 f   sc.obj
 0001:0006a8dc       ?g_GetBytes@Class_System_BitConverter@@SIXFPAUClassVector_uint8@@H@Z 0206b8dc f   sc.obj
 0001:0006a9a0       ?g_DoubleToUInt64Bits@Class_System_BitConverter@@SI_KN@Z 0206b9a0 f   sc.obj
 0001:0006a9c0       ?m__ctor@Class_System_BitConverter@@SIXPAU1@@Z 0206b9c0 f   sc.obj
 0001:0006a9dc       ?g__cctor@Class_System_BitConverter@@SIXXZ 0206b9dc f   sc.obj
 0001:0006aa30       ?m__ctor@Class_System_TypeInfo@@SIXPAU1@@Z 0206ba30 f   sc.obj
 0001:0006aa48       ?g__cctor@Class_System_TypeInfo@@SIXXZ 0206ba48 f   sc.obj
 0001:0006ac44       ?m_StructCopy@Struct_System_GCs_SegregatedFreeList_PageSeparation@@SIXPAU1@0@Z 0206bc44 f   sc.obj
 0001:0006ac94       ?m_StructCopy@Struct_System_GCs_SegregatedFreeList_PageSeparation@@SIXPAU1@PAU1@@Z 0206bc94 f   sc.obj
 0001:0006ad84       ?m_Equals@Struct_System_GCs_SegregatedFreeList_PageSeparation@@SI_NPAU1@PAUClass_System_Object@@@Z 0206bd84 f   sc.obj
 0001:0006af44       ?m_Equals@Struct_System_GCs_SegregatedFreeList_PageSeparation@@SI_NPAUClass_System_GCs_SegregatedFreeList_PageSeparation@@PAUClass_System_Object@@@Z 0206bf44 f   sc.obj
 0001:0006af70       ?m_UnRegisterSource@Class_Microsoft_Singularity_Eventing_Controller@@SIXPAU1@PAUClass_Microsoft_Singularity_Eventing_EventSource@@@Z 0206bf70 f   sc.obj
 0001:0006af8c       ?m_RegisterSource@Class_Microsoft_Singularity_Eventing_Controller@@SI_NPAU1@PAUClass_Microsoft_Singularity_Eventing_EventSource@@@Z 0206bf8c f   sc.obj
 0001:0006afac       ?m_RegisterController@Class_Microsoft_Singularity_Eventing_Controller@@SI_NPAU1@@Z 0206bfac f   sc.obj
 0001:0006afc8       ?g_InitializeSystem@Class_Microsoft_Singularity_Eventing_Controller@@SIXXZ 0206bfc8 f   sc.obj
 0001:0006b0b4       ?m_Initialize@Class_Microsoft_Singularity_Eventing_Controller@@SIXPAU1@@Z 0206c0b4 f   sc.obj
 0001:0006b100       ?g_GetSystemController@Class_Microsoft_Singularity_Eventing_Controller@@SIPAU1@XZ 0206c100 f   sc.obj
 0001:0006b118       ?g_GetLocalController@Class_Microsoft_Singularity_Eventing_Controller@@SIPAUClass_Microsoft_Singularity_Eventing_LocalController@@XZ 0206c118 f   sc.obj
 0001:0006b130       ?g_Finalize@Class_Microsoft_Singularity_Eventing_Controller@@SIXXZ 0206c130 f   sc.obj
 0001:0006b14c       ?m__ctor@Class_Microsoft_Singularity_Eventing_Controller@@SIXPAU1@@Z 0206c14c f   sc.obj
 0001:0006b168       ?g__cctor@Class_Microsoft_Singularity_Eventing_Controller@@SIXXZ 0206c168 f   sc.obj
 0001:0006b17c       ?m_StructCopy@Struct_Microsoft_Singularity_Directory_DirectoryServiceContract_QueryACL@@SIXPAU1@0@Z 0206c17c f   sc.obj
 0001:0006b1b0       ?m_StructCopy@Struct_Microsoft_Singularity_Directory_DirectoryServiceContract_QueryACL@@SIXPAU1@PAU1@@Z 0206c1b0 f   sc.obj
 0001:0006b24c       ?m_Equals@Struct_Microsoft_Singularity_Directory_DirectoryServiceContract_QueryACL@@SI_NPAU1@PAUClass_System_Object@@@Z 0206c24c f   sc.obj
 0001:0006b2a8       ?m_Equals@Struct_Microsoft_Singularity_Directory_DirectoryServiceContract_QueryACL@@SI_NPAUClass_Microsoft_Singularity_Directory_DirectoryServiceContract_QueryACL@@PAUClass_System_Object@@@Z 0206c2a8 f   sc.obj
 0001:0006b2d4       ?m_StructCopy@Struct_Microsoft_Singularity_Isal_IX_Gdte@@SIXPAU1@0@Z 0206c2d4 f   sc.obj
 0001:0006b33c       ?m_StructCopy@Struct_Microsoft_Singularity_Isal_IX_Gdte@@SIXPAU1@PAU1@@Z 0206c33c f   sc.obj
 0001:0006b474       ?m_Equals@Struct_Microsoft_Singularity_Isal_IX_Gdte@@SI_NPAU1@PAUClass_System_Object@@@Z 0206c474 f   sc.obj
 0001:0006b50c       ?m_Equals@Struct_Microsoft_Singularity_Isal_IX_Gdte@@SI_NPAUClass_Microsoft_Singularity_Isal_IX_Gdte@@PAUClass_System_Object@@@Z 0206c50c f   sc.obj
 0001:0006b538       ?m_StructCopy@Struct_Microsoft_Singularity_V1_Services_DeliveryHandle@@SIXPAU1@0@Z 0206c538 f   sc.obj
 0001:0006b560       ?m_StructCopy@Struct_Microsoft_Singularity_V1_Services_DeliveryHandle@@SIXPAU1@PAU1@@Z 0206c560 f   sc.obj
 0001:0006b5d8       ?m_Equals@Struct_Microsoft_Singularity_V1_Services_DeliveryHandle@@SI_NPAU1@PAUClass_System_Object@@@Z 0206c5d8 f   sc.obj
 0001:0006b620       ?m_Equals@Struct_Microsoft_Singularity_V1_Services_DeliveryHandle@@SI_NPAUClass_Microsoft_Singularity_V1_Services_DeliveryHandle@@PAUClass_System_Object@@@Z 0206c620 f   sc.obj
 0001:0006b64c       ?m_StructCopy@Struct_Microsoft_Singularity_Directory_DirectoryServiceContract_NakCreateFile@@SIXPAU1@0@Z 0206c64c f   sc.obj
 0001:0006b674       ?m_StructCopy@Struct_Microsoft_Singularity_Directory_DirectoryServiceContract_NakCreateFile@@SIXPAU1@PAU1@@Z 0206c674 f   sc.obj
 0001:0006b6ec       ?m_Equals@Struct_Microsoft_Singularity_Directory_DirectoryServiceContract_NakCreateFile@@SI_NPAU1@PAUClass_System_Object@@@Z 0206c6ec f   sc.obj
 0001:0006b78c       ?m_Equals@Struct_Microsoft_Singularity_Directory_DirectoryServiceContract_NakCreateFile@@SI_NPAUClass_Microsoft_Singularity_Directory_DirectoryServiceContract_NakCreateFile@@PAUClass_System_Object@@@Z 0206c78c f   sc.obj
 0001:0006b7b8       ?m__ctor@Class_System_InvalidCastException@@SIXPAU1@@Z 0206c7b8 f   sc.obj
 0001:0006b7e0       ?m__ctor@Class_System_InvalidCastException@@SIXPAU1@PAUClass_System_String@@@Z 0206c7e0 f   sc.obj
 0001:0006b808       ?m__ctor@Class_System_InvalidCastException@@SIXPAU1@PAUClass_System_String@@PAUClass_System_Exception@@@Z 0206c808 f   sc.obj
 0001:0006b838       ?m_StructCopy@Struct_Microsoft_Singularity_ServiceManager_ServiceManagerContract_ServiceManagerChanged@@SIXPAU1@0@Z 0206c838 f   sc.obj
 0001:0006b860       ?m_StructCopy@Struct_Microsoft_Singularity_ServiceManager_ServiceManagerContract_ServiceManagerChanged@@SIXPAU1@PAU1@@Z 0206c860 f   sc.obj
 0001:0006b8d8       ?m_Equals@Struct_Microsoft_Singularity_ServiceManager_ServiceManagerContract_ServiceManagerChanged@@SI_NPAU1@PAUClass_System_Object@@@Z 0206c8d8 f   sc.obj
 0001:0006b978       ?m_Equals@Struct_Microsoft_Singularity_ServiceManager_ServiceManagerContract_ServiceManagerChanged@@SI_NPAUClass_Microsoft_Singularity_ServiceManager_ServiceManagerContract_ServiceManagerChanged@@PAUClass_System_Object@@@Z 0206c978 f   sc.obj
 0001:0006b9a4       ?m_StructCopy@Struct_System_GCs_MemoryAccounting_RuntimeTypeAccounting@@SIXPAU1@0@Z 0206c9a4 f   sc.obj
 0001:0006b9f4       ?m_StructCopy@Struct_System_GCs_MemoryAccounting_RuntimeTypeAccounting@@SIXPAU1@PAU1@@Z 0206c9f4 f   sc.obj
 0001:0006bae4       ?m_Equals@Struct_System_GCs_MemoryAccounting_RuntimeTypeAccounting@@SI_NPAU1@PAUClass_System_Object@@@Z 0206cae4 f   sc.obj
 0001:0006bbc4       ?m_Equals@Struct_System_GCs_MemoryAccounting_RuntimeTypeAccounting@@SI_NPAUClass_System_GCs_MemoryAccounting_RuntimeTypeAccounting@@PAUClass_System_Object@@@Z 0206cbc4 f   sc.obj
 0001:0006bbf0       ?m__ctor@Class_System_NotSupportedException@@SIXPAU1@@Z 0206cbf0 f   sc.obj
 0001:0006bc18       ?m__ctor@Class_System_NotSupportedException@@SIXPAU1@PAUClass_System_String@@@Z 0206cc18 f   sc.obj
 0001:0006bc40       ?m_StructCopy@Struct_Microsoft_Singularity_Directory_DirectoryServiceContract_NakRegisterReparse@@SIXPAU1@0@Z 0206cc40 f   sc.obj
 0001:0006bc8c       ?m_StructCopy@Struct_Microsoft_Singularity_Directory_DirectoryServiceContract_NakRegisterReparse@@SIXPAU1@PAU1@@Z 0206cc8c f   sc.obj
 0001:0006bd70       ?m_Equals@Struct_Microsoft_Singularity_Directory_DirectoryServiceContract_NakRegisterReparse@@SI_NPAU1@PAUClass_System_Object@@@Z 0206cd70 f   sc.obj
 0001:0006bde8       ?m_Equals@Struct_Microsoft_Singularity_Directory_DirectoryServiceContract_NakRegisterReparse@@SI_NPAUClass_Microsoft_Singularity_Directory_DirectoryServiceContract_NakRegisterReparse@@PAUClass_System_Object@@@Z 0206cde8 f   sc.obj
 0001:0006be14       ?g_AssumeStatement@Class_Microsoft_Contracts_AssertHelpers@@SIXPAUClass_System_String@@@Z 0206ce14 f   sc.obj
 0001:0006be30       ?g_Assume@Class_Microsoft_Contracts_AssertHelpers@@SIX_N@Z 0206ce30 f   sc.obj
 0001:0006be74       ?g_AssertStatement@Class_Microsoft_Contracts_AssertHelpers@@SIXPAUClass_System_String@@0@Z 0206ce74 f   sc.obj
 0001:0006be90       ?g_Assert@Class_Microsoft_Contracts_AssertHelpers@@SIX_N@Z 0206ce90 f   sc.obj
 0001:0006bed4       ?m__ctor@Class_Microsoft_Contracts_AssertHelpers@@SIXPAU1@@Z 0206ced4 f   sc.obj
 0001:0006beec       ?g_WalkStackFrame@Class_System_GCs_CallStack@@SI_NPAPAPAUuintPtr@@0PAUStruct_System_GCs_CalleeSaveLocations@@PAPAU2@PAUClass_System_GCs_NonNullReferenceVisitor@@3UStruct_System_GCs_CompressedFrameDescriptor@@PAUStruct_System_GCs_CallStack_TransitionRecord@@PAUClass_System_Threading_Thread@@@Z 0206ceec f   sc.obj
 0001:0006c894       ?g_VisitIfNotContext@Class_System_GCs_CallStack@@SIXPAUClass_System_Threading_Thread@@PAUClass_System_GCs_NonNullReferenceVisitor@@PAPAUuintPtr@@@Z 0206d894 f   sc.obj
 0001:0006c8f0       ?g_SkipUnlinkStackFrame@Class_System_GCs_CallStack@@SIPAUuintPtr@@PAPAPAU2@0@Z 0206d8f0 f   sc.obj
 0001:0006c924       ?g_SkipLinkStackStubFrame@Class_System_GCs_CallStack@@SIPAUuintPtr@@PAPAPAU2@0@Z 0206d924 f   sc.obj
 0001:0006c964       ?g_SkipLinkStackFrame@Class_System_GCs_CallStack@@SIPAUuintPtr@@PAPAPAU2@0@Z 0206d964 f   sc.obj
 0001:0006c9a4       ?g_ScanStackSegment@Class_System_GCs_CallStack@@SIIPAUStruct_System_GCs_CalleeSaveLocations@@PAUuintPtr@@PAPAU3@2PAUStruct_System_GCs_CallStack_TransitionRecord@@PAUClass_System_GCs_NonNullReferenceVisitor@@4PAUClass_System_Threading_Thread@@@Z 0206d9a4 f   sc.obj
 0001:0006cc0c       ?g_ScanStacks@Class_System_GCs_CallStack@@SIHPAUClass_System_GCs_NonNullReferenceVisitor@@0@Z 0206dc0c f   sc.obj
 0001:0006ccc0       ?g_ScanStack@Class_System_GCs_CallStack@@SIIPAUClass_System_Threading_Thread@@PAUClass_System_GCs_NonNullReferenceVisitor@@1@Z 0206dcc0 f   sc.obj
 0001:0006cec4       ?g_Initialize@Class_System_GCs_CallStack@@SIXXZ 0206dec4 f   sc.obj
 0001:0006d034       ?g_FrameContainsTransitionRecord@Class_System_GCs_CallStack@@SI_NPAPAUuintPtr@@0PAUStruct_System_GCs_CallStack_TransitionRecord@@@Z 0206e034 f   sc.obj
 0001:0006d08c       ?g_CountBits@Class_System_GCs_CallStack@@SIHPAUuintPtr@@@Z 0206e08c f   sc.obj
 0001:0006d0f4       ?g_CallSiteTableNumber@Class_System_GCs_CallStack@@SIHPAUuintPtr@@@Z 0206e0f4 f   sc.obj
 0001:0006d1fc       ?g_CallSiteSetNumber@Class_System_GCs_CallStack@@SIHPAUuintPtr@@H@Z 0206e1fc f   sc.obj
 0001:0006d308       ?m__ctor@Class_System_GCs_CallStack@@SIXPAU1@@Z 0206e308 f   sc.obj
 0001:0006d324       ?m_ToString@int32@@SIPAUClass_System_String@@PAH@Z 0206e324 f   sc.obj
 0001:0006d34c       ?m_ToString@int32@@SIPAUClass_System_String@@PAHPAU2@@Z 0206e34c f   sc.obj
 0001:0006d394       ?m_ToString@int32@@SIPAUClass_System_String@@PAUClass_System_Int32@@@Z 0206e394 f   sc.obj
 0001:0006d3bc       ?m_ToString@int32@@SIPAUClass_System_String@@PAUClass_System_Int32@@PAU2@@Z 0206e3bc f   sc.obj
 0001:0006d3e8       ?m_GetHashCode@int32@@SIHPAH@Z 0206e3e8 f   sc.obj
 0001:0006d408       ?m_GetHashCode@int32@@SIHPAUClass_System_Int32@@@Z 0206e408 f   sc.obj
 0001:0006d430       ?m_Equals@int32@@SI_NPAHPAUClass_System_Object@@@Z 0206e430 f   sc.obj
 0001:0006d48c       ?m_Equals@int32@@SI_NPAUClass_System_Int32@@PAUClass_System_Object@@@Z 0206e48c f   sc.obj
 0001:0006d4b8       ?m_CompareTo@int32@@SIHPAHPAUClass_System_Object@@@Z 0206e4b8 f   sc.obj
 0001:0006d568       ?m_CompareTo@int32@@SIHPAUClass_System_Int32@@PAUClass_System_Object@@@Z 0206e568 f   sc.obj
 0001:0006d594       ?m_AppMain@Class_Microsoft_Singularity_Applications_ServiceManager_StartConfig@@SIHPAU1@@Z 0206e594 f   sc.obj
 0001:0006d610       ?m__ctor@Class_Microsoft_Singularity_Applications_ServiceManager_StartConfig@@SIXPAU1@@Z 0206e610 f   sc.obj
 0001:0006d754       ?m_StructCopy@Struct_Microsoft_Singularity_Isal_IX_Gdte64@@SIXPAU1@0@Z 0206e754 f   sc.obj
 0001:0006d7d4       ?m_StructCopy@Struct_Microsoft_Singularity_Isal_IX_Gdte64@@SIXPAU1@PAU1@@Z 0206e7d4 f   sc.obj
 0001:0006d954       ?m_Equals@Struct_Microsoft_Singularity_Isal_IX_Gdte64@@SI_NPAU1@PAUClass_System_Object@@@Z 0206e954 f   sc.obj
 0001:0006da04       ?m_Equals@Struct_Microsoft_Singularity_Isal_IX_Gdte64@@SI_NPAUClass_Microsoft_Singularity_Isal_IX_Gdte64@@PAUClass_System_Object@@@Z 0206ea04 f   sc.obj
 0001:0006da30       ?m__ctor@Class_System_ApplicationException@@SIXPAU1@@Z 0206ea30 f   sc.obj
 0001:0006da58       ?m__ctor@Class_System_ApplicationException@@SIXPAU1@PAUClass_System_String@@@Z 0206ea58 f   sc.obj
 0001:0006da80       ?m_StructCopy@Struct_Microsoft_Singularity_Memory_PhysicalAddress@@SIXPAU1@0@Z 0206ea80 f   sc.obj
 0001:0006dab4       ?m_StructCopy@Struct_Microsoft_Singularity_Memory_PhysicalAddress@@SIXPAU1@PAU1@@Z 0206eab4 f   sc.obj
 0001:0006db50       ?g_op$_Equality@Struct_Microsoft_Singularity_Memory_PhysicalAddress@@SI_NU1@0@Z 0206eb50 f   sc.obj
 0001:0006db98       ?m_GetHashCode@Struct_Microsoft_Singularity_Memory_PhysicalAddress@@SIHPAU1@@Z 0206eb98 f   sc.obj
 0001:0006dbbc       ?m_GetHashCode@Struct_Microsoft_Singularity_Memory_PhysicalAddress@@SIHPAUClass_Microsoft_Singularity_Memory_PhysicalAddress@@@Z 0206ebbc f   sc.obj
 0001:0006dbe4       ?m_get$_Value@Struct_Microsoft_Singularity_Memory_PhysicalAddress@@SI_KPAU1@@Z 0206ebe4 f   sc.obj
 0001:0006dc08       ?m_Equals@Struct_Microsoft_Singularity_Memory_PhysicalAddress@@SI_NPAU1@PAUClass_System_Object@@@Z 0206ec08 f   sc.obj
 0001:0006dc9c       ?m_Equals@Struct_Microsoft_Singularity_Memory_PhysicalAddress@@SI_NPAUClass_Microsoft_Singularity_Memory_PhysicalAddress@@PAUClass_System_Object@@@Z 0206ec9c f   sc.obj
 0001:0006dcc8       ?m__ctor@Struct_Microsoft_Singularity_Memory_PhysicalAddress@@SIXPAU1@PAUuintPtr@@@Z 0206ecc8 f   sc.obj
 0001:0006dcf8       ?m_Visit@Class_System_GCs_MemoryAccounting_RuntimeTypeReckoner@@SIPAUuintPtr@@PAU1@PAUClass_System_Object@@@Z 0206ecf8 f   sc.obj
 0001:0006dd14       ?m_Initialize@Class_System_GCs_MemoryAccounting_RuntimeTypeReckoner@@SIXPAU1@_N@Z 0206ed14 f   sc.obj
 0001:0006dd30       ?m__ctor@Class_System_GCs_MemoryAccounting_RuntimeTypeReckoner@@SIXPAU1@@Z 0206ed30 f   sc.obj
 0001:0006dd48       ?g_get$_NullMessage@Class_System_ArgumentNullException@@SIPAUClass_System_String@@XZ 0206ed48 f   sc.obj
 0001:0006dd74       ?m__ctor@Class_System_ArgumentNullException@@SIXPAU1@@Z 0206ed74 f   sc.obj
 0001:0006dd9c       ?m__ctor@Class_System_ArgumentNullException@@SIXPAU1@PAUClass_System_String@@@Z 0206ed9c f   sc.obj
 0001:0006ddcc       ?m__ctor@Class_System_ArgumentNullException@@SIXPAU1@PAUClass_System_String@@1@Z 0206edcc f   sc.obj
 0001:0006ddfc       ?g__cctor@Class_System_ArgumentNullException@@SIXXZ 0206edfc f   sc.obj
 0001:0006de10       ?m__ctor@Class_System_OverflowException@@SIXPAU1@@Z 0206ee10 f   sc.obj
 0001:0006de38       ?m__ctor@Class_System_OverflowException@@SIXPAU1@PAUClass_System_String@@@Z 0206ee38 f   sc.obj
 0001:0006de60       ?m__ctor@Class_System_OverflowException@@SIXPAU1@PAUClass_System_String@@PAUClass_System_Exception@@@Z 0206ee60 f   sc.obj
 0001:0006de90       ?m__ctor@Class_System_ArithmeticException@@SIXPAU1@@Z 0206ee90 f   sc.obj
 0001:0006deb8       ?m__ctor@Class_System_ArithmeticException@@SIXPAU1@PAUClass_System_String@@@Z 0206eeb8 f   sc.obj
 0001:0006dee0       ?m__ctor@Class_System_ArithmeticException@@SIXPAU1@PAUClass_System_String@@PAUClass_System_Exception@@@Z 0206eee0 f   sc.obj
 0001:0006df10       ?m_StructCopy@Struct_Microsoft_Singularity_Directory_DirectoryServiceContract_AckCreateLink@@SIXPAU1@0@Z 0206ef10 f   sc.obj
 0001:0006df2c       ?m_StructCopy@Struct_Microsoft_Singularity_Directory_DirectoryServiceContract_AckCreateLink@@SIXPAU1@PAU1@@Z 0206ef2c f   sc.obj
 0001:0006df80       ?m_Equals@Struct_Microsoft_Singularity_Directory_DirectoryServiceContract_AckCreateLink@@SI_NPAU1@PAUClass_System_Object@@@Z 0206ef80 f   sc.obj
 0001:0006dfb8       ?m_Equals@Struct_Microsoft_Singularity_Directory_DirectoryServiceContract_AckCreateLink@@SI_NPAUClass_Microsoft_Singularity_Directory_DirectoryServiceContract_AckCreateLink@@PAUClass_System_Object@@@Z 0206efb8 f   sc.obj
 0001:0006dfe4       ?m_set$_Item@Class_System_Collections_Hashtable@@SIXPAU1@PAUClass_System_Object@@1@Z 0206efe4 f   sc.obj
 0001:0006e014       ?m_set$_hcp@Class_System_Collections_Hashtable@@SIXPAU1@PAUClass_System_Collections_IHashCodeProvider@@@Z 0206f014 f   sc.obj
 0001:0006e03c       ?m_set$_comparer@Class_System_Collections_Hashtable@@SIXPAU1@PAUClass_System_Collections_IComparer@@@Z 0206f03c f   sc.obj
 0001:0006e064       ?m_Remove@Class_System_Collections_Hashtable@@SIXPAU1@PAUClass_System_Object@@@Z 0206f064 f   sc.obj
 0001:0006e2a4       ?m_rehash@Class_System_Collections_Hashtable@@SIXPAU1@@Z 0206f2a4 f   sc.obj
 0001:0006e2d0       ?m_rehash@Class_System_Collections_Hashtable@@SIXPAU1@H@Z 0206f2d0 f   sc.obj
 0001:0006e430       ?m_putEntry@Class_System_Collections_Hashtable@@SIXPAU1@PAUClassVector_Struct_System_Collections_Hashtable_bucket@@PAUClass_System_Object@@2H@Z 0206f430 f   sc.obj
 0001:0006e538       ?m_KeyEquals@Class_System_Collections_Hashtable@@SI_NPAU1@PAUClass_System_Object@@1@Z 0206f538 f   sc.obj
 0001:0006e5b0       ?m_Insert@Class_System_Collections_Hashtable@@SIXPAU1@PAUClass_System_Object@@1_N@Z 0206f5b0 f   sc.obj
 0001:0006e9fc       ?m_InitHash@Class_System_Collections_Hashtable@@SIIPAU1@PAUClass_System_Object@@HPAI2@Z 0206f9fc f   sc.obj
 0001:0006ea68       ?m_GetPrime@Class_System_Collections_Hashtable@@SIHPAU1@H@Z 0206fa68 f   sc.obj
 0001:0006eb2c       ?m_GetHash@Class_System_Collections_Hashtable@@SIHPAU1@PAUClass_System_Object@@@Z 0206fb2c f   sc.obj
 0001:0006eb94       ?m_GetEnumerator@Class_System_Collections_Hashtable@@SIPAUClass_System_Collections_IDictionaryEnumerator@@PAU1@@Z 0206fb94 f   sc.obj
 0001:0006ebd8       ?m_get$_Item@Class_System_Collections_Hashtable@@SIPAUClass_System_Object@@PAU1@PAU2@@Z 0206fbd8 f   sc.obj
 0001:0006edc4       ?m_get$_hcp@Class_System_Collections_Hashtable@@SIPAUClass_System_Collections_IHashCodeProvider@@PAU1@@Z 0206fdc4 f   sc.obj
 0001:0006ede4       ?m_get$_comparer@Class_System_Collections_Hashtable@@SIPAUClass_System_Collections_IComparer@@PAU1@@Z 0206fde4 f   sc.obj
 0001:0006ee04       ?m_expand@Class_System_Collections_Hashtable@@SIXPAU1@@Z 0206fe04 f   sc.obj
 0001:0006ee40       ?m__ctor@Class_System_Collections_Hashtable@@SIXPAU1@@Z 0206fe40 f   sc.obj
 0001:0006ee68       ?m__ctor@Class_System_Collections_Hashtable@@SIXPAU1@HH@Z 0206fe68 f   sc.obj
 0001:0006ee9c       ?m__ctor@Class_System_Collections_Hashtable@@SIXPAU1@HHPAUClass_System_Collections_IHashCodeProvider@@PAUClass_System_Collections_IComparer@@@Z 0206fe9c f   sc.obj
 0001:0006f020       ?g__cctor@Class_System_Collections_Hashtable@@SIXXZ 02070020 f   sc.obj
 0001:0006f034       ?g_StableState@Class_Microsoft_Singularity_ServiceManager_ServiceManagerContract@@SIHPAUStruct_Microsoft_Singularity_Channels_StateStack@@@Z 02070034 f   sc.obj
 0001:0006f1b0       ?g_NewChannel@Class_Microsoft_Singularity_ServiceManager_ServiceManagerContract@@SIXPAPAUStruct_Microsoft_Singularity_ServiceManager_ServiceManagerContract_Imp@@PAPAUStruct_Microsoft_Singularity_ServiceManager_ServiceManagerContract_Exp@@@Z 020701b0 f   sc.obj
 0001:0006f24c       ?m__ctor@Class_Microsoft_Singularity_ServiceManager_ServiceManagerContract@@SIXPAU1@@Z 0207024c f   sc.obj
 0001:0006f264       ?g_StableState@Class_Microsoft_Singularity_Directory_ServiceContract@@SIHPAUStruct_Microsoft_Singularity_Channels_StateStack@@@Z 02070264 f   sc.obj
 0001:0006f2e0       ?g_CanonicalState@Class_Microsoft_Singularity_Directory_ServiceContract@@SIHH@Z 020702e0 f   sc.obj
 0001:0006f338       ?m__ctor@Class_Microsoft_Singularity_Directory_ServiceContract@@SIXPAU1@@Z 02070338 f   sc.obj
 0001:0006f350       ?m_StructCopy@Struct_Microsoft_Singularity_ServiceManager_ServiceManagerContract_StopServiceWait@@SIXPAU1@0@Z 02070350 f   sc.obj
 0001:0006f36c       ?m_StructCopy@Struct_Microsoft_Singularity_ServiceManager_ServiceManagerContract_StopServiceWait@@SIXPAU1@PAU1@@Z 0207036c f   sc.obj
 0001:0006f3c0       ?m_MarshallContent@Struct_Microsoft_Singularity_ServiceManager_ServiceManagerContract_StopServiceWait@@SIXPAU1@PAEPAUStruct_Microsoft_Singularity_Channels_Endpoint@@1PAH@Z 020703c0 f   sc.obj
 0001:0006f3e0       ?m_MarshallAll@Struct_Microsoft_Singularity_ServiceManager_ServiceManagerContract_StopServiceWait@@SIXPAU1@PAEPAUStruct_Microsoft_Singularity_Channels_Endpoint@@PAH@Z 020703e0 f   sc.obj
 0001:0006f438       ?m_Equals@Struct_Microsoft_Singularity_ServiceManager_ServiceManagerContract_StopServiceWait@@SI_NPAU1@PAUClass_System_Object@@@Z 02070438 f   sc.obj
 0001:0006f470       ?m_Equals@Struct_Microsoft_Singularity_ServiceManager_ServiceManagerContract_StopServiceWait@@SI_NPAUClass_Microsoft_Singularity_ServiceManager_ServiceManagerContract_StopServiceWait@@PAUClass_System_Object@@@Z 02070470 f   sc.obj
 0001:0006f49c       ?m_Push@Class_System_Collections_Stack@@SIXPAU1@PAUClass_System_Object@@@Z 0207049c f   sc.obj
 0001:0006f548       ?m_Pop@Class_System_Collections_Stack@@SIPAUClass_System_Object@@PAU1@@Z 02070548 f   sc.obj
 0001:0006f5e0       ?m_get$_Count@Class_System_Collections_Stack@@SIHPAU1@@Z 020705e0 f   sc.obj
 0001:0006f600       ?m__ctor@Class_System_Collections_Stack@@SIXPAU1@@Z 02070600 f   sc.obj
 0001:0006f644       ?m_ThreadStartNotification@Class_System_GCs_BaseCollector@@SIXPAU1@H@Z 02070644 f   sc.obj
 0001:0006f660       ?m_ThreadDormantGCNotification@Class_System_GCs_BaseCollector@@SIXPAU1@H@Z 02070660 f   sc.obj
 0001:0006f67c       ?g_StartGCCycle@Class_System_GCs_BaseCollector@@SIXXZ 0207067c f   sc.obj
 0001:0006f6c8       ?m_Shutdown@Class_System_GCs_BaseCollector@@SIXPAU1@@Z 020706c8 f   sc.obj
 0001:0006f6e4       ?m_SetProfiler@Class_System_GCs_BaseCollector@@SIXPAU1@PAUClass_System_GCs_GCProfiler@@@Z 020706e4 f   sc.obj
 0001:0006f794       ?g_RegisterPause@Class_System_GCs_BaseCollector@@SIXH@Z 02070794 f   sc.obj
 0001:0006f82c       ?m_RegisterHeapSize@Class_System_GCs_BaseCollector@@SIXPAU1@_K@Z 0207082c f   sc.obj
 0001:0006f848       ?m_ProfileScanRoots@Class_System_GCs_BaseCollector@@SIXPAU1@PAUClass_System_GCs_NonNullReferenceVisitor@@@Z 02070848 f   sc.obj
 0001:0006f88c       ?m_ProfileScanObjects@Class_System_GCs_BaseCollector@@SIXPAU1@PAUClass_System_GCs_SegregatedFreeList_ObjectVisitor@@@Z 0207088c f   sc.obj
 0001:0007002c       ?m_ProfileAllocation@Class_System_GCs_BaseCollector@@SIXPAU1@PAUClass_System_Object@@@Z 0207102c f   sc.obj
 0001:000700d8       ?m_PrintGCTiming@Class_System_GCs_BaseCollector@@SIXPAU1@@Z 020710d8 f   sc.obj
 0001:00070180       ?m_PrintAllocations@Class_System_GCs_BaseCollector@@SIXPAU1@@Z 02071180 f   sc.obj
 0001:0007019c       ?m_NewThreadNotification@Class_System_GCs_BaseCollector@@SIXPAU1@PAUClass_System_Threading_Thread@@_N@Z 0207119c f   sc.obj
 0001:000701c8       ?g_NewBytesSinceGCExceeds@Class_System_GCs_BaseCollector@@SI_NPAUuintPtr@@@Z 020711c8 f   sc.obj
 0001:000701f0       ?g_IncrementNewBytesSinceGC@Class_System_GCs_BaseCollector@@SIXPAUuintPtr@@@Z 020711f0 f   sc.obj
 0001:0007021c       ?g_get$_DebugNewBytesSinceGC@Class_System_GCs_BaseCollector@@SIPAUuintPtr@@XZ 0207121c f   sc.obj
 0001:00070234       ?m_DestructHeap@Class_System_GCs_BaseCollector@@SIXPAU1@@Z 02071234 f   sc.obj
 0001:00070270       ?m_DeadThreadNotification@Class_System_GCs_BaseCollector@@SIXPAU1@PAUClass_System_Threading_Thread@@@Z 02071270 f   sc.obj
 0001:0007028c       ?m_CreateObject@Class_System_GCs_BaseCollector@@SIXPAU1@PAUClass_System_Object@@PAUClass_System_VTable@@PAUClass_System_Threading_Thread@@@Z 0207128c f   sc.obj
 0001:000702c4       ?g_AllThreadRendezvous@Class_System_GCs_BaseCollector@@SIXH@Z 020712c4 f   sc.obj
 0001:00070650       ?g_AllThreadRelease@Class_System_GCs_BaseCollector@@SIXH@Z 02071650 f   sc.obj
 0001:00070a3c       ?m_AllocateVector@Class_System_GCs_BaseCollector@@SIPAUClass_System_Array@@PAU1@PAUClass_System_VTable@@HPAUClass_System_Threading_Thread@@@Z 02071a3c f   sc.obj
 0001:00070adc       ?m_AllocateString@Class_System_GCs_BaseCollector@@SIPAUClass_System_String@@PAU1@HPAUClass_System_Threading_Thread@@@Z 02071adc f   sc.obj
 0001:00070b98       ?m_AllocateObject@Class_System_GCs_BaseCollector@@SIPAUClass_System_Object@@PAU1@PAUClass_System_VTable@@PAUuintPtr@@IPAUClass_System_Threading_Thread@@@Z 02071b98 f   sc.obj
 0001:00070c10       ?m_AllocateObject@Class_System_GCs_BaseCollector@@SIPAUClass_System_Object@@PAU1@PAUClass_System_VTable@@PAUClass_System_Threading_Thread@@@Z 02071c10 f   sc.obj
 0001:00070c58       ?m__ctor@Class_System_GCs_BaseCollector@@SIXPAU1@@Z 02071c58 f   sc.obj
 0001:00070c7c       ?m_SetProfiler@Class_System_GCs_Collector@@SIXPAU1@PAUClass_System_GCs_GCProfiler@@@Z 02071c7c f   sc.obj
 0001:00070c98       ?m_ProfileAllocation@Class_System_GCs_Collector@@SIXPAU1@PAUClass_System_Object@@@Z 02071c98 f   sc.obj
 0001:00070cb4       ?m__ctor@Class_System_GCs_Collector@@SIXPAU1@@Z 02071cb4 f   sc.obj
 0001:00070cd0       ?m_StructCopy@Struct_Microsoft_Singularity_V1_Processes_ProcessHandle@@SIXPAU1@0@Z 02071cd0 f   sc.obj
 0001:00070cf8       ?m_StructCopy@Struct_Microsoft_Singularity_V1_Processes_ProcessHandle@@SIXPAU1@PAU1@@Z 02071cf8 f   sc.obj
 0001:00070d70       ?m_Equals@Struct_Microsoft_Singularity_V1_Processes_ProcessHandle@@SI_NPAU1@PAUClass_System_Object@@@Z 02071d70 f   sc.obj
 0001:00070db8       ?m_Equals@Struct_Microsoft_Singularity_V1_Processes_ProcessHandle@@SI_NPAUClass_Microsoft_Singularity_V1_Processes_ProcessHandle@@PAUClass_System_Object@@@Z 02071db8 f   sc.obj
 0001:00070de4       ?m_StructCopy@Struct_Microsoft_Singularity_Directory_DirectoryServiceContract_NakBind@@SIXPAU1@0@Z 02071de4 f   sc.obj
 0001:00070e18       ?m_StructCopy@Struct_Microsoft_Singularity_Directory_DirectoryServiceContract_NakBind@@SIXPAU1@PAU1@@Z 02071e18 f   sc.obj
 0001:00070eb4       ?m_Equals@Struct_Microsoft_Singularity_Directory_DirectoryServiceContract_NakBind@@SI_NPAU1@PAUClass_System_Object@@@Z 02071eb4 f   sc.obj
 0001:00070f68       ?m_Equals@Struct_Microsoft_Singularity_Directory_DirectoryServiceContract_NakBind@@SI_NPAUClass_Microsoft_Singularity_Directory_DirectoryServiceContract_NakBind@@PAUClass_System_Object@@@Z 02071f68 f   sc.obj
 0001:00070f94       ?m_AppMain@Class_Microsoft_Singularity_Applications_ServiceManager_StopServiceCommand@@SIHPAU1@@Z 02071f94 f   sc.obj
 0001:00071010       ?m__ctor@Class_Microsoft_Singularity_Applications_ServiceManager_StopServiceCommand@@SIXPAU1@@Z 02072010 f   sc.obj
 0001:00071154       ?m__ctor@Class_Microsoft_Contracts_ContractMarkerException@@SIXPAU1@@Z 02072154 f   sc.obj
 0001:00071178       ?m__ctor@Class_Microsoft_Contracts_ContractException@@SIXPAU1@@Z 02072178 f   sc.obj
 0001:0007119c       ?m_Register@Class_Microsoft_Singularity_Eventing_EventSource@@SI_NPAU1@@Z 0207219c f   sc.obj
 0001:000711d4       ?m_Finalize@Class_Microsoft_Singularity_Eventing_EventSource@@SIXPAU1@@Z 020721d4 f   sc.obj
 0001:0007121c       ?m__ctor@Class_Microsoft_Singularity_Eventing_EventSource@@SIXPAU1@@Z 0207221c f   sc.obj
 0001:00071240       ?m__ctor@Class_Microsoft_Singularity_Eventing_EventSource@@SIXPAU1@PAUClass_System_String@@PAUClass_Microsoft_Singularity_Eventing_EventingStorage@@I@Z 02072240 f   sc.obj
 0001:000712c0       ?m__ctor@Class_Microsoft_Singularity_Eventing_EventSource@@SIXPAU1@PAUClass_Microsoft_Singularity_Eventing_Controller@@PAUClass_System_String@@PAUuintPtr@@@Z 020722c0 f   sc.obj
 0001:00071314       ?m__ctor@Class_System_Runtime_CompilerServices_ExternalEntryPointAttribute@@SIXPAU1@@Z 02072314 f   sc.obj
 0001:00071338       ?g_IsInst@Class_Microsoft_Singularity_Channels_ExHeap@@SI_NPAUvoid@@PAUClass_System_Type@@@Z 02072338 f   sc.obj
 0001:000713c0       ?g_IndirectToData@Class_Microsoft_Singularity_Channels_ExHeap@@SIPAUvoid@@PAU2@@Z 020723c0 f   sc.obj
 0001:0007147c       ?g_GetSize@Class_Microsoft_Singularity_Channels_ExHeap@@SIPAUuintPtr@@PAUvoid@@@Z 0207247c f   sc.obj
 0001:000714f0       ?g_Free@Class_Microsoft_Singularity_Channels_ExHeap@@SIXPAUvoid@@@Z 020724f0 f   sc.obj
 0001:000715ac       ?g_AllocateVector@Class_Microsoft_Singularity_Channels_ExHeap@@SIPAUvoid@@PAUClass_System_Type@@H@Z 020725ac f   sc.obj
 0001:000716ec       ?m__ctor@Class_Microsoft_Singularity_Channels_ExHeap@@SIXPAU1@@Z 020726ec f   sc.obj
 0001:00071704       ?m__ctor@Class_Microsoft_SingSharp_CustomAllocator@@SIXPAU1@@Z 02072704 f   sc.obj
 0001:0007171c       ?m_AppMain@Class_Microsoft_Singularity_Applications_ServiceManager_DeleteServiceCommand@@SIHPAU1@@Z 0207271c f   sc.obj
 0001:0007198c       ?m__ctor@Class_Microsoft_Singularity_Applications_ServiceManager_DeleteServiceCommand@@SIXPAU1@@Z 0207298c f   sc.obj
 0001:00071ad0       ?g__cctor@Class_Microsoft_Singularity_Applications_ServiceManager_DeleteServiceCommand@@SIXXZ 02072ad0 f   sc.obj
 0001:00071b40       ?m_StructCopy@Struct_Microsoft_Singularity_Directory_ServiceProviderContract_NackConnect@@SIXPAU1@0@Z 02072b40 f   sc.obj
 0001:00071b68       ?m_StructCopy@Struct_Microsoft_Singularity_Directory_ServiceProviderContract_NackConnect@@SIXPAU1@PAU1@@Z 02072b68 f   sc.obj
 0001:00071be0       ?m_Equals@Struct_Microsoft_Singularity_Directory_ServiceProviderContract_NackConnect@@SI_NPAU1@PAUClass_System_Object@@@Z 02072be0 f   sc.obj
 0001:00071c28       ?m_Equals@Struct_Microsoft_Singularity_Directory_ServiceProviderContract_NackConnect@@SI_NPAUClass_Microsoft_Singularity_Directory_ServiceProviderContract_NackConnect@@PAUClass_System_Object@@@Z 02072c28 f   sc.obj
 0001:00071c54       ?g_DoCallback@Class_Microsoft_Singularity_Isal_Isa_ICallback@@SIPAUuintPtr@@PAU1@PAU2@@Z 02072c54 f   sc.obj
 0001:00071c8c       ?m__ctor@Class_Microsoft_Singularity_Isal_Isa_ICallback@@SIXPAU1@@Z 02072c8c f   sc.obj
 0001:00071ca8       ?m_Visit@Struct_System_STMWord@@SIXPAU1@PAUClass_System_GCs_DirectReferenceVisitor@@@Z 02072ca8 f   sc.obj
 0001:00071d40       ?m_ToString@Struct_System_STMWord@@SIPAUClass_System_String@@PAU1@@Z 02072d40 f   sc.obj
 0001:00071e44       ?m_ToString@Struct_System_STMWord@@SIPAUClass_System_String@@PAUClass_System_STMWord@@@Z 02072e44 f   sc.obj
 0001:00071e6c       ?m_StructCopy@Struct_System_STMWord@@SIXPAU1@0@Z 02072e6c f   sc.obj
 0001:00071e94       ?m_StructCopy@Struct_System_STMWord@@SIXPAU1@PAU1@@Z 02072e94 f   sc.obj
 0001:00071f0c       ?m_IsQuiescent@Struct_System_STMWord@@SI_NPAU1@@Z 02072f0c f   sc.obj
 0001:00071f34       ?m_IsOwned@Struct_System_STMWord@@SI_NPAU1@@Z 02072f34 f   sc.obj
 0001:00071f5c       ?m_GetPayload@Struct_System_STMWord@@SIPAUuintPtr@@PAU1@@Z 02072f5c f   sc.obj
 0001:00071f80       ?m_GetOwnersVersion@Struct_System_STMWord@@SI?AU1@PAU1@@Z 02072f80 f   sc.obj
 0001:00071fe4       ?m_GetOwner@Struct_System_STMWord@@SIPAUClass_System_TryAllManager@@PAU1@@Z 02072fe4 f   sc.obj
 0001:00072048       ?m_Equals@Struct_System_STMWord@@SI_NPAU1@PAUClass_System_Object@@@Z 02073048 f   sc.obj
 0001:00072090       ?m_Equals@Struct_System_STMWord@@SI_NPAUClass_System_STMWord@@PAUClass_System_Object@@@Z 02073090 f   sc.obj
 0001:000720bc       ?m_Eq@Struct_System_STMWord@@SI_NPAU1@U1@@Z 020730bc f   sc.obj
 0001:000720e8       ?m_Eq@Struct_System_STMWord@@SI_NPAU1@UStruct_System_MultiUseWord_STMSnapshot@@@Z 020730e8 f   sc.obj
 0001:000721dc       ?m__ctor@Struct_System_STMWord@@SIXPAU1@PAUuintPtr@@@Z 020731dc f   sc.obj
 0001:00072200       ?m__ctor@Struct_System_STMWord@@SIXPAU1@PAUuintPtr@@_N@Z 02073200 f   sc.obj
 0001:00072254       ?m_StructCopy@Struct_Microsoft_Singularity_Isal_CpuRecord@@SIXPAU1@0@Z 02073254 f   sc.obj
 0001:000722cc       ?m_StructCopy@Struct_Microsoft_Singularity_Isal_CpuRecord@@SIXPAU1@PAU1@@Z 020732cc f   sc.obj
 0001:00072434       ?m_Equals@Struct_Microsoft_Singularity_Isal_CpuRecord@@SI_NPAU1@PAUClass_System_Object@@@Z 02073434 f   sc.obj
 0001:000725b0       ?m_Equals@Struct_Microsoft_Singularity_Isal_CpuRecord@@SI_NPAUClass_Microsoft_Singularity_Isal_CpuRecord@@PAUClass_System_Object@@@Z 020735b0 f   sc.obj
 0001:000725dc       ?g_VisitWeakRefsPhase2@Class_System_TryAllManager@@SIXPAU1@PAUClass_System_GCs_DirectReferenceVisitor@@@Z 020735dc f   sc.obj
 0001:00072654       ?g_VisitWeakRefsPhase1@Class_System_TryAllManager@@SIXPAU1@PAUClass_System_GCs_DirectReferenceVisitor@@@Z 02073654 f   sc.obj
 0001:00072698       ?g_VisitWeakRefs@Class_System_TryAllManager@@SIXPAUClass_System_GCs_DirectReferenceVisitor@@@Z 02073698 f   sc.obj
 0001:000726c4       ?g_VisitStrongRefs@Class_System_TryAllManager@@SIXPAU1@PAUClass_System_GCs_DirectReferenceVisitor@@@Z 020736c4 f   sc.obj
 0001:00072710       ?g_VisitStrongRefs@Class_System_TryAllManager@@SIXPAUClass_System_GCs_DirectReferenceVisitor@@@Z 02073710 f   sc.obj
 0001:0007273c       ?m_startNestedTryAllHelper@Class_System_TryAllManager@@SIXPAU1@_NH@Z 0207373c f   sc.obj
 0001:00072954       ?m_Shake@Class_System_TryAllManager@@SIXPAU1@_N@Z 02073954 f   sc.obj
 0001:00072970       ?g_SetDuringGC@Class_System_TryAllManager@@SIX_N@Z 02073970 f   sc.obj
 0001:0007298c       ?g_ReplenishTokens@Class_System_TryAllManager@@SIXXZ 0207398c f   sc.obj
 0001:00072a64       ?g_RemoveCache@Class_System_TryAllManager@@SIXPAU1@@Z 02073a64 f   sc.obj
 0001:00072a88       ?g_ReadBarrier@Class_System_TryAllManager@@SIPAUClass_System_Object@@PAUClass_System_GCs_DirectReferenceVisitor@@PAU2@@Z 02073a88 f   sc.obj
 0001:00072ae8       ?g_PreGCHookTryAll@Class_System_TryAllManager@@SIXXZ 02073ae8 f   sc.obj
 0001:00072b0c       ?g_PostGCHookTryAll@Class_System_TryAllManager@@SIXXZ 02073b0c f   sc.obj
 0001:00072b30       ?m_InitLocallyAllocatedSTMWords@Class_System_TryAllManager@@SIXPAU1@@Z 02073b30 f   sc.obj
 0001:00072ca8       ?g_EnsureCache@Class_System_TryAllManager@@SIXPAU1@@Z 02073ca8 f   sc.obj
 0001:00072d04       ?g_DumpPerCallSiteStats@Class_System_TryAllManager@@SIXXZ 02073d04 f   sc.obj
 0001:00072d18       ?g_doVisitWeakRefs@Class_System_TryAllManager@@SIXPAUClass_System_GCs_DirectReferenceVisitor@@@Z 02073d18 f   sc.obj
 0001:00072e60       ?g_doVisitStrongRefs@Class_System_TryAllManager@@SIXPAUClass_System_GCs_DirectReferenceVisitor@@@Z 02073e60 f   sc.obj
 0001:00072f38       ?g_doPreGCHook@Class_System_TryAllManager@@SIXXZ 02073f38 f   sc.obj
 0001:00073024       ?g_doPostGCHook@Class_System_TryAllManager@@SIXXZ 02074024 f   sc.obj
 0001:000732a0       ?m_becomeInvalid@Class_System_TryAllManager@@SIXPAU1@_N@Z 020742a0 f   sc.obj
 0001:00073318       ?m_AllocLocallyAllocatedSTMWords@Class_System_TryAllManager@@SIXPAU1@@Z 02074318 f   sc.obj
 0001:000733c8       ?m__ctor@Class_System_TryAllManager@@SIXPAU1@@Z 020743c8 f   sc.obj
 0001:00073794       ?g__cctor@Class_System_TryAllManager@@SIXXZ 02074794 f   sc.obj
 0001:000737c4       ?m__ctor@Class_System_Globalization_CultureInfo@@SIXPAU1@@Z 020747c4 f   sc.obj
 0001:000737e0       ?g__cctor@Class_System_Globalization_CultureInfo@@SIXXZ 020747e0 f   sc.obj
 0001:00073ce8       ?m__ctor@Class_System_Runtime_CompilerServices_AssertDevirtualizeAttribute@@SIXPAU1@@Z 02074ce8 f   sc.obj
 0001:00073d0c       ?m_StructCopy@Struct_Microsoft_Singularity_Directory_DirectoryServiceContract_NakDeleteFile@@SIXPAU1@0@Z 02074d0c f   sc.obj
 0001:00073d34       ?m_StructCopy@Struct_Microsoft_Singularity_Directory_DirectoryServiceContract_NakDeleteFile@@SIXPAU1@PAU1@@Z 02074d34 f   sc.obj
 0001:00073dac       ?m_Equals@Struct_Microsoft_Singularity_Directory_DirectoryServiceContract_NakDeleteFile@@SI_NPAU1@PAUClass_System_Object@@@Z 02074dac f   sc.obj
 0001:00073e4c       ?m_Equals@Struct_Microsoft_Singularity_Directory_DirectoryServiceContract_NakDeleteFile@@SI_NPAUClass_Microsoft_Singularity_Directory_DirectoryServiceContract_NakDeleteFile@@PAUClass_System_Object@@@Z 02074e4c f   sc.obj
 0001:00073e78       ?m_Visit@Class_System_GCs_MarkSweepCollector_ThreadMarkReferenceVisitor@@SIXPAU1@PAPAUuintPtr@@@Z 02074e78 f   sc.obj
 0001:00074268       ?m__ctor@Class_System_GCs_MarkSweepCollector_ThreadMarkReferenceVisitor@@SIXPAU1@@Z 02075268 f   sc.obj
 0001:0007428c       ?m_VisitReferenceFields@Class_System_GCs_NonNullReferenceVisitor@@SIPAUuintPtr@@PAU1@PAU2@PAUClass_System_VTable@@@Z 0207528c f   sc.obj
 0001:00074a28       ?m_VisitReferenceFields@Class_System_GCs_NonNullReferenceVisitor@@SIPAUuintPtr@@PAU1@PAUClass_System_Object@@@Z 02075a28 f   sc.obj
 0001:00074a74       ?m_Filter@Class_System_GCs_NonNullReferenceVisitor@@SIXPAU1@PAPAUuintPtr@@PAUStruct_System_GCs_ReferenceVisitor_ObjectDescriptor@@@Z 02075a74 f   sc.obj
 0001:00074aac       ?m__ctor@Class_System_GCs_NonNullReferenceVisitor@@SIXPAU1@@Z 02075aac f   sc.obj
 0001:00074ad0       ?m__ctor@Class_System_GCs_DirectReferenceVisitor@@SIXPAU1@@Z 02075ad0 f   sc.obj
 0001:00074af4       ?m_VisitReferenceFieldsTemplateNoInline@Class_System_GCs_ReferenceVisitor@@SIPAUuintPtr@@PAU1@PAUStruct_System_GCs_ReferenceVisitor_ObjectDescriptor@@@Z 02075af4 f   sc.obj
 0001:000750e0       ?m_VisitReferenceFieldsTemplate@Class_System_GCs_ReferenceVisitor@@SIPAUuintPtr@@PAU1@PAUStruct_System_GCs_ReferenceVisitor_ObjectDescriptor@@@Z 020760e0 f   sc.obj
 0001:000755f4       ?m_VisitReferenceFieldsTemplate@Class_System_GCs_ReferenceVisitor@@SIXPAU1@PAUStruct_System_GCs_ReferenceVisitor_ObjectDescriptor@@H@Z 020765f4 f   sc.obj
 0001:000757e0       ?m_VisitReferenceFields@Class_System_GCs_ReferenceVisitor@@SIPAUuintPtr@@PAU1@PAUClass_System_Object@@@Z 020767e0 f   sc.obj
 0001:0007582c       ?m__ctor@Class_System_GCs_ReferenceVisitor@@SIXPAU1@@Z 0207682c f   sc.obj
 0001:00075848       ?m_WaitForMonitor@Class_System_Threading_Thread@@SI_NPAU1@UStruct_System_SchedulerTime@@@Z 02076848 f   sc.obj
 0001:00075890       ?g_WaitForGCEvent@Class_System_Threading_Thread@@SI_NH@Z 02076890 f   sc.obj
 0001:000758e0       ?g_VisitBootstrapData@Class_System_Threading_Thread@@SIXPAUClass_System_GCs_ReferenceVisitor@@@Z 020768e0 f   sc.obj
 0001:0007591c       ?g_ThreadStub@Class_System_Threading_Thread@@SIXH@Z 0207691c f   sc.obj
 0001:00075d94       ?m_Start@Class_System_Threading_Thread@@SIXPAU1@@Z 02076d94 f   sc.obj
 0001:00075e98       ?m_SignalMonitor@Class_System_Threading_Thread@@SIXPAU1@@Z 02076e98 f   sc.obj
 0001:00075ec0       ?g_SignalGCEvent@Class_System_Threading_Thread@@SIXH@Z 02076ec0 f   sc.obj
 0001:00075f18       ?m_SetIgnoredByJoinAll@Class_System_Threading_Thread@@SIXPAU1@@Z 02076f18 f   sc.obj
 0001:00075f38       ?m_set$_DebugName@Class_System_Threading_Thread@@SIXPAU1@PAUClass_System_String@@@Z 02076f38 f   sc.obj
 0001:00075f60       ?g_RemoveThread@Class_System_Threading_Thread@@SIXH@Z 02076f60 f   sc.obj
 0001:00076014       ?m_PushSelectSyncHandles@Class_System_Threading_Thread@@SIXPAU1@PAUClassVector_Struct_Microsoft_Singularity_V1_Threads_SyncHandle@@@Z 02077014 f   sc.obj
 0001:0007608c       ?m_PushSelectObjects@Class_System_Threading_Thread@@SIXPAU1@PAUClassVector_Class_Microsoft_Singularity_Channels_ISelectable@@@Z 0207708c f   sc.obj
 0001:00076100       ?m_PushSelectBools@Class_System_Threading_Thread@@SIXPAU1@PAUClassVector_bool@@@Z 02077100 f   sc.obj
 0001:0007612c       ?m_PopSelectSyncHandles@Class_System_Threading_Thread@@SIPAUClassVector_Struct_Microsoft_Singularity_V1_Threads_SyncHandle@@PAU1@H@Z 0207712c f   sc.obj
 0001:000761e0       ?m_PopSelectObjects@Class_System_Threading_Thread@@SIPAUClassVector_Class_Microsoft_Singularity_Channels_ISelectable@@PAU1@H@Z 020771e0 f   sc.obj
 0001:00076294       ?m_PopSelectBools@Class_System_Threading_Thread@@SIPAUClassVector_bool@@PAU1@H@Z 02077294 f   sc.obj
 0001:00076348       ?m_NotifySpinLockReleased@Class_System_Threading_Thread@@SIXPAU1@H@Z 02077348 f   sc.obj
 0001:00076364       ?m_NotifySpinLockAboutToAcquire@Class_System_Threading_Thread@@SIXPAU1@H@Z 02077364 f   sc.obj
 0001:00076380       ?g_NotifyServiceThreads@Class_System_Threading_Thread@@SIXXZ 02077380 f   sc.obj
 0001:00076478       ?g_JoinAll@Class_System_Threading_Thread@@SI_NXZ 02077478 f   sc.obj
 0001:000765dc       ?m_Join@Class_System_Threading_Thread@@SIXPAU1@@Z 020775dc f   sc.obj
 0001:0007663c       ?m_Join@Class_System_Threading_Thread@@SI_NPAU1@UStruct_System_SchedulerTime@@@Z 0207763c f   sc.obj
 0001:000766a8       ?m_GetThreadId@Class_System_Threading_Thread@@SIHPAU1@@Z 020776a8 f   sc.obj
 0001:000766c8       ?g_GetCurrentThreadNative@Class_System_Threading_Thread@@SIPAU1@XZ 020776c8 f   sc.obj
 0001:000766e0       ?g_GetCurrentThreadIndex@Class_System_Threading_Thread@@SIHXZ 020776e0 f   sc.obj
 0001:000766fc       ?m_get$_DebugName@Class_System_Threading_Thread@@SIPAUClass_System_String@@PAU1@@Z 020776fc f   sc.obj
 0001:0007671c       ?g_get$_CurrentThread@Class_System_Threading_Thread@@SIPAU1@XZ 0207771c f   sc.obj
 0001:00076734       ?g_FinishInitializeThread@Class_System_Threading_Thread@@SIXXZ 02077734 f   sc.obj
 0001:000768a4       ?m_Finalize@Class_System_Threading_Thread@@SIXPAU1@@Z 020778a4 f   sc.obj
 0001:00076908       ?g_CheckKernelProcessBoundary@Class_System_Threading_Thread@@SIPAUuintPtr@@PAU2@0PAUClass_System_Exception@@@Z 02077908 f   sc.obj
 0001:000769bc       ?g_AddThread@Class_System_Threading_Thread@@SI_NH@Z 020779bc f   sc.obj
 0001:00076a90       ?m__ctor@Class_System_Threading_Thread@@SIXPAU1@@Z 02077a90 f   sc.obj
 0001:00076aac       ?m__ctor@Class_System_Threading_Thread@@SIXPAU1@PAUClass_System_Threading_ThreadStart@@@Z 02077aac f   sc.obj
 0001:00076db8       ?g__cctor@Class_System_Threading_Thread@@SIXXZ 02077db8 f   sc.obj
 0001:00076e74       ?m_Top@Struct_Microsoft_Singularity_Channels_StateStack@@SIHPAU1@@Z 02077e74 f   sc.obj
 0001:00076eb4       ?m_StructCopy@Struct_Microsoft_Singularity_Channels_StateStack@@SIXPAU1@0@Z 02077eb4 f   sc.obj
 0001:00076edc       ?m_StructCopy@Struct_Microsoft_Singularity_Channels_StateStack@@SIXPAU1@PAU1@@Z 02077edc f   sc.obj
 0001:00076f54       ?m_Set@Struct_Microsoft_Singularity_Channels_StateStack@@SIXPAU1@H@Z 02077f54 f   sc.obj
 0001:00076f8c       ?m_Equals@Struct_Microsoft_Singularity_Channels_StateStack@@SI_NPAU1@PAUClass_System_Object@@@Z 02077f8c f   sc.obj
 0001:00076fd4       ?m_Equals@Struct_Microsoft_Singularity_Channels_StateStack@@SI_NPAUClass_Microsoft_Singularity_Channels_StateStack@@PAUClass_System_Object@@@Z 02077fd4 f   sc.obj
 0001:00077000       ?m__ctor@Struct_Microsoft_Singularity_Channels_StateStack@@SIXPAU1@H@Z 02078000 f   sc.obj
 0001:0007702c       ?m_ToString@Struct_System_StackHeight@@SIPAUClass_System_String@@PAU1@@Z 0207802c f   sc.obj
 0001:00077088       ?m_ToString@Struct_System_StackHeight@@SIPAUClass_System_String@@PAUClass_System_StackHeight@@@Z 02078088 f   sc.obj
 0001:000770b0       ?m_StructCopy@Struct_System_StackHeight@@SIXPAU1@0@Z 020780b0 f   sc.obj
 0001:000770d8       ?m_StructCopy@Struct_System_StackHeight@@SIXPAU1@PAU1@@Z 020780d8 f   sc.obj
 0001:00077150       ?m_Equals@Struct_System_StackHeight@@SI_NPAU1@PAUClass_System_Object@@@Z 02078150 f   sc.obj
 0001:00077198       ?m_Equals@Struct_System_StackHeight@@SI_NPAUClass_System_StackHeight@@PAUClass_System_Object@@@Z 02078198 f   sc.obj
 0001:000771c4       ?g_VisitWeakRefs@Struct_System_MultiUseWord@@SIXPAUClass_System_GCs_DirectReferenceVisitor@@_N@Z 020781c4 f   sc.obj
 0001:00077330       ?g_VisitStrongRefsNonRC@Struct_System_MultiUseWord@@SIXPAUClass_System_GCs_DirectReferenceVisitor@@_N@Z 02078330 f   sc.obj
 0001:000774f8       ?g_VisitStrongRefs@Struct_System_MultiUseWord@@SIXPAUClass_System_GCs_DirectReferenceVisitor@@_N@Z 020784f8 f   sc.obj
 0001:00077520       ?m_StructCopy@Struct_System_MultiUseWord@@SIXPAU1@0@Z 02078520 f   sc.obj
 0001:00077548       ?m_StructCopy@Struct_System_MultiUseWord@@SIXPAU1@PAU1@@Z 02078548 f   sc.obj
 0001:000775c0       ?g_SetValForObject@Struct_System_MultiUseWord@@SIXPAUClass_System_Object@@PAUuintPtr@@@Z 020785c0 f   sc.obj
 0001:00077600       ?g_SetForObject@Struct_System_MultiUseWord@@SIXPAUClass_System_Object@@U1@@Z 02078600 f   sc.obj
 0001:00077630       ?g_PreGCHook@Struct_System_MultiUseWord@@SIX_N@Z 02078630 f   sc.obj
 0001:00077654       ?g_PreGCHook@Struct_System_MultiUseWord@@SIX_N0@Z 02078654 f   sc.obj
 0001:000776e4       ?g_PostGCHook@Struct_System_MultiUseWord@@SIX_N@Z 020786e4 f   sc.obj
 0001:00077974       ?g_PostGCHook@Struct_System_MultiUseWord@@SIXXZ 02078974 f   sc.obj
 0001:00077990       ?g_Occasionally@Struct_System_MultiUseWord@@SI_NXZ 02078990 f   sc.obj
 0001:000779b4       ?m_IsUnused@Struct_System_MultiUseWord@@SI_NPAU1@@Z 020789b4 f   sc.obj
 0001:000779e4       ?m_IsMonitor@Struct_System_MultiUseWord@@SI_NPAU1@@Z 020789e4 f   sc.obj
 0001:00077a18       ?m_IsMarked@Struct_System_MultiUseWord@@SI_NPAU1@@Z 02078a18 f   sc.obj
 0001:00077a58       ?g_IsMarked@Struct_System_MultiUseWord@@SI_NPAUClass_System_Object@@@Z 02078a58 f   sc.obj
 0001:00077a98       ?m_IsInflated@Struct_System_MultiUseWord@@SI_NPAU1@@Z 02078a98 f   sc.obj
 0001:00077acc       ?g_Inflate@Struct_System_MultiUseWord@@SIXPAUClass_System_Object@@@Z 02078acc f   sc.obj
 0001:00077cec       ?g_IncrementMonitorEMUAllocCount@Struct_System_MultiUseWord@@SIXXZ 02078cec f   sc.obj
 0001:00077d0c       ?g_IncrementInflationToCount@Struct_System_MultiUseWord@@SIXI@Z 02078d0c f   sc.obj
 0001:00077d68       ?g_IncrementInflationFromCount@Struct_System_MultiUseWord@@SIXI@Z 02078d68 f   sc.obj
 0001:00077dc4       ?g_IncrementFullEMUAllocCount@Struct_System_MultiUseWord@@SIXXZ 02078dc4 f   sc.obj
 0001:00077de4       ?g_IncrementDeadEMUsCount@Struct_System_MultiUseWord@@SIXXZ 02078de4 f   sc.obj
 0001:00077e04       ?g_IncrementAbandonedEMUsCount@Struct_System_MultiUseWord@@SIXXZ 02078e04 f   sc.obj
 0001:00077e24       ?m_GetTag@Struct_System_MultiUseWord@@SIIPAU1@@Z 02078e24 f   sc.obj
 0001:00077e58       ?m_GetRefPayload@Struct_System_MultiUseWord@@SIPAUClass_System_Object@@PAU1@@Z 02078e58 f   sc.obj
 0001:00077efc       ?m_GetPayload@Struct_System_MultiUseWord@@SIPAUuintPtr@@PAU1@@Z 02078efc f   sc.obj
 0001:00077f3c       ?g_GetMonitorSlow@Struct_System_MultiUseWord@@SIPAUClass_System_Threading_Monitor@@PAUClass_System_Object@@U1@@Z 02078f3c f   sc.obj
 0001:00078138       ?g_GetMonitor@Struct_System_MultiUseWord@@SIPAUClass_System_Threading_Monitor@@PAUClass_System_Object@@@Z 02079138 f   sc.obj
 0001:0007820c       ?g_GetHashCodeSlow@Struct_System_MultiUseWord@@SIHPAUClass_System_Object@@U1@@Z 0207920c f   sc.obj
 0001:0007837c       ?g_GetHashCode@Struct_System_MultiUseWord@@SIHPAUClass_System_Object@@@Z 0207937c f   sc.obj
 0001:00078414       ?g_GetForObject@Struct_System_MultiUseWord@@SI?AU1@PAUClass_System_Object@@@Z 02079414 f   sc.obj
 0001:00078458       ?m_GetEMURefPayload@Struct_System_MultiUseWord@@SIPAUClass_System_EMU@@PAU1@@Z 02079458 f   sc.obj
 0001:000784e4       ?g_get$_PAYLOAD$_MASK@Struct_System_MultiUseWord@@SIPAUuintPtr@@XZ 020794e4 f   sc.obj
 0001:000784fc       ?g_get$_MARK$_BIT$_MASK@Struct_System_MultiUseWord@@SIPAUuintPtr@@XZ 020794fc f   sc.obj
 0001:00078514       ?m_Equals@Struct_System_MultiUseWord@@SI_NPAU1@PAUClass_System_Object@@@Z 02079514 f   sc.obj
 0001:0007855c       ?m_Equals@Struct_System_MultiUseWord@@SI_NPAUClass_System_MultiUseWord@@PAUClass_System_Object@@@Z 0207955c f   sc.obj
 0001:00078588       ?m_Eq@Struct_System_MultiUseWord@@SI_NPAU1@U1@@Z 02079588 f   sc.obj
 0001:000785b4       ?g_DumpTables@Struct_System_MultiUseWord@@SIXXZ 020795b4 f   sc.obj
 0001:00078c04       ?g_ComputeEmuCount@Struct_System_MultiUseWord@@SIX_N@Z 02079c04 f   sc.obj
 0001:00078c9c       ?g_CompareExchangeForObject@Struct_System_MultiUseWord@@SIPAUuintPtr@@PAUClass_System_Object@@PAU2@1@Z 02079c9c f   sc.obj
 0001:00078cf8       ?g_CompareExchangeForObject@Struct_System_MultiUseWord@@SI?AU1@PAUClass_System_Object@@U1@1@Z 02079cf8 f   sc.obj
 0001:00078d4c       ?g_CollectFromThreads@Struct_System_MultiUseWord@@SIX_N@Z 02079d4c f   sc.obj
 0001:00078de8       ?g_CollectFromThread@Struct_System_MultiUseWord@@SIXPAUClass_System_Threading_Thread@@@Z 02079de8 f   sc.obj
 0001:00078e78       ?g_CollectFromPreviousCollections@Struct_System_MultiUseWord@@SIX_N@Z 02079e78 f   sc.obj
 0001:00078ec0       ?g_ChooseHashCode@Struct_System_MultiUseWord@@SIHPAUClass_System_Object@@@Z 02079ec0 f   sc.obj
 0001:00078f10       ?m__ctor@Struct_System_MultiUseWord@@SIXPAU1@PAUuintPtr@@@Z 02079f10 f   sc.obj
 0001:00078f34       ?m__ctor@Struct_System_MultiUseWord@@SIXPAU1@IPAUuintPtr@@@Z 02079f34 f   sc.obj
 0001:00078f90       ?m__ctor@Struct_System_MultiUseWord@@SIXPAU1@IPAUClass_System_Object@@@Z 02079f90 f   sc.obj
 0001:00079060       ?g__cctor@Struct_System_MultiUseWord@@SIXXZ 0207a060 f   sc.obj
 0001:0007909c       ?g_TransferOwnership@Struct_Microsoft_Singularity_Directory_ServiceContract_Exp@@SIXPAUStruct_Microsoft_Singularity_Channels_Endpoint@@PAU1@@Z 0207a09c f   sc.obj
 0001:000790e0       ?m_TransferContentsOwnership@Struct_Microsoft_Singularity_Directory_ServiceContract_Exp@@SIXPAU1@PAUStruct_Microsoft_Singularity_Channels_Endpoint@@@Z 0207a0e0 f   sc.obj
 0001:0007910c       ?m_StructCopy@Struct_Microsoft_Singularity_Directory_ServiceContract_Exp@@SIXPAU1@0@Z 0207a10c f   sc.obj
 0001:000791d8       ?m_StructCopy@Struct_Microsoft_Singularity_Directory_ServiceContract_Exp@@SIXPAU1@PAU1@@Z 0207a1d8 f   sc.obj
 0001:0007943c       ?m_Peek@Struct_Microsoft_Singularity_Directory_ServiceContract_Exp@@SIHPAU1@@Z 0207a43c f   sc.obj
 0001:00079504       ?m_MarshallContent@Struct_Microsoft_Singularity_Directory_ServiceContract_Exp@@SIXPAU1@PAEPAUStruct_Microsoft_Singularity_Channels_Endpoint@@1@Z 0207a504 f   sc.obj
 0001:00079524       ?m_InState@Struct_Microsoft_Singularity_Directory_ServiceContract_Exp@@SI_NPAU1@H@Z 0207a524 f   sc.obj
 0001:000795b4       ?m_HeadMatches@Struct_Microsoft_Singularity_Directory_ServiceContract_Exp@@SI_NPAU1@HPA_NPAPAUClass_System_Object@@@Z 0207a5b4 f   sc.obj
 0001:00079674       ?m_HeadMatches@Struct_Microsoft_Singularity_Directory_ServiceContract_Exp@@SI_NPAUClass_Microsoft_Singularity_Directory_ServiceContract_Exp@@HPA_NPAPAUClass_System_Object@@@Z 0207a674 f   sc.obj
 0001:000796ac       ?m_Equals@Struct_Microsoft_Singularity_Directory_ServiceContract_Exp@@SI_NPAU1@PAUClass_System_Object@@@Z 0207a6ac f   sc.obj
 0001:00079924       ?m_Equals@Struct_Microsoft_Singularity_Directory_ServiceContract_Exp@@SI_NPAUClass_Microsoft_Singularity_Directory_ServiceContract_Exp@@PAUClass_System_Object@@@Z 0207a924 f   sc.obj
 0001:00079950       ?m_Dispose@Struct_Microsoft_Singularity_Directory_ServiceContract_Exp@@SIXPAU1@@Z 0207a950 f   sc.obj
 0001:00079974       ?m_Dispose@Struct_Microsoft_Singularity_Directory_ServiceContract_Exp@@SIXPAUClass_Microsoft_Singularity_Directory_ServiceContract_Exp@@@Z 0207a974 f   sc.obj
 0001:0007999c       ?m_CurrentState@Struct_Microsoft_Singularity_Directory_ServiceContract_Exp@@SIPAUClass_System_String@@PAU1@@Z 0207a99c f   sc.obj
 0001:00079a18       ?m__ctor@Struct_Microsoft_Singularity_Directory_ServiceContract_Exp@@SIXPAU1@H@Z 0207aa18 f   sc.obj
 0001:00079a44       ?m__ctor@Class_System_ArrayTypeMismatchException@@SIXPAU1@@Z 0207aa44 f   sc.obj
 0001:00079a6c       ?m__ctor@Class_System_ArrayTypeMismatchException@@SIXPAU1@PAUClass_System_String@@@Z 0207aa6c f   sc.obj
 0001:00079a94       ?m_Microsoft_Singularity_Channels_ISelectable_GetWaitHandle@Class_Microsoft_Singularity_Io_PipeLookAhead@@SI?AUStruct_Microsoft_Singularity_V1_Threads_SyncHandle@@PAU1@@Z 0207aa94 f   sc.obj
 0001:00079b48       ?m_Microsoft_SingSharp_ITracked_UnExpose@Class_Microsoft_Singularity_Io_PipeLookAhead@@SIXPAU1@@Z 0207ab48 f   sc.obj
 0001:00079b64       ?m_Microsoft_SingSharp_ITracked_Release@Class_Microsoft_Singularity_Io_PipeLookAhead@@SIXPAU1@@Z 0207ab64 f   sc.obj
 0001:00079b80       ?m_Microsoft_SingSharp_ITracked_Expose@Class_Microsoft_Singularity_Io_PipeLookAhead@@SIXPAU1@@Z 0207ab80 f   sc.obj
 0001:00079b9c       ?m_Microsoft_SingSharp_ITracked_Acquire@Class_Microsoft_Singularity_Io_PipeLookAhead@@SIXPAU1@@Z 0207ab9c f   sc.obj
 0001:00079bb8       ?m_HeadMatches@Class_Microsoft_Singularity_Io_PipeLookAhead@@SI_NPAU1@HPA_NPAPAUClass_System_Object@@@Z 0207abb8 f   sc.obj
 0001:00079d08       ?m_get$_IsClosed@Class_Microsoft_Singularity_Io_PipeLookAhead@@SI_NPAU1@@Z 0207ad08 f   sc.obj
 0001:00079da4       ?m_get$_HasControlZ@Class_Microsoft_Singularity_Io_PipeLookAhead@@SI_NPAU1@@Z 0207ada4 f   sc.obj
 0001:00079e1c       ?m_get$_HasControlC@Class_Microsoft_Singularity_Io_PipeLookAhead@@SI_NPAU1@@Z 0207ae1c f   sc.obj
 0001:00079e94       ?m_get$_HasCharacter@Class_Microsoft_Singularity_Io_PipeLookAhead@@SI_NPAU1@@Z 0207ae94 f   sc.obj
 0001:00079f14       ?m_FillToLookAheadWithoutBlock@Class_Microsoft_Singularity_Io_PipeLookAhead@@SIXPAU1@@Z 0207af14 f   sc.obj
 0001:0007a16c       ?m_Dispose@Class_Microsoft_Singularity_Io_PipeLookAhead@@SIXPAU1@@Z 0207b16c f   sc.obj
 0001:0007a1f4       ?m__ctor@Class_Microsoft_Singularity_Io_PipeLookAhead@@SIXPAU1@PAUStruct_Microsoft_Singularity_Io_UnicodePipeContract_Exp@@H@Z 0207b1f4 f   sc.obj
 0001:0007a298       ?g__cctor@Class_Microsoft_Singularity_Io_PipeLookAhead@@SIXXZ 0207b298 f   sc.obj
 0001:0007a358       ?m_ToString@float32@@SIPAUClass_System_String@@PAM@Z 0207b358 f   sc.obj
 0001:0007a380       ?m_ToString@float32@@SIPAUClass_System_String@@PAMPAU2@@Z 0207b380 f   sc.obj
 0001:0007a3cc       ?m_ToString@float32@@SIPAUClass_System_String@@PAUClass_System_Single@@@Z 0207b3cc f   sc.obj
 0001:0007a3f4       ?m_ToString@float32@@SIPAUClass_System_String@@PAUClass_System_Single@@PAU2@@Z 0207b3f4 f   sc.obj
 0001:0007a420       ?g_IsNaN@float32@@SI_NM@Z  0207b420 f   sc.obj
 0001:0007a4b8       ?m_GetHashCode@float32@@SIHPAM@Z 0207b4b8 f   sc.obj
 0001:0007a4ec       ?m_GetHashCode@float32@@SIHPAUClass_System_Single@@@Z 0207b4ec f   sc.obj
 0001:0007a514       ?m_Equals@float32@@SI_NPAMPAUClass_System_Object@@@Z 0207b514 f   sc.obj
 0001:0007a5bc       ?m_Equals@float32@@SI_NPAUClass_System_Single@@PAUClass_System_Object@@@Z 0207b5bc f   sc.obj
 0001:0007a5e8       ?m_CompareTo@float32@@SIHPAMPAUClass_System_Object@@@Z 0207b5e8 f   sc.obj
 0001:0007a72c       ?m_CompareTo@float32@@SIHPAUClass_System_Single@@PAUClass_System_Object@@@Z 0207b72c f   sc.obj
 0001:0007a758       ?m_StructCopy@Struct_System_GCs_CalleeSaveRegisters@@SIXPAU1@0@Z 0207b758 f   sc.obj
 0001:0007a7a4       ?m_StructCopy@Struct_System_GCs_CalleeSaveRegisters@@SIXPAU1@PAU1@@Z 0207b7a4 f   sc.obj
 0001:0007a888       ?m_GetFramePointer@Struct_System_GCs_CalleeSaveRegisters@@SIPAUuintPtr@@PAU1@@Z 0207b888 f   sc.obj
 0001:0007a8a8       ?m_Equals@Struct_System_GCs_CalleeSaveRegisters@@SI_NPAU1@PAUClass_System_Object@@@Z 0207b8a8 f   sc.obj
 0001:0007a920       ?m_Equals@Struct_System_GCs_CalleeSaveRegisters@@SI_NPAUClass_System_GCs_CalleeSaveRegisters@@PAUClass_System_Object@@@Z 0207b920 f   sc.obj
 0001:0007a94c       ?m_DebugTrace@Struct_System_GCs_CalleeSaveRegisters@@SIXPAU1@@Z 0207b94c f   sc.obj
 0001:0007a968       ?g_Type@Class_System_GCs_PageTable@@SI?AUStruct_System_GCs_PageType@@PAUuintPtr@@@Z 0207b968 f   sc.obj
 0001:0007a9d8       ?g_SetType@Class_System_GCs_PageTable@@SIXPAUuintPtr@@0UStruct_System_GCs_PageType@@@Z 0207b9d8 f   sc.obj
 0001:0007aab0       ?g_SetType@Class_System_GCs_PageTable@@SIXPAUuintPtr@@UStruct_System_GCs_PageType@@@Z 0207bab0 f   sc.obj
 0001:0007ab4c       ?g_SetProcessTag@Class_System_GCs_PageTable@@SIXPAUuintPtr@@0I@Z 0207bb4c f   sc.obj
 0001:0007ac20       ?g_SetProcessTag@Class_System_GCs_PageTable@@SIXPAUuintPtr@@I@Z 0207bc20 f   sc.obj
 0001:0007acc8       ?g_SetProcess@Class_System_GCs_PageTable@@SIXPAUuintPtr@@0@Z 0207bcc8 f   sc.obj
 0001:0007adcc       ?g_SetPageTableEntry@Class_System_GCs_PageTable@@SIXPAUuintPtr@@I@Z 0207bdcc f   sc.obj
 0001:0007adfc       ?g_SetExtra@Class_System_GCs_PageTable@@SIXPAUuintPtr@@I@Z 0207bdfc f   sc.obj
 0001:0007aeac       ?g_RegionSize@Class_System_GCs_PageTable@@SIPAUuintPtr@@PAU2@@Z 0207beac f   sc.obj
 0001:0007aed8       ?g_ProcessTag@Class_System_GCs_PageTable@@SIIPAUuintPtr@@@Z 0207bed8 f   sc.obj
 0001:0007af48       ?g_Process@Class_System_GCs_PageTable@@SIGPAUuintPtr@@@Z 0207bf48 f   sc.obj
 0001:0007afb8       ?g_PageTableEntry@Class_System_GCs_PageTable@@SIIPAUuintPtr@@@Z 0207bfb8 f   sc.obj
 0001:0007aff0       ?g_PagePad@Class_System_GCs_PageTable@@SIPAUuintPtr@@PAU2@@Z 0207bff0 f   sc.obj
 0001:0007b06c       ?g_PageCount@Class_System_GCs_PageTable@@SIPAUuintPtr@@PAU2@@Z 0207c06c f   sc.obj
 0001:0007b0cc       ?g_PageAligned@Class_System_GCs_PageTable@@SI_NPAUuintPtr@@@Z 0207c0cc f   sc.obj
 0001:0007b120       ?g_PageAlign@Class_System_GCs_PageTable@@SIPAUuintPtr@@PAU2@@Z 0207c120 f   sc.obj
 0001:0007b17c       ?g_PageAddr@Class_System_GCs_PageTable@@SIPAUuintPtr@@PAU2@@Z 0207c17c f   sc.obj
 0001:0007b1b0       ?g_Page@Class_System_GCs_PageTable@@SIPAUuintPtr@@PAU2@@Z 0207c1b0 f   sc.obj
 0001:0007b210       ?g_MyType@Class_System_GCs_PageTable@@SI?AUStruct_System_GCs_PageType@@PAUuintPtr@@@Z 0207c210 f   sc.obj
 0001:0007b2a0       ?g_IsUnusedPageType@Class_System_GCs_PageTable@@SI_NUStruct_System_GCs_PageType@@@Z 0207c2a0 f   sc.obj
 0001:0007b2d4       ?g_IsUnusedPage@Class_System_GCs_PageTable@@SI_NPAUuintPtr@@@Z 0207c2d4 f   sc.obj
 0001:0007b370       ?g_IsStackPage@Class_System_GCs_PageTable@@SI_NUStruct_System_GCs_PageType@@@Z 0207c370 f   sc.obj
 0001:0007b394       ?g_IsSharedPage@Class_System_GCs_PageTable@@SI_NUStruct_System_GCs_PageType@@@Z 0207c394 f   sc.obj
 0001:0007b3b8       ?g_IsNonGcPage@Class_System_GCs_PageTable@@SI_NUStruct_System_GCs_PageType@@@Z 0207c3b8 f   sc.obj
 0001:0007b3dc       ?g_IsMyPage@Class_System_GCs_PageTable@@SI_NPAUuintPtr@@@Z 0207c3dc f   sc.obj
 0001:0007b460       ?g_IsMyGcPage@Class_System_GCs_PageTable@@SI_NPAUuintPtr@@@Z 0207c460 f   sc.obj
 0001:0007b57c       ?g_IsKernelPage@Class_System_GCs_PageTable@@SI_NPAUuintPtr@@@Z 0207c57c f   sc.obj
 0001:0007b600       ?g_IsGcPage@Class_System_GCs_PageTable@@SI_NPAUuintPtr@@@Z 0207c600 f   sc.obj
 0001:0007b690       ?g_IsGcPage@Class_System_GCs_PageTable@@SI_NUStruct_System_GCs_PageType@@@Z 0207c690 f   sc.obj
 0001:0007b6b8       ?g_IsForeignAddr@Class_System_GCs_PageTable@@SI_NPAUuintPtr@@@Z 0207c6b8 f   sc.obj
 0001:0007b6f8       ?g_IsAddrOnPage@Class_System_GCs_PageTable@@SI_NPAUuintPtr@@0@Z 0207c6f8 f   sc.obj
 0001:0007b738       ?g_Initialize@Class_System_GCs_PageTable@@SIXXZ 0207c738 f   sc.obj
 0001:0007b7c8       ?g_get$_PageSize@Class_System_GCs_PageTable@@SIPAUuintPtr@@XZ 0207c7c8 f   sc.obj
 0001:0007b7f0       ?g_get$_PageMask@Class_System_GCs_PageTable@@SIPAUuintPtr@@XZ 0207c7f0 f   sc.obj
 0001:0007b828       ?g_get$_PageBits@Class_System_GCs_PageTable@@SIEXZ 0207c828 f   sc.obj
 0001:0007b840       ?g_get$_PageAlignMask@Class_System_GCs_PageTable@@SIPAUuintPtr@@XZ 0207c840 f   sc.obj
 0001:0007b888       ?g_Extra@Class_System_GCs_PageTable@@SIIPAUuintPtr@@@Z 0207c888 f   sc.obj
 0001:0007b924       ?g_Dump@Class_System_GCs_PageTable@@SI_NG@Z 0207c924 f   sc.obj
 0001:0007bd40       ?g_Dump@Class_System_GCs_PageTable@@SIXPAUClass_System_String@@@Z 0207cd40 f   sc.obj
 0001:0007c3c0       ?m__ctor@Class_System_GCs_PageTable@@SIXPAU1@@Z 0207d3c0 f   sc.obj
 0001:0007c3dc       ?m__ctor@Class_System_Threading_ThreadQueueItem@@SIXPAU1@PAUClass_System_Threading_Thread@@@Z 0207d3dc f   sc.obj
 0001:0007c42c       ?m_StructCopy@Struct_Microsoft_Singularity_ServiceManager_ServiceManagerContract_StartServiceWait@@SIXPAU1@0@Z 0207d42c f   sc.obj
 0001:0007c448       ?m_StructCopy@Struct_Microsoft_Singularity_ServiceManager_ServiceManagerContract_StartServiceWait@@SIXPAU1@PAU1@@Z 0207d448 f   sc.obj
 0001:0007c49c       ?m_MarshallContent@Struct_Microsoft_Singularity_ServiceManager_ServiceManagerContract_StartServiceWait@@SIXPAU1@PAEPAUStruct_Microsoft_Singularity_Channels_Endpoint@@1PAH@Z 0207d49c f   sc.obj
 0001:0007c4bc       ?m_MarshallAll@Struct_Microsoft_Singularity_ServiceManager_ServiceManagerContract_StartServiceWait@@SIXPAU1@PAEPAUStruct_Microsoft_Singularity_Channels_Endpoint@@PAH@Z 0207d4bc f   sc.obj
 0001:0007c514       ?m_Equals@Struct_Microsoft_Singularity_ServiceManager_ServiceManagerContract_StartServiceWait@@SI_NPAU1@PAUClass_System_Object@@@Z 0207d514 f   sc.obj
 0001:0007c54c       ?m_Equals@Struct_Microsoft_Singularity_ServiceManager_ServiceManagerContract_StartServiceWait@@SI_NPAUClass_Microsoft_Singularity_ServiceManager_ServiceManagerContract_StartServiceWait@@PAUClass_System_Object@@@Z 0207d54c f   sc.obj
 0001:0007c578       ?m_StructCopy@Struct_Microsoft_Singularity_Io_UnicodePipeContract_Exp@@SIXPAU1@0@Z 0207d578 f   sc.obj
 0001:0007c654       ?m_StructCopy@Struct_Microsoft_Singularity_Io_UnicodePipeContract_Exp@@SIXPAU1@PAU1@@Z 0207d654 f   sc.obj
 0001:0007c8e8       ?m_SendAckWrite@Struct_Microsoft_Singularity_Io_UnicodePipeContract_Exp@@SIXPAU1@PA_W@Z 0207d8e8 f   sc.obj
 0001:0007c9fc       ?m_Release@Struct_Microsoft_Singularity_Io_UnicodePipeContract_Exp@@SIXPAU1@@Z 0207d9fc f   sc.obj
 0001:0007ca18       ?m_RecvWrite@Struct_Microsoft_Singularity_Io_UnicodePipeContract_Exp@@SIXPAU1@PAPA_WPAH2@Z 0207da18 f   sc.obj
 0001:0007cbc0       ?m_Peek@Struct_Microsoft_Singularity_Io_UnicodePipeContract_Exp@@SIHPAU1@@Z 0207dbc0 f   sc.obj
 0001:0007cd68       ?m_MarshallDeliverWrite0@Struct_Microsoft_Singularity_Io_UnicodePipeContract_Exp@@SIXPAU1@PA_WHHPAUStruct_Microsoft_Singularity_Channels_Endpoint@@@Z 0207dd68 f   sc.obj
 0001:0007cdc0       ?m_HeadMatches@Struct_Microsoft_Singularity_Io_UnicodePipeContract_Exp@@SI_NPAU1@HPA_NPAPAUClass_System_Object@@@Z 0207ddc0 f   sc.obj
 0001:0007ce80       ?m_HeadMatches@Struct_Microsoft_Singularity_Io_UnicodePipeContract_Exp@@SI_NPAUClass_Microsoft_Singularity_Io_UnicodePipeContract_Exp@@HPA_NPAPAUClass_System_Object@@@Z 0207de80 f   sc.obj
 0001:0007ceb8       ?m_Equals@Struct_Microsoft_Singularity_Io_UnicodePipeContract_Exp@@SI_NPAU1@PAUClass_System_Object@@@Z 0207deb8 f   sc.obj
 0001:0007d1bc       ?m_Equals@Struct_Microsoft_Singularity_Io_UnicodePipeContract_Exp@@SI_NPAUClass_Microsoft_Singularity_Io_UnicodePipeContract_Exp@@PAUClass_System_Object@@@Z 0207e1bc f   sc.obj
 0001:0007d1e8       ?m_Dispose@Struct_Microsoft_Singularity_Io_UnicodePipeContract_Exp@@SIXPAU1@@Z 0207e1e8 f   sc.obj
 0001:0007d20c       ?m_Dispose@Struct_Microsoft_Singularity_Io_UnicodePipeContract_Exp@@SIXPAUClass_Microsoft_Singularity_Io_UnicodePipeContract_Exp@@@Z 0207e20c f   sc.obj
 0001:0007d234       ?m_DeliverWrite0@Struct_Microsoft_Singularity_Io_UnicodePipeContract_Exp@@SIXPAU1@PA_WHH@Z 0207e234 f   sc.obj
 0001:0007d288       ?m_CurrentState@Struct_Microsoft_Singularity_Io_UnicodePipeContract_Exp@@SIPAUClass_System_String@@PAU1@@Z 0207e288 f   sc.obj
 0001:0007d314       ?g_WaitAnyEndpoint@Struct_Microsoft_Singularity_Channels_Endpoint@@SIHPAUClassVector_Struct_Microsoft_Singularity_V1_Threads_SyncHandle@@H@Z 0207e314 f   sc.obj
 0001:0007d37c       ?g_WaitAnyEndpoint@Struct_Microsoft_Singularity_Channels_Endpoint@@SIHPAUClassVector_Struct_Microsoft_Singularity_V1_Threads_SyncHandle@@HUStruct_System_SchedulerTime@@@Z 0207e37c f   sc.obj
 0001:0007d400       ?m_Wait@Struct_Microsoft_Singularity_Channels_Endpoint@@SIXPAU1@@Z 0207e400 f   sc.obj
 0001:0007d424       ?m_TransferContentsOwnership@Struct_Microsoft_Singularity_Channels_Endpoint@@SIXPAU1@0@Z 0207e424 f   sc.obj
 0001:0007d45c       ?m_TransferBlockOwnership@Struct_Microsoft_Singularity_Channels_Endpoint@@SIXPAU1@PAUvoid@@@Z 0207e45c f   sc.obj
 0001:0007d4b4       ?g_ThreadLocalObjectArray@Struct_Microsoft_Singularity_Channels_Endpoint@@SIPAUClassVector_Class_Microsoft_Singularity_Channels_ISelectable@@H@Z 0207e4b4 f   sc.obj
 0001:0007d524       ?m_StructCopy@Struct_Microsoft_Singularity_Channels_Endpoint@@SIXPAU1@0@Z 0207e524 f   sc.obj
 0001:0007d5e4       ?m_StructCopy@Struct_Microsoft_Singularity_Channels_Endpoint@@SIXPAU1@PAU1@@Z 0207e5e4 f   sc.obj
 0001:0007d824       ?g_Select@Struct_Microsoft_Singularity_Channels_Endpoint@@SIHPAUClassVector_ClassVector_int32@@PAUClassVector_Class_Microsoft_Singularity_Channels_ISelectable@@PAPAUClass_System_Object@@@Z 0207e824 f   sc.obj
 0001:0007dc0c       ?g_Select@Struct_Microsoft_Singularity_Channels_Endpoint@@SIHPAUClassVector_ClassVector_int32@@PAUClassVector_Class_Microsoft_Singularity_Channels_ISelectable@@PAPAUClass_System_Object@@UStruct_System_TimeSpan@@@Z 0207ec0c f   sc.obj
 0001:0007e1b8       ?g_RowMatches@Struct_Microsoft_Singularity_Channels_Endpoint@@SI_NPAUClassVector_Class_Microsoft_Singularity_Channels_ISelectable@@PAUClassVector_int32@@PAPAUClass_System_Object@@PA_N@Z 0207f1b8 f   sc.obj
 0001:0007e2e0       ?m_RetrieveHookInternal@Struct_Microsoft_Singularity_Channels_Endpoint@@SIXPAU1@H@Z 0207f2e0 f   sc.obj
 0001:0007e314       ?g_RetrieveHook@Struct_Microsoft_Singularity_Channels_Endpoint@@SIXPAU1@IH@Z 0207f314 f   sc.obj
 0001:0007e334       ?m_NotifyPeer@Struct_Microsoft_Singularity_Channels_Endpoint@@SIXPAU1@@Z 0207f334 f   sc.obj
 0001:0007e364       ?m_Microsoft_SingSharp_ITracked_Release@Struct_Microsoft_Singularity_Channels_Endpoint@@SIXPAU1@@Z 0207f364 f   sc.obj
 0001:0007e380       ?m_Microsoft_SingSharp_ITracked_Release@Struct_Microsoft_Singularity_Channels_Endpoint@@SIXPAUClass_Microsoft_Singularity_Channels_Endpoint@@@Z 0207f380 f   sc.obj
 0001:0007e3a8       ?m_Microsoft_SingSharp_ITracked_Acquire@Struct_Microsoft_Singularity_Channels_Endpoint@@SIXPAU1@@Z 0207f3a8 f   sc.obj
 0001:0007e3c4       ?m_Microsoft_SingSharp_ITracked_Acquire@Struct_Microsoft_Singularity_Channels_Endpoint@@SIXPAUClass_Microsoft_Singularity_Channels_Endpoint@@@Z 0207f3c4 f   sc.obj
 0001:0007e3ec       ?m_MarshallPointer@Struct_Microsoft_Singularity_Channels_Endpoint@@SIXPAU1@PAEPAPAUvoid@@PAUClass_System_Type@@1H@Z 0207f3ec f   sc.obj
 0001:0007e454       ?m_MarshallMessage@Struct_Microsoft_Singularity_Channels_Endpoint@@SIXPAU1@PAE1PAHPAUClass_System_Type@@@Z 0207f454 f   sc.obj
 0001:0007e498       ?m_Initialize@Struct_Microsoft_Singularity_Channels_Endpoint@@SIXPAU1@H@Z 0207f498 f   sc.obj
 0001:0007e520       ?m_HeadMatches@Struct_Microsoft_Singularity_Channels_Endpoint@@SI_NPAU1@HPA_NPAPAUClass_System_Object@@@Z 0207f520 f   sc.obj
 0001:0007e564       ?m_HeadMatches@Struct_Microsoft_Singularity_Channels_Endpoint@@SI_NPAUClass_Microsoft_Singularity_Channels_Endpoint@@HPA_NPAPAUClass_System_Object@@@Z 0207f564 f   sc.obj
 0001:0007e59c       ?m_GetWaitHandle@Struct_Microsoft_Singularity_Channels_Endpoint@@SI?AUStruct_Microsoft_Singularity_V1_Threads_SyncHandle@@PAU1@@Z 0207f59c f   sc.obj
 0001:0007e5dc       ?m_GetWaitHandle@Struct_Microsoft_Singularity_Channels_Endpoint@@SI?AUStruct_Microsoft_Singularity_V1_Threads_SyncHandle@@PAUClass_Microsoft_Singularity_Channels_Endpoint@@@Z 0207f5dc f   sc.obj
 0001:0007e604       ?m_GetPeer@Struct_Microsoft_Singularity_Channels_Endpoint@@SIPAU1@PAU1@PA_N@Z 0207f604 f   sc.obj
 0001:0007e67c       ?g_getContractTag@Struct_Microsoft_Singularity_Channels_Endpoint@@SIIPAU1@@Z 0207f67c f   sc.obj
 0001:0007e6f0       ?m_get$_PeerClosed@Struct_Microsoft_Singularity_Channels_Endpoint@@SI_NPAU1@@Z 0207f6f0 f   sc.obj
 0001:0007e728       ?m_get$_Closed@Struct_Microsoft_Singularity_Channels_Endpoint@@SI_NPAU1@@Z 0207f728 f   sc.obj
 0001:0007e760       ?m_get$_ChannelID@Struct_Microsoft_Singularity_Channels_Endpoint@@SIHPAU1@@Z 0207f760 f   sc.obj
 0001:0007e7a0       ?g_FindRowMatch@Struct_Microsoft_Singularity_Channels_Endpoint@@SI_NHPAUClassVector_Class_Microsoft_Singularity_Channels_ISelectable@@PAUClassVector_ClassVector_int32@@PAUClassVector_bool@@PAH3PAPAUClass_System_Object@@@Z 0207f7a0 f   sc.obj
 0001:0007eac4       ?m_Equals@Struct_Microsoft_Singularity_Channels_Endpoint@@SI_NPAU1@PAUClass_System_Object@@@Z 0207fac4 f   sc.obj
 0001:0007ed2c       ?m_Equals@Struct_Microsoft_Singularity_Channels_Endpoint@@SI_NPAUClass_Microsoft_Singularity_Channels_Endpoint@@PAUClass_System_Object@@@Z 0207fd2c f   sc.obj
 0001:0007ed58       ?m_Dispose@Struct_Microsoft_Singularity_Channels_Endpoint@@SIXPAU1@@Z 0207fd58 f   sc.obj
 0001:0007ede4       ?m_Dispose@Struct_Microsoft_Singularity_Channels_Endpoint@@SIXPAUClass_Microsoft_Singularity_Channels_Endpoint@@@Z 0207fde4 f   sc.obj
 0001:0007ee0c       ?m_DeliverHookInternal@Struct_Microsoft_Singularity_Channels_Endpoint@@SIXPAU1@H@Z 0207fe0c f   sc.obj
 0001:0007ee40       ?g_DeliverHook@Struct_Microsoft_Singularity_Channels_Endpoint@@SIXPAU1@IH@Z 0207fe40 f   sc.obj
 0001:0007ee60       ?g_Connect@Struct_Microsoft_Singularity_Channels_Endpoint@@SIXPAU1@0@Z 0207fe60 f   sc.obj
 0001:0007ef1c       ?m__ctor@Struct_Microsoft_Singularity_Channels_Endpoint@@SIXPAU1@H@Z 0207ff1c f   sc.obj
 0001:0007ef44       ?g_Wait@Struct_Microsoft_Singularity_V1_Services_EndpointCore@@SIXPAU1@@Z 0207ff44 f   sc.obj
 0001:0007efa0       ?m_StructCopy@Struct_Microsoft_Singularity_V1_Services_EndpointCore@@SIXPAU1@0@Z 0207ffa0 f   sc.obj
 0001:0007f038       ?m_StructCopy@Struct_Microsoft_Singularity_V1_Services_EndpointCore@@SIXPAU1@PAU1@@Z 02080038 f   sc.obj
 0001:0007f200       ?g_PeerClosed@Struct_Microsoft_Singularity_V1_Services_EndpointCore@@SI_NPAU1@@Z 02080200 f   sc.obj
 0001:0007f25c       ?g_GetWaitHandle@Struct_Microsoft_Singularity_V1_Services_EndpointCore@@SI?AUStruct_Microsoft_Singularity_V1_Threads_SyncHandle@@PAU1@@Z 0208025c f   sc.obj
 0001:0007f2a8       ?g_GetPeer@Struct_Microsoft_Singularity_V1_Services_EndpointCore@@SIPAUStruct_Microsoft_Singularity_V1_Services_SharedHeapService_Allocation@@PAU1@PA_N@Z 020802a8 f   sc.obj
 0001:0007f2f8       ?g_GetChannelID@Struct_Microsoft_Singularity_V1_Services_EndpointCore@@SIHPAU1@@Z 020802f8 f   sc.obj
 0001:0007f318       ?m_Equals@Struct_Microsoft_Singularity_V1_Services_EndpointCore@@SI_NPAU1@PAUClass_System_Object@@@Z 02080318 f   sc.obj
 0001:0007f4f8       ?m_Equals@Struct_Microsoft_Singularity_V1_Services_EndpointCore@@SI_NPAUClass_Microsoft_Singularity_V1_Services_EndpointCore@@PAUClass_System_Object@@@Z 020804f8 f   sc.obj
 0001:0007f524       ?g_Closed@Struct_Microsoft_Singularity_V1_Services_EndpointCore@@SI_NPAU1@@Z 02080524 f   sc.obj
 0001:0007f544       ?m_ToString@Class_System_Enum@@SIPAUClass_System_String@@PAU1@@Z 02080544 f   sc.obj
 0001:0007f56c       ?m_ToString@Class_System_Enum@@SIPAUClass_System_String@@PAU1@PAU2@@Z 0208056c f   sc.obj
 0001:0007f5cc       ?m_GetValue@Class_System_Enum@@SIPAUClass_System_Object@@PAU1@@Z 020805cc f   sc.obj
 0001:0007f82c       ?m_GetHashCode@Class_System_Enum@@SIHPAU1@@Z 0208082c f   sc.obj
 0001:0007f854       ?m_Equals@Class_System_Enum@@SI_NPAU1@PAUClass_System_Object@@@Z 02080854 f   sc.obj
 0001:0007f8f0       ?m_CompareTo@Class_System_Enum@@SIHPAU1@PAUClass_System_Object@@@Z 020808f0 f   sc.obj
 0001:0007f950       ?m__ctor@Class_System_Enum@@SIXPAU1@@Z 02080950 f   sc.obj
 0001:0007f974       ?m_StructCopy@Struct_Microsoft_Singularity_Isal_IX_EFlags@@SIXPAU1@0@Z 02080974 f   sc.obj
 0001:0007f990       ?m_StructCopy@Struct_Microsoft_Singularity_Isal_IX_EFlags@@SIXPAU1@PAU1@@Z 02080990 f   sc.obj
 0001:0007f9e4       ?m_Equals@Struct_Microsoft_Singularity_Isal_IX_EFlags@@SI_NPAU1@PAUClass_System_Object@@@Z 020809e4 f   sc.obj
 0001:0007fa1c       ?m_Equals@Struct_Microsoft_Singularity_Isal_IX_EFlags@@SI_NPAUClass_Microsoft_Singularity_Isal_IX_EFlags@@PAUClass_System_Object@@@Z 02080a1c f   sc.obj
 0001:0007fa48       ?g_RestoreInterrupts@Class_Microsoft_Singularity_PrivilegedGate@@SIX_N@Z 02080a48 f   sc.obj
 0001:0007fa6c       ?g_InterruptsDisabled@Class_Microsoft_Singularity_PrivilegedGate@@SI_NXZ 02080a6c f   sc.obj
 0001:0007fa84       ?g_DisableInterrupts@Class_Microsoft_Singularity_PrivilegedGate@@SI_NXZ 02080a84 f   sc.obj
 0001:0007fa9c       ?m__ctor@Class_Microsoft_Singularity_PrivilegedGate@@SIXPAU1@@Z 02080a9c f   sc.obj
 0001:0007fab8       ?g_TopLevelException@Class_Microsoft_Singularity_AppRuntime@@SIXPAUClass_System_Exception@@@Z 02080ab8 f   sc.obj
 0001:0007fbe0       ?g_InitializeConsole@Class_Microsoft_Singularity_AppRuntime@@SIXXZ 02080be0 f   sc.obj
 0001:0007fc2c       ?g_get$_AppName@Class_Microsoft_Singularity_AppRuntime@@SIPAUClass_System_String@@XZ 02080c2c f   sc.obj
 0001:0007fc44       ?g_FinalizeConsole@Class_Microsoft_Singularity_AppRuntime@@SIXXZ 02080c44 f   sc.obj
 0001:0007fc90       ?g_AppStart@Class_Microsoft_Singularity_AppRuntime@@SIHPAUClass_System_Type@@@Z 02080c90 f   sc.obj
 0001:00080128       ?m__ctor@Class_Microsoft_Singularity_AppRuntime@@SIXPAU1@@Z 02081128 f   sc.obj
 0001:00080144       ?m_StructCopy@Struct_Microsoft_Singularity_Directory_DirectoryServiceContract_NakDeleteLink@@SIXPAU1@0@Z 02081144 f   sc.obj
 0001:0008016c       ?m_StructCopy@Struct_Microsoft_Singularity_Directory_DirectoryServiceContract_NakDeleteLink@@SIXPAU1@PAU1@@Z 0208116c f   sc.obj
 0001:000801e4       ?m_Equals@Struct_Microsoft_Singularity_Directory_DirectoryServiceContract_NakDeleteLink@@SI_NPAU1@PAUClass_System_Object@@@Z 020811e4 f   sc.obj
 0001:00080284       ?m_Equals@Struct_Microsoft_Singularity_Directory_DirectoryServiceContract_NakDeleteLink@@SI_NPAUClass_Microsoft_Singularity_Directory_DirectoryServiceContract_NakDeleteLink@@PAUClass_System_Object@@@Z 02081284 f   sc.obj
 0001:000802b0       ?m_StructCopy@Struct_Microsoft_Singularity_Directory_DirectoryServiceContract_NakDeleteLinkReparse@@SIXPAU1@0@Z 020812b0 f   sc.obj
 0001:000802f0       ?m_StructCopy@Struct_Microsoft_Singularity_Directory_DirectoryServiceContract_NakDeleteLinkReparse@@SIXPAU1@PAU1@@Z 020812f0 f   sc.obj
 0001:000803b0       ?m_Equals@Struct_Microsoft_Singularity_Directory_DirectoryServiceContract_NakDeleteLinkReparse@@SI_NPAU1@PAUClass_System_Object@@@Z 020813b0 f   sc.obj
 0001:00080418       ?m_Equals@Struct_Microsoft_Singularity_Directory_DirectoryServiceContract_NakDeleteLinkReparse@@SI_NPAUClass_Microsoft_Singularity_Directory_DirectoryServiceContract_NakDeleteLinkReparse@@PAUClass_System_Object@@@Z 02081418 f   sc.obj
 0001:00080444       ?m_StructCopy@Struct_Microsoft_Singularity_ServiceManager_ServiceManagerContract_SelectService@@SIXPAU1@0@Z 02081444 f   sc.obj
 0001:0008046c       ?m_StructCopy@Struct_Microsoft_Singularity_ServiceManager_ServiceManagerContract_SelectService@@SIXPAU1@PAU1@@Z 0208146c f   sc.obj
 0001:000804e4       ?m_MarshallContent@Struct_Microsoft_Singularity_ServiceManager_ServiceManagerContract_SelectService@@SIXPAU1@PAEPAUStruct_Microsoft_Singularity_Channels_Endpoint@@1PAH@Z 020814e4 f   sc.obj
 0001:000805a4       ?m_MarshallAll@Struct_Microsoft_Singularity_ServiceManager_ServiceManagerContract_SelectService@@SIXPAU1@PAEPAUStruct_Microsoft_Singularity_Channels_Endpoint@@PAH@Z 020815a4 f   sc.obj
 0001:000805fc       ?m_Equals@Struct_Microsoft_Singularity_ServiceManager_ServiceManagerContract_SelectService@@SI_NPAU1@PAUClass_System_Object@@@Z 020815fc f   sc.obj
 0001:00080644       ?m_Equals@Struct_Microsoft_Singularity_ServiceManager_ServiceManagerContract_SelectService@@SI_NPAUClass_Microsoft_Singularity_ServiceManager_ServiceManagerContract_SelectService@@PAUClass_System_Object@@@Z 02081644 f   sc.obj
 0001:00080670       ?m_StructCopy@Struct_Microsoft_Singularity_Isal_IX_uint128@@SIXPAU1@0@Z 02081670 f   sc.obj
 0001:000806bc       ?m_StructCopy@Struct_Microsoft_Singularity_Isal_IX_uint128@@SIXPAU1@PAU1@@Z 020816bc f   sc.obj
 0001:000807a0       ?m_Equals@Struct_Microsoft_Singularity_Isal_IX_uint128@@SI_NPAU1@PAUClass_System_Object@@@Z 020817a0 f   sc.obj
 0001:00080838       ?m_Equals@Struct_Microsoft_Singularity_Isal_IX_uint128@@SI_NPAUClass_Microsoft_Singularity_Isal_IX_uint128@@PAUClass_System_Object@@@Z 02081838 f   sc.obj
 0001:00080864       ?m_StructCopy@Struct_Microsoft_Singularity_Directory_DirectoryServiceContract_CreateFile@@SIXPAU1@0@Z 02081864 f   sc.obj
 0001:0008088c       ?m_StructCopy@Struct_Microsoft_Singularity_Directory_DirectoryServiceContract_CreateFile@@SIXPAU1@PAU1@@Z 0208188c f   sc.obj
 0001:00080904       ?m_Equals@Struct_Microsoft_Singularity_Directory_DirectoryServiceContract_CreateFile@@SI_NPAU1@PAUClass_System_Object@@@Z 02081904 f   sc.obj
 0001:0008094c       ?m_Equals@Struct_Microsoft_Singularity_Directory_DirectoryServiceContract_CreateFile@@SI_NPAUClass_Microsoft_Singularity_Directory_DirectoryServiceContract_CreateFile@@PAUClass_System_Object@@@Z 0208194c f   sc.obj
 0001:00080978       ?g_Write@Class_Microsoft_Singularity_Io_ConsoleOutput@@SIPA_WPA_WHHPAUStruct_Microsoft_Singularity_Io_ConsoleOutput_PipeData@@@Z 02081978 f   sc.obj
 0001:00080b88       ?g_Write@Class_Microsoft_Singularity_Io_ConsoleOutput@@SIXPAUClass_System_String@@@Z 02081b88 f   sc.obj
 0001:00080da8       ?m_Microsoft_SingSharp_ITracked_UnExpose@Class_Microsoft_Singularity_Io_ConsoleOutput@@SIXPAU1@@Z 02081da8 f   sc.obj
 0001:00080dc4       ?m_Microsoft_SingSharp_ITracked_Release@Class_Microsoft_Singularity_Io_ConsoleOutput@@SIXPAU1@@Z 02081dc4 f   sc.obj
 0001:00080de0       ?m_Microsoft_SingSharp_ITracked_Expose@Class_Microsoft_Singularity_Io_ConsoleOutput@@SIXPAU1@@Z 02081de0 f   sc.obj
 0001:00080dfc       ?m_Microsoft_SingSharp_ITracked_Acquire@Class_Microsoft_Singularity_Io_ConsoleOutput@@SIXPAU1@@Z 02081dfc f   sc.obj
 0001:00080e18       ?g_Initialize@Class_Microsoft_Singularity_Io_ConsoleOutput@@SIXXZ 02081e18 f   sc.obj
 0001:00080eb8       ?g_GetPipe@Class_Microsoft_Singularity_Io_ConsoleOutput@@SIPAUStruct_Microsoft_Singularity_Io_UnicodePipeContract_Imp@@XZ 02081eb8 f   sc.obj
 0001:00080f94       ?g_Finalize@Class_Microsoft_Singularity_Io_ConsoleOutput@@SIXXZ 02081f94 f   sc.obj
 0001:00080ff0       ?m_Dispose@Class_Microsoft_Singularity_Io_ConsoleOutput@@SIXPAU1@@Z 02081ff0 f   sc.obj
 0001:0008103c       ?m__ctor@Class_Microsoft_Singularity_Io_ConsoleOutput@@SIXPAU1@PAUStruct_Microsoft_Singularity_Io_UnicodePipeContract_Imp@@@Z 0208203c f   sc.obj
 0001:00081088       ?g__cctor@Class_Microsoft_Singularity_Io_ConsoleOutput@@SIXXZ 02082088 f   sc.obj
 0001:000810f8       ?g_QueryMemory@Class_System_GCs_MemoryManager@@SI_NPAUuintPtr@@PAPAU2@1@Z 020820f8 f   sc.obj
 0001:00081128       ?g_Initialize@Class_System_GCs_MemoryManager@@SIXXZ 02082128 f   sc.obj
 0001:0008117c       ?g_IgnoreMemoryContents@Class_System_GCs_MemoryManager@@SIXPAUuintPtr@@0@Z 0208217c f   sc.obj
 0001:00081198       ?g_get$_OperatingSystemCommitSize@Class_System_GCs_MemoryManager@@SIPAUuintPtr@@XZ 02082198 f   sc.obj
 0001:000811b0       ?g_AllocateMemory@Class_System_GCs_MemoryManager@@SIPAUuintPtr@@PAU2@@Z 020821b0 f   sc.obj
 0001:00081248       ?m__ctor@Class_System_GCs_MemoryManager@@SIXPAU1@@Z 02082248 f   sc.obj
 0001:00081260       ?m__ctor@Class_System_Runtime_CompilerServices_NoInlineAttribute@@SIXPAU1@@Z 02082260 f   sc.obj
 0001:00081284       ?m__ctor@Class_System_Attribute@@SIXPAU1@@Z 02082284 f   sc.obj
 0001:000812a0       ?m__ctor@Class_Microsoft_Contracts_UnreachableException@@SIXPAU1@@Z 020822a0 f   sc.obj
 0001:000812c4       ?m_StructCopy@Struct_Microsoft_Singularity_Directory_DirectoryServiceContract_DeleteLink@@SIXPAU1@0@Z 020822c4 f   sc.obj
 0001:000812ec       ?m_StructCopy@Struct_Microsoft_Singularity_Directory_DirectoryServiceContract_DeleteLink@@SIXPAU1@PAU1@@Z 020822ec f   sc.obj
 0001:00081364       ?m_Equals@Struct_Microsoft_Singularity_Directory_DirectoryServiceContract_DeleteLink@@SI_NPAU1@PAUClass_System_Object@@@Z 02082364 f   sc.obj
 0001:000813ac       ?m_Equals@Struct_Microsoft_Singularity_Directory_DirectoryServiceContract_DeleteLink@@SI_NPAUClass_Microsoft_Singularity_Directory_DirectoryServiceContract_DeleteLink@@PAUClass_System_Object@@@Z 020823ac f   sc.obj
 0001:000813d8       ?m_InvokeStaticStub@Class_System_Threading_ThreadStart@@SIXPAU1@@Z 020823d8 f   sc.obj
 0001:00081400       ?m_Invoke@Class_System_Threading_ThreadStart@@SIXPAU1@@Z 02082400 f   sc.obj
 0001:00081454       ?m_EndInvoke@Class_System_Threading_ThreadStart@@SIXPAU1@PAUClass_System_IAsyncResult@@@Z 02082454 f   sc.obj
 0001:00081470       ?m_BeginInvoke@Class_System_Threading_ThreadStart@@SIPAUClass_System_IAsyncResult@@PAU1@PAUClass_System_AsyncCallback@@PAUClass_System_Object@@@Z 02082470 f   sc.obj
 0001:00081490       ?m__ctor@Class_System_Threading_ThreadStart@@SIXPAU1@PAUClass_System_Object@@PAUintPtr@@@Z 02082490 f   sc.obj
 0001:000814f4       ?m_InvocationListEquals@Class_System_MulticastDelegate@@SI_NPAU1@0@Z 020824f4 f   sc.obj
 0001:00081568       ?m_GetHashCode@Class_System_MulticastDelegate@@SIHPAU1@@Z 02082568 f   sc.obj
 0001:0008158c       ?m_Equals@Class_System_MulticastDelegate@@SI_NPAU1@PAUClass_System_Object@@@Z 0208258c f   sc.obj
 0001:00081638       ?m__ctor@Class_System_MulticastDelegate@@SIXPAU1@@Z 02082638 f   sc.obj
 0001:0008165c       ?g_SplitIdx@Class_System_Delegate@@SIXHPAH0@Z 0208265c f   sc.obj
 0001:00081710       ?g_op$_Equality@Class_System_Delegate@@SI_NPAU1@0@Z 02082710 f   sc.obj
 0001:00081750       ?m_IsStatic@Class_System_Delegate@@SI_NPAU1@@Z 02082750 f   sc.obj
 0001:00081788       ?g_IdxToDelegate@Class_System_Delegate@@SIPAU1@H@Z 02082788 f   sc.obj
 0001:00081800       ?m_GetHashCode@Class_System_Delegate@@SIHPAU1@@Z 02082800 f   sc.obj
 0001:00081844       ?m_Equals@Class_System_Delegate@@SI_NPAU1@PAUClass_System_Object@@@Z 02082844 f   sc.obj
 0001:00081904       ?m__ctor@Class_System_Delegate@@SIXPAU1@@Z 02082904 f   sc.obj
 0001:00081928       ?g__cctor@Class_System_Delegate@@SIXXZ 02082928 f   sc.obj
 0001:000819b0       ?m_StructCopy@Struct_Microsoft_Singularity_Directory_DirectoryServiceContract_ReadEnumeration@@SIXPAU1@0@Z 020829b0 f   sc.obj
 0001:000819cc       ?m_StructCopy@Struct_Microsoft_Singularity_Directory_DirectoryServiceContract_ReadEnumeration@@SIXPAU1@PAU1@@Z 020829cc f   sc.obj
 0001:00081a20       ?m_Equals@Struct_Microsoft_Singularity_Directory_DirectoryServiceContract_ReadEnumeration@@SI_NPAU1@PAUClass_System_Object@@@Z 02082a20 f   sc.obj
 0001:00081a58       ?m_Equals@Struct_Microsoft_Singularity_Directory_DirectoryServiceContract_ReadEnumeration@@SI_NPAUClass_Microsoft_Singularity_Directory_DirectoryServiceContract_ReadEnumeration@@PAUClass_System_Object@@@Z 02082a58 f   sc.obj
 0001:00081a84       ?g_WriterIsValid@Class_System_UpdateLog@@SI_NUStruct_System_UpdateLogWriter@@@Z 02082a84 f   sc.obj
 0001:00081aa4       ?m_VisitWeakRefs@Class_System_UpdateLog@@SIXPAU1@PAUClass_System_TryAllManager@@PAUClass_System_GCs_DirectReferenceVisitor@@@Z 02082aa4 f   sc.obj
 0001:00081f60       ?m_VisitStrongRefs@Class_System_UpdateLog@@SIXPAU1@PAUClass_System_TryAllManager@@PAUClass_System_GCs_DirectReferenceVisitor@@@Z 02082f60 f   sc.obj
 0001:00082184       ?g_SyncFromWriter@Class_System_UpdateLog@@SIXPAUClass_System_TryAllManager@@@Z 02083184 f   sc.obj
 0001:00082208       ?g_InitWriter@Class_System_UpdateLog@@SIXPAUClass_System_TryAllManager@@@Z 02083208 f   sc.obj
 0001:00082284       ?m_get$_CurrentLocation@Class_System_UpdateLog@@SI?AUStruct_System_UpdateLog_Location@@PAU1@@Z 02083284 f   sc.obj
 0001:00082318       ?m_AddrToIndex@Class_System_UpdateLog@@SIIPAU1@PAUStruct_System_UpdateLog_Entry@@@Z 02083318 f   sc.obj
 0001:000823a8       ?m_AddrOfEntry@Class_System_UpdateLog@@SIPAUStruct_System_UpdateLog_Entry@@PAU1@H@Z 020833a8 f   sc.obj
 0001:00082448       ?m__ctor@Class_System_UpdateLog@@SIXPAU1@@Z 02083448 f   sc.obj
 0001:000824ac       ?m_StructCopy@Struct_Microsoft_Singularity_Directory_DirectoryServiceContract_Register@@SIXPAU1@0@Z 020834ac f   sc.obj
 0001:000824e0       ?m_StructCopy@Struct_Microsoft_Singularity_Directory_DirectoryServiceContract_Register@@SIXPAU1@PAU1@@Z 020834e0 f   sc.obj
 0001:0008257c       ?m_Equals@Struct_Microsoft_Singularity_Directory_DirectoryServiceContract_Register@@SI_NPAU1@PAUClass_System_Object@@@Z 0208357c f   sc.obj
 0001:000825d8       ?m_Equals@Struct_Microsoft_Singularity_Directory_DirectoryServiceContract_Register@@SI_NPAUClass_Microsoft_Singularity_Directory_DirectoryServiceContract_Register@@PAUClass_System_Object@@@Z 020835d8 f   sc.obj
 0001:00082604       ?g_Main@Class_Microsoft_Singularity_Applications_ServiceManager_DefaultConfig@@SIHPAUClassVector_Class_System_String@@@Z 02083604 f   sc.obj
 0001:00082acc       ?m_AppMain@Class_Microsoft_Singularity_Applications_ServiceManager_DefaultConfig@@SIHPAU1@@Z 02083acc f   sc.obj
 0001:00082b14       ?m__ctor@Class_Microsoft_Singularity_Applications_ServiceManager_DefaultConfig@@SIXPAU1@@Z 02083b14 f   sc.obj
 0001:00082b90       ?m_Visit@Class_System_GCs_MemoryAccounting_InstanceReckoner@@SIPAUuintPtr@@PAU1@PAUClass_System_Object@@@Z 02083b90 f   sc.obj
 0001:00082bac       ?m_Initialize@Class_System_GCs_MemoryAccounting_InstanceReckoner@@SIXPAU1@PAUClassVector_Struct_System_GCs_MemoryAccounting_RuntimeTypeAccounting@@@Z 02083bac f   sc.obj
 0001:00082bc8       ?m__ctor@Class_System_GCs_MemoryAccounting_InstanceReckoner@@SIXPAU1@@Z 02083bc8 f   sc.obj
 0001:00082be0       ?m_StructCopy@Struct_Microsoft_Singularity_Directory_DirectoryServiceContract_NakDeleteDirectoryReparse@@SIXPAU1@0@Z 02083be0 f   sc.obj
 0001:00082c20       ?m_StructCopy@Struct_Microsoft_Singularity_Directory_DirectoryServiceContract_NakDeleteDirectoryReparse@@SIXPAU1@PAU1@@Z 02083c20 f   sc.obj
 0001:00082ce0       ?m_Equals@Struct_Microsoft_Singularity_Directory_DirectoryServiceContract_NakDeleteDirectoryReparse@@SI_NPAU1@PAUClass_System_Object@@@Z 02083ce0 f   sc.obj
 0001:00082d48       ?m_Equals@Struct_Microsoft_Singularity_Directory_DirectoryServiceContract_NakDeleteDirectoryReparse@@SI_NPAUClass_Microsoft_Singularity_Directory_DirectoryServiceContract_NakDeleteDirectoryReparse@@PAUClass_System_Object@@@Z 02083d48 f   sc.obj
 0001:00082d74       ?m_get$_Message@Class_System_ArgumentException@@SIPAUClass_System_String@@PAU1@@Z 02083d74 f   sc.obj
 0001:00082df8       ?m__ctor@Class_System_ArgumentException@@SIXPAU1@@Z 02083df8 f   sc.obj
 0001:00082e20       ?m__ctor@Class_System_ArgumentException@@SIXPAU1@PAUClass_System_String@@@Z 02083e20 f   sc.obj
 0001:00082e48       ?m__ctor@Class_System_ArgumentException@@SIXPAU1@PAUClass_System_String@@1@Z 02083e48 f   sc.obj
 0001:00082e7c       ?m__ctor@Class_System_SystemException@@SIXPAU1@@Z 02083e7c f   sc.obj
 0001:00082ea4       ?m__ctor@Class_System_SystemException@@SIXPAU1@PAUClass_System_String@@@Z 02083ea4 f   sc.obj
 0001:00082ecc       ?m__ctor@Class_System_SystemException@@SIXPAU1@PAUClass_System_String@@PAUClass_System_Exception@@@Z 02083ecc f   sc.obj
 0001:00082efc       ?m_ToString@Class_System_Exception@@SIPAUClass_System_String@@PAU1@@Z 02083efc f   sc.obj
 0001:00082f5c       ?g_IsUnlinkStack@Class_System_Exception@@SI_NPAUuintPtr@@@Z 02083f5c f   sc.obj
 0001:00083000       ?m_get$_Message@Class_System_Exception@@SIPAUClass_System_String@@PAU1@@Z 02084000 f   sc.obj
 0001:0008302c       ?m_get$_InnerException@Class_System_Exception@@SIPAU1@PAU1@@Z 0208402c f   sc.obj
 0001:0008304c       ?m__ctor@Class_System_Exception@@SIXPAU1@@Z 0208404c f   sc.obj
 0001:00083070       ?m__ctor@Class_System_Exception@@SIXPAU1@PAUClass_System_String@@@Z 02084070 f   sc.obj
 0001:00083098       ?m__ctor@Class_System_Exception@@SIXPAU1@PAUClass_System_String@@0@Z 02084098 f   sc.obj
 0001:000830c8       ?m_StructCopy@Struct_Microsoft_Singularity_Io_UnicodePipeContract_Moved@@SIXPAU1@0@Z 020840c8 f   sc.obj
 0001:000830e4       ?m_StructCopy@Struct_Microsoft_Singularity_Io_UnicodePipeContract_Moved@@SIXPAU1@PAU1@@Z 020840e4 f   sc.obj
 0001:00083138       ?m_Equals@Struct_Microsoft_Singularity_Io_UnicodePipeContract_Moved@@SI_NPAU1@PAUClass_System_Object@@@Z 02084138 f   sc.obj
 0001:00083170       ?m_Equals@Struct_Microsoft_Singularity_Io_UnicodePipeContract_Moved@@SI_NPAUClass_Microsoft_Singularity_Io_UnicodePipeContract_Moved@@PAUClass_System_Object@@@Z 02084170 f   sc.obj
 0001:0008319c       ?m_StructCopy@Struct_Microsoft_Singularity_Directory_FileContract_Close@@SIXPAU1@0@Z 0208419c f   sc.obj
 0001:000831b8       ?m_StructCopy@Struct_Microsoft_Singularity_Directory_FileContract_Close@@SIXPAU1@PAU1@@Z 020841b8 f   sc.obj
 0001:0008320c       ?m_Equals@Struct_Microsoft_Singularity_Directory_FileContract_Close@@SI_NPAU1@PAUClass_System_Object@@@Z 0208420c f   sc.obj
 0001:00083244       ?m_Equals@Struct_Microsoft_Singularity_Directory_FileContract_Close@@SI_NPAUClass_Microsoft_Singularity_Directory_FileContract_Close@@PAUClass_System_Object@@@Z 02084244 f   sc.obj
 0001:00083270       ?g_VectorCopy@Class_System_Array@@SIXPAUClass_System_Object@@H0HH@Z 02084270 f   sc.obj
 0001:000837e4       ?g_UnBoxEachElement@Class_System_Array@@SIXPAU1@H0HH_N@Z 020847e4 f   sc.obj
 0001:00083b30       ?g_TrySZBinarySearch@Class_System_Array@@SIHPAU1@HHPAUClass_System_Object@@PAH@Z 02084b30 f   sc.obj
 0001:00083b5c       ?m_SetValue@Class_System_Array@@SIXPAU1@PAUClass_System_Object@@H@Z 02084b5c f   sc.obj
 0001:00083bc0       ?g_PrimitiveWiden@Class_System_Array@@SIXPAU1@H0HH@Z 02084bc0 f   sc.obj
 0001:00083c04       ?m_InternalSetValueHelper@Class_System_Array@@SIXPAU1@PAEHPAUClass_System_Object@@@Z 02084c04 f   sc.obj
 0001:00083dec       ?m_InternalSetValue@Class_System_Array@@SIXPAU1@PAUClass_System_Object@@HHH@Z 02084dec f   sc.obj
 0001:00083e7c       ?m_InternalGetValueHelper@Class_System_Array@@SIPAUClass_System_Object@@PAU1@PAEH@Z 02084e7c f   sc.obj
 0001:000842a4       ?m_InternalGetValue@Class_System_Array@@SIPAUClass_System_Object@@PAU1@HHH@Z 020852a4 f   sc.obj
 0001:00084328       ?m_InternalGetOffset@Class_System_Array@@SIHPAU1@HHH@Z 02085328 f   sc.obj
 0001:000844dc       ?m_InitializeVectorLength@Class_System_Array@@SIXPAU1@H@Z 020854dc f   sc.obj
 0001:00084504       ?m_GetValue@Class_System_Array@@SIPAUClass_System_Object@@PAU1@H@Z 02085504 f   sc.obj
 0001:00084564       ?m_GetLowerBoundRectangleArray@Class_System_Array@@SIHPAU1@H@Z 02085564 f   sc.obj
 0001:000845b8       ?m_GetLowerBound@Class_System_Array@@SIHPAU1@H@Z 020855b8 f   sc.obj
 0001:00084628       ?m_GetLengthVector@Class_System_Array@@SIHPAU1@@Z 02085628 f   sc.obj
 0001:00084648       ?m_GetLengthRectangleArray@Class_System_Array@@SIHPAU1@@Z 02085648 f   sc.obj
 0001:00084668       ?m_GetFirstElementAddress@Class_System_Array@@SIPAUvoid@@PAU1@PAH@Z 02085668 f   sc.obj
 0001:000846ac       ?m_get$_RankRectangleArray@Class_System_Array@@SIHPAU1@@Z 020856ac f   sc.obj
 0001:000846cc       ?m_get$_Rank@Class_System_Array@@SIHPAU1@@Z 020856cc f   sc.obj
 0001:00084700       ?m_get$_Length@Class_System_Array@@SIHPAU1@@Z 02085700 f   sc.obj
 0001:00084738       ?m_get$_IsVector@Class_System_Array@@SI_NPAU1@@Z 02085738 f   sc.obj
 0001:00084778       ?g_Copy@Class_System_Array@@SIXPAUClassVector_uint64@@H0HH@Z 02085778 f   sc.obj
 0001:0008492c       ?g_Copy@Class_System_Array@@SIXPAUClassVector_uint32@@H0HH@Z 0208592c f   sc.obj
 0001:00084ae0       ?g_Copy@Class_System_Array@@SIXPAUClassVector_uint16@@H0HH@Z 02085ae0 f   sc.obj
 0001:00084c94       ?g_Copy@Class_System_Array@@SIXPAUClassVector_float32@@H0HH@Z 02085c94 f   sc.obj
 0001:00084e48       ?g_Copy@Class_System_Array@@SIXPAUClassVector_int8@@H0HH@Z 02085e48 f   sc.obj
 0001:00084ffc       ?g_Copy@Class_System_Array@@SIXPAUClassVector_Class_System_Object@@H0HH@Z 02085ffc f   sc.obj
 0001:00085230       ?g_Copy@Class_System_Array@@SIXPAUClassVector_int64@@H0HH@Z 02086230 f   sc.obj
 0001:000853e4       ?g_Copy@Class_System_Array@@SIXPAUClassVector_int32@@H0HH@Z 020863e4 f   sc.obj
 0001:00085598       ?g_Copy@Class_System_Array@@SIXPAUClassVector_int16@@H0HH@Z 02086598 f   sc.obj
 0001:0008574c       ?g_Copy@Class_System_Array@@SIXPAUClassVector_float64@@H0HH@Z 0208674c f   sc.obj
 0001:00085900       ?g_Copy@Class_System_Array@@SIXPAUClassVector_bartok_char@@H0HH@Z 02086900 f   sc.obj
 0001:00085ab4       ?g_Copy@Class_System_Array@@SIXPAUClassVector_uint8@@H0HH@Z 02086ab4 f   sc.obj
 0001:00085c68       ?g_Copy@Class_System_Array@@SIXPAUClassVector_bool@@H0HH@Z 02086c68 f   sc.obj
 0001:00085e1c       ?g_Copy@Class_System_Array@@SIXPAU1@H0HH@Z 02086e1c f   sc.obj
 0001:000862a8       ?g_CastCheckEachElement@Class_System_Array@@SIXPAU1@H0HH@Z 020872a8 f   sc.obj
 0001:0008657c       ?g_CanAssignArrayType@Class_System_Array@@SI?AUStruct_System_Array_AssignArray@@PAU1@0@Z 0208757c f   sc.obj
 0001:00086760       ?g_BoxEachElement@Class_System_Array@@SIXPAU1@H0HH@Z 02087760 f   sc.obj
 0001:000867e4       ?g_BinarySearch@Class_System_Array@@SIHPAU1@HHPAUClass_System_Object@@PAUClass_System_Collections_IComparer@@@Z 020877e4 f   sc.obj
 0001:00086bcc       ?m__ctor@Class_System_Array@@SIXPAU1@@Z 02087bcc f   sc.obj
 0001:00086be8       ?m__ctor@Class_System_GCs_ObjectLayout_ObjectVisitor@@SIXPAU1@@Z 02087be8 f   sc.obj
 0001:00086c04       ?m_StructCopy@Struct_System_RuntimeFieldHandle@@SIXPAU1@0@Z 02087c04 f   sc.obj
 0001:00086c2c       ?m_StructCopy@Struct_System_RuntimeFieldHandle@@SIXPAU1@PAU1@@Z 02087c2c f   sc.obj
 0001:00086ca4       ?m_Equals@Struct_System_RuntimeFieldHandle@@SI_NPAU1@PAUClass_System_Object@@@Z 02087ca4 f   sc.obj
 0001:00086cec       ?m_Equals@Struct_System_RuntimeFieldHandle@@SI_NPAUClass_System_RuntimeFieldHandle@@PAUClass_System_Object@@@Z 02087cec f   sc.obj
 0001:00086d18       ?g_WriteAlignment@Class_System_GCs_Allocator@@SIXPAUuintPtr@@@Z 02087d18 f   sc.obj
 0001:00086d4c       ?g_SkipAlignment@Class_System_GCs_Allocator@@SIPAUuintPtr@@PAU2@@Z 02087d4c f   sc.obj
 0001:00086dd8       ?g_IsAlignmentMarkerAddr@Class_System_GCs_Allocator@@SI_NPAUuintPtr@@@Z 02087dd8 f   sc.obj
 0001:00086e0c       ?g_IsAlignment@Class_System_GCs_Allocator@@SI_NPAUuintPtr@@@Z 02087e0c f   sc.obj
 0001:00086e44       ?g_get$_ALIGNMENT$_TOKEN@Class_System_GCs_Allocator@@SIPAUuintPtr@@XZ 02087e44 f   sc.obj
 0001:00086e5c       ?g_AlignedObjectPtr@Class_System_GCs_Allocator@@SIPAUuintPtr@@PAU2@I@Z 02087e5c f   sc.obj
 0001:00086f14       ?g_AlignedAllocationPtr@Class_System_GCs_Allocator@@SIPAUuintPtr@@PAU2@0I@Z 02087f14 f   sc.obj
 0001:00086fd0       ?m__ctor@Class_System_GCs_Allocator@@SIXPAU1@@Z 02087fd0 f   sc.obj
 0001:00086fe8       ?m_ToString@Struct_System_TimeSpan@@SIPAUClass_System_String@@PAU1@@Z 02087fe8 f   sc.obj
 0001:00087218       ?m_ToString@Struct_System_TimeSpan@@SIPAUClass_System_String@@PAUClass_System_TimeSpan@@@Z 02088218 f   sc.obj
 0001:00087260       ?m_Subtract@Struct_System_TimeSpan@@SI?AU1@PAU1@U1@@Z 02088260 f   sc.obj
 0001:0008737c       ?m_StructCopy@Struct_System_TimeSpan@@SIXPAU1@0@Z 0208837c f   sc.obj
 0001:000873b0       ?m_StructCopy@Struct_System_TimeSpan@@SIXPAU1@PAU1@@Z 020883b0 f   sc.obj
 0001:0008744c       ?g_op$_Subtraction@Struct_System_TimeSpan@@SI?AU1@U1@0@Z 0208844c f   sc.obj
 0001:000874a8       ?g_op$_Equality@Struct_System_TimeSpan@@SI_NU1@0@Z 020884a8 f   sc.obj
 0001:000874e4       ?m_IntToString@Struct_System_TimeSpan@@SIPAUClass_System_String@@PAU1@HH@Z 020884e4 f   sc.obj
 0001:00087530       ?g_Interval@Struct_System_TimeSpan@@SI?AU1@_JH@Z 02088530 f   sc.obj
 0001:00087644       ?m_GetHashCode@Struct_System_TimeSpan@@SIHPAU1@@Z 02088644 f   sc.obj
 0001:00087670       ?m_GetHashCode@Struct_System_TimeSpan@@SIHPAUClass_System_TimeSpan@@@Z 02088670 f   sc.obj
 0001:000876b8       ?m_get$_Ticks@Struct_System_TimeSpan@@SI_JPAU1@@Z 020886b8 f   sc.obj
 0001:000876dc       ?m_get$_Milliseconds@Struct_System_TimeSpan@@SIHPAU1@@Z 020886dc f   sc.obj
 0001:0008771c       ?g_FromSeconds@Struct_System_TimeSpan@@SI?AU1@_J@Z 0208871c f   sc.obj
 0001:00087768       ?g_FromMilliseconds@Struct_System_TimeSpan@@SI?AU1@_J@Z 02088768 f   sc.obj
 0001:000877b4       ?m_Equals@Struct_System_TimeSpan@@SI_NPAU1@PAUClass_System_Object@@@Z 020887b4 f   sc.obj
 0001:0008782c       ?m_Equals@Struct_System_TimeSpan@@SI_NPAUClass_System_TimeSpan@@PAUClass_System_Object@@@Z 0208882c f   sc.obj
 0001:00087878       ?m_CompareTo@Struct_System_TimeSpan@@SIHPAU1@PAUClass_System_Object@@@Z 02088878 f   sc.obj
 0001:00087964       ?m_CompareTo@Struct_System_TimeSpan@@SIHPAUClass_System_TimeSpan@@PAUClass_System_Object@@@Z 02088964 f   sc.obj
 0001:000879b0       ?m__ctor@Struct_System_TimeSpan@@SIXPAU1@_J@Z 020889b0 f   sc.obj
 0001:000879dc       ?g__cctor@Struct_System_TimeSpan@@SIXXZ 020889dc f   sc.obj
 0001:00087abc       ?m_LogTick@Class_Microsoft_Singularity_GCProfilerLogger_ProfilerBuffer@@SIXPAU1@@Z 02088abc f   sc.obj
 0001:00087b60       ?m__ctor@Class_Microsoft_Singularity_GCProfilerLogger_ProfilerBuffer@@SIXPAU1@@Z 02088b60 f   sc.obj
 0001:00087b8c       ?m_UnExpose@Struct_Microsoft_Singularity_Io_ConsoleOutput_PipeData@@SIXPAU1@@Z 02088b8c f   sc.obj
 0001:00087ba8       ?m_StructCopy@Struct_Microsoft_Singularity_Io_ConsoleOutput_PipeData@@SIXPAU1@0@Z 02088ba8 f   sc.obj
 0001:00087bd0       ?m_StructCopy@Struct_Microsoft_Singularity_Io_ConsoleOutput_PipeData@@SIXPAU1@PAU1@@Z 02088bd0 f   sc.obj
 0001:00087c48       ?m_Microsoft_SingSharp_ITracked_Release@Struct_Microsoft_Singularity_Io_ConsoleOutput_PipeData@@SIXPAU1@@Z 02088c48 f   sc.obj
 0001:00087c64       ?m_Microsoft_SingSharp_ITracked_Release@Struct_Microsoft_Singularity_Io_ConsoleOutput_PipeData@@SIXPAUClass_Microsoft_Singularity_Io_ConsoleOutput_PipeData@@@Z 02088c64 f   sc.obj
 0001:00087c8c       ?m_Microsoft_SingSharp_ITracked_Acquire@Struct_Microsoft_Singularity_Io_ConsoleOutput_PipeData@@SIXPAU1@@Z 02088c8c f   sc.obj
 0001:00087ca8       ?m_Microsoft_SingSharp_ITracked_Acquire@Struct_Microsoft_Singularity_Io_ConsoleOutput_PipeData@@SIXPAUClass_Microsoft_Singularity_Io_ConsoleOutput_PipeData@@@Z 02088ca8 f   sc.obj
 0001:00087cd0       ?m_Expose@Struct_Microsoft_Singularity_Io_ConsoleOutput_PipeData@@SIXPAU1@@Z 02088cd0 f   sc.obj
 0001:00087cec       ?m_Equals@Struct_Microsoft_Singularity_Io_ConsoleOutput_PipeData@@SI_NPAU1@PAUClass_System_Object@@@Z 02088cec f   sc.obj
 0001:00087d34       ?m_Equals@Struct_Microsoft_Singularity_Io_ConsoleOutput_PipeData@@SI_NPAUClass_Microsoft_Singularity_Io_ConsoleOutput_PipeData@@PAUClass_System_Object@@@Z 02088d34 f   sc.obj
 0001:00087d60       ?m_Dispose@Struct_Microsoft_Singularity_Io_ConsoleOutput_PipeData@@SIXPAU1@@Z 02088d60 f   sc.obj
 0001:00087da8       ?m_Dispose@Struct_Microsoft_Singularity_Io_ConsoleOutput_PipeData@@SIXPAUClass_Microsoft_Singularity_Io_ConsoleOutput_PipeData@@@Z 02088da8 f   sc.obj
 0001:00087dd0       ?g_get$_TickCount@Class_System_Environment@@SIHXZ 02088dd0 f   sc.obj
 0001:00087e3c       ?g_get$_NewLine@Class_System_Environment@@SIPAUClass_System_String@@XZ 02088e3c f   sc.obj
 0001:00087e54       ?m__ctor@Class_System_Environment@@SIXPAU1@@Z 02088e54 f   sc.obj
 0001:00087e6c       ?m_StructCopy@Struct_Microsoft_Singularity_Directory_DirectoryServiceContract_NakDeleteDirectory@@SIXPAU1@0@Z 02088e6c f   sc.obj
 0001:00087e94       ?m_StructCopy@Struct_Microsoft_Singularity_Directory_DirectoryServiceContract_NakDeleteDirectory@@SIXPAU1@PAU1@@Z 02088e94 f   sc.obj
 0001:00087f0c       ?m_Equals@Struct_Microsoft_Singularity_Directory_DirectoryServiceContract_NakDeleteDirectory@@SI_NPAU1@PAUClass_System_Object@@@Z 02088f0c f   sc.obj
 0001:00087fac       ?m_Equals@Struct_Microsoft_Singularity_Directory_DirectoryServiceContract_NakDeleteDirectory@@SI_NPAUClass_Microsoft_Singularity_Directory_DirectoryServiceContract_NakDeleteDirectory@@PAUClass_System_Object@@@Z 02088fac f   sc.obj
 0001:00087fd8       ?m_ToString@Class_System_ValueType@@SIPAUClass_System_String@@PAU1@@Z 02088fd8 f   sc.obj
 0001:00088010       ?m_GetHashCode@Class_System_ValueType@@SIHPAU1@@Z 02089010 f   sc.obj
 0001:00088050       ?m_Equals@Class_System_ValueType@@SI_NPAU1@PAUClass_System_Object@@@Z 02089050 f   sc.obj
 0001:00088090       ?m__ctor@Class_System_ValueType@@SIXPAU1@@Z 02089090 f   sc.obj
 0001:000880ac       ?g_get$_positiveSign@Class_System_Globalization_NumberFormatInfo@@SIPAUClass_System_String@@XZ 020890ac f   sc.obj
 0001:000880dc       ?g_get$_positiveInfinitySymbol@Class_System_Globalization_NumberFormatInfo@@SIPAUClass_System_String@@XZ 020890dc f   sc.obj
 0001:0008810c       ?g_get$_percentSymbol@Class_System_Globalization_NumberFormatInfo@@SIPAUClass_System_String@@XZ 0208910c f   sc.obj
 0001:0008813c       ?g_get$_percentPositivePattern@Class_System_Globalization_NumberFormatInfo@@SIHXZ 0208913c f   sc.obj
 0001:00088170       ?g_get$_percentNegativePattern@Class_System_Globalization_NumberFormatInfo@@SIHXZ 02089170 f   sc.obj
 0001:000881a4       ?g_get$_percentGroupSizes@Class_System_Globalization_NumberFormatInfo@@SIPAUClassVector_int32@@XZ 020891a4 f   sc.obj
 0001:000881d4       ?g_get$_percentGroupSeparator@Class_System_Globalization_NumberFormatInfo@@SIPAUClass_System_String@@XZ 020891d4 f   sc.obj
 0001:00088204       ?g_get$_percentDecimalSeparator@Class_System_Globalization_NumberFormatInfo@@SIPAUClass_System_String@@XZ 02089204 f   sc.obj
 0001:00088234       ?g_get$_percentDecimalDigits@Class_System_Globalization_NumberFormatInfo@@SIHXZ 02089234 f   sc.obj
 0001:00088268       ?g_get$_numberNegativePattern@Class_System_Globalization_NumberFormatInfo@@SIHXZ 02089268 f   sc.obj
 0001:0008829c       ?g_get$_numberGroupSizes@Class_System_Globalization_NumberFormatInfo@@SIPAUClassVector_int32@@XZ 0208929c f   sc.obj
 0001:000882cc       ?g_get$_numberGroupSeparator@Class_System_Globalization_NumberFormatInfo@@SIPAUClass_System_String@@XZ 020892cc f   sc.obj
 0001:000882fc       ?g_get$_numberDecimalSeparator@Class_System_Globalization_NumberFormatInfo@@SIPAUClass_System_String@@XZ 020892fc f   sc.obj
 0001:0008832c       ?g_get$_numberDecimalDigits@Class_System_Globalization_NumberFormatInfo@@SIHXZ 0208932c f   sc.obj
 0001:00088360       ?g_get$_negativeSign@Class_System_Globalization_NumberFormatInfo@@SIPAUClass_System_String@@XZ 02089360 f   sc.obj
 0001:00088390       ?g_get$_negativeInfinitySymbol@Class_System_Globalization_NumberFormatInfo@@SIPAUClass_System_String@@XZ 02089390 f   sc.obj
 0001:000883c0       ?g_get$_nanSymbol@Class_System_Globalization_NumberFormatInfo@@SIPAUClass_System_String@@XZ 020893c0 f   sc.obj
 0001:000883f0       ?m__ctor@Class_System_Globalization_NumberFormatInfo@@SIXPAU1@@Z 020893f0 f   sc.obj
 0001:00088408       ?g__cctor@Class_System_Globalization_NumberFormatInfo@@SIXXZ 02089408 f   sc.obj
 0001:0008841c       ?m_ToString@Class_System_RuntimeType@@SIPAUClass_System_String@@PAU1@@Z 0208941c f   sc.obj
 0001:00088440       ?m_IsSubclassOf@Class_System_RuntimeType@@SI_NPAU1@PAUClass_System_Type@@@Z 02089440 f   sc.obj
 0001:000884a8       ?m_IsPrimitiveImpl@Class_System_RuntimeType@@SI_NPAU1@@Z 020894a8 f   sc.obj
 0001:000884d0       ?m_IsArrayImpl@Class_System_RuntimeType@@SI_NPAU1@@Z 020894d0 f   sc.obj
 0001:000884f8       ?m_InternalGetProperlyQualifiedName@Class_System_RuntimeType@@SIPAUClass_System_String@@PAU1@@Z 020894f8 f   sc.obj
 0001:0008851c       ?g_GetTypeFromHandleImpl@Class_System_RuntimeType@@SIPAUClass_System_Type@@UStruct_System_RuntimeTypeHandle@@@Z 0208951c f   sc.obj
 0001:0008854c       ?m_GetSystemType@Class_System_RuntimeType@@SI?AUStruct_Microsoft_Singularity_V1_Types_SystemType@@PAU1@@Z 0208954c f   sc.obj
 0001:000886b8       ?m_GetHashCode@Class_System_RuntimeType@@SIHPAU1@@Z 020896b8 f   sc.obj
 0001:000886f0       ?m_get$_UnderlyingSystemType@Class_System_RuntimeType@@SIPAUClass_System_Type@@PAU1@@Z 020896f0 f   sc.obj
 0001:00088710       ?m_get$_Namespace@Class_System_RuntimeType@@SIPAUClass_System_String@@PAU1@@Z 02089710 f   sc.obj
 0001:00088730       ?m_get$_Name@Class_System_RuntimeType@@SIPAUClass_System_String@@PAU1@@Z 02089730 f   sc.obj
 0001:00088750       ?m_get$_IsVector@Class_System_RuntimeType@@SI_NPAU1@@Z 02089750 f   sc.obj
 0001:00088778       ?m_get$_IsRectangleArray@Class_System_RuntimeType@@SI_NPAU1@@Z 02089778 f   sc.obj
 0001:000887a0       ?m_get$_FullName@Class_System_RuntimeType@@SIPAUClass_System_String@@PAU1@@Z 020897a0 f   sc.obj
 0001:000887fc       ?m_get$_BaseType@Class_System_RuntimeType@@SIPAUClass_System_Type@@PAU1@@Z 020897fc f   sc.obj
 0001:0008881c       ?m_AddFullName@Class_System_RuntimeType@@SIXPAU1@PAUClass_System_Text_StringBuilder@@@Z 0208981c f   sc.obj
 0001:000888d8       ?m__ctor@Class_System_RuntimeType@@SIXPAU1@@Z 020898d8 f   sc.obj
 0001:00088910       ?m_ToString@Class_System_Type@@SIPAUClass_System_String@@PAU1@@Z 02089910 f   sc.obj
 0001:00088940       ?m_IsValueTypeImpl@Class_System_Type@@SI_NPAU1@@Z 02089940 f   sc.obj
 0001:000889a4       ?m_IsSubclassOf@Class_System_Type@@SI_NPAU1@0@Z 020899a4 f   sc.obj
 0001:00088a0c       ?g_GetTypeFromHandle@Class_System_Type@@SIPAU1@UStruct_System_RuntimeTypeHandle@@@Z 02089a0c f   sc.obj
 0001:00088a54       ?m_GetHashCode@Class_System_Type@@SIHPAU1@@Z 02089a54 f   sc.obj
 0001:00088aa4       ?m_get$_IsValueType@Class_System_Type@@SI_NPAU1@@Z 02089aa4 f   sc.obj
 0001:00088acc       ?m_get$_IsPrimitive@Class_System_Type@@SI_NPAU1@@Z 02089acc f   sc.obj
 0001:00088af4       ?m_get$_IsArray@Class_System_Type@@SI_NPAU1@@Z 02089af4 f   sc.obj
 0001:00088b18       ?m_Equals@Class_System_Type@@SI_NPAU1@0@Z 02089b18 f   sc.obj
 0001:00088b64       ?m_Equals@Class_System_Type@@SI_NPAU1@PAUClass_System_Object@@@Z 02089b64 f   sc.obj
 0001:00088bd8       ?m__ctor@Class_System_Type@@SIXPAU1@@Z 02089bd8 f   sc.obj
 0001:00088bf4       ?g__cctor@Class_System_Type@@SIXXZ 02089bf4 f   sc.obj
 0001:00088c28       ?g_throwNewStringIndexOutOfRangeException@Class_System_VTable@@SIXXZ 02089c28 f   sc.obj
 0001:00088c60       ?g_throwNewOverflowException@Class_System_VTable@@SIXXZ 02089c60 f   sc.obj
 0001:00088ca4       ?g_throwNewIndexOutOfRangeException@Class_System_VTable@@SIXXZ 02089ca4 f   sc.obj
 0001:00088cdc       ?g_throwNewDivideByZeroException@Class_System_VTable@@SIXXZ 02089cdc f   sc.obj
 0001:00088d14       ?g_throwNewClassCastException@Class_System_VTable@@SIXXZ 02089d14 f   sc.obj
 0001:00088d4c       ?g_throwNewArrayTypeMismatchException@Class_System_VTable@@SIXXZ 02089d4c f   sc.obj
 0001:00088d84       ?g_throwNewArithmeticException@Class_System_VTable@@SIXXZ 02089d84 f   sc.obj
 0001:00088dbc       ?g_throwNewArgumentOutOfRangeException@Class_System_VTable@@SIXXZ 02089dbc f   sc.obj
 0001:00088df4       ?g_TerminateByException@Class_System_VTable@@SIXPAUClass_System_Exception@@@Z 02089df4 f   sc.obj
 0001:00089010       ?g_StartupChecks@Class_System_VTable@@SIXXZ 0208a010 f   sc.obj
 0001:000890e8       ?g_Shutdown@Class_System_VTable@@SIXH@Z 0208a0e8 f   sc.obj
 0001:00089688       ?g_Shutdown@Class_System_VTable@@SIXXZ 0208a688 f   sc.obj
 0001:0008969c       ?g_profileInterfaceOffset@Class_System_VTable@@SIXPAU1@PAUClass_System_RuntimeType@@H@Z 0208a69c f   sc.obj
 0001:0008981c       ?g_NotReached@Class_System_VTable@@SIXPAUClass_System_String@@@Z 0208a81c f   sc.obj
 0001:00089840       ?g_NotReached@Class_System_VTable@@SIXXZ 0208a840 f   sc.obj
 0001:00089860       ?g_NotImplemented@Class_System_VTable@@SIXPAUClass_System_String@@@Z 0208a860 f   sc.obj
 0001:00089884       ?g_NotImplemented@Class_System_VTable@@SIXXZ 0208a884 f   sc.obj
 0001:000898a4       ?g_newIsValidAssignment@Class_System_VTable@@SI_NPAU1@0H_N1@Z 0208a8a4 f   sc.obj
 0001:00089980       ?g_newIsInstanceOfSimple@Class_System_VTable@@SIPAUClass_System_Object@@PAU1@PAU2@H@Z 0208a980 f   sc.obj
 0001:00089a20       ?g_newIsInstanceOfNonNullSimple@Class_System_VTable@@SIPAUClass_System_Object@@PAU1@PAU2@H@Z 0208aa20 f   sc.obj
 0001:00089aac       ?g_newIsInstanceOfNonNullExact@Class_System_VTable@@SIPAUClass_System_Object@@PAU1@PAU2@H@Z 0208aaac f   sc.obj
 0001:00089b38       ?g_newIsInstanceOfNonNullComplex@Class_System_VTable@@SIPAUClass_System_Object@@PAU1@PAU2@H@Z 0208ab38 f   sc.obj
 0001:00089bc4       ?g_newIsInstanceOfExact@Class_System_VTable@@SIPAUClass_System_Object@@PAU1@PAU2@H@Z 0208abc4 f   sc.obj
 0001:00089c64       ?g_newIsInstanceOfComplex@Class_System_VTable@@SIPAUClass_System_Object@@PAU1@PAU2@H@Z 0208ac64 f   sc.obj
 0001:00089d04       ?g_newIsInstanceOf@Class_System_VTable@@SIPAUClass_System_Object@@PAU1@PAU2@H_N22@Z 0208ad04 f   sc.obj
 0001:00089d98       ?g_newCheckClassCastSimple@Class_System_VTable@@SIXPAU1@PAUClass_System_Object@@H@Z 0208ad98 f   sc.obj
 0001:00089e74       ?g_newCheckClassCastNonNullSimple@Class_System_VTable@@SIXPAU1@PAUClass_System_Object@@H@Z 0208ae74 f   sc.obj
 0001:00089f44       ?g_newCheckClassCastNonNullExact@Class_System_VTable@@SIXPAU1@PAUClass_System_Object@@H@Z 0208af44 f   sc.obj
 0001:00089ff4       ?g_newCheckClassCastNonNullComplex@Class_System_VTable@@SIXPAU1@PAUClass_System_Object@@H@Z 0208aff4 f   sc.obj
 0001:0008a128       ?g_newCheckClassCastExact@Class_System_VTable@@SIXPAU1@PAUClass_System_Object@@H@Z 0208b128 f   sc.obj
 0001:0008a1e8       ?g_newCheckClassCastComplex@Class_System_VTable@@SIXPAU1@PAUClass_System_Object@@H@Z 0208b1e8 f   sc.obj
 0001:0008a32c       ?g_newCheckClassCast@Class_System_VTable@@SIXPAU1@PAUClass_System_Object@@H_N22@Z 0208b32c f   sc.obj
 0001:0008a500       ?g_mulUnsigned64Bit@Class_System_VTable@@SI_K_K0@Z 0208b500 f   sc.obj
 0001:0008a5c4       ?g_isValidAssignmentSlow@Class_System_VTable@@SI_NPAUClass_System_RuntimeType@@0@Z 0208b5c4 f   sc.obj
 0001:0008a748       ?g_isValidAssignmentMedium@Class_System_VTable@@SI_NPAUClass_System_RuntimeType@@0@Z 0208b748 f   sc.obj
 0001:0008a79c       ?g_isValidAssignmentArray@Class_System_VTable@@SI_NPAUClass_System_RuntimeType@@0@Z 0208b79c f   sc.obj
 0001:0008a8d0       ?g_isValidAssignment@Class_System_VTable@@SI_NPAUClass_System_RuntimeType@@0@Z 0208b8d0 f   sc.obj
 0001:0008a90c       ?g_isInstanceOf@Class_System_VTable@@SIPAUClass_System_Object@@PAUClass_System_RuntimeType@@PAU2@@Z 0208b90c f   sc.obj
 0001:0008a97c       ?g_IsExceptionHandler@Class_System_VTable@@SI_NPAUClass_System_Type@@PAUClass_System_Exception@@@Z 0208b97c f   sc.obj
 0001:0008a9e8       ?g_interfaceOffset@Class_System_VTable@@SIPAUintPtr@@PAU1@PAUClass_System_RuntimeType@@@Z 0208b9e8 f   sc.obj
 0001:0008aaa0       ?g_initTypePrint@Class_System_VTable@@SIXPAUClass_System_RuntimeType@@PAUClass_System_String@@@Z 0208baa0 f   sc.obj
 0001:0008aac4       ?g_initType@Class_System_VTable@@SIXPAUClass_System_RuntimeType@@@Z 0208bac4 f   sc.obj
 0001:0008adc8       ?g_InitializeLimitedType@Class_System_VTable@@SIXPAUClass_System_Type@@@Z 0208bdc8 f   sc.obj
 0001:0008adec       ?g_InitializeLimitedType@Class_System_VTable@@SIXPAUClass_System_RuntimeType@@@Z 0208bdec f   sc.obj
 0001:0008ae1c       ?g_initializeGC@Class_System_VTable@@SIXXZ 0208be1c f   sc.obj
 0001:0008af0c       ?g_Initialize@Class_System_VTable@@SIXPAUClass_System_RuntimeType@@@Z 0208bf0c f   sc.obj
 0001:0008b040       ?g_init@Class_System_VTable@@SIXPAUClass_System_Object@@@Z 0208c040 f   sc.obj
 0001:0008b05c       ?g_get$_fDebug@Class_System_VTable@@SI_NXZ 0208c05c f   sc.obj
 0001:0008b074       ?g_failAssert@Class_System_VTable@@SIXPAUClass_System_String@@@Z 0208c074 f   sc.obj
 0001:0008b138       ?g_EnableLibraryAsserts@Class_System_VTable@@SI_NXZ 0208c138 f   sc.obj
 0001:0008b150       ?g_doubleToULong@Class_System_VTable@@SI_KN@Z 0208c150 f   sc.obj
 0001:0008b1ec       ?g_Deny@Class_System_VTable@@SIX_N@Z 0208c1ec f   sc.obj
 0001:0008b234       ?g_Deny@Class_System_VTable@@SIX_NPAUClass_System_String@@@Z 0208c234 f   sc.obj
 0001:0008b27c       ?g_DebugPrint@Class_System_VTable@@SIX_J@Z 0208c27c f   sc.obj
 0001:0008b2f8       ?g_DebugPrint@Class_System_VTable@@SIXH@Z 0208c2f8 f   sc.obj
 0001:0008b370       ?g_DebugPrint@Class_System_VTable@@SIXPAUClass_System_String@@@Z 0208c370 f   sc.obj
 0001:0008b394       ?g_DebugPrint@Class_System_VTable@@SIXPAUClass_System_String@@UStruct_System_VarargList@@@Z 0208c394 f   sc.obj
 0001:0008b3fc       ?g_DebugBreak@Class_System_VTable@@SIXXZ 0208c3fc f   sc.obj
 0001:0008b414       ?g_checkUnbox@Class_System_VTable@@SIXPAUClass_System_Object@@H@Z 0208c414 f   sc.obj
 0001:0008b470       ?g_checkedDoubleToULong@Class_System_VTable@@SI_KN@Z 0208c470 f   sc.obj
 0001:0008b568       ?g_checkClassCast@Class_System_VTable@@SIXPAUClass_System_RuntimeType@@PAUClass_System_Object@@@Z 0208c568 f   sc.obj
 0001:0008b5dc       ?g_checkArrayStore@Class_System_VTable@@SIXPAUClass_System_Object@@0@Z 0208c5dc f   sc.obj
 0001:0008b6e4       ?g_Assert@Class_System_VTable@@SIX_N@Z 0208c6e4 f   sc.obj
 0001:0008b728       ?g_Assert@Class_System_VTable@@SIX_NPAUClass_System_String@@@Z 0208c728 f   sc.obj
 0001:0008b76c       ?m__ctor@Class_System_VTable@@SIXPAU1@@Z 0208c76c f   sc.obj
 0001:0008b788       ?g__cctor@Class_System_VTable@@SIXXZ 0208c788 f   sc.obj
 0001:0008b85c       ?m_ToString@Class_System_Object@@SIPAUClass_System_String@@PAU1@@Z 0208c85c f   sc.obj
 0001:0008b884       ?m_set$_vtable@Class_System_Object@@SIXPAU1@PAUClass_System_VTable@@@Z 0208c884 f   sc.obj
 0001:0008b8b0       ?m_set$_muw@Class_System_Object@@SIXPAU1@UStruct_System_MultiUseWord@@@Z 0208c8b0 f   sc.obj
 0001:0008b8e4       ?m_GetType@Class_System_Object@@SIPAUClass_System_Type@@PAU1@@Z 0208c8e4 f   sc.obj
 0001:0008b91c       ?m_GetHashCode@Class_System_Object@@SIHPAU1@@Z 0208c91c f   sc.obj
 0001:0008b940       ?m_get$_VTableFieldAddr@Class_System_Object@@SIPAPAUuintPtr@@PAU1@@Z 0208c940 f   sc.obj
 0001:0008b96c       ?m_get$_vtable@Class_System_Object@@SIPAUClass_System_VTable@@PAU1@@Z 0208c96c f   sc.obj
 0001:0008b994       ?m_get$_muw@Class_System_Object@@SI?AUStruct_System_MultiUseWord@@PAU1@@Z 0208c994 f   sc.obj
 0001:0008b9c0       ?m_get$_GcUnmarkedVTable@Class_System_Object@@SIPAUClass_System_VTable@@PAU1@@Z 0208c9c0 f   sc.obj
 0001:0008b9f4       ?m_GcMark@Class_System_Object@@SIPAUuintPtr@@PAU1@@Z 0208c9f4 f   sc.obj
 0001:0008ba30       ?m_GcMark@Class_System_Object@@SI_NPAU1@PAUuintPtr@@@Z 0208ca30 f   sc.obj
 0001:0008baa4       ?m_Finalize@Class_System_Object@@SIXPAU1@@Z 0208caa4 f   sc.obj
 0001:0008bac0       ?m_Equals@Class_System_Object@@SI_NPAU1@0@Z 0208cac0 f   sc.obj
 0001:0008bae8       ?m_CompareExchangeMUW@Class_System_Object@@SIPAUuintPtr@@PAU1@PAU2@1@Z 0208cae8 f   sc.obj
 0001:0008bb28       ?m__ctor@Class_System_Object@@SIXPAU1@@Z 0208cb28 f   sc.obj
 0001:0008bb50       ?g_Initialize@Class_System_VTable@@SIXXZ 0208cb50 f   sc_superObj.obj
 0001:0008bb50       C:\Users\cc\source\repos\Singularity-OS\base.obj\AppNativeObj\Debug.x86.MarkSweep\sc_superObj_CodeBase 0208cb50     sc_superObj.obj
 0001:0008bb60       __checkStackOverflow       0208cb60 f   native.Full:halstack.obj
 0001:0008bb79       ?c_LinkStackFunctionsBegin@Class_Microsoft_Singularity_Memory_Stacks@@2EA 0208cb79     native.Full:halstack.obj
 0001:0008bb7a       ?c_LinkStackBegin@Class_Microsoft_Singularity_Memory_Stacks@@2EA 0208cb7a     native.Full:halstack.obj
 0001:0008bb80       LinkStack                  0208cb80 f   native.Full:halstack.obj
 0001:0008bbd0       ?c_LinkStackLimit@Class_Microsoft_Singularity_Memory_Stacks@@2EA 0208cbd0     native.Full:halstack.obj
 0001:0008bbd1       ?c_UnlinkStackBegin@Class_Microsoft_Singularity_Memory_Stacks@@2EA 0208cbd1     native.Full:halstack.obj
 0001:0008bbe0       UnlinkStack                0208cbe0 f   native.Full:halstack.obj
 0001:0008bc24       ?c_UnlinkStackLimit@Class_Microsoft_Singularity_Memory_Stacks@@2EA 0208cc24     native.Full:halstack.obj
 0001:0008bc25       ?c_LinkStackStubsBegin@Class_Microsoft_Singularity_Memory_Stacks@@2EA 0208cc25     native.Full:halstack.obj
 0001:0008bc28       ?g_LinkStack0@Class_Microsoft_Singularity_Memory_Stacks@@SIXXZ 0208cc28     native.Full:halstack.obj
 0001:0008bc40       ?g_LinkStack4@Class_Microsoft_Singularity_Memory_Stacks@@SIXXZ 0208cc40     native.Full:halstack.obj
 0001:0008bc58       ?g_LinkStack8@Class_Microsoft_Singularity_Memory_Stacks@@SIXXZ 0208cc58     native.Full:halstack.obj
 0001:0008bc70       ?g_LinkStack12@Class_Microsoft_Singularity_Memory_Stacks@@SIXXZ 0208cc70     native.Full:halstack.obj
 0001:0008bc88       ?g_LinkStack16@Class_Microsoft_Singularity_Memory_Stacks@@SIXXZ 0208cc88     native.Full:halstack.obj
 0001:0008bca0       ?g_LinkStack20@Class_Microsoft_Singularity_Memory_Stacks@@SIXXZ 0208cca0     native.Full:halstack.obj
 0001:0008bcb8       ?g_LinkStack24@Class_Microsoft_Singularity_Memory_Stacks@@SIXXZ 0208ccb8     native.Full:halstack.obj
 0001:0008bcd0       ?g_LinkStack28@Class_Microsoft_Singularity_Memory_Stacks@@SIXXZ 0208ccd0     native.Full:halstack.obj
 0001:0008bce8       ?g_LinkStack32@Class_Microsoft_Singularity_Memory_Stacks@@SIXXZ 0208cce8     native.Full:halstack.obj
 0001:0008bd00       ?g_LinkStack36@Class_Microsoft_Singularity_Memory_Stacks@@SIXXZ 0208cd00     native.Full:halstack.obj
 0001:0008bd18       ?g_LinkStack40@Class_Microsoft_Singularity_Memory_Stacks@@SIXXZ 0208cd18     native.Full:halstack.obj
 0001:0008bd30       ?g_LinkStack44@Class_Microsoft_Singularity_Memory_Stacks@@SIXXZ 0208cd30     native.Full:halstack.obj
 0001:0008bd48       ?g_LinkStack48@Class_Microsoft_Singularity_Memory_Stacks@@SIXXZ 0208cd48     native.Full:halstack.obj
 0001:0008bd60       ?g_LinkStack52@Class_Microsoft_Singularity_Memory_Stacks@@SIXXZ 0208cd60     native.Full:halstack.obj
 0001:0008bd78       ?g_LinkStack56@Class_Microsoft_Singularity_Memory_Stacks@@SIXXZ 0208cd78     native.Full:halstack.obj
 0001:0008bd90       ?g_LinkStack60@Class_Microsoft_Singularity_Memory_Stacks@@SIXXZ 0208cd90     native.Full:halstack.obj
 0001:0008bda8       ?g_LinkStack64@Class_Microsoft_Singularity_Memory_Stacks@@SIXXZ 0208cda8     native.Full:halstack.obj
 0001:0008bdc0       ?g_LinkStack68@Class_Microsoft_Singularity_Memory_Stacks@@SIXXZ 0208cdc0     native.Full:halstack.obj
 0001:0008bdd8       ?g_LinkStack72@Class_Microsoft_Singularity_Memory_Stacks@@SIXXZ 0208cdd8     native.Full:halstack.obj
 0001:0008bdf0       ?g_LinkStack76@Class_Microsoft_Singularity_Memory_Stacks@@SIXXZ 0208cdf0     native.Full:halstack.obj
 0001:0008be08       ?g_LinkStack80@Class_Microsoft_Singularity_Memory_Stacks@@SIXXZ 0208ce08     native.Full:halstack.obj
 0001:0008be20       ?g_LinkStack84@Class_Microsoft_Singularity_Memory_Stacks@@SIXXZ 0208ce20     native.Full:halstack.obj
 0001:0008be38       ?g_LinkStack88@Class_Microsoft_Singularity_Memory_Stacks@@SIXXZ 0208ce38     native.Full:halstack.obj
 0001:0008be50       ?g_LinkStack92@Class_Microsoft_Singularity_Memory_Stacks@@SIXXZ 0208ce50     native.Full:halstack.obj
 0001:0008be68       ?g_LinkStack96@Class_Microsoft_Singularity_Memory_Stacks@@SIXXZ 0208ce68     native.Full:halstack.obj
 0001:0008be80       ?g_LinkStack100@Class_Microsoft_Singularity_Memory_Stacks@@SIXXZ 0208ce80     native.Full:halstack.obj
 0001:0008be98       ?g_LinkStack104@Class_Microsoft_Singularity_Memory_Stacks@@SIXXZ 0208ce98     native.Full:halstack.obj
 0001:0008beb0       ?g_LinkStack108@Class_Microsoft_Singularity_Memory_Stacks@@SIXXZ 0208ceb0     native.Full:halstack.obj
 0001:0008bec8       ?g_LinkStack112@Class_Microsoft_Singularity_Memory_Stacks@@SIXXZ 0208cec8     native.Full:halstack.obj
 0001:0008bee0       ?g_LinkStack116@Class_Microsoft_Singularity_Memory_Stacks@@SIXXZ 0208cee0     native.Full:halstack.obj
 0001:0008bef8       ?g_LinkStack120@Class_Microsoft_Singularity_Memory_Stacks@@SIXXZ 0208cef8     native.Full:halstack.obj
 0001:0008bf10       ?g_LinkStack124@Class_Microsoft_Singularity_Memory_Stacks@@SIXXZ 0208cf10     native.Full:halstack.obj
 0001:0008bf28       ?g_LinkStack128@Class_Microsoft_Singularity_Memory_Stacks@@SIXXZ 0208cf28     native.Full:halstack.obj
 0001:0008bf3f       ?c_LinkStackStubsLimit@Class_Microsoft_Singularity_Memory_Stacks@@2EA 0208cf3f     native.Full:halstack.obj
 0001:0008bf40       __checkStackLimit          0208cf40 f   native.Full:halstack.obj
 0001:0008bf76       ?c_LinkStackFunctionsLimit@Class_Microsoft_Singularity_Memory_Stacks@@2EA 0208cf76     native.Full:halstack.obj
 0001:0008bfa0       __throwDispatcher          0208cfa0 f   native.Full:lib.obj
 0001:0008bfc0       __throwDispatcherExplicitAddr 0208cfc0 f   native.Full:lib.obj
 0001:0008bfd0       __throwDispatcherExplicitAddrAfterCore 0208cfd0 f   native.Full:lib.obj
 0001:0008bfe0       __throwDispatcherHandler   0208cfe0 f   native.Full:lib.obj
 0001:0008bff0       __throwDispatcherUnwind    0208cff0 f   native.Full:lib.obj
 0001:0008c040       __throwDivideByZeroException 0208d040 f   native.Full:lib.obj
 0001:0008c070       __throwStackOverflowException 0208d070 f   native.Full:lib.obj
 0001:0008c0b0       __throwNullReferenceException 0208d0b0 f   native.Full:lib.obj
 0001:0008c0e0       __throwOverflowException   0208d0e0 f   native.Full:lib.obj
 0001:0008c110       ?g_doubleToInt@Class_System_VTable@@SIHN@Z 0208d110 f   native.Full:lib.obj
 0001:0008c170       ?g_doubleToLong@Class_System_VTable@@SI_JN@Z 0208d170 f   native.Full:lib.obj
 0001:0008c1e0       ?g_floatToInt@Class_System_VTable@@SIHM@Z 0208d1e0 f   native.Full:lib.obj
 0001:0008c240       ?g_floatToLong@Class_System_VTable@@SI_JM@Z 0208d240 f   native.Full:lib.obj
 0001:0008c2c0       ?g_checkedDoubleToInt@Class_System_VTable@@SIHN@Z 0208d2c0 f   native.Full:lib.obj
 0001:0008c340       ?g_checkedDoubleToLong@Class_System_VTable@@SI_JN@Z 0208d340 f   native.Full:lib.obj
 0001:0008c3c0       ?g_checkedFloatToInt@Class_System_VTable@@SIHM@Z 0208d3c0 f   native.Full:lib.obj
 0001:0008c430       ?g_checkedFloatToLong@Class_System_VTable@@SI_JM@Z 0208d430 f   native.Full:lib.obj
 0001:0008c4b0       ?g_Sin@Class_System_Math@@SINN@Z 0208d4b0 f   native.Full:lib.obj
 0001:0008c4c0       ?g_Cos@Class_System_Math@@SINN@Z 0208d4c0 f   native.Full:lib.obj
 0001:0008c4d0       ?g_Tan@Class_System_Math@@SINN@Z 0208d4d0 f   native.Full:lib.obj
 0001:0008c4e0       ?g_Atan@Class_System_Math@@SINN@Z 0208d4e0 f   native.Full:lib.obj
 0001:0008c4f0       ?g_atan2@Class_System_Math@@SINNN@Z 0208d4f0 f   native.Full:lib.obj
 0001:0008c500       ?g_exp@Class_System_Math@@SINN@Z 0208d500 f   native.Full:lib.obj
 0001:0008c520       ?g_Log@Class_System_Math@@SINN@Z 0208d520 f   native.Full:lib.obj
 0001:0008c530       ?g_Ceiling@Class_System_Math@@SINN@Z 0208d530 f   native.Full:lib.obj
 0001:0008c560       ?g_Floor@Class_System_Math@@SINN@Z 0208d560 f   native.Full:lib.obj
 0001:0008c590       ?g_Round@Class_System_Math@@SINN@Z 0208d590 f   native.Full:lib.obj
 0001:0008c5a0       ?g_abs@Class_System_Math@@SIMM@Z 0208d5a0 f   native.Full:lib.obj
 0001:0008c5b0       ?g_abs@Class_System_Math@@SINN@Z 0208d5b0 f   native.Full:lib.obj
 0001:0008c5c0       ?g_floatRem@Class_System_VTable@@SIMMM@Z 0208d5c0 f   native.Full:lib.obj
 0001:0008c5e0       ?g_doubleRem@Class_System_VTable@@SINNN@Z 0208d5e0 f   native.Full:lib.obj
 0001:0008c600       ?g_LogFunction@Class_Microsoft_Singularity_GCProfilerLogger_ProfilerBuffer@@SIXIPAUuintPtr@@@Z 0208d600 f   native.Full:GCTracing.obj
 0001:0008c630       ?g_LogAllocation@Class_Microsoft_Singularity_GCProfilerLogger_ProfilerBuffer@@SIXHPAUuintPtr@@I@Z 0208d630 f   native.Full:GCTracing.obj
 0001:0008c670       ?g_LogStack@Class_Microsoft_Singularity_GCProfilerLogger_ProfilerBuffer@@SIXIIPAUuintPtr@@IPAI@Z 0208d670 f   native.Full:GCTracing.obj
 0001:0008c6d0       ?g_LogInterval@Class_Microsoft_Singularity_GCProfilerLogger_ProfilerBuffer@@SIX_K@Z 0208d6d0 f   native.Full:GCTracing.obj
 0001:0008c710       ?g_LogType@Class_Microsoft_Singularity_GCProfilerLogger_ProfilerBuffer@@SIXIPAUClass_System_String@@@Z 0208d710 f   native.Full:GCTracing.obj
 0001:0008c760       ?g_LogObject@Class_Microsoft_Singularity_GCProfilerLogger_ProfilerBuffer@@SIXIPAPAUuintPtr@@@Z 0208d760 f   native.Full:GCTracing.obj
 0001:0008c7b0       ?g_LogGenerations@Class_Microsoft_Singularity_GCProfilerLogger_ProfilerBuffer@@SIXHPAH@Z 0208d7b0 f   native.Full:GCTracing.obj
 0001:0008c800       ?g_LogRoots@Class_Microsoft_Singularity_GCProfilerLogger_ProfilerBuffer@@SIXIPAPAUuintPtr@@@Z 0208d800 f   native.Full:GCTracing.obj
 0001:0008c850       ?fail_assert@@YIXPAUClass_System_String@@@Z 0208d850 f   native.Full:ProcessEntry.obj
 0001:0008c870       ?g_CallMain@Class_Microsoft_Singularity_AppRuntime@@SIHPAUClassVector_Class_System_String@@@Z 0208d870 f   native.Full:ProcessEntry.obj
 0001:0008c880       ?g_MainReturnsInt@Class_Microsoft_Singularity_AppRuntime@@SI_NXZ 0208d880 f   native.Full:ProcessEntry.obj
 0001:0008c890       ?g_SetDebuggerPresence@Class_Microsoft_Singularity_AppRuntime@@SIX_N@Z 0208d890 f   native.Full:ProcessEntry.obj
 0001:0008c8a0       @RuntimeEntryPoint@4       0208d8a0 f   native.Full:ProcessEntry.obj
 0001:0008c920       ?g_GetCurrentThread@Class_Microsoft_Singularity_Isal_Isa@@SIPAUStruct_Microsoft_Singularity_Isal_ThreadRecord@@XZ 0208d920 f   native.Full:isa.obj
 0001:0008c929       ?g_GetCurrentCpu@Class_Microsoft_Singularity_Isal_Isa@@SIPAUStruct_Microsoft_Singularity_Isal_CpuRecord@@XZ 0208d929 f   native.Full:isa.obj
 0001:0008c932       ?g_GetCs@Class_Microsoft_Singularity_Isal_Isa@@SIPAUuintPtr@@XZ 0208d932 f   native.Full:isa.obj
 0001:0008c935       ?g_InitFpu@Class_Microsoft_Singularity_Isal_Isa@@SIXXZ 0208d935 f   native.Full:isa.obj
 0001:0008c943       ?g_ReadFpuStatus@Class_Microsoft_Singularity_Isal_Isa@@Z@@XZ 0208d943 f   native.Full:isa.obj
 0001:0008c94b       ?g_ClearFpuStatus@Class_Microsoft_Singularity_Isal_Isa@@Z@@XZ 0208d94b f   native.Full:isa.obj
 0001:0008c94e       ?g_EnterUserMode@Class_Microsoft_Singularity_Isal_Isa@@SIXXZ 0208d94e f   native.Full:isa.obj
 0001:0008c96a       ?g_GetFramePointer@Class_Microsoft_Singularity_Isal_Isa@@SIPAUuintPtr@@XZ 0208d96a f   native.Full:isa.obj
 0001:0008c970       ?g_GetCycleCount@Class_Microsoft_Singularity_Isal_Isa@@SI_KXZ 0208d970 f   native.Full:isac.obj
 0001:0008c980       ?g_GetFrameReturnAddress@Class_Microsoft_Singularity_Isal_Isa@@SIPAUuintPtr@@PAU2@@Z 0208d980 f   native.Full:isac.obj
 0001:0008c990       ?g_GetFrameCallerFrame@Class_Microsoft_Singularity_Isal_Isa@@SIPAUuintPtr@@PAU2@@Z 0208d990 f   native.Full:isac.obj
 0001:0008c9a0       ?g_Break@Class_Microsoft_Singularity_DebugStub@@SIXXZ 0208d9a0 f   native.Full:DebugStub.obj
 0001:0008c9b0       ?MemoryStorageGetNextGeneration@@YIIPAU_MEMORY_STORAGE@@@Z 0208d9b0 f   native.Full:MemoryStorage.obj
 0001:0008c9c0       ?MemoryStorageAdvanceCursor@@YIPAU_MEMORY_HEADER@@PAU_MEMORY_STORAGE@@PAU_MEMORY_ZONE@@G@Z 0208d9c0 f   native.Full:MemoryStorage.obj
 0001:0008ca60       ?CaptureStackTrace@@YIIPAPAUuintPtr@@I@Z 0208da60 f   native.Full:MemoryStorage.obj
 0001:0008cb10       ?InternalLogRecord@@YIPAU_MEMORY_HEADER@@PAUuintPtr@@I0PAXIPAPAXI@Z 0208db10 f   native.Full:MemoryStorage.obj
 0001:0008cc40       ?InternalLogFixedRecord@@YIPAU_MEMORY_HEADER@@PAUuintPtr@@I0PAXI@Z 0208dc40 f   native.Full:MemoryStorage.obj
 0001:0008cc80       ?InternalLogVariableRecord@@YIPAU_MEMORY_HEADER@@_NPAUuintPtr@@I1PAXIHPAUStruct_Microsoft_Singularity_Eventing_ArrayType@@@Z 0208dc80 f   native.Full:MemoryStorage.obj
 0001:0008cde0       ?g_MemoryStorageRegisterBufferImpl@Class_Microsoft_Singularity_Eventing_MemoryStorage@@SIXPAUuintPtr@@PAEI@Z 0208dde0 f   native.Full:MemoryStorage.obj
 0001:0008cee0       ?g_GetMemoryStorageOveheadImpl@Class_Microsoft_Singularity_Eventing_MemoryStorage@@SIIXZ 0208dee0 f   native.Full:MemoryStorage.obj
 0001:0008cef0       ?g_MemoryStorageCreateImpl@Class_Microsoft_Singularity_Eventing_MemoryStorage@@SIPAUuintPtr@@IPAEII@Z 0208def0 f   native.Full:MemoryStorage.obj
 0001:0008cf90       ?g_DoubleFromDecimal@Struct_System_Decimal@@SIHPAU1@PAN@Z 0208df90 f   native.Full:Decimal.obj
 0001:0008cfa0       ?g_DecimalCompare@Struct_System_Decimal@@SIHPAU1@0@Z 0208dfa0 f   native.Full:Decimal.obj
 0001:0008cfb0       __pushStackMark            0208dfb0 f   native.Full:gc.obj
 0001:0008d010       __popStackMark             0208e010 f   native.Full:gc.obj
 0001:0008d060       ?g_CollectBodyTransition@Class_System_GC@@SIXPAUClass_System_Threading_Thread@@H@Z 0208e060 f   native.Full:gc.obj
 0001:0008d0c0       ?m_UpdateAfterGC@Struct_Microsoft_Singularity_ThreadContext@@SIXPAU1@PAUClass_System_Threading_Thread@@@Z 0208e0c0 f   native.Full:Thread.obj
 0001:0008d0d0       ?m_GetThread@Struct_Microsoft_Singularity_ThreadContext@@SIPAUClass_System_Threading_Thread@@PAU1@@Z 0208e0d0 f   native.Full:Thread.obj
 0001:0008d0e0       ?g_MoveMemory@Class_System_Buffer@@SIXPAE0H@Z 0208e0e0 f   native.Full:Buffer.obj
 0001:0008d240       ?g_ZeroMemory@Class_System_Buffer@@SIXPAEH@Z 0208e240 f   native.Full:Buffer.obj
 0001:0008d6e0       ?g_ecvt@Class_System_Number@@SI_NNHPAUClassVector_bartok_char@@PAHPA_N@Z 0208e6e0 f   native.Full:Number.obj
 0001:0008da30       ?g_atof@Class_System_Number@@SINPAUClassVector_uint8@@@Z 0208ea30 f   native.Full:Number.obj
 0001:0008da40       ?g_Initialize@Class_Microsoft_Singularity_Tracing@@SIXXZ 0208ea40 f   native.Full:Tracing.obj
 0001:0008da60       ?g_Log@Class_Microsoft_Singularity_Tracing@@SIXEPAUClass_System_String@@@Z 0208ea60 f   native.Full:Tracing.obj
 0001:0008db10       ?g_Log@Class_Microsoft_Singularity_Tracing@@SIXEPAUClass_System_String@@PAUuintPtr@@@Z 0208eb10 f   native.Full:Tracing.obj
 0001:0008dbc0       ?g_Log@Class_Microsoft_Singularity_Tracing@@SIXEPAUClass_System_String@@PAUuintPtr@@1@Z 0208ebc0 f   native.Full:Tracing.obj
 0001:0008dc70       ?g_Log@Class_Microsoft_Singularity_Tracing@@SIXEPAUClass_System_String@@PAUuintPtr@@111@Z 0208ec70 f   native.Full:Tracing.obj
 0001:0008dd30       ?g_Log@Class_Microsoft_Singularity_Tracing@@SIXEPAUClass_System_String@@PAUuintPtr@@1111@Z 0208ed30 f   native.Full:Tracing.obj
 0001:0008ddf0       ?g_Log@Class_Microsoft_Singularity_Tracing@@SIXEPAUClass_System_String@@0@Z 0208edf0 f   native.Full:Tracing.obj
 0001:0008dec0       ?g_Log@Class_Microsoft_Singularity_Tracing@@SIXEPAUClass_System_String@@0PAUuintPtr@@@Z 0208eec0 f   native.Full:Tracing.obj
 0001:0008df90       ?g_Log@Class_Microsoft_Singularity_Tracing@@SIXEPAUClass_System_String@@0PAUuintPtr@@1@Z 0208ef90 f   native.Full:Tracing.obj
 0001:0008e060       ?g_Log@Class_Microsoft_Singularity_Tracing@@SIXEPAUClass_System_String@@00@Z 0208f060 f   native.Full:Tracing.obj
 0001:0008e140       ?LogExceptionInfo@@YIXPAUuintPtr@@0PAUClass_System_String@@@Z 0208f140 f   native.Full:Tracing.obj
 0001:0008e1b0       ?ConvertToChars@@YIPADPADPA_WH@Z 0208f1b0 f   native.Full:EventController.obj
 0001:0008e1e0       ?g_FetchLocalStorage@Class_Microsoft_Singularity_Eventing_LocalController@@SIPAUuintPtr@@XZ 0208f1e0 f   native.Full:EventController.obj
 0001:0008e1f0       ?g_SetRepositoryStorage@Class_Microsoft_Singularity_Eventing_LocalController@@SI_NPAUuintPtr@@@Z 0208f1f0 f   native.Full:EventController.obj
 0001:0008e210       ?g_RegisterStorageImpl@Class_Microsoft_Singularity_Eventing_LocalController@@SI_NPAUuintPtr@@@Z 0208f210 f   native.Full:EventController.obj
 0001:0008e240       ?g_UnRegisterStorageImpl@Class_Microsoft_Singularity_Eventing_LocalController@@SIXPAUuintPtr@@@Z 0208f240 f   native.Full:EventController.obj
 0001:0008e270       ?g_AllocateSourceHandleImpl@Class_Microsoft_Singularity_Eventing_LocalController@@SIPAUuintPtr@@PAUClass_System_String@@@Z 0208f270 f   native.Full:EventController.obj
 0001:0008e320       ?g_RegisterSourceStorageImpl@Class_Microsoft_Singularity_Eventing_LocalController@@SIXPAUuintPtr@@0I@Z 0208f320 f   native.Full:EventController.obj
 0001:0008e370       ?g_RegisterActiveSourceImpl@Class_Microsoft_Singularity_Eventing_LocalController@@SIXPAUuintPtr@@00GG@Z 0208f370 f   native.Full:EventController.obj
 0001:0008e3d0       ?g_UnRegisterSourceImpl@Class_Microsoft_Singularity_Eventing_LocalController@@SIXPAUuintPtr@@@Z 0208f3d0 f   native.Full:EventController.obj
 0001:0008e410       ?g_GetControllerHandle@Class_Microsoft_Singularity_Eventing_LocalController@@SI_NPAPAUuintPtr@@0@Z 0208f410 f   native.Full:EventController.obj
 0001:0008e420       ?g_QueryNativeSourceInfo@Class_Microsoft_Singularity_Eventing_LocalController@@SI_NPAUuintPtr@@PAPAU2@PA_WG@Z 0208f420 f   native.Full:EventController.obj
 0001:0008e490       ?g_QuerySystemSources@Class_Microsoft_Singularity_Eventing_LocalController@@SIHPAPAUuintPtr@@G@Z 0208f490 f   native.Full:EventController.obj
 0001:0008e4c0       __alldiv                   0208f4c0 f   native.Full:_lldiv.obj
 0001:0008e570       __allrem                   0208f570 f   native.Full:_llrem.obj
 0001:0008e630       __aulldiv                  0208f630 f   native.Full:_ulldiv.obj
 0001:0008e6a0       __aullrem                  0208f6a0 f   native.Full:_ullrem.obj
 0001:0008e720       __throwDispatcherExplicitAddrAfter 0208f720 f   native.Full:lib.obj
 0001:0008e75a       ?g_ZeroPages@Class_System_Buffer@@SIXPAEH@Z 0208f75a f   native.Full:lib.obj
 0001:0008e78e       ?g_CopyPages@Class_System_Buffer@@SIXPAE0H@Z 0208f78e f   native.Full:lib.obj
 0001:0008e8c0       ?ExceptionTableLookup@@YI_KPAUClass_System_Exception@@I@Z 0208f8c0 f   native.Full:halexn.obj
 0001:0008ea10       ?GetFieldSize@@YIGG@Z      0208fa10 f   native.Full:EventDescriptor.obj
 0001:0008ea70       ?RegisterFieldDescriptorImplementation@@YIPAU_MEMORY_HEADER@@HPAU1@PAXIGG@Z 0208fa70 f   native.Full:EventDescriptor.obj
 0001:0008eb80       ?RegisterGenericFieldDescriptorImplementation@@YIPAU_MEMORY_HEADER@@HPAU1@PAXIGGPAUuintPtr@@@Z 0208fb80 f   native.Full:EventDescriptor.obj
 0001:0008eca0       ?RegisterEnumDescriptorImplementation@@YIPAU_MEMORY_HEADER@@HPAXGG@Z 0208fca0 f   native.Full:EventDescriptor.obj
 0001:0008ed10       ?RegisterValueDescriptorImplementation@@YIPAU_MEMORY_HEADER@@HPAU1@PAXI_KE@Z 0208fd10 f   native.Full:EventDescriptor.obj
 0001:0008ede0       ?RegisterNativeTypes@@YIXXZ 0208fde0 f   native.Full:EventDescriptor.obj
 0001:0008f750       ?g_Initialize@Class_Microsoft_Singularity_Monitoring@@SIXXZ 02090750 f   native.Full:Monitoring.obj
 0001:0008f770       ?_cinit@@YAHXZ             02090770 f   native.Full:CInit.obj
 0001:0008f7c0       ?InitializeMemoryZone@@YIPAU_MEMORY_ZONE@@PAXGPAUuintPtr@@@Z 020907c0 f   native.Full:ZoneAllocation.obj
 0001:0008f830       ?MarkZoneFull@@YIXPAU_MEMORY_ZONE@@@Z 02090830 f   native.Full:ZoneAllocation.obj
 0001:0008f8b0       ?MarkZoneCommited@@YIXPAU_MEMORY_ZONE@@@Z 020908b0 f   native.Full:ZoneAllocation.obj
 0001:0008f930       ?AllocateEventEntry@@YIPAU_MEMORY_HEADER@@PAU_MEMORY_ZONE@@G@Z 02090930 f   native.Full:ZoneAllocation.obj
 0001:0008fa70       ?CommitEventEntry@@YIXPAU_MEMORY_HEADER@@@Z 02090a70 f   native.Full:ZoneAllocation.obj
 0001:0008fb20       ?IsZoneCompleted@@YI_NPAU_MEMORY_ZONE@@@Z 02090b20 f   native.Full:ZoneAllocation.obj
 0001:0008fb50       ?RecycleZone@@YI_NPAU_MEMORY_ZONE@@@Z 02090b50 f   native.Full:ZoneAllocation.obj
 0001:0008fc30       _memcpy                    02090c30 f   native.Full:_memcpy.obj
 0001:0008ff6d       _memmove                   02090f6d f   native.Full:_memcpy.obj
 0001:0008ff76       ?g_Allocate@Struct_Microsoft_Singularity_V1_Services_EndpointCore@@SIPAUStruct_Microsoft_Singularity_V1_Services_SharedHeapService_Allocation@@IUStruct_Microsoft_Singularity_V1_Types_SystemType@@@Z 02090f76 f   singularity.V1.Full:Singularity.V1.dll
 0001:0008ff7c       ?g_Connect@Struct_Microsoft_Singularity_V1_Services_EndpointCore@@SIXPAUStruct_Microsoft_Singularity_V1_Services_SharedHeapService_Allocation@@00@Z 02090f7c f   singularity.V1.Full:Singularity.V1.dll
 0001:0008ff82       ?g_Dispose@Struct_Microsoft_Singularity_V1_Services_EndpointCore@@SI_NPAU1@@Z 02090f82 f   singularity.V1.Full:Singularity.V1.dll
 0001:0008ff88       ?g_Free@Struct_Microsoft_Singularity_V1_Services_EndpointCore@@SIXPAUStruct_Microsoft_Singularity_V1_Services_SharedHeapService_Allocation@@@Z 02090f88 f   singularity.V1.Full:Singularity.V1.dll
 0001:0008ff8e       ?g_GetPeerABI@Struct_Microsoft_Singularity_V1_Services_EndpointCore@@SIPAUStruct_Microsoft_Singularity_V1_Services_SharedHeapService_Allocation@@PAU1@PA_N@Z 02090f8e f   singularity.V1.Full:Singularity.V1.dll
 0001:0008ff94       ?g_MarshallMessage@Struct_Microsoft_Singularity_V1_Services_EndpointCore@@SIXPAU1@PAE1PAHH@Z 02090f94 f   singularity.V1.Full:Singularity.V1.dll
 0001:0008ff9a       ?g_MarshallPointer@Struct_Microsoft_Singularity_V1_Services_EndpointCore@@SIXPAU1@PAEPAPAEUStruct_Microsoft_Singularity_V1_Types_SystemType@@1H@Z 02090f9a f   singularity.V1.Full:Singularity.V1.dll
 0001:0008ffa0       ?g_NotifyPeer@Struct_Microsoft_Singularity_V1_Services_EndpointCore@@SIXPAU1@@Z 02090fa0 f   singularity.V1.Full:Singularity.V1.dll
 0001:0008ffa6       ?g_PeerClosedABI@Struct_Microsoft_Singularity_V1_Services_EndpointCore@@SI_NPAU1@@Z 02090fa6 f   singularity.V1.Full:Singularity.V1.dll
 0001:0008ffac       ?g_TransferBlockOwnership@Struct_Microsoft_Singularity_V1_Services_EndpointCore@@SIXPAUStruct_Microsoft_Singularity_V1_Services_SharedHeapService_Allocation@@PAU1@@Z 02090fac f   singularity.V1.Full:Singularity.V1.dll
 0001:0008ffb2       ?g_TransferContentOwnership@Struct_Microsoft_Singularity_V1_Services_EndpointCore@@SIXPAU1@0@Z 02090fb2 f   singularity.V1.Full:Singularity.V1.dll
 0001:0008ffb8       ?g_CreateImpl@Struct_Microsoft_Singularity_V1_Threads_AutoResetEventHandle@@SI_N_NPAU1@@Z 02090fb8 f   singularity.V1.Full:Singularity.V1.dll
 0001:0008ffbe       ?g_Dispose@Struct_Microsoft_Singularity_V1_Threads_AutoResetEventHandle@@SIXU1@@Z 02090fbe f   singularity.V1.Full:Singularity.V1.dll
 0001:0008ffc4       ?g_Set@Struct_Microsoft_Singularity_V1_Threads_AutoResetEventHandle@@SI_NU1@@Z 02090fc4 f   singularity.V1.Full:Singularity.V1.dll
 0001:0008ffca       ?g_SetNoGC@Struct_Microsoft_Singularity_V1_Threads_AutoResetEventHandle@@SI_NU1@@Z 02090fca f   singularity.V1.Full:Singularity.V1.dll
 0001:0008ffd0       ?g_WaitAny@Struct_Microsoft_Singularity_V1_Threads_SyncHandle@@SIHPAU1@HUStruct_System_SchedulerTime@@@Z 02090fd0 f   singularity.V1.Full:Singularity.V1.dll
 0001:0008ffd6       ?g_WaitAny@Struct_Microsoft_Singularity_V1_Threads_SyncHandle@@SIHPAU1@H@Z 02090fd6 f   singularity.V1.Full:Singularity.V1.dll
 0001:0008ffdc       ?g_WaitOne@Struct_Microsoft_Singularity_V1_Threads_SyncHandle@@SI_NU1@UStruct_System_SchedulerTime@@@Z 02090fdc f   singularity.V1.Full:Singularity.V1.dll
 0001:0008ffe2       ?g_WaitOne@Struct_Microsoft_Singularity_V1_Threads_SyncHandle@@SI_NU1@@Z 02090fe2 f   singularity.V1.Full:Singularity.V1.dll
 0001:0008ffe8       ?g_WaitOneNoGC@Struct_Microsoft_Singularity_V1_Threads_SyncHandle@@SI_NU1@@Z 02090fe8 f   singularity.V1.Full:Singularity.V1.dll
 0001:0008ffee       ?g_DisableInterrupts@Struct_Microsoft_Singularity_V1_Services_PlatformService@@SI_NXZ 02090fee f   singularity.V1.Full:Singularity.V1.dll
 0001:0008fff4       ?g_InterruptsDisabled@Struct_Microsoft_Singularity_V1_Services_PlatformService@@SI_NXZ 02090ff4 f   singularity.V1.Full:Singularity.V1.dll
 0001:0008fffa       ?g_RestoreInterrupts@Struct_Microsoft_Singularity_V1_Services_PlatformService@@SIX_N@Z 02090ffa f   singularity.V1.Full:Singularity.V1.dll
 0001:00090000       ?g_AllocateStackSegmentAbi@Struct_Microsoft_Singularity_V1_Services_StackService@@SIPAUuintPtr@@PAU2@@Z 02091000 f   singularity.V1.Full:Singularity.V1.dll
 0001:00090006       ?g_FreeStackSegmentAbi@Struct_Microsoft_Singularity_V1_Services_StackService@@SIXXZ 02091006 f   singularity.V1.Full:Singularity.V1.dll
 0001:0009000c       ?g_StackOverflowImpl@Struct_Microsoft_Singularity_V1_Services_StackService@@SIXXZ 0209100c f   singularity.V1.Full:Singularity.V1.dll
 0001:00090012       ?g_AddToPerfCounter@Struct_Microsoft_Singularity_V1_Services_DebugService@@SI_NI_K@Z 02091012 f   singularity.V1.Full:Singularity.V1.dll
 0001:00090018       ?g_Break@Struct_Microsoft_Singularity_V1_Services_DebugService@@SIXXZ 02091018 f   singularity.V1.Full:Singularity.V1.dll
 0001:0009001e       ?g_IsDebuggerPresent@Struct_Microsoft_Singularity_V1_Services_DebugService@@SI_NXZ 0209101e f   singularity.V1.Full:Singularity.V1.dll
 0001:00090024       ?g_PrintBeginImpl@Struct_Microsoft_Singularity_V1_Services_DebugService@@SIXPAPA_WPAH@Z 02091024 f   singularity.V1.Full:Singularity.V1.dll
 0001:0009002a       ?g_PrintComplete@Struct_Microsoft_Singularity_V1_Services_DebugService@@SIXPA_WH@Z 0209102a f   singularity.V1.Full:Singularity.V1.dll
 0001:00090030       ?g_CloseGlobalStorage@Struct_Microsoft_Singularity_V1_Services_DiagnosisService@@SIXPAUuintPtr@@@Z 02091030 f   singularity.V1.Full:Singularity.V1.dll
 0001:00090036       ?g_DebugPrintLogEntry@Struct_Microsoft_Singularity_V1_Services_DiagnosisService@@SI_NPAUuintPtr@@0@Z 02091036 f   singularity.V1.Full:Singularity.V1.dll
 0001:0009003c       ?g_GCProfileSettings@Struct_Microsoft_Singularity_V1_Services_DiagnosisService@@SIHPA_K0@Z 0209103c f   singularity.V1.Full:Singularity.V1.dll
 0001:00090042       ?g_RegisterEventingController@Struct_Microsoft_Singularity_V1_Services_DiagnosisService@@SI_NPAUuintPtr@@0@Z 02091042 f   singularity.V1.Full:Singularity.V1.dll
 0001:00090048       ?g_Allocate@Struct_Microsoft_Singularity_V1_Services_SharedHeapService@@SIPAUStruct_Microsoft_Singularity_V1_Services_SharedHeapService_Allocation@@PAUuintPtr@@UStruct_Microsoft_Singularity_V1_Types_SystemType@@I@Z 02091048 f   singularity.V1.Full:Singularity.V1.dll
 0001:0009004e       ?g_Free@Struct_Microsoft_Singularity_V1_Services_SharedHeapService@@SI_NPAUStruct_Microsoft_Singularity_V1_Services_SharedHeapService_Allocation@@@Z 0209104e f   singularity.V1.Full:Singularity.V1.dll
 0001:00090054       ?g_IsSubtype@Struct_Microsoft_Singularity_V1_Types_SystemType@@SI_NPAUStruct_Microsoft_Singularity_V1_Services_SharedHeapService_Allocation@@U1@@Z 02091054 f   singularity.V1.Full:Singularity.V1.dll
 0001:0009005a       ?g_Register@Struct_Microsoft_Singularity_V1_Types_SystemType@@SI?AU1@PA_WH_J1U1@@Z 0209105a f   singularity.V1.Full:Singularity.V1.dll
 0001:00090060       ?g_RootSystemType@Struct_Microsoft_Singularity_V1_Types_SystemType@@SI?AU1@XZ 02091060 f   singularity.V1.Full:Singularity.V1.dll
 0001:00090066       ?g_CreateImpl@Struct_Microsoft_Singularity_V1_Threads_ThreadHandle@@SI_NHUStruct_Microsoft_Singularity_V1_Threads_ContainerHandle@@PAU1@PAPAUuintPtr@@@Z 02091066 f   singularity.V1.Full:Singularity.V1.dll
 0001:0009006c       ?g_CurrentThread@Struct_Microsoft_Singularity_V1_Threads_ThreadHandle@@SI?AU1@XZ 0209106c f   singularity.V1.Full:Singularity.V1.dll
 0001:00090072       ?g_Dispose@Struct_Microsoft_Singularity_V1_Threads_ThreadHandle@@SIXU1@@Z 02091072 f   singularity.V1.Full:Singularity.V1.dll
 0001:00090078       ?g_Start@Struct_Microsoft_Singularity_V1_Threads_ThreadHandle@@SIXU1@@Z 02091078 f   singularity.V1.Full:Singularity.V1.dll
 0001:0009007e       ?g_Allocate@Struct_Microsoft_Singularity_V1_Services_PageTableService@@SIPAUuintPtr@@PAU2@@Z 0209107e f   singularity.V1.Full:Singularity.V1.dll
 0001:00090084       ?g_Free@Struct_Microsoft_Singularity_V1_Services_PageTableService@@SIXPAUuintPtr@@0@Z 02091084 f   singularity.V1.Full:Singularity.V1.dll
 0001:0009008a       ?g_GetBaseAddress@Struct_Microsoft_Singularity_V1_Services_PageTableService@@SIIXZ 0209108a f   singularity.V1.Full:Singularity.V1.dll
 0001:00090090       ?g_GetPageCount@Struct_Microsoft_Singularity_V1_Services_PageTableService@@SIIXZ 02091090 f   singularity.V1.Full:Singularity.V1.dll
 0001:00090096       ?g_GetPageTable@Struct_Microsoft_Singularity_V1_Services_PageTableService@@SIPAIXZ 02091096 f   singularity.V1.Full:Singularity.V1.dll
 0001:0009009c       ?g_GetProcessTag@Struct_Microsoft_Singularity_V1_Services_PageTableService@@SIIXZ 0209109c f   singularity.V1.Full:Singularity.V1.dll
 0001:000900a2       ?g_QueryImpl@Struct_Microsoft_Singularity_V1_Services_PageTableService@@SI_NPAUuintPtr@@PAPAU2@1@Z 020910a2 f   singularity.V1.Full:Singularity.V1.dll
 0001:000900a8       ?g_GetCurrentProcessId@Struct_Microsoft_Singularity_V1_Services_ProcessService@@SIGXZ 020910a8 f   singularity.V1.Full:Singularity.V1.dll
 0001:000900ae       ?g_GetNamespaceEndpoint@Struct_Microsoft_Singularity_V1_Services_ProcessService@@SIPAUStruct_Microsoft_Singularity_V1_Services_SharedHeapService_Allocation@@XZ 020910ae f   singularity.V1.Full:Singularity.V1.dll
 0001:000900b4       ?g_GetSharedSourceHandlesImpl@Struct_Microsoft_Singularity_V1_Services_ProcessService@@SI_NIPAPAUuintPtr@@00@Z 020910b4 f   singularity.V1.Full:Singularity.V1.dll
 0001:000900ba       ?g_GetStartupArg@Struct_Microsoft_Singularity_V1_Services_ProcessService@@SIHHPA_WH@Z 020910ba f   singularity.V1.Full:Singularity.V1.dll
 0001:000900c0       ?g_GetStartupBoolArgImpl@Struct_Microsoft_Singularity_V1_Services_ProcessService@@SI?AUStruct_Microsoft_Singularity_V1_Services_ParameterCode@@HPA_N@Z 020910c0 f   singularity.V1.Full:Singularity.V1.dll
 0001:000900c6       ?g_GetStartupEndpoint@Struct_Microsoft_Singularity_V1_Services_ProcessService@@SIPAUStruct_Microsoft_Singularity_V1_Services_SharedHeapService_Allocation@@H@Z 020910c6 f   singularity.V1.Full:Singularity.V1.dll
 0001:000900cc       ?g_GetStartupLongArgImpl@Struct_Microsoft_Singularity_V1_Services_ProcessService@@SI?AUStruct_Microsoft_Singularity_V1_Services_ParameterCode@@HPA_J@Z 020910cc f   singularity.V1.Full:Singularity.V1.dll
 0001:000900d2       ?g_GetStartupStringArgImpl@Struct_Microsoft_Singularity_V1_Services_ProcessService@@SI?AUStruct_Microsoft_Singularity_V1_Services_ParameterCode@@HPA_WPAH@Z 020910d2 f   singularity.V1.Full:Singularity.V1.dll
 0001:000900d8       ?g_GetUpTime@Struct_Microsoft_Singularity_V1_Services_ProcessService@@SI?AUStruct_System_TimeSpan@@XZ 020910d8 f   singularity.V1.Full:Singularity.V1.dll
 0001:000900de       ?g_SetGcPerformanceCounters@Struct_Microsoft_Singularity_V1_Services_ProcessService@@SIXUStruct_System_TimeSpan@@_J@Z 020910de f   singularity.V1.Full:Singularity.V1.dll
 0001:000900e4       ?g_SetStartupEndpoint@Struct_Microsoft_Singularity_V1_Services_ProcessService@@SIXHPAUStruct_Microsoft_Singularity_V1_Services_SharedHeapService_Allocation@@@Z 020910e4 f   singularity.V1.Full:Singularity.V1.dll
 0001:000900ea       ?g_CreateImpl@Struct_Microsoft_Singularity_V1_Threads_ManualResetEventHandle@@SI_N_NPAU1@@Z 020910ea f   singularity.V1.Full:Singularity.V1.dll
 0001:000900f0       ?g_Dispose@Struct_Microsoft_Singularity_V1_Threads_ManualResetEventHandle@@SIXU1@@Z 020910f0 f   singularity.V1.Full:Singularity.V1.dll
 0001:000900f6       ?g_Reset@Struct_Microsoft_Singularity_V1_Threads_ManualResetEventHandle@@SI_NU1@@Z 020910f6 f   singularity.V1.Full:Singularity.V1.dll
 0001:000900fc       ?g_Set@Struct_Microsoft_Singularity_V1_Threads_ManualResetEventHandle@@SI_NU1@@Z 020910fc f   singularity.V1.Full:Singularity.V1.dll
 0001:00090102       ?g_CreateImpl@Struct_Microsoft_Singularity_V1_Threads_MutexHandle@@SI_N_NPAU1@@Z 02091102 f   singularity.V1.Full:Singularity.V1.dll
 0001:00090108       ?g_Dispose@Struct_Microsoft_Singularity_V1_Threads_MutexHandle@@SIXU1@@Z 02091108 f   singularity.V1.Full:Singularity.V1.dll
 0001:0009010e       ?g_IsOwnedByCurrentThread@Struct_Microsoft_Singularity_V1_Threads_MutexHandle@@SI_NU1@@Z 0209110e f   singularity.V1.Full:Singularity.V1.dll
 0001:00090114       ?g_Release@Struct_Microsoft_Singularity_V1_Threads_MutexHandle@@SIXU1@@Z 02091114 f   singularity.V1.Full:Singularity.V1.dll
 0001:0009011a       ?g_Print@Struct_Microsoft_Singularity_V1_Services_DebugService@@SIXPA_WH@Z 0209111a f   singularity.V1.Full:Singularity.V1.dll
 0001:00090120       ?g_GetProcessorContextOffset@Struct_Microsoft_Singularity_V1_Services_PlatformService@@SIHXZ 02091120 f   singularity.V1.Full:Singularity.V1.dll
 0001:00090126       ?g_GetThreadContextOffset@Struct_Microsoft_Singularity_V1_Services_PlatformService@@SIHXZ 02091126 f   singularity.V1.Full:Singularity.V1.dll
 0001:0009012c       ?g_SuspendBarrier@Struct_Microsoft_Singularity_V1_Processes_ProcessHandle@@SIXXZ 0209112c f   singularity.V1.Full:Singularity.V1.dll
 0002:00000000       __imp_?g_Allocate@Struct_Microsoft_Singularity_V1_Services_EndpointCore@@SIPAUStruct_Microsoft_Singularity_V1_Services_SharedHeapService_Allocation@@IUStruct_Microsoft_Singularity_V1_Types_SystemType@@@Z 02092000     singularity.V1.Full:Singularity.V1.dll
 0002:00000004       __imp_?g_Connect@Struct_Microsoft_Singularity_V1_Services_EndpointCore@@SIXPAUStruct_Microsoft_Singularity_V1_Services_SharedHeapService_Allocation@@00@Z 02092004     singularity.V1.Full:Singularity.V1.dll
 0002:00000008       __imp_?g_Dispose@Struct_Microsoft_Singularity_V1_Services_EndpointCore@@SI_NPAU1@@Z 02092008     singularity.V1.Full:Singularity.V1.dll
 0002:0000000c       __imp_?g_Free@Struct_Microsoft_Singularity_V1_Services_EndpointCore@@SIXPAUStruct_Microsoft_Singularity_V1_Services_SharedHeapService_Allocation@@@Z 0209200c     singularity.V1.Full:Singularity.V1.dll
 0002:00000010       __imp_?g_GetPeerABI@Struct_Microsoft_Singularity_V1_Services_EndpointCore@@SIPAUStruct_Microsoft_Singularity_V1_Services_SharedHeapService_Allocation@@PAU1@PA_N@Z 02092010     singularity.V1.Full:Singularity.V1.dll
 0002:00000014       __imp_?g_MarshallMessage@Struct_Microsoft_Singularity_V1_Services_EndpointCore@@SIXPAU1@PAE1PAHH@Z 02092014     singularity.V1.Full:Singularity.V1.dll
 0002:00000018       __imp_?g_MarshallPointer@Struct_Microsoft_Singularity_V1_Services_EndpointCore@@SIXPAU1@PAEPAPAEUStruct_Microsoft_Singularity_V1_Types_SystemType@@1H@Z 02092018     singularity.V1.Full:Singularity.V1.dll
 0002:0000001c       __imp_?g_NotifyPeer@Struct_Microsoft_Singularity_V1_Services_EndpointCore@@SIXPAU1@@Z 0209201c     singularity.V1.Full:Singularity.V1.dll
 0002:00000020       __imp_?g_PeerClosedABI@Struct_Microsoft_Singularity_V1_Services_EndpointCore@@SI_NPAU1@@Z 02092020     singularity.V1.Full:Singularity.V1.dll
 0002:00000024       __imp_?g_TransferBlockOwnership@Struct_Microsoft_Singularity_V1_Services_EndpointCore@@SIXPAUStruct_Microsoft_Singularity_V1_Services_SharedHeapService_Allocation@@PAU1@@Z 02092024     singularity.V1.Full:Singularity.V1.dll
 0002:00000028       __imp_?g_TransferContentOwnership@Struct_Microsoft_Singularity_V1_Services_EndpointCore@@SIXPAU1@0@Z 02092028     singularity.V1.Full:Singularity.V1.dll
 0002:0000002c       __imp_?g_CreateImpl@Struct_Microsoft_Singularity_V1_Threads_AutoResetEventHandle@@SI_N_NPAU1@@Z 0209202c     singularity.V1.Full:Singularity.V1.dll
 0002:00000030       __imp_?g_Dispose@Struct_Microsoft_Singularity_V1_Threads_AutoResetEventHandle@@SIXU1@@Z 02092030     singularity.V1.Full:Singularity.V1.dll
 0002:00000034       __imp_?g_Set@Struct_Microsoft_Singularity_V1_Threads_AutoResetEventHandle@@SI_NU1@@Z 02092034     singularity.V1.Full:Singularity.V1.dll
 0002:00000038       __imp_?g_SetNoGC@Struct_Microsoft_Singularity_V1_Threads_AutoResetEventHandle@@SI_NU1@@Z 02092038     singularity.V1.Full:Singularity.V1.dll
 0002:0000003c       __imp_?g_WaitAny@Struct_Microsoft_Singularity_V1_Threads_SyncHandle@@SIHPAU1@HUStruct_System_SchedulerTime@@@Z 0209203c     singularity.V1.Full:Singularity.V1.dll
 0002:00000040       __imp_?g_WaitAny@Struct_Microsoft_Singularity_V1_Threads_SyncHandle@@SIHPAU1@H@Z 02092040     singularity.V1.Full:Singularity.V1.dll
 0002:00000044       __imp_?g_WaitOne@Struct_Microsoft_Singularity_V1_Threads_SyncHandle@@SI_NU1@UStruct_System_SchedulerTime@@@Z 02092044     singularity.V1.Full:Singularity.V1.dll
 0002:00000048       __imp_?g_WaitOne@Struct_Microsoft_Singularity_V1_Threads_SyncHandle@@SI_NU1@@Z 02092048     singularity.V1.Full:Singularity.V1.dll
 0002:0000004c       __imp_?g_WaitOneNoGC@Struct_Microsoft_Singularity_V1_Threads_SyncHandle@@SI_NU1@@Z 0209204c     singularity.V1.Full:Singularity.V1.dll
 0002:00000050       __imp_?g_DisableInterrupts@Struct_Microsoft_Singularity_V1_Services_PlatformService@@SI_NXZ 02092050     singularity.V1.Full:Singularity.V1.dll
 0002:00000054       __imp_?g_InterruptsDisabled@Struct_Microsoft_Singularity_V1_Services_PlatformService@@SI_NXZ 02092054     singularity.V1.Full:Singularity.V1.dll
 0002:00000058       __imp_?g_RestoreInterrupts@Struct_Microsoft_Singularity_V1_Services_PlatformService@@SIX_N@Z 02092058     singularity.V1.Full:Singularity.V1.dll
 0002:0000005c       __imp_?g_AllocateStackSegmentAbi@Struct_Microsoft_Singularity_V1_Services_StackService@@SIPAUuintPtr@@PAU2@@Z 0209205c     singularity.V1.Full:Singularity.V1.dll
 0002:00000060       __imp_?g_FreeStackSegmentAbi@Struct_Microsoft_Singularity_V1_Services_StackService@@SIXXZ 02092060     singularity.V1.Full:Singularity.V1.dll
 0002:00000064       __imp_?g_StackOverflowImpl@Struct_Microsoft_Singularity_V1_Services_StackService@@SIXXZ 02092064     singularity.V1.Full:Singularity.V1.dll
 0002:00000068       __imp_?g_AddToPerfCounter@Struct_Microsoft_Singularity_V1_Services_DebugService@@SI_NI_K@Z 02092068     singularity.V1.Full:Singularity.V1.dll
 0002:0000006c       __imp_?g_Break@Struct_Microsoft_Singularity_V1_Services_DebugService@@SIXXZ 0209206c     singularity.V1.Full:Singularity.V1.dll
 0002:00000070       __imp_?g_IsDebuggerPresent@Struct_Microsoft_Singularity_V1_Services_DebugService@@SI_NXZ 02092070     singularity.V1.Full:Singularity.V1.dll
 0002:00000074       __imp_?g_PrintBeginImpl@Struct_Microsoft_Singularity_V1_Services_DebugService@@SIXPAPA_WPAH@Z 02092074     singularity.V1.Full:Singularity.V1.dll
 0002:00000078       __imp_?g_PrintComplete@Struct_Microsoft_Singularity_V1_Services_DebugService@@SIXPA_WH@Z 02092078     singularity.V1.Full:Singularity.V1.dll
 0002:0000007c       __imp_?g_CloseGlobalStorage@Struct_Microsoft_Singularity_V1_Services_DiagnosisService@@SIXPAUuintPtr@@@Z 0209207c     singularity.V1.Full:Singularity.V1.dll
 0002:00000080       __imp_?g_DebugPrintLogEntry@Struct_Microsoft_Singularity_V1_Services_DiagnosisService@@SI_NPAUuintPtr@@0@Z 02092080     singularity.V1.Full:Singularity.V1.dll
 0002:00000084       __imp_?g_GCProfileSettings@Struct_Microsoft_Singularity_V1_Services_DiagnosisService@@SIHPA_K0@Z 02092084     singularity.V1.Full:Singularity.V1.dll
 0002:00000088       __imp_?g_RegisterEventingController@Struct_Microsoft_Singularity_V1_Services_DiagnosisService@@SI_NPAUuintPtr@@0@Z 02092088     singularity.V1.Full:Singularity.V1.dll
 0002:0000008c       __imp_?g_Allocate@Struct_Microsoft_Singularity_V1_Services_SharedHeapService@@SIPAUStruct_Microsoft_Singularity_V1_Services_SharedHeapService_Allocation@@PAUuintPtr@@UStruct_Microsoft_Singularity_V1_Types_SystemType@@I@Z 0209208c     singularity.V1.Full:Singularity.V1.dll
 0002:00000090       __imp_?g_Free@Struct_Microsoft_Singularity_V1_Services_SharedHeapService@@SI_NPAUStruct_Microsoft_Singularity_V1_Services_SharedHeapService_Allocation@@@Z 02092090     singularity.V1.Full:Singularity.V1.dll
 0002:00000094       __imp_?g_IsSubtype@Struct_Microsoft_Singularity_V1_Types_SystemType@@SI_NPAUStruct_Microsoft_Singularity_V1_Services_SharedHeapService_Allocation@@U1@@Z 02092094     singularity.V1.Full:Singularity.V1.dll
 0002:00000098       __imp_?g_Register@Struct_Microsoft_Singularity_V1_Types_SystemType@@SI?AU1@PA_WH_J1U1@@Z 02092098     singularity.V1.Full:Singularity.V1.dll
 0002:0000009c       __imp_?g_RootSystemType@Struct_Microsoft_Singularity_V1_Types_SystemType@@SI?AU1@XZ 0209209c     singularity.V1.Full:Singularity.V1.dll
 0002:000000a0       __imp_?g_CreateImpl@Struct_Microsoft_Singularity_V1_Threads_ThreadHandle@@SI_NHUStruct_Microsoft_Singularity_V1_Threads_ContainerHandle@@PAU1@PAPAUuintPtr@@@Z 020920a0     singularity.V1.Full:Singularity.V1.dll
 0002:000000a4       __imp_?g_CurrentThread@Struct_Microsoft_Singularity_V1_Threads_ThreadHandle@@SI?AU1@XZ 020920a4     singularity.V1.Full:Singularity.V1.dll
 0002:000000a8       __imp_?g_Dispose@Struct_Microsoft_Singularity_V1_Threads_ThreadHandle@@SIXU1@@Z 020920a8     singularity.V1.Full:Singularity.V1.dll
 0002:000000ac       __imp_?g_Start@Struct_Microsoft_Singularity_V1_Threads_ThreadHandle@@SIXU1@@Z 020920ac     singularity.V1.Full:Singularity.V1.dll
 0002:000000b0       __imp_?g_Allocate@Struct_Microsoft_Singularity_V1_Services_PageTableService@@SIPAUuintPtr@@PAU2@@Z 020920b0     singularity.V1.Full:Singularity.V1.dll
 0002:000000b4       __imp_?g_Free@Struct_Microsoft_Singularity_V1_Services_PageTableService@@SIXPAUuintPtr@@0@Z 020920b4     singularity.V1.Full:Singularity.V1.dll
 0002:000000b8       __imp_?g_GetBaseAddress@Struct_Microsoft_Singularity_V1_Services_PageTableService@@SIIXZ 020920b8     singularity.V1.Full:Singularity.V1.dll
 0002:000000bc       __imp_?g_GetPageCount@Struct_Microsoft_Singularity_V1_Services_PageTableService@@SIIXZ 020920bc     singularity.V1.Full:Singularity.V1.dll
 0002:000000c0       __imp_?g_GetPageTable@Struct_Microsoft_Singularity_V1_Services_PageTableService@@SIPAIXZ 020920c0     singularity.V1.Full:Singularity.V1.dll
 0002:000000c4       __imp_?g_GetProcessTag@Struct_Microsoft_Singularity_V1_Services_PageTableService@@SIIXZ 020920c4     singularity.V1.Full:Singularity.V1.dll
 0002:000000c8       __imp_?g_QueryImpl@Struct_Microsoft_Singularity_V1_Services_PageTableService@@SI_NPAUuintPtr@@PAPAU2@1@Z 020920c8     singularity.V1.Full:Singularity.V1.dll
 0002:000000cc       __imp_?g_GetCurrentProcessId@Struct_Microsoft_Singularity_V1_Services_ProcessService@@SIGXZ 020920cc     singularity.V1.Full:Singularity.V1.dll
 0002:000000d0       __imp_?g_GetNamespaceEndpoint@Struct_Microsoft_Singularity_V1_Services_ProcessService@@SIPAUStruct_Microsoft_Singularity_V1_Services_SharedHeapService_Allocation@@XZ 020920d0     singularity.V1.Full:Singularity.V1.dll
 0002:000000d4       __imp_?g_GetSharedSourceHandlesImpl@Struct_Microsoft_Singularity_V1_Services_ProcessService@@SI_NIPAPAUuintPtr@@00@Z 020920d4     singularity.V1.Full:Singularity.V1.dll
 0002:000000d8       __imp_?g_GetStartupArg@Struct_Microsoft_Singularity_V1_Services_ProcessService@@SIHHPA_WH@Z 020920d8     singularity.V1.Full:Singularity.V1.dll
 0002:000000dc       __imp_?g_GetStartupBoolArgImpl@Struct_Microsoft_Singularity_V1_Services_ProcessService@@SI?AUStruct_Microsoft_Singularity_V1_Services_ParameterCode@@HPA_N@Z 020920dc     singularity.V1.Full:Singularity.V1.dll
 0002:000000e0       __imp_?g_GetStartupEndpoint@Struct_Microsoft_Singularity_V1_Services_ProcessService@@SIPAUStruct_Microsoft_Singularity_V1_Services_SharedHeapService_Allocation@@H@Z 020920e0     singularity.V1.Full:Singularity.V1.dll
 0002:000000e4       __imp_?g_GetStartupLongArgImpl@Struct_Microsoft_Singularity_V1_Services_ProcessService@@SI?AUStruct_Microsoft_Singularity_V1_Services_ParameterCode@@HPA_J@Z 020920e4     singularity.V1.Full:Singularity.V1.dll
 0002:000000e8       __imp_?g_GetStartupStringArgImpl@Struct_Microsoft_Singularity_V1_Services_ProcessService@@SI?AUStruct_Microsoft_Singularity_V1_Services_ParameterCode@@HPA_WPAH@Z 020920e8     singularity.V1.Full:Singularity.V1.dll
 0002:000000ec       __imp_?g_GetUpTime@Struct_Microsoft_Singularity_V1_Services_ProcessService@@SI?AUStruct_System_TimeSpan@@XZ 020920ec     singularity.V1.Full:Singularity.V1.dll
 0002:000000f0       __imp_?g_SetGcPerformanceCounters@Struct_Microsoft_Singularity_V1_Services_ProcessService@@SIXUStruct_System_TimeSpan@@_J@Z 020920f0     singularity.V1.Full:Singularity.V1.dll
 0002:000000f4       __imp_?g_SetStartupEndpoint@Struct_Microsoft_Singularity_V1_Services_ProcessService@@SIXHPAUStruct_Microsoft_Singularity_V1_Services_SharedHeapService_Allocation@@@Z 020920f4     singularity.V1.Full:Singularity.V1.dll
 0002:000000f8       __imp_?g_CreateImpl@Struct_Microsoft_Singularity_V1_Threads_ManualResetEventHandle@@SI_N_NPAU1@@Z 020920f8     singularity.V1.Full:Singularity.V1.dll
 0002:000000fc       __imp_?g_Dispose@Struct_Microsoft_Singularity_V1_Threads_ManualResetEventHandle@@SIXU1@@Z 020920fc     singularity.V1.Full:Singularity.V1.dll
 0002:00000100       __imp_?g_Reset@Struct_Microsoft_Singularity_V1_Threads_ManualResetEventHandle@@SI_NU1@@Z 02092100     singularity.V1.Full:Singularity.V1.dll
 0002:00000104       __imp_?g_Set@Struct_Microsoft_Singularity_V1_Threads_ManualResetEventHandle@@SI_NU1@@Z 02092104     singularity.V1.Full:Singularity.V1.dll
 0002:00000108       __imp_?g_CreateImpl@Struct_Microsoft_Singularity_V1_Threads_MutexHandle@@SI_N_NPAU1@@Z 02092108     singularity.V1.Full:Singularity.V1.dll
 0002:0000010c       __imp_?g_Dispose@Struct_Microsoft_Singularity_V1_Threads_MutexHandle@@SIXU1@@Z 0209210c     singularity.V1.Full:Singularity.V1.dll
 0002:00000110       __imp_?g_IsOwnedByCurrentThread@Struct_Microsoft_Singularity_V1_Threads_MutexHandle@@SI_NU1@@Z 02092110     singularity.V1.Full:Singularity.V1.dll
 0002:00000114       __imp_?g_Release@Struct_Microsoft_Singularity_V1_Threads_MutexHandle@@SIXU1@@Z 02092114     singularity.V1.Full:Singularity.V1.dll
 0002:00000118       __imp_?g_Print@Struct_Microsoft_Singularity_V1_Services_DebugService@@SIXPA_WH@Z 02092118     singularity.V1.Full:Singularity.V1.dll
 0002:0000011c       __imp_?g_GetProcessorContextOffset@Struct_Microsoft_Singularity_V1_Services_PlatformService@@SIHXZ 0209211c     singularity.V1.Full:Singularity.V1.dll
 0002:00000120       __imp_?g_GetThreadContextOffset@Struct_Microsoft_Singularity_V1_Services_PlatformService@@SIHXZ 02092120     singularity.V1.Full:Singularity.V1.dll
 0002:00000124       __imp_?g_SuspendBarrier@Struct_Microsoft_Singularity_V1_Processes_ProcessHandle@@SIXXZ 02092124     singularity.V1.Full:Singularity.V1.dll
 0002:00000128       \177Singularity.V1_NULL_THUNK_DATA 02092128     singularity.V1.Full:Singularity.V1.dll
 0002:00000150       c_roDataSectionBase@Class_System_GCs_StaticData 02092150     sc.obj
 0002:000001a8       ?crtwmain@@3P6AHHPAPA_W@ZA 020921a8     sc.obj
 0002:000001a8       ?brtmain@@3P6IHPAUClassVector_Class_System_String@@@ZA 020921a8     sc.obj
 0002:000001a8       ?crtmain@@3P6AHHPAPAD@ZA   020921a8     sc.obj
 0002:000001ac       ?brtmainReturnsInt@@3HA    020921ac     sc.obj
 0002:000001b0       ?brtmainClass@@3PAUClass_System_RuntimeType@@A 020921b0     sc.obj
 0002:000001b4       ?charInput@@3_NA           020921b4     sc.obj
 0002:000001b5       ?wcharInput@@3_NA          020921b5     sc.obj
 0002:0000064a       c_roDataSectionEnd@Class_System_GCs_StaticData 0209264a     sc.obj
 0002:00000654       ?c_internedStringConstantsVector@Class_System_String@@2PAUClassVector_Class_System_String@@A 02092654     sc.obj
 0002:00001b20       ExceptionTable             02093b20     sc.obj
 0002:00001b2c       ExceptionTableBase         02093b2c     sc.obj
 0002:00007694       ExceptionTableBound        02099694     sc.obj
 0002:000076a0       returnAddressToCallSiteSetNumbers 020996a0     sc.obj
 0002:0000e3c4       callSiteSetCount           020a03c4     sc.obj
 0002:0000e3c8       callSetSiteNumberToIndex   020a03c8     sc.obj
 0002:00011a58       activationDescriptorTable  020a3a58     sc.obj
 0002:00013fa0       staticDataPointerBitMap    020a5fa0     sc.obj
 0002:00015870       ?c_useLinkedStack@Class_System_VTable@@2_NA 020a7870     sc_superObj.obj
 0002:00015880       ?TableBase@@3PAUTableEntry@@A 020a7880     sc_superObj.obj
 0002:00015888       ?TableBound@@3PAUTableEntry@@A 020a7888     sc_superObj.obj
 0002:00015890       ?c_returnAddressToCallSiteSetNumbers@Class_System_GCs_CallStack@@2PAPAIA 020a7890     sc_superObj.obj
 0002:00015894       ?returnAddressToCallSiteSetNumbersArray 020a7894     sc_superObj.obj
 0002:00015898       ?c_callSiteTableCount@Class_System_GCs_CallStack@@2HA 020a7898     sc_superObj.obj
 0002:00015898       ?returnAddressToCallSiteSetNumbersArrayEnd 020a7898     sc_superObj.obj
 0002:0001589c       ?c_callSiteSetCount@Class_System_GCs_CallStack@@2PAPAHA 020a789c     sc_superObj.obj
 0002:000158a0       ?callSiteSetCountArray     020a78a0     sc_superObj.obj
 0002:000158a4       ?c_callSetSiteNumberToIndex@Class_System_GCs_CallStack@@2PAPAGA 020a78a4     sc_superObj.obj
 0002:000158a4       ?callSiteSetCountArrayEnd  020a78a4     sc_superObj.obj
 0002:000158a8       ?callSetSiteNumberToIndexArray 020a78a8     sc_superObj.obj
 0002:000158ac       ?c_activationDescriptorTable@Class_System_GCs_CallStack@@2PAPAUStruct_System_GCs_CompressedFrameDescriptor@@A 020a78ac     sc_superObj.obj
 0002:000158b0       ?activationDescriptorArray 020a78b0     sc_superObj.obj
 0002:000158b4       ?activationDescriptorArrayEnd 020a78b4     sc_superObj.obj
 0002:000158c0       ?c_staticDataPointerBitMap@Class_System_GCs_StaticData@@2PAPAIA 020a78c0     sc_superObj.obj
 0002:000158c4       ?staticDataPointerBitMapsArray 020a78c4     sc_superObj.obj
 0002:000158c8       ?staticDataPointerBitMapsArrayEnd 020a78c8     sc_superObj.obj
 0002:000158d0       ?c_dataSectionBase@Class_System_GCs_StaticData@@2PAPAIA 020a78d0     sc_superObj.obj
 0002:000158d4       ?dataSectionBaseArray      020a78d4     sc_superObj.obj
 0002:000158d8       ?c_dataSectionEnd@Class_System_GCs_StaticData@@2PAPAIA 020a78d8     sc_superObj.obj
 0002:000158d8       ?dataSectionBaseArrayEnd   020a78d8     sc_superObj.obj
 0002:000158dc       ?dataSectionEndArray       020a78dc     sc_superObj.obj
 0002:000158e0       ?c_sectionCount@Class_System_GCs_StaticData@@2HA 020a78e0     sc_superObj.obj
 0002:000158e0       ?dataSectionEndArrayEnd    020a78e0     sc_superObj.obj
 0002:000158f0       ?c_roDataSectionBase@Class_System_GCs_StaticData@@2PAPAIA 020a78f0     sc_superObj.obj
 0002:000158f4       ?roDataSectionBaseArray    020a78f4     sc_superObj.obj
 0002:000158f8       ?roDataSectionBaseArrayEnd 020a78f8     sc_superObj.obj
 0002:000158f8       ?c_roDataSectionEnd@Class_System_GCs_StaticData@@2PAPAIA 020a78f8     sc_superObj.obj
 0002:000158fc       ?roDataSectionEndArray     020a78fc     sc_superObj.obj
 0002:00015900       ?c_codeBaseStartTable@Class_System_GCs_CallStack@@2PAIA 020a7900     sc_superObj.obj
 0002:00015900       ?roDataSectionEndArrayEnd  020a7900     sc_superObj.obj
 0002:00015904       ?codeBaseStartArray        020a7904     sc_superObj.obj
 0002:00015908       ??_C@_04OJAHODMC@Text?$AA@ 020a7908     native.Full:EventDescriptor.obj
 0002:00015908       ?codeBaseStartArrayEnd     020a7908     sc_superObj.obj
 0002:00015910       ??_C@_07CPCPJPKL@version?$AA@ 020a7910     native.Full:EventDescriptor.obj
 0002:00015918       ??_C@_08FGCHIJMN@Provider?$AA@ 020a7918     native.Full:EventDescriptor.obj
 0002:00015924       ??_C@_0CN@MCHNEOJN@?$HL0?$HN?3?$HL1?$HN?3?$HL2?$HN?3?$HL3?$HN?5?9?5?$CI?$HL4?$HN?0?$HL5?$HN?0?$HL6?$HN?0?$HL@ 020a7924     native.Full:EventDescriptor.obj
 0002:00015954       ??_C@_0BI@MCHHPJCC@System?4MONITORING_ENTRY?$AA@ 020a7954     native.Full:EventDescriptor.obj
 0002:0001596c       ??_C@_07DANJEPLI@StrArg1?$AA@ 020a796c     native.Full:EventDescriptor.obj
 0002:00015974       ??_C@_07CJMCHOPJ@StrArg0?$AA@ 020a7974     native.Full:EventDescriptor.obj
 0002:0001597c       ??_C@_04LDBACBBL@arg5?$AA@ 020a797c     native.Full:EventDescriptor.obj
 0002:00015984       ??_C@_04KKALBAFK@arg4?$AA@ 020a7984     native.Full:EventDescriptor.obj
 0002:0001598c       ??_C@_04OFEKIGJN@arg3?$AA@ 020a798c     native.Full:EventDescriptor.obj
 0002:00015994       ??_C@_04PMFBLHNM@arg2?$AA@ 020a7994     native.Full:EventDescriptor.obj
 0002:0001599c       ??_C@_04NHHMOEBP@arg1?$AA@ 020a799c     native.Full:EventDescriptor.obj
 0002:000159a4       ??_C@_04MOGHNFFO@arg0?$AA@ 020a79a4     native.Full:EventDescriptor.obj
 0002:000159ac       ??_C@_03MLMOILGK@Msg?$AA@  020a79ac     native.Full:EventDescriptor.obj
 0002:000159b0       ??_C@_03POOIBDAP@PID?$AA@  020a79b0     native.Full:EventDescriptor.obj
 0002:000159b4       ??_C@_08PHGLMIHD@severity?$AA@ 020a79b4     native.Full:EventDescriptor.obj
 0002:000159c0       ??_C@_0BB@CMJINLHH@Log?5?$HL0?$HN?3?$HL1?$HN?5?$HL3?$CK?$HN?$AA@ 020a79c0     native.Full:EventDescriptor.obj
 0002:000159d4       ??_C@_0BI@OENOPLIK@System?4LEGACY_LOG_ENTRY?$AA@ 020a79d4     native.Full:EventDescriptor.obj
 0002:000159ec       ??_C@_05CALGBKNA@Roots?$AA@ 020a79ec     native.Full:EventDescriptor.obj
 0002:000159f4       ??_C@_0BA@HOFAOCFN@System?4GC_ROOTS?$AA@ 020a79f4     native.Full:EventDescriptor.obj
 0002:00015a04       ??_C@_0L@CKFPHHGA@Genrations?$AA@ 020a7a04     native.Full:EventDescriptor.obj
 0002:00015a10       ??_C@_0BG@JBMENCLG@System?4GC_GENERATIONS?$AA@ 020a7a10     native.Full:EventDescriptor.obj
 0002:00015a28       ??_C@_0O@MAFLGEBO@ParameterList?$AA@ 020a7a28     native.Full:EventDescriptor.obj
 0002:00015a38       ??_C@_0BB@ENIHBHNB@System?4GC_OBJECT?$AA@ 020a7a38     native.Full:EventDescriptor.obj
 0002:00015a4c       ??_C@_07BPHJKENM@fncList?$AA@ 020a7a4c     native.Full:EventDescriptor.obj
 0002:00015a54       ??_C@_0BA@NJJBMNPE@System?4GC_STACK?$AA@ 020a7a54     native.Full:EventDescriptor.obj
 0002:00015a64       ??_C@_04FABLJDN@Name?$AA@  020a7a64     native.Full:EventDescriptor.obj
 0002:00015a6c       ??_C@_06BCNEEODO@TypeId?$AA@ 020a7a6c     native.Full:EventDescriptor.obj
 0002:00015a74       ??_C@_0P@KNGNNKPN@System?4GC_TYPE?$AA@ 020a7a74     native.Full:EventDescriptor.obj
 0002:00015a84       ??_C@_05NFMIDMMK@Delta?$AA@ 020a7a84     native.Full:EventDescriptor.obj
 0002:00015a8c       ??_C@_0BD@NCLJCGAP@System?4GC_INTERVAL?$AA@ 020a7a8c     native.Full:EventDescriptor.obj
 0002:00015aa0       ??_C@_06ELFECKBG@Object?$AA@ 020a7aa0     native.Full:EventDescriptor.obj
 0002:00015aa8       ??_C@_05LMDDMFKK@StkNo?$AA@ 020a7aa8     native.Full:EventDescriptor.obj
 0002:00015ab0       ??_C@_0BF@DIODGDLN@System?4GC_ALLOCATION?$AA@ 020a7ab0     native.Full:EventDescriptor.obj
 0002:00015ac8       ??_C@_02MFEOMNPG@IP?$AA@   020a7ac8     native.Full:EventDescriptor.obj
 0002:00015acc       ??_C@_05PPBKPJLE@FnIdx?$AA@ 020a7acc     native.Full:EventDescriptor.obj
 0002:00015ad4       ??_C@_0BD@IGLEBJNP@System?4GC_FUNCTION?$AA@ 020a7ad4     native.Full:EventDescriptor.obj
 0002:00015ae8       ??_C@_0O@JCJIHLOH@ExceptionName?$AA@ 020a7ae8     native.Full:EventDescriptor.obj
 0002:00015af8       ??_C@_07DBMNFLDM@Handler?$AA@ 020a7af8     native.Full:EventDescriptor.obj
 0002:00015b00       ??_C@_09ELMAFJJG@ThrowFrom?$AA@ 020a7b00     native.Full:EventDescriptor.obj
 0002:00015b0c       ??_C@_0BH@LPOFBINH@Throw?5?$HL0?$HN?0?5Handler?5?$HL1?$HN?$AA@ 020a7b0c     native.Full:EventDescriptor.obj
 0002:00015b24       ??_C@_0BF@OKDJFMJI@System?4LOG_EXCEPTION?$AA@ 020a7b24     native.Full:EventDescriptor.obj
 0002:00015b3c       ??_C@_05GCIPIGEI@Debug?$AA@ 020a7b3c     native.Full:EventDescriptor.obj
 0002:00015b44       ??_C@_05DBKMECD@Audit?$AA@ 020a7b44     native.Full:EventDescriptor.obj
 0002:00015b4c       ??_C@_05ILLBNNOP@Trace?$AA@ 020a7b4c     native.Full:EventDescriptor.obj
 0002:00015b54       ??_C@_06JHGCIHDH@Notice?$AA@ 020a7b54     native.Full:EventDescriptor.obj
 0002:00015b5c       ??_C@_07KGMMFLDN@Warning?$AA@ 020a7b5c     native.Full:EventDescriptor.obj
 0002:00015b64       ??_C@_05NAOIJFC@Error?$AA@ 020a7b64     native.Full:EventDescriptor.obj
 0002:00015b6c       ??_C@_05FHGOFLKH@Fatal?$AA@ 020a7b6c     native.Full:EventDescriptor.obj
 0002:00015b74       ??_C@_0BE@KACIDIKN@System?4LOG_SEVERITY?$AA@ 020a7b74     native.Full:EventDescriptor.obj
 0002:00015b88       ??_C@_03FBKDDCND@Cpu?$AA@  020a7b88     native.Full:EventDescriptor.obj
 0002:00015b8c       ??_C@_03HBIKIEFI@TID?$AA@  020a7b8c     native.Full:EventDescriptor.obj
 0002:00015b90       ??_C@_04KOACHJEN@Type?$AA@ 020a7b90     native.Full:EventDescriptor.obj
 0002:00015b98       ??_C@_09KDGENIOP@Timestamp?$AA@ 020a7b98     native.Full:EventDescriptor.obj
 0002:00015ba4       ??_C@_05BOOEKJH@Flags?$AA@ 020a7ba4     native.Full:EventDescriptor.obj
 0002:00015bac       ??_C@_06GEMKPBPA@Offset?$AA@ 020a7bac     native.Full:EventDescriptor.obj
 0002:00015bb4       ??_C@_04CGLAFBGF@Link?$AA@ 020a7bb4     native.Full:EventDescriptor.obj
 0002:00015bbc       ??_C@_04EBKMHHBE@Size?$AA@ 020a7bbc     native.Full:EventDescriptor.obj
 0002:00015bc1       ??_C@_00CNPNBAHC@?$AA@     020a7bc1     native.Full:EventDescriptor.obj
 0002:00015bc4       ??_C@_0BF@HDPDLHJI@System?4MEMORY_HEADER?$AA@ 020a7bc4     native.Full:EventDescriptor.obj
 0002:00015bdc       __IMPORT_DESCRIPTOR_Singularity.V1 020a7bdc     singularity.V1.Full:Singularity.V1.dll
 0002:00015bf0       __NULL_IMPORT_DESCRIPTOR   020a7bf0     singularity.V1.Full:Singularity.V1.dll
 0003:00000000       c_dataSectionBase@Class_System_GCs_StaticData 020aa000     sc.obj
 0003:00000010       ??_7System_Object@@6B@     020aa010     sc.obj
 0003:00000084       CorlibVersionInstance      020aa084     sc.obj
 0003:0000015c       CorlibassemblyNameInstance 020aa15c     sc.obj
 0003:00000174       CorlibAssemblyInstance     020aa174     sc.obj
 0003:00000180       CorlibModuleInstance       020aa180     sc.obj
 0003:00000190       ?_type@Class_System_Object@@2UClass_System_RuntimeType@@A 020aa190     sc.obj
 0003:000001dc       ??_7System_VTable@@6B@     020aa1dc     sc.obj
 0003:00000244       ?_type@Class_System_VTable@@2UClass_System_RuntimeType@@A 020aa244     sc.obj
 0003:00000290       ??_7System_Type@@6B@       020aa290     sc.obj
 0003:00000320       ?_type@Class_System_Type@@2UClass_System_RuntimeType@@A 020aa320     sc.obj
 0003:0000036c       ??_7System_RuntimeType@@6B@ 020aa36c     sc.obj
 0003:000003fc       ?_type@Class_System_RuntimeType@@2U1@A 020aa3fc     sc.obj
 0003:00000448       ??_7System_Globalization_NumberFormatInfo@@6B@ 020aa448     sc.obj
 0003:000004b0       ?_type@Class_System_Globalization_NumberFormatInfo@@2UClass_System_RuntimeType@@A 020aa4b0     sc.obj
 0003:000004fc       ??_7System_ValueType@@6B@  020aa4fc     sc.obj
 0003:00000564       ?_type@Class_System_ValueType@@2UClass_System_RuntimeType@@A 020aa564     sc.obj
 0003:000005b0       ??_7Microsoft_Singularity_Directory_DirectoryServiceContract_NakDeleteDirectory@@6B@ 020aa5b0     sc.obj
 0003:00000618       Directory$_ContractsVersionInstance 020aa618     sc.obj
 0003:000006f0       Directory$_ContractsassemblyNameInstance 020aa6f0     sc.obj
 0003:00000708       Directory$_ContractsAssemblyInstance 020aa708     sc.obj
 0003:00000714       Directory$_ContractsModuleInstance 020aa714     sc.obj
 0003:00000724       ?_type@Class_Microsoft_Singularity_Directory_DirectoryServiceContract_NakDeleteDirectory@@2UClass_System_RuntimeType@@A 020aa724     sc.obj
 0003:00000770       ??_7Microsoft_SingSharp_ITracked@@6B@ 020aa770     sc.obj
 0003:000007c8       ?_type@Class_Microsoft_SingSharp_ITracked@@2UClass_System_RuntimeType@@A 020aa7c8     sc.obj
 0003:00000828       ??_7Microsoft_Singularity_Io_ConsoleOutput_PipeData@@6B@ 020aa828     sc.obj
 0003:000008b8       Console$_AppVersionInstance 020aa8b8     sc.obj
 0003:00000990       Console$_AppassemblyNameInstance 020aa990     sc.obj
 0003:000009a8       Console$_AppAssemblyInstance 020aa9a8     sc.obj
 0003:000009b4       Console$_AppModuleInstance 020aa9b4     sc.obj
 0003:000009c4       ?_type@Class_Microsoft_Singularity_Io_ConsoleOutput_PipeData@@2UClass_System_RuntimeType@@A 020aa9c4     sc.obj
 0003:00000a10       ??_7Microsoft_Singularity_GCProfilerLogger_ProfilerBuffer@@6B@ 020aaa10     sc.obj
 0003:00000a78       ?_type@Class_Microsoft_Singularity_GCProfilerLogger_ProfilerBuffer@@2UClass_System_RuntimeType@@A 020aaa78     sc.obj
 0003:00000ac4       ??_7System_IComparable@@6B@ 020aaac4     sc.obj
 0003:00000b1c       ?_type@Class_System_IComparable@@2UClass_System_RuntimeType@@A 020aab1c     sc.obj
 0003:00000b7c       ??_7System_TimeSpan@@6B@   020aab7c     sc.obj
 0003:00000bfc       ?_type@Class_System_TimeSpan@@2UClass_System_RuntimeType@@A 020aabfc     sc.obj
 0003:00000c48       ??_7System_RuntimeFieldHandle@@6B@ 020aac48     sc.obj
 0003:00000cb0       ?_type@Class_System_RuntimeFieldHandle@@2UClass_System_RuntimeType@@A 020aacb0     sc.obj
 0003:00000cfc       ??_7System_GCs_ObjectLayout_ObjectVisitor@@6B@ 020aacfc     sc.obj
 0003:00000d68       ?_type@Class_System_GCs_ObjectLayout_ObjectVisitor@@2UClass_System_RuntimeType@@A 020aad68     sc.obj
 0003:00000db4       ??_7System_Collections_IEnumerable@@6B@ 020aadb4     sc.obj
 0003:00000e0c       ?_type@Class_System_Collections_IEnumerable@@2UClass_System_RuntimeType@@A 020aae0c     sc.obj
 0003:00000e58       ??_7System_Collections_ICollection@@6B@ 020aae58     sc.obj
 0003:00000ec0       ?_type@Class_System_Collections_ICollection@@2UClass_System_RuntimeType@@A 020aaec0     sc.obj
 0003:00000f0c       ??_7System_Collections_IList@@6B@ 020aaf0c     sc.obj
 0003:00000f78       ?_type@Class_System_Collections_IList@@2UClass_System_RuntimeType@@A 020aaf78     sc.obj
 0003:00000fc4       ??_7System_ICloneable@@6B@ 020aafc4     sc.obj
 0003:0000101c       ?_type@Class_System_ICloneable@@2UClass_System_RuntimeType@@A 020ab01c     sc.obj
 0003:00001094       ??_7System_Array@@6B@      020ab094     sc.obj
 0003:00001118       ?_type@Class_System_Array@@2UClass_System_RuntimeType@@A 020ab118     sc.obj
 0003:00001164       ???_7vtable@ClassVector_int8@@2PAUClass_System_VTable@@A 020ab164     sc.obj
 0003:000011cc       ?_type@ClassVector_int8@@2UClass_System_RuntimeType@@A 020ab1cc     sc.obj
 0003:00001218       ??_7Microsoft_Singularity_Directory_FileContract_Close@@6B@ 020ab218     sc.obj
 0003:00001280       ?_type@Class_Microsoft_Singularity_Directory_FileContract_Close@@2UClass_System_RuntimeType@@A 020ab280     sc.obj
 0003:000012cc       ??_7Microsoft_Singularity_Io_UnicodePipeContract_Moved@@6B@ 020ab2cc     sc.obj
 0003:00001334       Io$_ContractsVersionInstance 020ab334     sc.obj
 0003:0000140c       Io$_ContractsassemblyNameInstance 020ab40c     sc.obj
 0003:00001424       Io$_ContractsAssemblyInstance 020ab424     sc.obj
 0003:00001430       Io$_ContractsModuleInstance 020ab430     sc.obj
 0003:00001440       ?_type@Class_Microsoft_Singularity_Io_UnicodePipeContract_Moved@@2UClass_System_RuntimeType@@A 020ab440     sc.obj
 0003:0000148c       ???_7vtable@ClassVector_int16@@2PAUClass_System_VTable@@A 020ab48c     sc.obj
 0003:000014f4       ?_type@ClassVector_int16@@2UClass_System_RuntimeType@@A 020ab4f4     sc.obj
 0003:00001540       ??_7System_Exception@@6B@  020ab540     sc.obj
 0003:000015ac       ?_type@Class_System_Exception@@2UClass_System_RuntimeType@@A 020ab5ac     sc.obj
 0003:000015f8       ??_7System_SystemException@@6B@ 020ab5f8     sc.obj
 0003:00001664       ?_type@Class_System_SystemException@@2UClass_System_RuntimeType@@A 020ab664     sc.obj
 0003:000016b0       ??_7System_ArgumentException@@6B@ 020ab6b0     sc.obj
 0003:0000171c       ?_type@Class_System_ArgumentException@@2UClass_System_RuntimeType@@A 020ab71c     sc.obj
 0003:00001768       ??_7Microsoft_Singularity_Directory_DirectoryServiceContract_NakDeleteDirectoryReparse@@6B@ 020ab768     sc.obj
 0003:000017d0       ?_type@Class_Microsoft_Singularity_Directory_DirectoryServiceContract_NakDeleteDirectoryReparse@@2UClass_System_RuntimeType@@A 020ab7d0     sc.obj
 0003:0000181c       ??_7Microsoft_Singularity_Applications_ServiceManager_DefaultConfig@@6B@ 020ab81c     sc.obj
 0003:00001884       scVersionInstance          020ab884     sc.obj
 0003:000018a8       scassemblyNameInstance     020ab8a8     sc.obj
 0003:000018c0       scAssemblyInstance         020ab8c0     sc.obj
 0003:000018cc       scModuleInstance           020ab8cc     sc.obj
 0003:000018dc       ?_type@Class_Microsoft_Singularity_Applications_ServiceManager_DefaultConfig@@2UClass_System_RuntimeType@@A 020ab8dc     sc.obj
 0003:00001928       ??_7Microsoft_Singularity_Directory_DirectoryServiceContract_Register@@6B@ 020ab928     sc.obj
 0003:00001990       ?_type@Class_Microsoft_Singularity_Directory_DirectoryServiceContract_Register@@2UClass_System_RuntimeType@@A 020ab990     sc.obj
 0003:000019dc       ??_7System_UpdateLog@@6B@  020ab9dc     sc.obj
 0003:00001a44       ?_type@Class_System_UpdateLog@@2UClass_System_RuntimeType@@A 020aba44     sc.obj
 0003:00001a90       ??_7Microsoft_Singularity_Directory_DirectoryServiceContract_ReadEnumeration@@6B@ 020aba90     sc.obj
 0003:00001af8       ?_type@Class_Microsoft_Singularity_Directory_DirectoryServiceContract_ReadEnumeration@@2UClass_System_RuntimeType@@A 020abaf8     sc.obj
 0003:00001b58       ??_7System_Delegate@@6B@   020abb58     sc.obj
 0003:00001bd0       ?_type@Class_System_Delegate@@2UClass_System_RuntimeType@@A 020abbd0     sc.obj
 0003:00001c1c       ??_7System_MulticastDelegate@@6B@ 020abc1c     sc.obj
 0003:00001c84       ?_type@Class_System_MulticastDelegate@@2UClass_System_RuntimeType@@A 020abc84     sc.obj
 0003:00001cd0       ??_7System_Threading_ThreadStart@@6B@ 020abcd0     sc.obj
 0003:00001d44       ?_type@Class_System_Threading_ThreadStart@@2UClass_System_RuntimeType@@A 020abd44     sc.obj
 0003:00001d90       ??_7Microsoft_Singularity_Directory_DirectoryServiceContract_DeleteLink@@6B@ 020abd90     sc.obj
 0003:00001df8       ?_type@Class_Microsoft_Singularity_Directory_DirectoryServiceContract_DeleteLink@@2UClass_System_RuntimeType@@A 020abdf8     sc.obj
 0003:00001e44       ??_7Microsoft_Contracts_UnreachableException@@6B@ 020abe44     sc.obj
 0003:00001eb0       System$_Compiler$_RuntimeVersionInstance 020abeb0     sc.obj
 0003:00001f88       System$_Compiler$_RuntimeassemblyNameInstance 020abf88     sc.obj
 0003:00001fa0       System$_Compiler$_RuntimeAssemblyInstance 020abfa0     sc.obj
 0003:00001fac       System$_Compiler$_RuntimeModuleInstance 020abfac     sc.obj
 0003:00001fbc       ?_type@Class_Microsoft_Contracts_UnreachableException@@2UClass_System_RuntimeType@@A 020abfbc     sc.obj
 0003:00002008       ??_7System_Attribute@@6B@  020ac008     sc.obj
 0003:00002070       ?_type@Class_System_Attribute@@2UClass_System_RuntimeType@@A 020ac070     sc.obj
 0003:000020bc       ??_7System_Runtime_CompilerServices_NoInlineAttribute@@6B@ 020ac0bc     sc.obj
 0003:00002124       ?_type@Class_System_Runtime_CompilerServices_NoInlineAttribute@@2UClass_System_RuntimeType@@A 020ac124     sc.obj
 0003:00002170       ??_7Microsoft_Singularity_Io_ConsoleOutput@@6B@ 020ac170     sc.obj
 0003:000021f8       ?_type@Class_Microsoft_Singularity_Io_ConsoleOutput@@2UClass_System_RuntimeType@@A 020ac1f8     sc.obj
 0003:00002244       ??_7Microsoft_Singularity_Directory_DirectoryServiceContract_CreateFile@@6B@ 020ac244     sc.obj
 0003:000022ac       ?_type@Class_Microsoft_Singularity_Directory_DirectoryServiceContract_CreateFile@@2UClass_System_RuntimeType@@A 020ac2ac     sc.obj
 0003:000022f8       ???_7vtable@ClassVector_Struct_System_TryAll@@2PAUClass_System_VTable@@A 020ac2f8     sc.obj
 0003:00002360       ?_type@ClassVector_Struct_System_TryAll@@2UClass_System_RuntimeType@@A 020ac360     sc.obj
 0003:000023ac       ??_7Microsoft_Singularity_Isal_IX_uint128@@6B@ 020ac3ac     sc.obj
 0003:00002414       ?_type@Class_Microsoft_Singularity_Isal_IX_uint128@@2UClass_System_RuntimeType@@A 020ac414     sc.obj
 0003:00002460       ??_7Microsoft_Singularity_ServiceManager_ServiceManagerContract_SelectService@@6B@ 020ac460     sc.obj
 0003:000024c8       ServiceManager$_ContractsVersionInstance 020ac4c8     sc.obj
 0003:000024ec       ServiceManager$_ContractsassemblyNameInstance 020ac4ec     sc.obj
 0003:00002504       ServiceManager$_ContractsAssemblyInstance 020ac504     sc.obj
 0003:00002510       ServiceManager$_ContractsModuleInstance 020ac510     sc.obj
 0003:00002520       ?_type@Class_Microsoft_Singularity_ServiceManager_ServiceManagerContract_SelectService@@2UClass_System_RuntimeType@@A 020ac520     sc.obj
 0003:0000256c       ??_7Microsoft_Singularity_Directory_DirectoryServiceContract_NakDeleteLinkReparse@@6B@ 020ac56c     sc.obj
 0003:000025d4       ?_type@Class_Microsoft_Singularity_Directory_DirectoryServiceContract_NakDeleteLinkReparse@@2UClass_System_RuntimeType@@A 020ac5d4     sc.obj
 0003:00002620       ??_7Microsoft_Singularity_Directory_DirectoryServiceContract_NakDeleteLink@@6B@ 020ac620     sc.obj
 0003:00002688       ?_type@Class_Microsoft_Singularity_Directory_DirectoryServiceContract_NakDeleteLink@@2UClass_System_RuntimeType@@A 020ac688     sc.obj
 0003:000026d4       ??_7Microsoft_Singularity_AppRuntime@@6B@ 020ac6d4     sc.obj
 0003:0000273c       ?_type@Class_Microsoft_Singularity_AppRuntime@@2UClass_System_RuntimeType@@A 020ac73c     sc.obj
 0003:00002788       ??_7Microsoft_Singularity_PrivilegedGate@@6B@ 020ac788     sc.obj
 0003:000027f0       ?_type@Class_Microsoft_Singularity_PrivilegedGate@@2UClass_System_RuntimeType@@A 020ac7f0     sc.obj
 0003:0000283c       ??_7Microsoft_Singularity_Isal_IX_EFlags@@6B@ 020ac83c     sc.obj
 0003:000028a4       ?_type@Class_Microsoft_Singularity_Isal_IX_EFlags@@2UClass_System_RuntimeType@@A 020ac8a4     sc.obj
 0003:000028f0       ??_7System_IFormattable@@6B@ 020ac8f0     sc.obj
 0003:00002948       ?_type@Class_System_IFormattable@@2UClass_System_RuntimeType@@A 020ac948     sc.obj
 0003:000029b0       ??_7System_Enum@@6B@       020ac9b0     sc.obj
 0003:00002a3c       ?_type@Class_System_Enum@@2UClass_System_RuntimeType@@A 020aca3c     sc.obj
 0003:00002a88       ??_7Microsoft_Bartok_Runtime_GCType@@6B@ 020aca88     sc.obj
 0003:00002b00       ?_type@Class_Microsoft_Bartok_Runtime_GCType@@2UClass_System_RuntimeType@@A 020acb00     sc.obj
 0003:00002b4c       ??_7Microsoft_Singularity_V1_Services_EndpointCore@@6B@ 020acb4c     sc.obj
 0003:00002bb4       Singularity$_V1$_AppVersionInstance 020acbb4     sc.obj
 0003:00002c8c       Singularity$_V1$_AppassemblyNameInstance 020acc8c     sc.obj
 0003:00002ca4       Singularity$_V1$_AppAssemblyInstance 020acca4     sc.obj
 0003:00002cb0       Singularity$_V1$_AppModuleInstance 020accb0     sc.obj
 0003:00002cc0       ?_type@Class_Microsoft_Singularity_V1_Services_EndpointCore@@2UClass_System_RuntimeType@@A 020accc0     sc.obj
 0003:00002d0c       ??_7Microsoft_Singularity_Channels_ISelectable@@6B@ 020acd0c     sc.obj
 0003:00002d64       ?_type@Class_Microsoft_Singularity_Channels_ISelectable@@2UClass_System_RuntimeType@@A 020acd64     sc.obj
 0003:00002dcc       ??_7Microsoft_Singularity_Channels_Endpoint@@6B@ 020acdcc     sc.obj
 0003:00002e70       Microsoft$_SingSharp$_RuntimeVersionInstance 020ace70     sc.obj
 0003:00002f48       Microsoft$_SingSharp$_RuntimeassemblyNameInstance 020acf48     sc.obj
 0003:00002f60       Microsoft$_SingSharp$_RuntimeAssemblyInstance 020acf60     sc.obj
 0003:00002f6c       Microsoft$_SingSharp$_RuntimeModuleInstance 020acf6c     sc.obj
 0003:00002f7c       ?_type@Class_Microsoft_Singularity_Channels_Endpoint@@2UClass_System_RuntimeType@@A 020acf7c     sc.obj
 0003:00002fc8       ??_7Microsoft_Singularity_Io_UnicodePipeContract_Exp@@6B@ 020acfc8     sc.obj
 0003:00003058       ?_type@Class_Microsoft_Singularity_Io_UnicodePipeContract_Exp@@2UClass_System_RuntimeType@@A 020ad058     sc.obj
 0003:000030a4       ??_7Microsoft_Singularity_ServiceManager_ServiceManagerContract_StartServiceWait@@6B@ 020ad0a4     sc.obj
 0003:0000310c       ?_type@Class_Microsoft_Singularity_ServiceManager_ServiceManagerContract_StartServiceWait@@2UClass_System_RuntimeType@@A 020ad10c     sc.obj
 0003:00003158       ??_7System_Threading_ThreadQueueItem@@6B@ 020ad158     sc.obj
 0003:000031c0       ?_type@Class_System_Threading_ThreadQueueItem@@2UClass_System_RuntimeType@@A 020ad1c0     sc.obj
 0003:0000320c       ??_7System_GCs_PageTable@@6B@ 020ad20c     sc.obj
 0003:00003274       ?_type@Class_System_GCs_PageTable@@2UClass_System_RuntimeType@@A 020ad274     sc.obj
 0003:000032c0       ??_7System_GCs_CalleeSaveRegisters@@6B@ 020ad2c0     sc.obj
 0003:00003328       ?_type@Class_System_GCs_CalleeSaveRegisters@@2UClass_System_RuntimeType@@A 020ad328     sc.obj
 0003:00003374       ??_7System_Single@@6B@     020ad374     sc.obj
 0003:000033ec       ?_type@Class_System_Single@@2UClass_System_RuntimeType@@A 020ad3ec     sc.obj
 0003:00003438       ??_7Microsoft_Singularity_Io_PipeLookAhead@@6B@ 020ad438     sc.obj
 0003:000034d0       CorlibsgVersionInstance    020ad4d0     sc.obj
 0003:000035a8       CorlibsgassemblyNameInstance 020ad5a8     sc.obj
 0003:000035c0       CorlibsgAssemblyInstance   020ad5c0     sc.obj
 0003:000035cc       CorlibsgModuleInstance     020ad5cc     sc.obj
 0003:000035dc       ?_type@Class_Microsoft_Singularity_Io_PipeLookAhead@@2UClass_System_RuntimeType@@A 020ad5dc     sc.obj
 0003:00003628       ??_7System_ArrayTypeMismatchException@@6B@ 020ad628     sc.obj
 0003:00003694       ?_type@Class_System_ArrayTypeMismatchException@@2UClass_System_RuntimeType@@A 020ad694     sc.obj
 0003:000036e0       ??_7Microsoft_Singularity_Directory_ServiceContract_Exp@@6B@ 020ad6e0     sc.obj
 0003:00003770       ?_type@Class_Microsoft_Singularity_Directory_ServiceContract_Exp@@2UClass_System_RuntimeType@@A 020ad770     sc.obj
 0003:000037bc       ??_7System_MultiUseWord@@6B@ 020ad7bc     sc.obj
 0003:00003824       ?_type@Class_System_MultiUseWord@@2UClass_System_RuntimeType@@A 020ad824     sc.obj
 0003:00003870       ??_7System_StackHeight@@6B@ 020ad870     sc.obj
 0003:000038d8       ?_type@Class_System_StackHeight@@2UClass_System_RuntimeType@@A 020ad8d8     sc.obj
 0003:00003924       ??_7Microsoft_Singularity_Channels_StateStack@@6B@ 020ad924     sc.obj
 0003:0000398c       ?_type@Class_Microsoft_Singularity_Channels_StateStack@@2UClass_System_RuntimeType@@A 020ad98c     sc.obj
 0003:000039d8       ??_7System_Threading_Thread@@6B@ 020ad9d8     sc.obj
 0003:00003a40       ?_type@Class_System_Threading_Thread@@2UClass_System_RuntimeType@@A 020ada40     sc.obj
 0003:00003a8c       ??_7System_GCs_ReferenceVisitor@@6B@ 020ada8c     sc.obj
 0003:00003b00       ?_type@Class_System_GCs_ReferenceVisitor@@2UClass_System_RuntimeType@@A 020adb00     sc.obj
 0003:00003b4c       ??_7System_GCs_DirectReferenceVisitor@@6B@ 020adb4c     sc.obj
 0003:00003bc4       ?_type@Class_System_GCs_DirectReferenceVisitor@@2UClass_System_RuntimeType@@A 020adbc4     sc.obj
 0003:00003c10       ??_7System_GCs_NonNullReferenceVisitor@@6B@ 020adc10     sc.obj
 0003:00003c88       ?_type@Class_System_GCs_NonNullReferenceVisitor@@2UClass_System_RuntimeType@@A 020adc88     sc.obj
 0003:00003cd4       ??_7System_GCs_MarkSweepCollector_ThreadMarkReferenceVisitor@@6B@ 020adcd4     sc.obj
 0003:00003d4c       ?_type@Class_System_GCs_MarkSweepCollector_ThreadMarkReferenceVisitor@@2UClass_System_RuntimeType@@A 020add4c     sc.obj
 0003:00003d98       ??_7Microsoft_Singularity_Directory_DirectoryServiceContract_NakDeleteFile@@6B@ 020add98     sc.obj
 0003:00003e00       ?_type@Class_Microsoft_Singularity_Directory_DirectoryServiceContract_NakDeleteFile@@2UClass_System_RuntimeType@@A 020ade00     sc.obj
 0003:00003e4c       ??_7System_Runtime_CompilerServices_AssertDevirtualizeAttribute@@6B@ 020ade4c     sc.obj
 0003:00003eb4       ?_type@Class_System_Runtime_CompilerServices_AssertDevirtualizeAttribute@@2UClass_System_RuntimeType@@A 020adeb4     sc.obj
 0003:00003f00       ??_7System_Globalization_CultureInfo@@6B@ 020adf00     sc.obj
 0003:00003f68       ?_type@Class_System_Globalization_CultureInfo@@2UClass_System_RuntimeType@@A 020adf68     sc.obj
 0003:00003fb4       ???_7vtable@ClassVector_ClassVector_int32@@2PAUClass_System_VTable@@A 020adfb4     sc.obj
 0003:0000401c       ?_type@ClassVector_ClassVector_int32@@2UClass_System_RuntimeType@@A 020ae01c     sc.obj
 0003:00004068       ??_7System_TryAllManager@@6B@ 020ae068     sc.obj
 0003:000040d0       ?_type@Class_System_TryAllManager@@2UClass_System_RuntimeType@@A 020ae0d0     sc.obj
 0003:0000411c       ??_7Microsoft_Singularity_Isal_CpuRecord@@6B@ 020ae11c     sc.obj
 0003:00004184       ?_type@Class_Microsoft_Singularity_Isal_CpuRecord@@2UClass_System_RuntimeType@@A 020ae184     sc.obj
 0003:000041d0       ??_7System_STMWord@@6B@    020ae1d0     sc.obj
 0003:00004238       ?_type@Class_System_STMWord@@2UClass_System_RuntimeType@@A 020ae238     sc.obj
 0003:00004284       ??_7Microsoft_Singularity_Isal_Isa_ICallback@@6B@ 020ae284     sc.obj
 0003:000042f0       ?_type@Class_Microsoft_Singularity_Isal_Isa_ICallback@@2UClass_System_RuntimeType@@A 020ae2f0     sc.obj
 0003:0000433c       ??_7Microsoft_Singularity_Directory_ServiceProviderContract_NackConnect@@6B@ 020ae33c     sc.obj
 0003:000043a4       ?_type@Class_Microsoft_Singularity_Directory_ServiceProviderContract_NackConnect@@2UClass_System_RuntimeType@@A 020ae3a4     sc.obj
 0003:000043f0       ??_7Microsoft_Singularity_Applications_ServiceManager_DeleteServiceCommand@@6B@ 020ae3f0     sc.obj
 0003:00004458       ?_type@Class_Microsoft_Singularity_Applications_ServiceManager_DeleteServiceCommand@@2UClass_System_RuntimeType@@A 020ae458     sc.obj
 0003:000044a4       ??_7System_Runtime_CompilerServices_ExternalEntryPointAttribute@@6B@ 020ae4a4     sc.obj
 0003:0000450c       ?_type@Class_System_Runtime_CompilerServices_ExternalEntryPointAttribute@@2UClass_System_RuntimeType@@A 020ae50c     sc.obj
 0003:00004558       ??_7Microsoft_Singularity_Eventing_EventSource@@6B@ 020ae558     sc.obj
 0003:000045c4       ?_type@Class_Microsoft_Singularity_Eventing_EventSource@@2UClass_System_RuntimeType@@A 020ae5c4     sc.obj
 0003:00004610       ??_7Microsoft_Singularity_Eventing_ActiveSource@@6B@ 020ae610     sc.obj
 0003:0000467c       ?_type@Class_Microsoft_Singularity_Eventing_ActiveSource@@2UClass_System_RuntimeType@@A 020ae67c     sc.obj
 0003:000046c8       ??_7Microsoft_Contracts_ContractException@@6B@ 020ae6c8     sc.obj
 0003:00004734       ?_type@Class_Microsoft_Contracts_ContractException@@2UClass_System_RuntimeType@@A 020ae734     sc.obj
 0003:00004780       ??_7Microsoft_Contracts_ContractMarkerException@@6B@ 020ae780     sc.obj
 0003:000047ec       ?_type@Class_Microsoft_Contracts_ContractMarkerException@@2UClass_System_RuntimeType@@A 020ae7ec     sc.obj
 0003:00004838       ??_7Microsoft_Singularity_Applications_ServiceManager_StopServiceCommand@@6B@ 020ae838     sc.obj
 0003:000048a0       ?_type@Class_Microsoft_Singularity_Applications_ServiceManager_StopServiceCommand@@2UClass_System_RuntimeType@@A 020ae8a0     sc.obj
 0003:000048ec       ??_7Microsoft_Singularity_Directory_DirectoryServiceContract_NakBind@@6B@ 020ae8ec     sc.obj
 0003:00004954       ?_type@Class_Microsoft_Singularity_Directory_DirectoryServiceContract_NakBind@@2UClass_System_RuntimeType@@A 020ae954     sc.obj
 0003:000049a0       ??_7Microsoft_Singularity_V1_Processes_ProcessHandle@@6B@ 020ae9a0     sc.obj
 0003:00004a08       ?_type@Class_Microsoft_Singularity_V1_Processes_ProcessHandle@@2UClass_System_RuntimeType@@A 020aea08     sc.obj
 0003:00004a54       ??_7System_GCs_Collector@@6B@ 020aea54     sc.obj
 0003:00004b1c       ?_type@Class_System_GCs_Collector@@2UClass_System_RuntimeType@@A 020aeb1c     sc.obj
 0003:00004b68       ??_7System_GCs_BaseCollector@@6B@ 020aeb68     sc.obj
 0003:00004c40       ?_type@Class_System_GCs_BaseCollector@@2UClass_System_RuntimeType@@A 020aec40     sc.obj
 0003:00004cb0       ??_7System_Collections_Stack@@6B@ 020aecb0     sc.obj
 0003:00004d3c       ?_type@Class_System_Collections_Stack@@2UClass_System_RuntimeType@@A 020aed3c     sc.obj
 0003:00004d88       ??_7Microsoft_Singularity_ServiceManager_ServiceManagerContract_StopServiceWait@@6B@ 020aed88     sc.obj
 0003:00004df0       ?_type@Class_Microsoft_Singularity_ServiceManager_ServiceManagerContract_StopServiceWait@@2UClass_System_RuntimeType@@A 020aedf0     sc.obj
 0003:00004e3c       ??_7Microsoft_Singularity_Directory_ServiceContract@@6B@ 020aee3c     sc.obj
 0003:00004ea4       ?_type@Class_Microsoft_Singularity_Directory_ServiceContract@@2UClass_System_RuntimeType@@A 020aeea4     sc.obj
 0003:00004ef0       ??_7Microsoft_Singularity_ServiceManager_ServiceManagerContract@@6B@ 020aeef0     sc.obj
 0003:00004f58       ?_type@Class_Microsoft_Singularity_ServiceManager_ServiceManagerContract@@2UClass_System_RuntimeType@@A 020aef58     sc.obj
 0003:00004fa4       ??_7System_Collections_Hashtable@@6B@ 020aefa4     sc.obj
 0003:00005024       ?_type@Class_System_Collections_Hashtable@@2UClass_System_RuntimeType@@A 020af024     sc.obj
 0003:00005070       ??_7Microsoft_Singularity_Directory_DirectoryServiceContract_AckCreateLink@@6B@ 020af070     sc.obj
 0003:000050d8       ?_type@Class_Microsoft_Singularity_Directory_DirectoryServiceContract_AckCreateLink@@2UClass_System_RuntimeType@@A 020af0d8     sc.obj
 0003:00005124       ??_7System_ArithmeticException@@6B@ 020af124     sc.obj
 0003:00005190       ?_type@Class_System_ArithmeticException@@2UClass_System_RuntimeType@@A 020af190     sc.obj
 0003:000051dc       ??_7System_OverflowException@@6B@ 020af1dc     sc.obj
 0003:00005248       ?_type@Class_System_OverflowException@@2UClass_System_RuntimeType@@A 020af248     sc.obj
 0003:00005294       ??_7System_ArgumentNullException@@6B@ 020af294     sc.obj
 0003:00005300       ?_type@Class_System_ArgumentNullException@@2UClass_System_RuntimeType@@A 020af300     sc.obj
 0003:0000534c       ??_7System_Runtime_CompilerServices_AccessedByRuntimeAttribute@@6B@ 020af34c     sc.obj
 0003:000053b4       ?_type@Class_System_Runtime_CompilerServices_AccessedByRuntimeAttribute@@2UClass_System_RuntimeType@@A 020af3b4     sc.obj
 0003:00005400       ??_7Microsoft_Singularity_Memory_PhysicalAddress@@6B@ 020af400     sc.obj
 0003:00005468       ?_type@Class_Microsoft_Singularity_Memory_PhysicalAddress@@2UClass_System_RuntimeType@@A 020af468     sc.obj
 0003:000054b4       ??_7System_ApplicationException@@6B@ 020af4b4     sc.obj
 0003:00005520       ?_type@Class_System_ApplicationException@@2UClass_System_RuntimeType@@A 020af520     sc.obj
 0003:0000556c       ??_7System_UpdateLog_EntryKind@@6B@ 020af56c     sc.obj
 0003:000055e4       ?_type@Class_System_UpdateLog_EntryKind@@2UClass_System_RuntimeType@@A 020af5e4     sc.obj
 0003:00005630       ???_7vtable@ClassVector_uintPtr@@2PAUClass_System_VTable@@A 020af630     sc.obj
 0003:00005698       ?_type@ClassVector_uintPtr@@2UClass_System_RuntimeType@@A 020af698     sc.obj
 0003:000056e4       ??_7Microsoft_Singularity_Isal_IX_Gdte64@@6B@ 020af6e4     sc.obj
 0003:0000574c       ?_type@Class_Microsoft_Singularity_Isal_IX_Gdte64@@2UClass_System_RuntimeType@@A 020af74c     sc.obj
 0003:00005798       ??_7Microsoft_Singularity_Applications_ServiceManager_StartConfig@@6B@ 020af798     sc.obj
 0003:00005800       ?_type@Class_Microsoft_Singularity_Applications_ServiceManager_StartConfig@@2UClass_System_RuntimeType@@A 020af800     sc.obj
 0003:0000584c       ??_7System_Int32@@6B@      020af84c     sc.obj
 0003:000058c4       ?_type@Class_System_Int32@@2UClass_System_RuntimeType@@A 020af8c4     sc.obj
 0003:00005910       ??_7System_GCs_CallStack@@6B@ 020af910     sc.obj
 0003:00005978       ?_type@Class_System_GCs_CallStack@@2UClass_System_RuntimeType@@A 020af978     sc.obj
 0003:000059c4       ??_7Microsoft_Singularity_Directory_DirectoryServiceContract_NakRegisterReparse@@6B@ 020af9c4     sc.obj
 0003:00005a2c       ?_type@Class_Microsoft_Singularity_Directory_DirectoryServiceContract_NakRegisterReparse@@2UClass_System_RuntimeType@@A 020afa2c     sc.obj
 0003:00005a78       ??_7System_NotSupportedException@@6B@ 020afa78     sc.obj
 0003:00005ae4       ?_type@Class_System_NotSupportedException@@2UClass_System_RuntimeType@@A 020afae4     sc.obj
 0003:00005b30       ??_7System_GCs_MemoryAccounting_RuntimeTypeAccounting@@6B@ 020afb30     sc.obj
 0003:00005b98       ?_type@Class_System_GCs_MemoryAccounting_RuntimeTypeAccounting@@2UClass_System_RuntimeType@@A 020afb98     sc.obj
 0003:00005be4       ??_7Microsoft_Singularity_ServiceManager_ServiceManagerContract_ServiceManagerChanged@@6B@ 020afbe4     sc.obj
 0003:00005c4c       ?_type@Class_Microsoft_Singularity_ServiceManager_ServiceManagerContract_ServiceManagerChanged@@2UClass_System_RuntimeType@@A 020afc4c     sc.obj
 0003:00005c98       ??_7System_InvalidCastException@@6B@ 020afc98     sc.obj
 0003:00005d04       ?_type@Class_System_InvalidCastException@@2UClass_System_RuntimeType@@A 020afd04     sc.obj
 0003:00005d50       ??_7Microsoft_Singularity_Directory_DirectoryServiceContract_NakCreateFile@@6B@ 020afd50     sc.obj
 0003:00005db8       ?_type@Class_Microsoft_Singularity_Directory_DirectoryServiceContract_NakCreateFile@@2UClass_System_RuntimeType@@A 020afdb8     sc.obj
 0003:00005e04       ??_7Microsoft_Singularity_V1_Services_DeliveryHandle@@6B@ 020afe04     sc.obj
 0003:00005e6c       ?_type@Class_Microsoft_Singularity_V1_Services_DeliveryHandle@@2UClass_System_RuntimeType@@A 020afe6c     sc.obj
 0003:00005eb8       ??_7Microsoft_Singularity_Isal_IX_Gdte@@6B@ 020afeb8     sc.obj
 0003:00005f20       ?_type@Class_Microsoft_Singularity_Isal_IX_Gdte@@2UClass_System_RuntimeType@@A 020aff20     sc.obj
 0003:00005f6c       ??_7Microsoft_Singularity_Directory_DirectoryServiceContract_QueryACL@@6B@ 020aff6c     sc.obj
 0003:00005fd4       ?_type@Class_Microsoft_Singularity_Directory_DirectoryServiceContract_QueryACL@@2UClass_System_RuntimeType@@A 020affd4     sc.obj
 0003:00006020       ??_7Microsoft_Singularity_Eventing_Controller@@6B@ 020b0020     sc.obj
 0003:00006098       ?_type@Class_Microsoft_Singularity_Eventing_Controller@@2UClass_System_RuntimeType@@A 020b0098     sc.obj
 0003:000060e4       ???_7vtable@ClassVector_Struct_System_Delegate_NativeDelegateRecord@@2PAUClass_System_VTable@@A 020b00e4     sc.obj
 0003:0000614c       ?_type@ClassVector_Struct_System_Delegate_NativeDelegateRecord@@2UClass_System_RuntimeType@@A 020b014c     sc.obj
 0003:00006198       ??_7System_GCs_SegregatedFreeList_PageSeparation@@6B@ 020b0198     sc.obj
 0003:00006200       ?_type@Class_System_GCs_SegregatedFreeList_PageSeparation@@2UClass_System_RuntimeType@@A 020b0200     sc.obj
 0003:0000624c       ??_7System_TypeInfo@@6B@   020b024c     sc.obj
 0003:000062b4       ?_type@Class_System_TypeInfo@@2UClass_System_RuntimeType@@A 020b02b4     sc.obj
 0003:00006300       ??_7System_BitConverter@@6B@ 020b0300     sc.obj
 0003:00006368       ?_type@Class_System_BitConverter@@2UClass_System_RuntimeType@@A 020b0368     sc.obj
 0003:000063b4       ??_7Microsoft_Singularity_ServiceManager_ServiceManagerContract_DeleteService@@6B@ 020b03b4     sc.obj
 0003:0000641c       ?_type@Class_Microsoft_Singularity_ServiceManager_ServiceManagerContract_DeleteService@@2UClass_System_RuntimeType@@A 020b041c     sc.obj
 0003:00006468       ??_7Microsoft_Singularity_V1_Threads_AutoResetEventHandle@@6B@ 020b0468     sc.obj
 0003:000064d0       ?_type@Class_Microsoft_Singularity_V1_Threads_AutoResetEventHandle@@2UClass_System_RuntimeType@@A 020b04d0     sc.obj
 0003:0000651c       ??_7Microsoft_Singularity_Directory_DirectoryServiceContract_NakGetAttributes@@6B@ 020b051c     sc.obj
 0003:00006584       ?_type@Class_Microsoft_Singularity_Directory_DirectoryServiceContract_NakGetAttributes@@2UClass_System_RuntimeType@@A 020b0584     sc.obj
 0003:000065d0       ??_7System_GCs_Barrier@@6B@ 020b05d0     sc.obj
 0003:00006684       ?_type@Class_System_GCs_Barrier@@2UClass_System_RuntimeType@@A 020b0684     sc.obj
 0003:000066d0       ??_7System_GCs_RefWriteBarrier@@6B@ 020b06d0     sc.obj
 0003:00006784       ?_type@Class_System_GCs_RefWriteBarrier@@2UClass_System_RuntimeType@@A 020b0784     sc.obj
 0003:000067d0       ??_7System_GCs_EmptyWriteBarrier@@6B@ 020b07d0     sc.obj
 0003:00006884       ?_type@Class_System_GCs_EmptyWriteBarrier@@2UClass_System_RuntimeType@@A 020b0884     sc.obj
 0003:000068d0       ??_7Microsoft_Singularity_Directory_DirectoryServiceContract_NakCreateFileReparse@@6B@ 020b08d0     sc.obj
 0003:00006938       ?_type@Class_Microsoft_Singularity_Directory_DirectoryServiceContract_NakCreateFileReparse@@2UClass_System_RuntimeType@@A 020b0938     sc.obj
 0003:00006984       ??_7System_Math@@6B@       020b0984     sc.obj
 0003:000069ec       ?_type@Class_System_Math@@2UClass_System_RuntimeType@@A 020b09ec     sc.obj
 0003:00006a38       ??_7Microsoft_Singularity_ServiceManager_ServiceManagerEventMask@@6B@ 020b0a38     sc.obj
 0003:00006ab0       ?_type@Class_Microsoft_Singularity_ServiceManager_ServiceManagerEventMask@@2UClass_System_RuntimeType@@A 020b0ab0     sc.obj
 0003:00006afc       ??_7System_IDisposable@@6B@ 020b0afc     sc.obj
 0003:00006b54       ?_type@Class_System_IDisposable@@2UClass_System_RuntimeType@@A 020b0b54     sc.obj
 0003:00006ba0       ??_7Microsoft_Singularity_V1_Threads_SyncHandle@@6B@ 020b0ba0     sc.obj
 0003:00006c08       ?_type@Class_Microsoft_Singularity_V1_Threads_SyncHandle@@2UClass_System_RuntimeType@@A 020b0c08     sc.obj
 0003:00006c54       ??_7Microsoft_Singularity_V1_Services_PlatformService@@6B@ 020b0c54     sc.obj
 0003:00006cbc       ?_type@Class_Microsoft_Singularity_V1_Services_PlatformService@@2UClass_System_RuntimeType@@A 020b0cbc     sc.obj
 0003:00006d08       ??_7Microsoft_Singularity_Isal_Isa@@6B@ 020b0d08     sc.obj
 0003:00006d70       ?_type@Class_Microsoft_Singularity_Isal_Isa@@2UClass_System_RuntimeType@@A 020b0d70     sc.obj
 0003:00006dbc       ???_7vtable@ClassVector_Struct_System_LogEntryUndoAction@@2PAUClass_System_VTable@@A 020b0dbc     sc.obj
 0003:00006e24       ?_type@ClassVector_Struct_System_LogEntryUndoAction@@2UClass_System_RuntimeType@@A 020b0e24     sc.obj
 0003:00006e70       ??_7System_WeakReference@@6B@ 020b0e70     sc.obj
 0003:00006ed8       ?_type@Class_System_WeakReference@@2UClass_System_RuntimeType@@A 020b0ed8     sc.obj
 0003:00006f24       ??_7System_UInt16@@6B@     020b0f24     sc.obj
 0003:00006f9c       ?_type@Class_System_UInt16@@2UClass_System_RuntimeType@@A 020b0f9c     sc.obj
 0003:00006fe8       ??_7Microsoft_Singularity_Directory_DirectoryServiceContract_NakCreateDirectoryReparse@@6B@ 020b0fe8     sc.obj
 0003:00007050       ?_type@Class_Microsoft_Singularity_Directory_DirectoryServiceContract_NakCreateDirectoryReparse@@2UClass_System_RuntimeType@@A 020b1050     sc.obj
 0003:0000709c       ??_7System_ParseNumbers@@6B@ 020b109c     sc.obj
 0003:00007104       ?_type@Class_System_ParseNumbers@@2UClass_System_RuntimeType@@A 020b1104     sc.obj
 0003:00007150       ??_7Microsoft_Singularity_ServiceManager_ServiceManagerContract_Exp@@6B@ 020b1150     sc.obj
 0003:000071e0       ?_type@Class_Microsoft_Singularity_ServiceManager_ServiceManagerContract_Exp@@2UClass_System_RuntimeType@@A 020b11e0     sc.obj
 0003:0000722c       ??_7Microsoft_Singularity_Directory_NodeType@@6B@ 020b122c     sc.obj
 0003:000072a4       ?_type@Class_Microsoft_Singularity_Directory_NodeType@@2UClass_System_RuntimeType@@A 020b12a4     sc.obj
 0003:000072f0       ??_7Microsoft_Singularity_Monitoring_LogEntry@@6B@ 020b12f0     sc.obj
 0003:00007358       ?_type@Class_Microsoft_Singularity_Monitoring_LogEntry@@2UClass_System_RuntimeType@@A 020b1358     sc.obj
 0003:000073a4       ??_7Microsoft_Singularity_Io_PipeLookAhead_CircularBuffer@@6B@ 020b13a4     sc.obj
 0003:00007424       ?_type@Class_Microsoft_Singularity_Io_PipeLookAhead_CircularBuffer@@2UClass_System_RuntimeType@@A 020b1424     sc.obj
 0003:00007470       ??_7_Directory_Contracts_Microsoft_Singularity_Channels_TRef$_2$LMicrosoft_Singularity_Directory_DirectoryServiceContract_Imp_Microsoft_Singularity_Directory_DirectoryServiceContract_Ready$G@@6B@ 020b1470     sc.obj
 0003:000074d8       ?_type@Class__Directory_Contracts_Microsoft_Singularity_Channels_TRef$_2$LMicrosoft_Singularity_Directory_DirectoryServiceContract_Imp_Microsoft_Singularity_Directory_DirectoryServiceContract_Ready$G@@2UClass_System_RuntimeType@@A 020b14d8     sc.obj
 0003:00007524       ??_7System_GCs_UnmanagedPageList@@6B@ 020b1524     sc.obj
 0003:0000758c       ?_type@Class_System_GCs_UnmanagedPageList@@2UClass_System_RuntimeType@@A 020b158c     sc.obj
 0003:000075d8       ??_7Microsoft_Singularity_Directory_FileContract@@6B@ 020b15d8     sc.obj
 0003:00007640       ?_type@Class_Microsoft_Singularity_Directory_FileContract@@2UClass_System_RuntimeType@@A 020b1640     sc.obj
 0003:0000768c       ??_7System_GCs_GCProfiler@@6B@ 020b168c     sc.obj
 0003:00007714       ?_type@Class_System_GCs_GCProfiler@@2UClass_System_RuntimeType@@A 020b1714     sc.obj
 0003:00007760       ??_7System_Collections_IHashCodeProvider@@6B@ 020b1760     sc.obj
 0003:000077b8       ?_type@Class_System_Collections_IHashCodeProvider@@2UClass_System_RuntimeType@@A 020b17b8     sc.obj
 0003:00007804       ??_7System_GCs_GCProfiler_OneObjectVisitor@@6B@ 020b1804     sc.obj
 0003:0000787c       ?_type@Class_System_GCs_GCProfiler_OneObjectVisitor@@2UClass_System_RuntimeType@@A 020b187c     sc.obj
 0003:000078c8       ??_7Microsoft_Singularity_V1_Threads_ContainerHandle@@6B@ 020b18c8     sc.obj
 0003:00007930       ?_type@Class_Microsoft_Singularity_V1_Threads_ContainerHandle@@2UClass_System_RuntimeType@@A 020b1930     sc.obj
 0003:0000797c       ??_7Microsoft_Singularity_Directory_NotifyContract@@6B@ 020b197c     sc.obj
 0003:000079e4       ?_type@Class_Microsoft_Singularity_Directory_NotifyContract@@2UClass_System_RuntimeType@@A 020b19e4     sc.obj
 0003:00007a30       ??_7Microsoft_Singularity_Eventing_EventDescriptor@@6B@ 020b1a30     sc.obj
 0003:00007a98       ?_type@Class_Microsoft_Singularity_Eventing_EventDescriptor@@2UClass_System_RuntimeType@@A 020b1a98     sc.obj
 0003:00007ae4       ??_7System_GCs_ProfileRootsDelegate@@6B@ 020b1ae4     sc.obj
 0003:00007b58       ?_type@Class_System_GCs_ProfileRootsDelegate@@2UClass_System_RuntimeType@@A 020b1b58     sc.obj
 0003:00007ba4       ??_7System_EMU@@6B@        020b1ba4     sc.obj
 0003:00007c0c       ?_type@Class_System_EMU@@2UClass_System_RuntimeType@@A 020b1c0c     sc.obj
 0003:00007c58       ??_7System_Reflection_Assembly@@6B@ 020b1c58     sc.obj
 0003:00007cc0       ?_type@Class_System_Reflection_Assembly@@2UClass_System_RuntimeType@@A 020b1cc0     sc.obj
 0003:00007d0c       ??_7System_ArrayHelper@@6B@ 020b1d0c     sc.obj
 0003:00007d74       ?_type@Class_System_ArrayHelper@@2UClass_System_RuntimeType@@A 020b1d74     sc.obj
 0003:00007dc0       ??_7Microsoft_Singularity_Directory_DirectoryServiceContract_NakCreateLinkReparse@@6B@ 020b1dc0     sc.obj
 0003:00007e28       ?_type@Class_Microsoft_Singularity_Directory_DirectoryServiceContract_NakCreateLinkReparse@@2UClass_System_RuntimeType@@A 020b1e28     sc.obj
 0003:00007e74       ??_7Microsoft_Singularity_ServiceManager_ServiceManagerContract_EnableService@@6B@ 020b1e74     sc.obj
 0003:00007edc       ?_type@Class_Microsoft_Singularity_ServiceManager_ServiceManagerContract_EnableService@@2UClass_System_RuntimeType@@A 020b1edc     sc.obj
 0003:00007f28       ??_7System_GCs_SegregatedFreeList_PageHeaderList@@6B@ 020b1f28     sc.obj
 0003:00007f90       ?_type@Class_System_GCs_SegregatedFreeList_PageHeaderList@@2UClass_System_RuntimeType@@A 020b1f90     sc.obj
 0003:00007fdc       ??_7Microsoft_Singularity_ServiceManager_ServiceManagerContract_StartServiceNoWait@@6B@ 020b1fdc     sc.obj
 0003:00008044       ?_type@Class_Microsoft_Singularity_ServiceManager_ServiceManagerContract_StartServiceNoWait@@2UClass_System_RuntimeType@@A 020b2044     sc.obj
 0003:00008090       ??_7System_GCs_SegregatedFreeList@@6B@ 020b2090     sc.obj
 0003:000080f8       ?_type@Class_System_GCs_SegregatedFreeList@@2UClass_System_RuntimeType@@A 020b20f8     sc.obj
 0003:00008144       ??_7System_GCs_StopTheWorldCollector@@6B@ 020b2144     sc.obj
 0003:00008228       ?_type@Class_System_GCs_StopTheWorldCollector@@2UClass_System_RuntimeType@@A 020b2228     sc.obj
 0003:00008274       ??_7System_GCs_MarkSweepCollector@@6B@ 020b2274     sc.obj
 0003:00008358       ?_type@Class_System_GCs_MarkSweepCollector@@2UClass_System_RuntimeType@@A 020b2358     sc.obj
 0003:000083a4       ??_7System_Collections_SortedList@@6B@ 020b23a4     sc.obj
 0003:0000841c       ?_type@Class_System_Collections_SortedList@@2UClass_System_RuntimeType@@A 020b241c     sc.obj
 0003:00008468       ??_7Microsoft_Singularity_Applications_ServiceManager_EnableServiceCommand@@6B@ 020b2468     sc.obj
 0003:000084d0       ?_type@Class_Microsoft_Singularity_Applications_ServiceManager_EnableServiceCommand@@2UClass_System_RuntimeType@@A 020b24d0     sc.obj
 0003:0000851c       ??_7System_Double@@6B@     020b251c     sc.obj
 0003:00008594       ?_type@Class_System_Double@@2UClass_System_RuntimeType@@A 020b2594     sc.obj
 0003:000085e0       ??_7Microsoft_Singularity_Directory_DirectoryServiceContract_NakNotifyReparse@@6B@ 020b25e0     sc.obj
 0003:00008648       ?_type@Class_Microsoft_Singularity_Directory_DirectoryServiceContract_NakNotifyReparse@@2UClass_System_RuntimeType@@A 020b2648     sc.obj
 0003:00008694       ??_7System_UndoLog@@6B@    020b2694     sc.obj
 0003:000086fc       ?_type@Class_System_UndoLog@@2UClass_System_RuntimeType@@A 020b26fc     sc.obj
 0003:00008748       ??_7System_UpdateEnlistmentLog_LogChunk@@6B@ 020b2748     sc.obj
 0003:000087b0       ?_type@Class_System_UpdateEnlistmentLog_LogChunk@@2UClass_System_RuntimeType@@A 020b27b0     sc.obj
 0003:000087fc       ??_7Microsoft_Singularity_V1_Services_StackService@@6B@ 020b27fc     sc.obj
 0003:00008864       ?_type@Class_Microsoft_Singularity_V1_Services_StackService@@2UClass_System_RuntimeType@@A 020b2864     sc.obj
 0003:000088b0       ??_7System_SchedulerTime@@6B@ 020b28b0     sc.obj
 0003:00008920       ?_type@Class_System_SchedulerTime@@2UClass_System_RuntimeType@@A 020b2920     sc.obj
 0003:0000896c       ???_7vtable@ClassVector_Struct_Microsoft_Singularity_V1_Threads_SyncHandle@@2PAUClass_System_VTable@@A 020b296c     sc.obj
 0003:000089d4       ?_type@ClassVector_Struct_Microsoft_Singularity_V1_Threads_SyncHandle@@2UClass_System_RuntimeType@@A 020b29d4     sc.obj
 0003:00008a20       ???_7vtable@ClassVector_float32@@2PAUClass_System_VTable@@A 020b2a20     sc.obj
 0003:00008a88       ?_type@ClassVector_float32@@2UClass_System_RuntimeType@@A 020b2a88     sc.obj
 0003:00008ad4       ??_7System_Threading_HandleCreateException@@6B@ 020b2ad4     sc.obj
 0003:00008b40       ?_type@Class_System_Threading_HandleCreateException@@2UClass_System_RuntimeType@@A 020b2b40     sc.obj
 0003:00008b8c       ??_7System_UInt64@@6B@     020b2b8c     sc.obj
 0003:00008c04       ?_type@Class_System_UInt64@@2UClass_System_RuntimeType@@A 020b2c04     sc.obj
 0003:00008c50       ??_7System_Runtime_CompilerServices_NoStackOverflowCheckAttribute@@6B@ 020b2c50     sc.obj
 0003:00008cb8       ?_type@Class_System_Runtime_CompilerServices_NoStackOverflowCheckAttribute@@2UClass_System_RuntimeType@@A 020b2cb8     sc.obj
 0003:00008d04       ??_7Microsoft_Singularity_Directory_DirectoryServiceContract_EnumerationEntries@@6B@ 020b2d04     sc.obj
 0003:00008d6c       ?_type@Class_Microsoft_Singularity_Directory_DirectoryServiceContract_EnumerationEntries@@2UClass_System_RuntimeType@@A 020b2d6c     sc.obj
 0003:00008db8       ??_7Microsoft_Singularity_Isal_IX_EFlagsShift@@6B@ 020b2db8     sc.obj
 0003:00008e20       ?_type@Class_Microsoft_Singularity_Isal_IX_EFlagsShift@@2UClass_System_RuntimeType@@A 020b2e20     sc.obj
 0003:00008e6c       ??_7Microsoft_Singularity_ServiceManager_ServiceManagerContract_ServiceStopping@@6B@ 020b2e6c     sc.obj
 0003:00008ed4       ?_type@Class_Microsoft_Singularity_ServiceManager_ServiceManagerContract_ServiceStopping@@2UClass_System_RuntimeType@@A 020b2ed4     sc.obj
 0003:00008f20       ??_7Microsoft_Singularity_Io_UnicodePipeContract_Write@@6B@ 020b2f20     sc.obj
 0003:00008f88       ?_type@Class_Microsoft_Singularity_Io_UnicodePipeContract_Write@@2UClass_System_RuntimeType@@A 020b2f88     sc.obj
 0003:00008fd4       ??_7System_Threading_ThreadState@@6B@ 020b2fd4     sc.obj
 0003:0000904c       ?_type@Class_System_Threading_ThreadState@@2UClass_System_RuntimeType@@A 020b304c     sc.obj
 0003:00009098       ??_7Microsoft_Singularity_Directory_DirectoryServiceContract_CreateAndBindFile@@6B@ 020b3098     sc.obj
 0003:00009100       ?_type@Class_Microsoft_Singularity_Directory_DirectoryServiceContract_CreateAndBindFile@@2UClass_System_RuntimeType@@A 020b3100     sc.obj
 0003:0000914c       ??_7System_DivideByZeroException@@6B@ 020b314c     sc.obj
 0003:000091b8       ?_type@Class_System_DivideByZeroException@@2UClass_System_RuntimeType@@A 020b31b8     sc.obj
 0003:00009204       ??_7System_GCs_OffsetReferenceVisitor@@6B@ 020b3204     sc.obj
 0003:0000927c       ?_type@Class_System_GCs_OffsetReferenceVisitor@@2UClass_System_RuntimeType@@A 020b327c     sc.obj
 0003:000092c8       ??_7System_GCs_Barrier_CopyFieldsVisitor@@6B@ 020b32c8     sc.obj
 0003:00009340       ?_type@Class_System_GCs_Barrier_CopyFieldsVisitor@@2UClass_System_RuntimeType@@A 020b3340     sc.obj
 0003:0000938c       ??_7Microsoft_Singularity_Directory_DirectoryServiceContract_NakNotify@@6B@ 020b338c     sc.obj
 0003:000093f4       ?_type@Class_Microsoft_Singularity_Directory_DirectoryServiceContract_NakNotify@@2UClass_System_RuntimeType@@A 020b33f4     sc.obj
 0003:00009440       ??_7System_Runtime_CompilerServices_SelfPointAttribute@@6B@ 020b3440     sc.obj
 0003:000094a8       ?_type@Class_System_Runtime_CompilerServices_SelfPointAttribute@@2UClass_System_RuntimeType@@A 020b34a8     sc.obj
 0003:000094f4       ??_7System_RuntimeType_Enum$_Kind@@6B@ 020b34f4     sc.obj
 0003:0000956c       ?_type@Class_System_RuntimeType_Enum$_Kind@@2UClass_System_RuntimeType@@A 020b356c     sc.obj
 0003:000095b8       ??_7Microsoft_Singularity_Isal_IX_DescriptorTable@@6B@ 020b35b8     sc.obj
 0003:00009620       ?_type@Class_Microsoft_Singularity_Isal_IX_DescriptorTable@@2UClass_System_RuntimeType@@A 020b3620     sc.obj
 0003:0000966c       ??_7Microsoft_Singularity_Directory_DirectoryServiceContract_GetLinkValue@@6B@ 020b366c     sc.obj
 0003:000096d4       ?_type@Class_Microsoft_Singularity_Directory_DirectoryServiceContract_GetLinkValue@@2UClass_System_RuntimeType@@A 020b36d4     sc.obj
 0003:00009720       ??_7Microsoft_Singularity_ServiceManager_ServiceManagerContract_StopWatchingService@@6B@ 020b3720     sc.obj
 0003:00009788       ?_type@Class_Microsoft_Singularity_ServiceManager_ServiceManagerContract_StopWatchingService@@2UClass_System_RuntimeType@@A 020b3788     sc.obj
 0003:000097d4       ??_7Microsoft_Singularity_ServiceManager_ServiceManagerContract_WatchServiceManager@@6B@ 020b37d4     sc.obj
 0003:0000983c       ?_type@Class_Microsoft_Singularity_ServiceManager_ServiceManagerContract_WatchServiceManager@@2UClass_System_RuntimeType@@A 020b383c     sc.obj
 0003:00009888       ??_7Microsoft_Singularity_ServiceManager_ServiceManagerContract_CurrentServiceStatus@@6B@ 020b3888     sc.obj
 0003:000098f0       ?_type@Class_Microsoft_Singularity_ServiceManager_ServiceManagerContract_CurrentServiceStatus@@2UClass_System_RuntimeType@@A 020b38f0     sc.obj
 0003:0000993c       ??_7Microsoft_Singularity_Eventing_ControllerLogger@@6B@ 020b393c     sc.obj
 0003:000099a8       ?_type@Class_Microsoft_Singularity_Eventing_ControllerLogger@@2UClass_System_RuntimeType@@A 020b39a8     sc.obj
 0003:000099f4       ??_7Microsoft_Singularity_Directory_DirectoryServiceContract_NakCreateAndBindFile@@6B@ 020b39f4     sc.obj
 0003:00009a5c       ?_type@Class_Microsoft_Singularity_Directory_DirectoryServiceContract_NakCreateAndBindFile@@2UClass_System_RuntimeType@@A 020b3a5c     sc.obj
 0003:00009aa8       ??_7Microsoft_Singularity_Directory_DirectoryServiceContract_Deregister@@6B@ 020b3aa8     sc.obj
 0003:00009b10       ?_type@Class_Microsoft_Singularity_Directory_DirectoryServiceContract_Deregister@@2UClass_System_RuntimeType@@A 020b3b10     sc.obj
 0003:00009b5c       ??_7Microsoft_Singularity_Eventing_SystemControllerProxy@@6B@ 020b3b5c     sc.obj
 0003:00009bd4       ?_type@Class_Microsoft_Singularity_Eventing_SystemControllerProxy@@2UClass_System_RuntimeType@@A 020b3bd4     sc.obj
 0003:00009c20       ??_7System_IAsyncResult@@6B@ 020b3c20     sc.obj
 0003:00009c78       ?_type@Class_System_IAsyncResult@@2UClass_System_RuntimeType@@A 020b3c78     sc.obj
 0003:00009cc4       ??_7System_Collections_IComparer@@6B@ 020b3cc4     sc.obj
 0003:00009d1c       ?_type@Class_System_Collections_IComparer@@2UClass_System_RuntimeType@@A 020b3d1c     sc.obj
 0003:00009d68       ??_7System_GCs_Barrier_SlowZeroFieldsVisitor@@6B@ 020b3d68     sc.obj
 0003:00009de0       ?_type@Class_System_GCs_Barrier_SlowZeroFieldsVisitor@@2UClass_System_RuntimeType@@A 020b3de0     sc.obj
 0003:00009e2c       ??_7Microsoft_Bartok_Runtime_StructuralType@@6B@ 020b3e2c     sc.obj
 0003:00009ea4       ?_type@Class_Microsoft_Bartok_Runtime_StructuralType@@2UClass_System_RuntimeType@@A 020b3ea4     sc.obj
 0003:00009ef0       ??_7System_GCs_SegregatedFreeList_PartialFreePageVisitor@@6B@ 020b3ef0     sc.obj
 0003:00009f60       ?_type@Class_System_GCs_SegregatedFreeList_PartialFreePageVisitor@@2UClass_System_RuntimeType@@A 020b3f60     sc.obj
 0003:00009fac       ??_7Microsoft_Singularity_ServiceManager_ServiceManagerContract_TerminateServiceProcess@@6B@ 020b3fac     sc.obj
 0003:0000a014       ?_type@Class_Microsoft_Singularity_ServiceManager_ServiceManagerContract_TerminateServiceProcess@@2UClass_System_RuntimeType@@A 020b4014     sc.obj
 0003:0000a060       ??_7Microsoft_Singularity_ServiceManager_ServiceManagerContract_ServiceStarted@@6B@ 020b4060     sc.obj
 0003:0000a0c8       ?_type@Class_Microsoft_Singularity_ServiceManager_ServiceManagerContract_ServiceStarted@@2UClass_System_RuntimeType@@A 020b40c8     sc.obj
 0003:0000a114       ??_7System_GCs_MarkSweepCollector_MarkAndProcessReferenceVisitor@@6B@ 020b4114     sc.obj
 0003:0000a18c       ?_type@Class_System_GCs_MarkSweepCollector_MarkAndProcessReferenceVisitor@@2UClass_System_RuntimeType@@A 020b418c     sc.obj
 0003:0000a1d8       ??_7Microsoft_Singularity_Eventing_ArrayType@@6B@ 020b41d8     sc.obj
 0003:0000a240       ?_type@Class_Microsoft_Singularity_Eventing_ArrayType@@2UClass_System_RuntimeType@@A 020b4240     sc.obj
 0003:0000a28c       ??_7Microsoft_Singularity_Io_ConsoleInput@@6B@ 020b428c     sc.obj
 0003:0000a2f4       ?_type@Class_Microsoft_Singularity_Io_ConsoleInput@@2UClass_System_RuntimeType@@A 020b42f4     sc.obj
 0003:0000a340       ??_7SurrogateMicrosoft_Singularity_ServiceManager_ServiceManagerContract_Imp@@6B@ 020b4340     sc.obj
 0003:0000a3d0       ?_type@Class_SurrogateMicrosoft_Singularity_ServiceManager_ServiceManagerContract_Imp@@2UClass_System_RuntimeType@@A 020b43d0     sc.obj
 0003:0000a41c       ??_7Microsoft_Contracts_NullException@@6B@ 020b441c     sc.obj
 0003:0000a488       ?_type@Class_Microsoft_Contracts_NullException@@2UClass_System_RuntimeType@@A 020b4488     sc.obj
 0003:0000a4d4       ??_7System_Threading_SpinLockBase@@6B@ 020b44d4     sc.obj
 0003:0000a53c       ?_type@Class_System_Threading_SpinLockBase@@2UClass_System_RuntimeType@@A 020b453c     sc.obj
 0003:0000a588       ??_7Microsoft_Singularity_Io_UnicodePipeContract_AckWrite@@6B@ 020b4588     sc.obj
 0003:0000a5f0       ?_type@Class_Microsoft_Singularity_Io_UnicodePipeContract_AckWrite@@2UClass_System_RuntimeType@@A 020b45f0     sc.obj
 0003:0000a63c       ??_7Microsoft_Singularity_Isal_IX_MmxContext@@6B@ 020b463c     sc.obj
 0003:0000a6a4       ?_type@Class_Microsoft_Singularity_Isal_IX_MmxContext@@2UClass_System_RuntimeType@@A 020b46a4     sc.obj
 0003:0000a6f0       ??_7Microsoft_Singularity_ServiceManager_ServiceManagerContract_EnumerationTerminated@@6B@ 020b46f0     sc.obj
 0003:0000a758       ?_type@Class_Microsoft_Singularity_ServiceManager_ServiceManagerContract_EnumerationTerminated@@2UClass_System_RuntimeType@@A 020b4758     sc.obj
 0003:0000a7a4       ??_7Microsoft_Singularity_Isal_Isa_Type@@6B@ 020b47a4     sc.obj
 0003:0000a81c       ?_type@Class_Microsoft_Singularity_Isal_Isa_Type@@2UClass_System_RuntimeType@@A 020b481c     sc.obj
 0003:0000a868       ??_7Microsoft_Singularity_ServiceManager_ServiceManagerContract_CreateService@@6B@ 020b4868     sc.obj
 0003:0000a8d0       ?_type@Class_Microsoft_Singularity_ServiceManager_ServiceManagerContract_CreateService@@2UClass_System_RuntimeType@@A 020b48d0     sc.obj
 0003:0000a91c       ??_7Microsoft_Singularity_Directory_DirectoryServiceContract_EndEnumeration@@6B@ 020b491c     sc.obj
 0003:0000a984       ?_type@Class_Microsoft_Singularity_Directory_DirectoryServiceContract_EndEnumeration@@2UClass_System_RuntimeType@@A 020b4984     sc.obj
 0003:0000a9d0       ??_7Microsoft_Singularity_Eventing_QualityOfService@@6B@ 020b49d0     sc.obj
 0003:0000aa38       ?_type@Class_Microsoft_Singularity_Eventing_QualityOfService@@2UClass_System_RuntimeType@@A 020b4a38     sc.obj
 0003:0000aa84       ??_7System_Runtime_InteropServices_GCAnnotationAttribute@@6B@ 020b4a84     sc.obj
 0003:0000aaec       ?_type@Class_System_Runtime_InteropServices_GCAnnotationAttribute@@2UClass_System_RuntimeType@@A 020b4aec     sc.obj
 0003:0000ab38       ??_7System_GCs_Barrier_ZeroFieldsVisitor@@6B@ 020b4b38     sc.obj
 0003:0000abb0       ?_type@Class_System_GCs_Barrier_ZeroFieldsVisitor@@2UClass_System_RuntimeType@@A 020b4bb0     sc.obj
 0003:0000abfc       ??_7Microsoft_Singularity_ServiceManager_ServiceManagerContract_RequestFailed@@6B@ 020b4bfc     sc.obj
 0003:0000ac64       ?_type@Class_Microsoft_Singularity_ServiceManager_ServiceManagerContract_RequestFailed@@2UClass_System_RuntimeType@@A 020b4c64     sc.obj
 0003:0000acb0       ??_7Microsoft_Singularity_ServiceManager_ServiceStatus@@6B@ 020b4cb0     sc.obj
 0003:0000ad18       ?_type@Class_Microsoft_Singularity_ServiceManager_ServiceStatus@@2UClass_System_RuntimeType@@A 020b4d18     sc.obj
 0003:0000ad64       ??_7Microsoft_Singularity_Isal_IX_CR3@@6B@ 020b4d64     sc.obj
 0003:0000adcc       ?_type@Class_Microsoft_Singularity_Isal_IX_CR3@@2UClass_System_RuntimeType@@A 020b4dcc     sc.obj
 0003:0000ae18       ??_7Microsoft_Singularity_Isal_IX_CR0@@6B@ 020b4e18     sc.obj
 0003:0000ae80       ?_type@Class_Microsoft_Singularity_Isal_IX_CR0@@2UClass_System_RuntimeType@@A 020b4e80     sc.obj
 0003:0000aecc       ??_7System_VTable_ClassConstructorLock@@6B@ 020b4ecc     sc.obj
 0003:0000af34       ?_type@Class_System_VTable_ClassConstructorLock@@2UClass_System_RuntimeType@@A 020b4f34     sc.obj
 0003:0000af80       ??_7Microsoft_Singularity_Isal_IX_CR4@@6B@ 020b4f80     sc.obj
 0003:0000afe8       ?_type@Class_Microsoft_Singularity_Isal_IX_CR4@@2UClass_System_RuntimeType@@A 020b4fe8     sc.obj
 0003:0000b034       ??_7System_UpdateLog_Location@@6B@ 020b5034     sc.obj
 0003:0000b09c       ?_type@Class_System_UpdateLog_Location@@2UClass_System_RuntimeType@@A 020b509c     sc.obj
 0003:0000b0e8       ??_7System_Threading_SynchronizationLockException@@6B@ 020b50e8     sc.obj
 0003:0000b154       ?_type@Class_System_Threading_SynchronizationLockException@@2UClass_System_RuntimeType@@A 020b5154     sc.obj
 0003:0000b1a0       ??_7System_GCs_MarkSweepCollector_MarkReferenceVisitor@@6B@ 020b51a0     sc.obj
 0003:0000b218       ?_type@Class_System_GCs_MarkSweepCollector_MarkReferenceVisitor@@2UClass_System_RuntimeType@@A 020b5218     sc.obj
 0003:0000b264       ??_7Microsoft_Singularity_V1_Services_DebugService@@6B@ 020b5264     sc.obj
 0003:0000b2cc       ?_type@Class_Microsoft_Singularity_V1_Services_DebugService@@2UClass_System_RuntimeType@@A 020b52cc     sc.obj
 0003:0000b318       ??_7Microsoft_Singularity_Isal_IX_DescriptorTable_Gdt@@6B@ 020b5318     sc.obj
 0003:0000b380       ?_type@Class_Microsoft_Singularity_Isal_IX_DescriptorTable_Gdt@@2UClass_System_RuntimeType@@A 020b5380     sc.obj
 0003:0000b3cc       ??_7System_Text_StringBuilder@@6B@ 020b53cc     sc.obj
 0003:0000b434       ?_type@Class_System_Text_StringBuilder@@2UClass_System_RuntimeType@@A 020b5434     sc.obj
 0003:0000b480       ??_7System_GCs_ProfileObjectsDelegate@@6B@ 020b5480     sc.obj
 0003:0000b4f4       ?_type@Class_System_GCs_ProfileObjectsDelegate@@2UClass_System_RuntimeType@@A 020b54f4     sc.obj
 0003:0000b540       ??_7System_Reflection_AssemblyName@@6B@ 020b5540     sc.obj
 0003:0000b5a8       ?_type@Class_System_Reflection_AssemblyName@@2UClass_System_RuntimeType@@A 020b55a8     sc.obj
 0003:0000b5f4       ??_7Microsoft_Singularity_Channels_TContainer$_1$LMicrosoft_Singularity_Io_PipeLookAhead$G@@6B@ 020b55f4     sc.obj
 0003:0000b65c       ?_type@Class_Microsoft_Singularity_Channels_TContainer$_1$LMicrosoft_Singularity_Io_PipeLookAhead$G@@2UClass_System_RuntimeType@@A 020b565c     sc.obj
 0003:0000b6a8       ??_7System_GCs_SegregatedFreeList_ObjectVisitor@@6B@ 020b56a8     sc.obj
 0003:0000b724       ?_type@Class_System_GCs_SegregatedFreeList_ObjectVisitor@@2UClass_System_RuntimeType@@A 020b5724     sc.obj
 0003:0000b770       ??_7System_GCs_MarkSweepCollector_SweepVisitor@@6B@ 020b5770     sc.obj
 0003:0000b7ec       ?_type@Class_System_GCs_MarkSweepCollector_SweepVisitor@@2UClass_System_RuntimeType@@A 020b57ec     sc.obj
 0003:0000b838       ??_7Microsoft_Singularity_Directory_DirectoryServiceContract_NakStoreACLReparse@@6B@ 020b5838     sc.obj
 0003:0000b8a0       ?_type@Class_Microsoft_Singularity_Directory_DirectoryServiceContract_NakStoreACLReparse@@2UClass_System_RuntimeType@@A 020b58a0     sc.obj
 0003:0000b8ec       ??_7Microsoft_Singularity_Directory_DirectoryServiceContract_NakGetLinkValue@@6B@ 020b58ec     sc.obj
 0003:0000b954       ?_type@Class_Microsoft_Singularity_Directory_DirectoryServiceContract_NakGetLinkValue@@2UClass_System_RuntimeType@@A 020b5954     sc.obj
 0003:0000b9a0       ??_7System_FormatException@@6B@ 020b59a0     sc.obj
 0003:0000ba0c       ?_type@Class_System_FormatException@@2UClass_System_RuntimeType@@A 020b5a0c     sc.obj
 0003:0000ba58       ??_7System_Delegate_NativeDelegateRecord@@6B@ 020b5a58     sc.obj
 0003:0000bac0       ?_type@Class_System_Delegate_NativeDelegateRecord@@2UClass_System_RuntimeType@@A 020b5ac0     sc.obj
 0003:0000bb0c       ??_7System_UpdateEnlistmentLogWriter@@6B@ 020b5b0c     sc.obj
 0003:0000bb74       ?_type@Class_System_UpdateEnlistmentLogWriter@@2UClass_System_RuntimeType@@A 020b5b74     sc.obj
 0003:0000bbc0       ???_7vtable@ClassVector_int64@@2PAUClass_System_VTable@@A 020b5bc0     sc.obj
 0003:0000bc28       ?_type@ClassVector_int64@@2UClass_System_RuntimeType@@A 020b5c28     sc.obj
 0003:0000bc74       ??_7Microsoft_Singularity_Eventing_EventingStorage@@6B@ 020b5c74     sc.obj
 0003:0000bce4       ?_type@Class_Microsoft_Singularity_Eventing_EventingStorage@@2UClass_System_RuntimeType@@A 020b5ce4     sc.obj
 0003:0000bd30       ??_7Microsoft_Singularity_ServiceManager_ServiceManagerContract_QueryServiceStatus@@6B@ 020b5d30     sc.obj
 0003:0000bd98       ?_type@Class_Microsoft_Singularity_ServiceManager_ServiceManagerContract_QueryServiceStatus@@2UClass_System_RuntimeType@@A 020b5d98     sc.obj
 0003:0000bde4       ??_7System_Char@@6B@       020b5de4     sc.obj
 0003:0000be54       ?_type@Class_System_Char@@2UClass_System_RuntimeType@@A 020b5e54     sc.obj
 0003:0000bea0       ??_7System_Runtime_CompilerServices_ForceInlineAttribute@@6B@ 020b5ea0     sc.obj
 0003:0000bf08       ?_type@Class_System_Runtime_CompilerServices_ForceInlineAttribute@@2UClass_System_RuntimeType@@A 020b5f08     sc.obj
 0003:0000bf54       ??_7Microsoft_Singularity_ServiceManager_ServiceManagerContract_TerminateServiceAllProcesses@@6B@ 020b5f54     sc.obj
 0003:0000bfbc       ?_type@Class_Microsoft_Singularity_ServiceManager_ServiceManagerContract_TerminateServiceAllProcesses@@2UClass_System_RuntimeType@@A 020b5fbc     sc.obj
 0003:0000c008       ??_7Microsoft_Singularity_ServiceManager_ServiceManagerContract_NextServiceInfo@@6B@ 020b6008     sc.obj
 0003:0000c070       ?_type@Class_Microsoft_Singularity_ServiceManager_ServiceManagerContract_NextServiceInfo@@2UClass_System_RuntimeType@@A 020b6070     sc.obj
 0003:0000c0bc       ??_7System_GCs_SegregatedFreeList_TempList@@6B@ 020b60bc     sc.obj
 0003:0000c124       ?_type@Class_System_GCs_SegregatedFreeList_TempList@@2UClass_System_RuntimeType@@A 020b6124     sc.obj
 0003:0000c170       ??_7Microsoft_Singularity_V1_Services_DiagnosisService@@6B@ 020b6170     sc.obj
 0003:0000c1d8       ?_type@Class_Microsoft_Singularity_V1_Services_DiagnosisService@@2UClass_System_RuntimeType@@A 020b61d8     sc.obj
 0003:0000c224       ??_7Microsoft_Singularity_Directory_DirectoryServiceContract_NakCreateDirectory@@6B@ 020b6224     sc.obj
 0003:0000c28c       ?_type@Class_Microsoft_Singularity_Directory_DirectoryServiceContract_NakCreateDirectory@@2UClass_System_RuntimeType@@A 020b628c     sc.obj
 0003:0000c2d8       ??_7Microsoft_Singularity_ServiceManager_ServiceInfo@@6B@ 020b62d8     sc.obj
 0003:0000c358       ?_type@Class_Microsoft_Singularity_ServiceManager_ServiceInfo@@2UClass_System_RuntimeType@@A 020b6358     sc.obj
 0003:0000c3a4       ??_7Microsoft_Singularity_ServiceManager_ServiceManagerContract_UnselectService@@6B@ 020b63a4     sc.obj
 0003:0000c40c       ?_type@Class_Microsoft_Singularity_ServiceManager_ServiceManagerContract_UnselectService@@2UClass_System_RuntimeType@@A 020b640c     sc.obj
 0003:0000c458       ??_7Microsoft_Singularity_Directory_ServiceProviderContract_Imp@@6B@ 020b6458     sc.obj
 0003:0000c4e8       ?_type@Class_Microsoft_Singularity_Directory_ServiceProviderContract_Imp@@2UClass_System_RuntimeType@@A 020b64e8     sc.obj
 0003:0000c548       ??_7System_Collections_Comparer@@6B@ 020b6548     sc.obj
 0003:0000c5c8       ?_type@Class_System_Collections_Comparer@@2UClass_System_RuntimeType@@A 020b65c8     sc.obj
 0003:0000c614       ??_7Microsoft_Contracts_AssumeException@@6B@ 020b6614     sc.obj
 0003:0000c680       ?_type@Class_Microsoft_Contracts_AssumeException@@2UClass_System_RuntimeType@@A 020b6680     sc.obj
 0003:0000c6cc       ??_7System_GCs_PageManager@@6B@ 020b66cc     sc.obj
 0003:0000c734       ?_type@Class_System_GCs_PageManager@@2UClass_System_RuntimeType@@A 020b6734     sc.obj
 0003:0000c780       ??_7Microsoft_Singularity_Applications_ServiceManager_CreateServiceCommand@@6B@ 020b6780     sc.obj
 0003:0000c7e8       ?_type@Class_Microsoft_Singularity_Applications_ServiceManager_CreateServiceCommand@@2UClass_System_RuntimeType@@A 020b67e8     sc.obj
 0003:0000c834       ??_7Microsoft_Singularity_Applications_ServiceManager_ListConfig@@6B@ 020b6834     sc.obj
 0003:0000c89c       ?_type@Class_Microsoft_Singularity_Applications_ServiceManager_ListConfig@@2UClass_System_RuntimeType@@A 020b689c     sc.obj
 0003:0000c8e8       ??_7Microsoft_Singularity_Directory_DirectoryServiceContract_NakGetLinkValueReparse@@6B@ 020b68e8     sc.obj
 0003:0000c950       ?_type@Class_Microsoft_Singularity_Directory_DirectoryServiceContract_NakGetLinkValueReparse@@2UClass_System_RuntimeType@@A 020b6950     sc.obj
 0003:0000c99c       ??_7System_IntPtr@@6B@     020b699c     sc.obj
 0003:0000ca04       ?_type@Class_System_IntPtr@@2UClass_System_RuntimeType@@A 020b6a04     sc.obj
 0003:0000ca50       ??_7System_GCs_Verifier_GenericReferenceVisitor@@6B@ 020b6a50     sc.obj
 0003:0000cac8       ?_type@Class_System_GCs_Verifier_GenericReferenceVisitor@@2UClass_System_RuntimeType@@A 020b6ac8     sc.obj
 0003:0000cb14       ???_7vtable@ClassVector_bartok_char@@2PAUClass_System_VTable@@A 020b6b14     sc.obj
 0003:0000cb7c       ?_type@ClassVector_bartok_char@@2UClass_System_RuntimeType@@A 020b6b7c     sc.obj
 0003:0000cbc8       ??_7Microsoft_Singularity_Directory_DirectoryServiceContract_Imp@@6B@ 020b6bc8     sc.obj
 0003:0000cc58       ?_type@Class_Microsoft_Singularity_Directory_DirectoryServiceContract_Imp@@2UClass_System_RuntimeType@@A 020b6c58     sc.obj
 0003:0000cca4       ??_7Microsoft_Singularity_Directory_DirectoryServiceContract_AckRegister@@6B@ 020b6ca4     sc.obj
 0003:0000cd0c       ?_type@Class_Microsoft_Singularity_Directory_DirectoryServiceContract_AckRegister@@2UClass_System_RuntimeType@@A 020b6d0c     sc.obj
 0003:0000cd58       ??_7System_AtomicException@@6B@ 020b6d58     sc.obj
 0003:0000cdc4       ?_type@Class_System_AtomicException@@2UClass_System_RuntimeType@@A 020b6dc4     sc.obj
 0003:0000ce10       ??_7System_AtomicIsInvalidException@@6B@ 020b6e10     sc.obj
 0003:0000ce7c       ?_type@Class_System_AtomicIsInvalidException@@2UClass_System_RuntimeType@@A 020b6e7c     sc.obj
 0003:0000cec8       ??_7Microsoft_Singularity_ServiceManager_ServiceManagerContract_EndEnumeration@@6B@ 020b6ec8     sc.obj
 0003:0000cf30       ?_type@Class_Microsoft_Singularity_ServiceManager_ServiceManagerContract_EndEnumeration@@2UClass_System_RuntimeType@@A 020b6f30     sc.obj
 0003:0000cf7c       ???_7vtable@ClassVector_int32@@2PAUClass_System_VTable@@A 020b6f7c     sc.obj
 0003:0000cfe4       ?_type@ClassVector_int32@@2UClass_System_RuntimeType@@A 020b6fe4     sc.obj
 0003:0000d030       ??_7Microsoft_Singularity_Directory_DirectoryServiceContract_AckDeleteFile@@6B@ 020b7030     sc.obj
 0003:0000d098       ?_type@Class_Microsoft_Singularity_Directory_DirectoryServiceContract_AckDeleteFile@@2UClass_System_RuntimeType@@A 020b7098     sc.obj
 0003:0000d0e4       ??_7Microsoft_Singularity_Applications_ServiceManager_WatchConfig@@6B@ 020b70e4     sc.obj
 0003:0000d14c       ?_type@Class_Microsoft_Singularity_Applications_ServiceManager_WatchConfig@@2UClass_System_RuntimeType@@A 020b714c     sc.obj
 0003:0000d198       ??_7System_Collections_DictionaryEntry@@6B@ 020b7198     sc.obj
 0003:0000d200       ?_type@Class_System_Collections_DictionaryEntry@@2UClass_System_RuntimeType@@A 020b7200     sc.obj
 0003:0000d24c       ??_7System_StackOverflowException@@6B@ 020b724c     sc.obj
 0003:0000d2b8       ?_type@Class_System_StackOverflowException@@2UClass_System_RuntimeType@@A 020b72b8     sc.obj
 0003:0000d304       ??_7Microsoft_Singularity_Directory_DirectoryServiceContract_AckStoreACL@@6B@ 020b7304     sc.obj
 0003:0000d36c       ?_type@Class_Microsoft_Singularity_Directory_DirectoryServiceContract_AckStoreACL@@2UClass_System_RuntimeType@@A 020b736c     sc.obj
 0003:0000d3b8       ???_7vtable@ClassVector_Class_System_Threading_ThreadQueueItem@@2PAUClass_System_VTable@@A 020b73b8     sc.obj
 0003:0000d420       ?_type@ClassVector_Class_System_Threading_ThreadQueueItem@@2UClass_System_RuntimeType@@A 020b7420     sc.obj
 0003:0000d46c       ??_7Microsoft_Singularity_ServiceManager_ServiceManagerContract_StopServiceNoWait@@6B@ 020b746c     sc.obj
 0003:0000d4d4       ?_type@Class_Microsoft_Singularity_ServiceManager_ServiceManagerContract_StopServiceNoWait@@2UClass_System_RuntimeType@@A 020b74d4     sc.obj
 0003:0000d520       ??_7Microsoft_Singularity_Directory_DirectoryServiceContract_BeginEnumeration@@6B@ 020b7520     sc.obj
 0003:0000d588       ?_type@Class_Microsoft_Singularity_Directory_DirectoryServiceContract_BeginEnumeration@@2UClass_System_RuntimeType@@A 020b7588     sc.obj
 0003:0000d5d4       ??_7Microsoft_Singularity_Directory_DirectoryServiceContract_AckDeleteDirectory@@6B@ 020b75d4     sc.obj
 0003:0000d63c       ?_type@Class_Microsoft_Singularity_Directory_DirectoryServiceContract_AckDeleteDirectory@@2UClass_System_RuntimeType@@A 020b763c     sc.obj
 0003:0000d688       ??_7SurrogateMicrosoft_Singularity_Io_UnicodePipeContract_Imp@@6B@ 020b7688     sc.obj
 0003:0000d718       ?_type@Class_SurrogateMicrosoft_Singularity_Io_UnicodePipeContract_Imp@@2UClass_System_RuntimeType@@A 020b7718     sc.obj
 0003:0000d764       ???_7vtable@ClassVector_uint8@@2PAUClass_System_VTable@@A 020b7764     sc.obj
 0003:0000d7cc       ?_type@ClassVector_uint8@@2UClass_System_RuntimeType@@A 020b77cc     sc.obj
 0003:0000d818       ??_7System_GCs_ReferenceVisitor_ObjectDescriptor@@6B@ 020b7818     sc.obj
 0003:0000d880       ?_type@Class_System_GCs_ReferenceVisitor_ObjectDescriptor@@2UClass_System_RuntimeType@@A 020b7880     sc.obj
 0003:0000d8cc       ??_7Microsoft_Singularity_Directory_DirectoryServiceContract_AckQueryACL@@6B@ 020b78cc     sc.obj
 0003:0000d934       ?_type@Class_Microsoft_Singularity_Directory_DirectoryServiceContract_AckQueryACL@@2UClass_System_RuntimeType@@A 020b7934     sc.obj
 0003:0000d980       ??_7Microsoft_Singularity_Directory_DirectoryServiceContract_NakGetAttributesReparse@@6B@ 020b7980     sc.obj
 0003:0000d9e8       ?_type@Class_Microsoft_Singularity_Directory_DirectoryServiceContract_NakGetAttributesReparse@@2UClass_System_RuntimeType@@A 020b79e8     sc.obj
 0003:0000da34       ??_7Microsoft_Singularity_DebugStub@@6B@ 020b7a34     sc.obj
 0003:0000da9c       ?_type@Class_Microsoft_Singularity_DebugStub@@2UClass_System_RuntimeType@@A 020b7a9c     sc.obj
 0003:0000dae8       ??_7Microsoft_Bartok_Runtime_TypeInitState@@6B@ 020b7ae8     sc.obj
 0003:0000db60       ?_type@Class_Microsoft_Bartok_Runtime_TypeInitState@@2UClass_System_RuntimeType@@A 020b7b60     sc.obj
 0003:0000dbac       ??_7Microsoft_Singularity_V1_Services_SharedHeapService@@6B@ 020b7bac     sc.obj
 0003:0000dc14       ?_type@Class_Microsoft_Singularity_V1_Services_SharedHeapService@@2UClass_System_RuntimeType@@A 020b7c14     sc.obj
 0003:0000dc60       ??_7Microsoft_Singularity_Directory_DirectoryServiceContract@@6B@ 020b7c60     sc.obj
 0003:0000dcc8       ?_type@Class_Microsoft_Singularity_Directory_DirectoryServiceContract@@2UClass_System_RuntimeType@@A 020b7cc8     sc.obj
 0003:0000dd14       ???_7vtable@ClassVector_Struct_System_Collections_Hashtable_bucket@@2PAUClass_System_VTable@@A 020b7d14     sc.obj
 0003:0000dd7c       ?_type@ClassVector_Struct_System_Collections_Hashtable_bucket@@2UClass_System_RuntimeType@@A 020b7d7c     sc.obj
 0003:0000ddc8       ??_7System_LocalDataStoreMgr@@6B@ 020b7dc8     sc.obj
 0003:0000de30       ?_type@Class_System_LocalDataStoreMgr@@2UClass_System_RuntimeType@@A 020b7e30     sc.obj
 0003:0000de7c       ??_7System_GCs_ObjectLayout@@6B@ 020b7e7c     sc.obj
 0003:0000dee4       ?_type@Class_System_GCs_ObjectLayout@@2UClass_System_RuntimeType@@A 020b7ee4     sc.obj
 0003:0000df30       ??_7Microsoft_Singularity_Directory_DirectoryServiceContract_AckCreateAndBindFile@@6B@ 020b7f30     sc.obj
 0003:0000df98       ?_type@Class_Microsoft_Singularity_Directory_DirectoryServiceContract_AckCreateAndBindFile@@2UClass_System_RuntimeType@@A 020b7f98     sc.obj
 0003:0000dfe4       ???_7vtable@ClassVector_Class_Microsoft_Singularity_Channels_ISelectable@@2PAUClass_System_VTable@@A 020b7fe4     sc.obj
 0003:0000e04c       ?_type@ClassVector_Class_Microsoft_Singularity_Channels_ISelectable@@2UClass_System_RuntimeType@@A 020b804c     sc.obj
 0003:0000e098       ??_7Microsoft_Bartok_Runtime_Constants@@6B@ 020b8098     sc.obj
 0003:0000e100       ?_type@Class_Microsoft_Bartok_Runtime_Constants@@2UClass_System_RuntimeType@@A 020b8100     sc.obj
 0003:0000e14c       ??_7System_GCs_BumpAllocator@@6B@ 020b814c     sc.obj
 0003:0000e1b4       ?_type@Class_System_GCs_BumpAllocator@@2UClass_System_RuntimeType@@A 020b81b4     sc.obj
 0003:0000e200       ??_7Microsoft_Singularity_Applications_ServiceManager_WatchAllConfig@@6B@ 020b8200     sc.obj
 0003:0000e268       ?_type@Class_Microsoft_Singularity_Applications_ServiceManager_WatchAllConfig@@2UClass_System_RuntimeType@@A 020b8268     sc.obj
 0003:0000e2b4       ??_7Microsoft_Singularity_Applications_ServiceManager_DisableServiceCommand@@6B@ 020b82b4     sc.obj
 0003:0000e31c       ?_type@Class_Microsoft_Singularity_Applications_ServiceManager_DisableServiceCommand@@2UClass_System_RuntimeType@@A 020b831c     sc.obj
 0003:0000e368       ??_7Microsoft_Singularity_ServiceManager_ServiceManagerContract_CurrentServiceConfig@@6B@ 020b8368     sc.obj
 0003:0000e3d0       ?_type@Class_Microsoft_Singularity_ServiceManager_ServiceManagerContract_CurrentServiceConfig@@2UClass_System_RuntimeType@@A 020b83d0     sc.obj
 0003:0000e41c       ??_7System_UpdateLog_LogChunk@@6B@ 020b841c     sc.obj
 0003:0000e484       ?_type@Class_System_UpdateLog_LogChunk@@2UClass_System_RuntimeType@@A 020b8484     sc.obj
 0003:0000e4d0       ??_7Microsoft_Singularity_Directory_ServiceProviderContract@@6B@ 020b84d0     sc.obj
 0003:0000e538       ?_type@Class_Microsoft_Singularity_Directory_ServiceProviderContract@@2UClass_System_RuntimeType@@A 020b8538     sc.obj
 0003:0000e584       ??_7Microsoft_Singularity_ServiceManager_ServiceManagerContract_ServiceStopped@@6B@ 020b8584     sc.obj
 0003:0000e5ec       ?_type@Class_Microsoft_Singularity_ServiceManager_ServiceManagerContract_ServiceStopped@@2UClass_System_RuntimeType@@A 020b85ec     sc.obj
 0003:0000e638       ??_7System_UpdateLog_Entry@@6B@ 020b8638     sc.obj
 0003:0000e6a0       ?_type@Class_System_UpdateLog_Entry@@2UClass_System_RuntimeType@@A 020b86a0     sc.obj
 0003:0000e6ec       ???_7vtable@ClassVector_Class_System_Threading_Thread@@2PAUClass_System_VTable@@A 020b86ec     sc.obj
 0003:0000e754       ?_type@ClassVector_Class_System_Threading_Thread@@2UClass_System_RuntimeType@@A 020b8754     sc.obj
 0003:0000e7a0       ???_7vtable@ClassVector_Struct_System_ReadEnlistmentLog_Entry@@2PAUClass_System_VTable@@A 020b87a0     sc.obj
 0003:0000e808       ?_type@ClassVector_Struct_System_ReadEnlistmentLog_Entry@@2UClass_System_RuntimeType@@A 020b8808     sc.obj
 0003:0000e854       ??_7System_GCs_Verifier_StackVerifier@@6B@ 020b8854     sc.obj
 0003:0000e8c0       ?_type@Class_System_GCs_Verifier_StackVerifier@@2UClass_System_RuntimeType@@A 020b88c0     sc.obj
 0003:0000e90c       ??_7System_GCs_Verifier_GenericStackVerifier@@6B@ 020b890c     sc.obj
 0003:0000e978       ?_type@Class_System_GCs_Verifier_GenericStackVerifier@@2UClass_System_RuntimeType@@A 020b8978     sc.obj
 0003:0000e9c4       ??_7System_GCs_PageManager_UnusedBlockHeader@@6B@ 020b89c4     sc.obj
 0003:0000ea2c       ?_type@Class_System_GCs_PageManager_UnusedBlockHeader@@2UClass_System_RuntimeType@@A 020b8a2c     sc.obj
 0003:0000ea78       ??_7Microsoft_Singularity_ServiceManager_ServiceManagerContract_Imp@@6B@ 020b8a78     sc.obj
 0003:0000eb08       ?_type@Class_Microsoft_Singularity_ServiceManager_ServiceManagerContract_Imp@@2UClass_System_RuntimeType@@A 020b8b08     sc.obj
 0003:0000eb68       ??_7System_Threading_WaitHandle@@6B@ 020b8b68     sc.obj
 0003:0000ebf4       ?_type@Class_System_Threading_WaitHandle@@2UClass_System_RuntimeType@@A 020b8bf4     sc.obj
 0003:0000ec40       ??_7System_Threading_Mutex@@6B@ 020b8c40     sc.obj
 0003:0000ecbc       ?_type@Class_System_Threading_Mutex@@2UClass_System_RuntimeType@@A 020b8cbc     sc.obj
 0003:0000ed2c       ?_vtable@Class_System_String@@2UClass_System_VTable@@A 020b8d2c     sc.obj
 0003:0000ed2c       ??_7System_String@@6B@     020b8d2c     sc.obj
 0003:0000edb4       ?_type@Class_System_String@@2UClass_System_RuntimeType@@A 020b8db4     sc.obj
 0003:0000ee00       ??_7System_Globalization_CompareInfo@@6B@ 020b8e00     sc.obj
 0003:0000ee68       ?_type@Class_System_Globalization_CompareInfo@@2UClass_System_RuntimeType@@A 020b8e68     sc.obj
 0003:0000eeb4       ??_7System_GCs_CalleeSaveLocations_RegLocation@@6B@ 020b8eb4     sc.obj
 0003:0000ef1c       ?_type@Class_System_GCs_CalleeSaveLocations_RegLocation@@2UClass_System_RuntimeType@@A 020b8f1c     sc.obj
 0003:0000ef68       ??_7System_UpdateEnlistmentLog@@6B@ 020b8f68     sc.obj
 0003:0000efd0       ?_type@Class_System_UpdateEnlistmentLog@@2UClass_System_RuntimeType@@A 020b8fd0     sc.obj
 0003:0000f01c       ??_7Microsoft_Singularity_Directory_ErrorCode@@6B@ 020b901c     sc.obj
 0003:0000f094       ?_type@Class_Microsoft_Singularity_Directory_ErrorCode@@2UClass_System_RuntimeType@@A 020b9094     sc.obj
 0003:0000f0e0       ???_7vtable@ClassVector_Struct_System_GCs_PageManager_UnusedBlockHeader@@2PAUClass_System_VTable@@A 020b90e0     sc.obj
 0003:0000f148       ?_type@ClassVector_Struct_System_GCs_PageManager_UnusedBlockHeader@@2UClass_System_RuntimeType@@A 020b9148     sc.obj
 0003:0000f194       ??_7Microsoft_Singularity_Directory_DirectoryServiceContract_AckGetAttributes@@6B@ 020b9194     sc.obj
 0003:0000f1fc       ?_type@Class_Microsoft_Singularity_Directory_DirectoryServiceContract_AckGetAttributes@@2UClass_System_RuntimeType@@A 020b91fc     sc.obj
 0003:0000f248       ??_7Microsoft_Singularity_Directory_DirectoryServiceContract_AckCreateFile@@6B@ 020b9248     sc.obj
 0003:0000f2b0       ?_type@Class_Microsoft_Singularity_Directory_DirectoryServiceContract_AckCreateFile@@2UClass_System_RuntimeType@@A 020b92b0     sc.obj
 0003:0000f2fc       ??_7Microsoft_Singularity_GCProfilerLogger@@6B@ 020b92fc     sc.obj
 0003:0000f384       ?_type@Class_Microsoft_Singularity_GCProfilerLogger@@2UClass_System_RuntimeType@@A 020b9384     sc.obj
 0003:0000f3d0       ??_7System_VarargList@@6B@ 020b93d0     sc.obj
 0003:0000f438       ?_type@Class_System_VarargList@@2UClass_System_RuntimeType@@A 020b9438     sc.obj
 0003:0000f484       ??_7Microsoft_Singularity_V1_Types_SystemType@@6B@ 020b9484     sc.obj
 0003:0000f4ec       ?_type@Class_Microsoft_Singularity_V1_Types_SystemType@@2UClass_System_RuntimeType@@A 020b94ec     sc.obj
 0003:0000f538       ??_7System_GCs_GCProfiler_RootVisitor@@6B@ 020b9538     sc.obj
 0003:0000f5b0       ?_type@Class_System_GCs_GCProfiler_RootVisitor@@2UClass_System_RuntimeType@@A 020b95b0     sc.obj
 0003:0000f5fc       ??_7Microsoft_Singularity_Directory_DirectoryServiceContract_CreateLink@@6B@ 020b95fc     sc.obj
 0003:0000f664       ?_type@Class_Microsoft_Singularity_Directory_DirectoryServiceContract_CreateLink@@2UClass_System_RuntimeType@@A 020b9664     sc.obj
 0003:0000f6b0       ??_7System_InvalidOperationException@@6B@ 020b96b0     sc.obj
 0003:0000f71c       ?_type@Class_System_InvalidOperationException@@2UClass_System_RuntimeType@@A 020b971c     sc.obj
 0003:0000f768       ??_7System_Threading_Thread_StopServiceNotice@@6B@ 020b9768     sc.obj
 0003:0000f7dc       ?_type@Class_System_Threading_Thread_StopServiceNotice@@2UClass_System_RuntimeType@@A 020b97dc     sc.obj
 0003:0000f828       ??_7Microsoft_Singularity_Directory_DirectoryServiceContract_NakQueryACL@@6B@ 020b9828     sc.obj
 0003:0000f890       ?_type@Class_Microsoft_Singularity_Directory_DirectoryServiceContract_NakQueryACL@@2UClass_System_RuntimeType@@A 020b9890     sc.obj
 0003:0000f8dc       ??_7System_InterfaceInfo@@6B@ 020b98dc     sc.obj
 0003:0000f944       ?_type@Class_System_InterfaceInfo@@2UClass_System_RuntimeType@@A 020b9944     sc.obj
 0003:0000f990       ??_7Microsoft_Singularity_Directory_DirectoryServiceContract_Bind@@6B@ 020b9990     sc.obj
 0003:0000f9f8       ?_type@Class_Microsoft_Singularity_Directory_DirectoryServiceContract_Bind@@2UClass_System_RuntimeType@@A 020b99f8     sc.obj
 0003:0000fa44       ??_7Microsoft_Singularity_Eventing_MemoryStorage@@6B@ 020b9a44     sc.obj
 0003:0000fab4       ?_type@Class_Microsoft_Singularity_Eventing_MemoryStorage@@2UClass_System_RuntimeType@@A 020b9ab4     sc.obj
 0003:0000fb00       ??_7Microsoft_Singularity_Directory_NotifyContract_Imp@@6B@ 020b9b00     sc.obj
 0003:0000fb90       ?_type@Class_Microsoft_Singularity_Directory_NotifyContract_Imp@@2UClass_System_RuntimeType@@A 020b9b90     sc.obj
 0003:0000fbdc       ??_7Microsoft_Singularity_Directory_FileContract_Write@@6B@ 020b9bdc     sc.obj
 0003:0000fc44       ?_type@Class_Microsoft_Singularity_Directory_FileContract_Write@@2UClass_System_RuntimeType@@A 020b9c44     sc.obj
 0003:0000fc90       ??_7System_Threading_AutoResetEvent@@6B@ 020b9c90     sc.obj
 0003:0000fd0c       ?_type@Class_System_Threading_AutoResetEvent@@2UClass_System_RuntimeType@@A 020b9d0c     sc.obj
 0003:0000fd58       ???_7vtable@ClassVector_uint32@@2PAUClass_System_VTable@@A 020b9d58     sc.obj
 0003:0000fdc0       ?_type@ClassVector_uint32@@2UClass_System_RuntimeType@@A 020b9dc0     sc.obj
 0003:0000fe0c       ??_7Microsoft_Singularity_Io_UnicodePipeContract@@6B@ 020b9e0c     sc.obj
 0003:0000fe74       ?_type@Class_Microsoft_Singularity_Io_UnicodePipeContract@@2UClass_System_RuntimeType@@A 020b9e74     sc.obj
 0003:0000fec0       ???_7vtable@ClassVector_Class_System_RuntimeType@@2PAUClass_System_VTable@@A 020b9ec0     sc.obj
 0003:0000ff28       ?_type@ClassVector_Class_System_RuntimeType@@2UClass_System_RuntimeType@@A 020b9f28     sc.obj
 0003:0000ff74       ??_7System_GCs_PageType@@6B@ 020b9f74     sc.obj
 0003:0000ffec       ?_type@Class_System_GCs_PageType@@2UClass_System_RuntimeType@@A 020b9fec     sc.obj
 0003:00010038       ??_7Microsoft_Singularity_ProcessorContext@@6B@ 020ba038     sc.obj
 0003:000100a0       ?_type@Class_Microsoft_Singularity_ProcessorContext@@2UClass_System_RuntimeType@@A 020ba0a0     sc.obj
 0003:000100ec       ???_7vtable@ClassVector_Class_System_String@@2PAUClass_System_VTable@@A 020ba0ec     sc.obj
 0003:00010154       ?_type@ClassVector_Class_System_String@@2UClass_System_RuntimeType@@A 020ba154     sc.obj
 0003:000101a0       ??_7Microsoft_Singularity_Directory_DirectoryServiceContract_CreateDirectory@@6B@ 020ba1a0     sc.obj
 0003:00010208       ?_type@Class_Microsoft_Singularity_Directory_DirectoryServiceContract_CreateDirectory@@2UClass_System_RuntimeType@@A 020ba208     sc.obj
 0003:00010254       ??_7System_LogEntryUndoAction@@6B@ 020ba254     sc.obj
 0003:000102bc       ?_type@Class_System_LogEntryUndoAction@@2UClass_System_RuntimeType@@A 020ba2bc     sc.obj
 0003:00010308       ??_7System_TypedReference@@6B@ 020ba308     sc.obj
 0003:00010370       ?_type@Class_System_TypedReference@@2UClass_System_RuntimeType@@A 020ba370     sc.obj
 0003:000103bc       ???_7vtable@ClassVector_Struct_System_GCs_SegregatedFreeList_PageHeader@@2PAUClass_System_VTable@@A 020ba3bc     sc.obj
 0003:00010424       ?_type@ClassVector_Struct_System_GCs_SegregatedFreeList_PageHeader@@2UClass_System_RuntimeType@@A 020ba424     sc.obj
 0003:00010470       ??_7Microsoft_Singularity_ServiceManager_ServiceManagerContract_Success@@6B@ 020ba470     sc.obj
 0003:000104d8       ?_type@Class_Microsoft_Singularity_ServiceManager_ServiceManagerContract_Success@@2UClass_System_RuntimeType@@A 020ba4d8     sc.obj
 0003:00010524       ??_7System_Collections_IEnumerator@@6B@ 020ba524     sc.obj
 0003:0001057c       ?_type@Class_System_Collections_IEnumerator@@2UClass_System_RuntimeType@@A 020ba57c     sc.obj
 0003:000105c8       ??_7System_Collections_IDictionaryEnumerator@@6B@ 020ba5c8     sc.obj
 0003:00010630       ?_type@Class_System_Collections_IDictionaryEnumerator@@2UClass_System_RuntimeType@@A 020ba630     sc.obj
 0003:0001067c       ??_7System_GCs_SegregatedFreeList_PageHeader@@6B@ 020ba67c     sc.obj
 0003:000106e4       ?_type@Class_System_GCs_SegregatedFreeList_PageHeader@@2UClass_System_RuntimeType@@A 020ba6e4     sc.obj
 0003:00010730       ??_7Microsoft_Singularity_ServiceManager_ServiceManagerContract_QueryServiceConfig@@6B@ 020ba730     sc.obj
 0003:00010798       ?_type@Class_Microsoft_Singularity_ServiceManager_ServiceManagerContract_QueryServiceConfig@@2UClass_System_RuntimeType@@A 020ba798     sc.obj
 0003:000107e4       ??_7System_Decimal@@6B@    020ba7e4     sc.obj
 0003:0001085c       ?_type@Class_System_Decimal@@2UClass_System_RuntimeType@@A 020ba85c     sc.obj
 0003:000108a8       ??_7System_GCs_Barrier_SlowCopyFieldsVisitor@@6B@ 020ba8a8     sc.obj
 0003:00010920       ?_type@Class_System_GCs_Barrier_SlowCopyFieldsVisitor@@2UClass_System_RuntimeType@@A 020ba920     sc.obj
 0003:0001096c       ???_7vtable@ClassVector_ClassVector_uintPtr@@2PAUClass_System_VTable@@A 020ba96c     sc.obj
 0003:000109d4       ?_type@ClassVector_ClassVector_uintPtr@@2UClass_System_RuntimeType@@A 020ba9d4     sc.obj
 0003:00010a20       ???_7vtable@ClassVector_bool@@2PAUClass_System_VTable@@A 020baa20     sc.obj
 0003:00010a88       ?_type@ClassVector_bool@@2UClass_System_RuntimeType@@A 020baa88     sc.obj
 0003:00010ad4       ??_7Microsoft_Singularity_Eventing_GlobalStorage@@6B@ 020baad4     sc.obj
 0003:00010b44       ?_type@Class_Microsoft_Singularity_Eventing_GlobalStorage@@2UClass_System_RuntimeType@@A 020bab44     sc.obj
 0003:00010b90       ??_7Microsoft_Singularity_Isal_ThreadRecord@@6B@ 020bab90     sc.obj
 0003:00010bf8       ?_type@Class_Microsoft_Singularity_Isal_ThreadRecord@@2UClass_System_RuntimeType@@A 020babf8     sc.obj
 0003:00010c44       ??_7Microsoft_Singularity_ServiceManager_ServiceState@@6B@ 020bac44     sc.obj
 0003:00010cbc       ?_type@Class_Microsoft_Singularity_ServiceManager_ServiceState@@2UClass_System_RuntimeType@@A 020bacbc     sc.obj
 0003:00010d08       ??_7System_ArgumentOutOfRangeException@@6B@ 020bad08     sc.obj
 0003:00010d74       ?_type@Class_System_ArgumentOutOfRangeException@@2UClass_System_RuntimeType@@A 020bad74     sc.obj
 0003:00010dc0       ??_7Microsoft_Singularity_Isal_IX_EVectors@@6B@ 020badc0     sc.obj
 0003:00010e28       ?_type@Class_Microsoft_Singularity_Isal_IX_EVectors@@2UClass_System_RuntimeType@@A 020bae28     sc.obj
 0003:00010e88       ??_7System_UIntPtr@@6B@    020bae88     sc.obj
 0003:00010f08       ?_type@Class_System_UIntPtr@@2UClass_System_RuntimeType@@A 020baf08     sc.obj
 0003:00010f54       ??_7System_ReadEnlistmentLog_Location@@6B@ 020baf54     sc.obj
 0003:00010fbc       ?_type@Class_System_ReadEnlistmentLog_Location@@2UClass_System_RuntimeType@@A 020bafbc     sc.obj
 0003:00011008       ??_7Microsoft_Singularity_Isal_IX_TSS@@6B@ 020bb008     sc.obj
 0003:00011070       ?_type@Class_Microsoft_Singularity_Isal_IX_TSS@@2UClass_System_RuntimeType@@A 020bb070     sc.obj
 0003:000110bc       ??_7System_RuntimeArgumentHandle@@6B@ 020bb0bc     sc.obj
 0003:00011124       ?_type@Class_System_RuntimeArgumentHandle@@2UClass_System_RuntimeType@@A 020bb124     sc.obj
 0003:00011170       ??_7Microsoft_Singularity_ServiceManager_ServiceManagerContract_WaitServiceChange@@6B@ 020bb170     sc.obj
 0003:000111d8       ?_type@Class_Microsoft_Singularity_ServiceManager_ServiceManagerContract_WaitServiceChange@@2UClass_System_RuntimeType@@A 020bb1d8     sc.obj
 0003:00011224       ??_7Microsoft_Singularity_Directory_FileContract_Read@@6B@ 020bb224     sc.obj
 0003:0001128c       ?_type@Class_Microsoft_Singularity_Directory_FileContract_Read@@2UClass_System_RuntimeType@@A 020bb28c     sc.obj
 0003:000112d8       ??_7Microsoft_Singularity_Directory_DirectoryServiceContract_NakDeregisterReparse@@6B@ 020bb2d8     sc.obj
 0003:00011340       ?_type@Class_Microsoft_Singularity_Directory_DirectoryServiceContract_NakDeregisterReparse@@2UClass_System_RuntimeType@@A 020bb340     sc.obj
 0003:0001138c       ??_7Microsoft_Singularity_V1_Threads_ThreadHandle@@6B@ 020bb38c     sc.obj
 0003:000113f4       ?_type@Class_Microsoft_Singularity_V1_Threads_ThreadHandle@@2UClass_System_RuntimeType@@A 020bb3f4     sc.obj
 0003:00011440       ??_7Microsoft_Singularity_Applications_ServiceManager_ShowServiceParameters@@6B@ 020bb440     sc.obj
 0003:000114a8       ?_type@Class_Microsoft_Singularity_Applications_ServiceManager_ShowServiceParameters@@2UClass_System_RuntimeType@@A 020bb4a8     sc.obj
 0003:000114f4       ??_7System_GCs_SegregatedFreeList_NullPartialFreePageVisitor@@6B@ 020bb4f4     sc.obj
 0003:00011564       ?_type@Class_System_GCs_SegregatedFreeList_NullPartialFreePageVisitor@@2UClass_System_RuntimeType@@A 020bb564     sc.obj
 0003:000115b0       ??_7System_TypeInitializationException@@6B@ 020bb5b0     sc.obj
 0003:0001161c       ?_type@Class_System_TypeInitializationException@@2UClass_System_RuntimeType@@A 020bb61c     sc.obj
 0003:0001168c       ??_7System_Collections_Hashtable_HashtableEnumerator@@6B@ 020bb68c     sc.obj
 0003:0001171c       ?_type@Class_System_Collections_Hashtable_HashtableEnumerator@@2UClass_System_RuntimeType@@A 020bb71c     sc.obj
 0003:00011768       ??_7Microsoft_Singularity_GCProfilerLogger_GCTypeSource@@6B@ 020bb768     sc.obj
 0003:000117d4       ?_type@Class_Microsoft_Singularity_GCProfilerLogger_GCTypeSource@@2UClass_System_RuntimeType@@A 020bb7d4     sc.obj
 0003:00011820       ??_7Microsoft_Singularity_Eventing_UnmanagedMemoryBuffer@@6B@ 020bb820     sc.obj
 0003:00011888       ?_type@Class_Microsoft_Singularity_Eventing_UnmanagedMemoryBuffer@@2UClass_System_RuntimeType@@A 020bb888     sc.obj
 0003:000118d4       ??_7Microsoft_Singularity_ServiceManager_ServiceManagerContract_WatchServiceStatus@@6B@ 020bb8d4     sc.obj
 0003:0001193c       ?_type@Class_Microsoft_Singularity_ServiceManager_ServiceManagerContract_WatchServiceStatus@@2UClass_System_RuntimeType@@A 020bb93c     sc.obj
 0003:00011988       ??_7Microsoft_Singularity_ServiceManager_ServiceConfig@@6B@ 020bb988     sc.obj
 0003:00011a08       ?_type@Class_Microsoft_Singularity_ServiceManager_ServiceConfig@@2UClass_System_RuntimeType@@A 020bba08     sc.obj
 0003:00011a54       ??_7System_Int16@@6B@      020bba54     sc.obj
 0003:00011acc       ?_type@Class_System_Int16@@2UClass_System_RuntimeType@@A 020bbacc     sc.obj
 0003:00011b18       ??_7Microsoft_Singularity_ServiceManager_ServiceManagerContract_WaitNextServiceManagerChange@@6B@ 020bbb18     sc.obj
 0003:00011b80       ?_type@Class_Microsoft_Singularity_ServiceManager_ServiceManagerContract_WaitNextServiceManagerChange@@2UClass_System_RuntimeType@@A 020bbb80     sc.obj
 0003:00011bcc       ??_7Microsoft_Singularity_Directory_FileAttributesRecord@@6B@ 020bbbcc     sc.obj
 0003:00011c34       ?_type@Class_Microsoft_Singularity_Directory_FileAttributesRecord@@2UClass_System_RuntimeType@@A 020bbc34     sc.obj
 0003:00011c80       ??_7System_GCs_CalleeSaveLocations@@6B@ 020bbc80     sc.obj
 0003:00011ce8       ?_type@Class_System_GCs_CalleeSaveLocations@@2UClass_System_RuntimeType@@A 020bbce8     sc.obj
 0003:00011d34       ??_7System_ReadEnlistmentLog@@6B@ 020bbd34     sc.obj
 0003:00011d9c       ?_type@Class_System_ReadEnlistmentLog@@2UClass_System_RuntimeType@@A 020bbd9c     sc.obj
 0003:00011de8       ??_7Microsoft_Singularity_Directory_DirectoryServiceContract_AckBind@@6B@ 020bbde8     sc.obj
 0003:00011e50       ?_type@Class_Microsoft_Singularity_Directory_DirectoryServiceContract_AckBind@@2UClass_System_RuntimeType@@A 020bbe50     sc.obj
 0003:00011e9c       ??_7Microsoft_Singularity_Directory_EnumerationRecords@@6B@ 020bbe9c     sc.obj
 0003:00011f1c       ?_type@Class_Microsoft_Singularity_Directory_EnumerationRecords@@2UClass_System_RuntimeType@@A 020bbf1c     sc.obj
 0003:00011f68       ??_7System_UInt32@@6B@     020bbf68     sc.obj
 0003:00011fe0       ?_type@Class_System_UInt32@@2UClass_System_RuntimeType@@A 020bbfe0     sc.obj
 0003:0001202c       ??_7Microsoft_Singularity_Directory_DirectoryServiceContract_NakRegister@@6B@ 020bc02c     sc.obj
 0003:00012094       ?_type@Class_Microsoft_Singularity_Directory_DirectoryServiceContract_NakRegister@@2UClass_System_RuntimeType@@A 020bc094     sc.obj
 0003:000120e0       ??_7Microsoft_Singularity_V1_Services_ParameterCode@@6B@ 020bc0e0     sc.obj
 0003:00012158       ?_type@Class_Microsoft_Singularity_V1_Services_ParameterCode@@2UClass_System_RuntimeType@@A 020bc158     sc.obj
 0003:000121a4       ??_7Microsoft_Singularity_Directory_ServiceContract_ContractNotSupported@@6B@ 020bc1a4     sc.obj
 0003:0001220c       ?_type@Class_Microsoft_Singularity_Directory_ServiceContract_ContractNotSupported@@2UClass_System_RuntimeType@@A 020bc20c     sc.obj
 0003:00012258       ??_7Microsoft_Singularity_Processor@@6B@ 020bc258     sc.obj
 0003:000122c0       ?_type@Class_Microsoft_Singularity_Processor@@2UClass_System_RuntimeType@@A 020bc2c0     sc.obj
 0003:0001230c       ??_7System_GCs_UIntPtrStack@@6B@ 020bc30c     sc.obj
 0003:00012374       ?_type@Class_System_GCs_UIntPtrStack@@2UClass_System_RuntimeType@@A 020bc374     sc.obj
 0003:000123c0       ??_7System_GCs_CompressedFrameDescriptor@@6B@ 020bc3c0     sc.obj
 0003:00012428       ?_type@Class_System_GCs_CompressedFrameDescriptor@@2UClass_System_RuntimeType@@A 020bc428     sc.obj
 0003:00012474       ??_7System_GCs_SegregatedFreeList_ObjectVisitorWrapper@@6B@ 020bc474     sc.obj
 0003:000124f0       ?_type@Class_System_GCs_SegregatedFreeList_ObjectVisitorWrapper@@2UClass_System_RuntimeType@@A 020bc4f0     sc.obj
 0003:0001253c       ??_7Microsoft_Singularity_Directory_DirectoryServiceContract_Exp@@6B@ 020bc53c     sc.obj
 0003:000125cc       ?_type@Class_Microsoft_Singularity_Directory_DirectoryServiceContract_Exp@@2UClass_System_RuntimeType@@A 020bc5cc     sc.obj
 0003:00012618       ??_7System_AsyncCallback@@6B@ 020bc618     sc.obj
 0003:0001268c       ?_type@Class_System_AsyncCallback@@2UClass_System_RuntimeType@@A 020bc68c     sc.obj
 0003:000126d8       ??_7System_TryAllManager_VisitMethod@@6B@ 020bc6d8     sc.obj
 0003:0001274c       ?_type@Class_System_TryAllManager_VisitMethod@@2UClass_System_RuntimeType@@A 020bc74c     sc.obj
 0003:00012798       ??_7System_Threading_SpinLock@@6B@ 020bc798     sc.obj
 0003:00012800       ?_type@Class_System_Threading_SpinLock@@2UClass_System_RuntimeType@@A 020bc800     sc.obj
 0003:0001284c       ??_7Microsoft_Singularity_Memory_Stacks@@6B@ 020bc84c     sc.obj
 0003:000128b4       ?_type@Class_Microsoft_Singularity_Memory_Stacks@@2UClass_System_RuntimeType@@A 020bc8b4     sc.obj
 0003:00012900       ??_7Microsoft_Singularity_Directory_DirectoryServiceContract_StoreACL@@6B@ 020bc900     sc.obj
 0003:00012968       ?_type@Class_Microsoft_Singularity_Directory_DirectoryServiceContract_StoreACL@@2UClass_System_RuntimeType@@A 020bc968     sc.obj
 0003:000129b4       ??_7System_ReadEnlistmentLog_Entry@@6B@ 020bc9b4     sc.obj
 0003:00012a1c       ?_type@Class_System_ReadEnlistmentLog_Entry@@2UClass_System_RuntimeType@@A 020bca1c     sc.obj
 0003:00012a68       ??_7System_GC@@6B@         020bca68     sc.obj
 0003:00012ad0       ?_type@Class_System_GC@@2UClass_System_RuntimeType@@A 020bcad0     sc.obj
 0003:00012b1c       ??_7System_Threading_ThreadStateException@@6B@ 020bcb1c     sc.obj
 0003:00012b88       ?_type@Class_System_Threading_ThreadStateException@@2UClass_System_RuntimeType@@A 020bcb88     sc.obj
 0003:00012bd4       ??_7Microsoft_Singularity_Isal_IX_Gdtp@@6B@ 020bcbd4     sc.obj
 0003:00012c3c       ?_type@Class_Microsoft_Singularity_Isal_IX_Gdtp@@2UClass_System_RuntimeType@@A 020bcc3c     sc.obj
 0003:00012c88       ??_7System_MutableInt32@@6B@ 020bcc88     sc.obj
 0003:00012cf0       ?_type@Class_System_MutableInt32@@2UClass_System_RuntimeType@@A 020bccf0     sc.obj
 0003:00012d3c       ???_7vtable@ClassVector_uint16@@2PAUClass_System_VTable@@A 020bcd3c     sc.obj
 0003:00012da4       ?_type@ClassVector_uint16@@2UClass_System_RuntimeType@@A 020bcda4     sc.obj
 0003:00012df0       ??_7Microsoft_Singularity_Directory_DirectoryServiceContract_EnumerationTerminated@@6B@ 020bcdf0     sc.obj
 0003:00012e58       ?_type@Class_Microsoft_Singularity_Directory_DirectoryServiceContract_EnumerationTerminated@@2UClass_System_RuntimeType@@A 020bce58     sc.obj
 0003:00012ea4       ??_7System_GCs_MarkSweepCollector_UpdateReferenceVisitor@@6B@ 020bcea4     sc.obj
 0003:00012f1c       ?_type@Class_System_GCs_MarkSweepCollector_UpdateReferenceVisitor@@2UClass_System_RuntimeType@@A 020bcf1c     sc.obj
 0003:00012f68       ??_7System_SByte@@6B@      020bcf68     sc.obj
 0003:00012fe0       ?_type@Class_System_SByte@@2UClass_System_RuntimeType@@A 020bcfe0     sc.obj
 0003:0001302c       ??_7Microsoft_Singularity_ThreadContext@@6B@ 020bd02c     sc.obj
 0003:00013094       ?_type@Class_Microsoft_Singularity_ThreadContext@@2UClass_System_RuntimeType@@A 020bd094     sc.obj
 0003:000130e0       ???_7vtable@ClassVector_Class_System_Object@@2PAUClass_System_VTable@@A 020bd0e0     sc.obj
 0003:00013148       ?_type@ClassVector_Class_System_Object@@2UClass_System_RuntimeType@@A 020bd148     sc.obj
 0003:00013194       ??_7Microsoft_Singularity_V1_Services_PageTableService@@6B@ 020bd194     sc.obj
 0003:000131fc       ?_type@Class_Microsoft_Singularity_V1_Services_PageTableService@@2UClass_System_RuntimeType@@A 020bd1fc     sc.obj
 0003:00013248       ??_7Microsoft_Singularity_Directory_DirectoryServiceContract_Success@@6B@ 020bd248     sc.obj
 0003:000132b0       ?_type@Class_Microsoft_Singularity_Directory_DirectoryServiceContract_Success@@2UClass_System_RuntimeType@@A 020bd2b0     sc.obj
 0003:000132fc       ??_7Microsoft_Singularity_Directory_SdsUtils@@6B@ 020bd2fc     sc.obj
 0003:00013364       DirectoryService$_UtilsVersionInstance 020bd364     sc.obj
 0003:0001343c       DirectoryService$_UtilsassemblyNameInstance 020bd43c     sc.obj
 0003:00013454       DirectoryService$_UtilsAssemblyInstance 020bd454     sc.obj
 0003:00013460       DirectoryService$_UtilsModuleInstance 020bd460     sc.obj
 0003:00013470       ?_type@Class_Microsoft_Singularity_Directory_SdsUtils@@2UClass_System_RuntimeType@@A 020bd470     sc.obj
 0003:000134bc       ??_7System_Buffer@@6B@     020bd4bc     sc.obj
 0003:00013524       ?_type@Class_System_Buffer@@2UClass_System_RuntimeType@@A 020bd524     sc.obj
 0003:00013570       ??_7Microsoft_Singularity_Io_UnicodePipeContract_Imp@@6B@ 020bd570     sc.obj
 0003:00013600       ?_type@Class_Microsoft_Singularity_Io_UnicodePipeContract_Imp@@2UClass_System_RuntimeType@@A 020bd600     sc.obj
 0003:0001364c       ??_7System_TryAllCounters@@6B@ 020bd64c     sc.obj
 0003:000136b4       ?_type@Class_System_TryAllCounters@@2UClass_System_RuntimeType@@A 020bd6b4     sc.obj
 0003:00013700       ??_7Microsoft_Singularity_Isal_IX_PE@@6B@ 020bd700     sc.obj
 0003:00013768       ?_type@Class_Microsoft_Singularity_Isal_IX_PE@@2UClass_System_RuntimeType@@A 020bd768     sc.obj
 0003:000137b4       ??_7System_Int64@@6B@      020bd7b4     sc.obj
 0003:0001382c       ?_type@Class_System_Int64@@2UClass_System_RuntimeType@@A 020bd82c     sc.obj
 0003:00013878       ??_7System_GCs_Verifier_GenericObjectVisitor@@6B@ 020bd878     sc.obj
 0003:000138e4       ?_type@Class_System_GCs_Verifier_GenericObjectVisitor@@2UClass_System_RuntimeType@@A 020bd8e4     sc.obj
 0003:00013930       ??_7System_IUndo@@6B@      020bd930     sc.obj
 0003:00013988       ?_type@Class_System_IUndo@@2UClass_System_RuntimeType@@A 020bd988     sc.obj
 0003:000139d4       ??_7Microsoft_Singularity_Directory_DirectoryServiceContract_AckCreateDirectory@@6B@ 020bd9d4     sc.obj
 0003:00013a3c       ?_type@Class_Microsoft_Singularity_Directory_DirectoryServiceContract_AckCreateDirectory@@2UClass_System_RuntimeType@@A 020bda3c     sc.obj
 0003:00013a88       ??_7System_GCs_Transitions@@6B@ 020bda88     sc.obj
 0003:00013af0       ?_type@Class_System_GCs_Transitions@@2UClass_System_RuntimeType@@A 020bdaf0     sc.obj
 0003:00013b3c       ??_7System_Runtime_CompilerServices_CompilerInitFieldAttribute@@6B@ 020bdb3c     sc.obj
 0003:00013ba4       ?_type@Class_System_Runtime_CompilerServices_CompilerInitFieldAttribute@@2UClass_System_RuntimeType@@A 020bdba4     sc.obj
 0003:00013bf0       ???_7vtable@ClassVector_ClassVector_Struct_System_Delegate_NativeDelegateRecord@@2PAUClass_System_VTable@@A 020bdbf0     sc.obj
 0003:00013c58       ?_type@ClassVector_ClassVector_Struct_System_Delegate_NativeDelegateRecord@@2UClass_System_RuntimeType@@A 020bdc58     sc.obj
 0003:00013ca4       ??_7System_ArgIterator@@6B@ 020bdca4     sc.obj
 0003:00013d0c       ?_type@Class_System_ArgIterator@@2UClass_System_RuntimeType@@A 020bdd0c     sc.obj
 0003:00013d58       ??_7Microsoft_Singularity_Directory_DirectoryServiceContract_AckDeregister@@6B@ 020bdd58     sc.obj
 0003:00013dc0       ?_type@Class_Microsoft_Singularity_Directory_DirectoryServiceContract_AckDeregister@@2UClass_System_RuntimeType@@A 020bddc0     sc.obj
 0003:00013e0c       ??_7Microsoft_Bartok_Runtime_PostHeader@@6B@ 020bde0c     sc.obj
 0003:00013e74       ?_type@Class_Microsoft_Bartok_Runtime_PostHeader@@2UClass_System_RuntimeType@@A 020bde74     sc.obj
 0003:00013ec0       ??_7System_Finalizer@@6B@  020bdec0     sc.obj
 0003:00013f28       ?_type@Class_System_Finalizer@@2UClass_System_RuntimeType@@A 020bdf28     sc.obj
 0003:00013f74       ??_7Microsoft_Singularity_Directory_DirectoryServiceContract_DeleteFile@@6B@ 020bdf74     sc.obj
 0003:00013fdc       ?_type@Class_Microsoft_Singularity_Directory_DirectoryServiceContract_DeleteFile@@2UClass_System_RuntimeType@@A 020bdfdc     sc.obj
 0003:00014028       ??_7Microsoft_Singularity_Directory_DirectoryServiceContract_GetAttributes@@6B@ 020be028     sc.obj
 0003:00014090       ?_type@Class_Microsoft_Singularity_Directory_DirectoryServiceContract_GetAttributes@@2UClass_System_RuntimeType@@A 020be090     sc.obj
 0003:000140dc       ??_7System_Byte@@6B@       020be0dc     sc.obj
 0003:00014154       ?_type@Class_System_Byte@@2UClass_System_RuntimeType@@A 020be154     sc.obj
 0003:000141a0       ??_7System_UpdateLogWriter@@6B@ 020be1a0     sc.obj
 0003:00014208       ?_type@Class_System_UpdateLogWriter@@2UClass_System_RuntimeType@@A 020be208     sc.obj
 0003:00014254       ??_7Microsoft_Singularity_Directory_DirectoryServiceContract_AckDeleteLink@@6B@ 020be254     sc.obj
 0003:000142bc       ?_type@Class_Microsoft_Singularity_Directory_DirectoryServiceContract_AckDeleteLink@@2UClass_System_RuntimeType@@A 020be2bc     sc.obj
 0003:00014308       ??_7System_GCs_Verifier@@6B@ 020be308     sc.obj
 0003:00014370       ?_type@Class_System_GCs_Verifier@@2UClass_System_RuntimeType@@A 020be370     sc.obj
 0003:000143bc       ??_7System_Runtime_CompilerServices_CalledRarelyAttribute@@6B@ 020be3bc     sc.obj
 0003:00014424       ?_type@Class_System_Runtime_CompilerServices_CalledRarelyAttribute@@2UClass_System_RuntimeType@@A 020be424     sc.obj
 0003:00014470       ??_7Microsoft_Singularity_Eventing_QuerySession@@6B@ 020be470     sc.obj
 0003:000144d8       ?_type@Class_Microsoft_Singularity_Eventing_QuerySession@@2UClass_System_RuntimeType@@A 020be4d8     sc.obj
 0003:00014524       ??_7Microsoft_Singularity_ServiceManager_ServiceActivationMode@@6B@ 020be524     sc.obj
 0003:0001459c       ?_type@Class_Microsoft_Singularity_ServiceManager_ServiceActivationMode@@2UClass_System_RuntimeType@@A 020be59c     sc.obj
 0003:000145e8       ??_7System_Runtime_CompilerServices_InlineAttribute@@6B@ 020be5e8     sc.obj
 0003:00014650       ?_type@Class_System_Runtime_CompilerServices_InlineAttribute@@2UClass_System_RuntimeType@@A 020be650     sc.obj
 0003:0001469c       ??_7Microsoft_Singularity_Directory_FileContract_Exp@@6B@ 020be69c     sc.obj
 0003:0001472c       ?_type@Class_Microsoft_Singularity_Directory_FileContract_Exp@@2UClass_System_RuntimeType@@A 020be72c     sc.obj
 0003:00014778       ??_7Microsoft_Singularity_Directory_DirectoryServiceContract_NakQueryACLReparse@@6B@ 020be778     sc.obj
 0003:000147e0       ?_type@Class_Microsoft_Singularity_Directory_DirectoryServiceContract_NakQueryACLReparse@@2UClass_System_RuntimeType@@A 020be7e0     sc.obj
 0003:00014848       ??_7System_Version@@6B@    020be848     sc.obj
 0003:000148cc       ?_type@Class_System_Version@@2UClass_System_RuntimeType@@A 020be8cc     sc.obj
 0003:00014918       ???_7vtable@ClassVector_uint64@@2PAUClass_System_VTable@@A 020be918     sc.obj
 0003:00014980       ?_type@ClassVector_uint64@@2UClass_System_RuntimeType@@A 020be980     sc.obj
 0003:000149cc       ???_7vtable@ClassVector_Class_System_VTable@@2PAUClass_System_VTable@@A 020be9cc     sc.obj
 0003:00014a34       ?_type@ClassVector_Class_System_VTable@@2UClass_System_RuntimeType@@A 020bea34     sc.obj
 0003:00014a80       ??_7System_Reflection_TypeAttributes@@6B@ 020bea80     sc.obj
 0003:00014af8       ?_type@Class_System_Reflection_TypeAttributes@@2UClass_System_RuntimeType@@A 020beaf8     sc.obj
 0003:00014b44       ??_7Microsoft_Singularity_Directory_DirectoryServiceContract_AckGetLinkValue@@6B@ 020beb44     sc.obj
 0003:00014bac       ?_type@Class_Microsoft_Singularity_Directory_DirectoryServiceContract_AckGetLinkValue@@2UClass_System_RuntimeType@@A 020bebac     sc.obj
 0003:00014bf8       ??_7Microsoft_Singularity_Directory_DirectoryServiceContract_NakStoreACL@@6B@ 020bebf8     sc.obj
 0003:00014c60       ?_type@Class_Microsoft_Singularity_Directory_DirectoryServiceContract_NakStoreACL@@2UClass_System_RuntimeType@@A 020bec60     sc.obj
 0003:00014cac       ??_7Microsoft_Singularity_Monitoring@@6B@ 020becac     sc.obj
 0003:00014d14       ?_type@Class_Microsoft_Singularity_Monitoring@@2UClass_System_RuntimeType@@A 020bed14     sc.obj
 0003:00014d60       ??_7System_MultiUseWord_STMHandle@@6B@ 020bed60     sc.obj
 0003:00014dc8       ?_type@Class_System_MultiUseWord_STMHandle@@2UClass_System_RuntimeType@@A 020bedc8     sc.obj
 0003:00014e14       ???_7vtable@ClassVector_float64@@2PAUClass_System_VTable@@A 020bee14     sc.obj
 0003:00014e7c       ?_type@ClassVector_float64@@2UClass_System_RuntimeType@@A 020bee7c     sc.obj
 0003:00014ec8       ??_7Microsoft_Singularity_V1_Services_ProcessService@@6B@ 020beec8     sc.obj
 0003:00014f30       ?_type@Class_Microsoft_Singularity_V1_Services_ProcessService@@2UClass_System_RuntimeType@@A 020bef30     sc.obj
 0003:00014f7c       ??_7Microsoft_Singularity_ServiceManager_ServiceError@@6B@ 020bef7c     sc.obj
 0003:00014ff4       ?_type@Class_Microsoft_Singularity_ServiceManager_ServiceError@@2UClass_System_RuntimeType@@A 020beff4     sc.obj
 0003:00015040       ??_7System_Boolean@@6B@    020bf040     sc.obj
 0003:000150b0       ?_type@Class_System_Boolean@@2UClass_System_RuntimeType@@A 020bf0b0     sc.obj
 0003:000150fc       ??_7System_GCs_MemoryAccounting@@6B@ 020bf0fc     sc.obj
 0003:00015164       ?_type@Class_System_GCs_MemoryAccounting@@2UClass_System_RuntimeType@@A 020bf164     sc.obj
 0003:000151b0       ??_7System_ReadEnlistmentLog_LogChunk@@6B@ 020bf1b0     sc.obj
 0003:00015218       ?_type@Class_System_ReadEnlistmentLog_LogChunk@@2UClass_System_RuntimeType@@A 020bf218     sc.obj
 0003:00015264       ??_7System_Threading_Monitor@@6B@ 020bf264     sc.obj
 0003:000152cc       ?_type@Class_System_Threading_Monitor@@2UClass_System_RuntimeType@@A 020bf2cc     sc.obj
 0003:00015318       ??_7Microsoft_Singularity_Io_IoPort@@6B@ 020bf318     sc.obj
 0003:00015380       ?_type@Class_Microsoft_Singularity_Io_IoPort@@2UClass_System_RuntimeType@@A 020bf380     sc.obj
 0003:000153cc       ??_7System_GCs_Verifier_GenericThreadReferenceVisitor@@6B@ 020bf3cc     sc.obj
 0003:00015444       ?_type@Class_System_GCs_Verifier_GenericThreadReferenceVisitor@@2UClass_System_RuntimeType@@A 020bf444     sc.obj
 0003:00015490       ??_7Microsoft_Singularity_Directory_DirectoryServiceContract_Notify@@6B@ 020bf490     sc.obj
 0003:000154f8       ?_type@Class_Microsoft_Singularity_Directory_DirectoryServiceContract_Notify@@2UClass_System_RuntimeType@@A 020bf4f8     sc.obj
 0003:00015544       ??_7Microsoft_Singularity_ServiceManager_ServiceManagerContract_StopWatchingServiceManager@@6B@ 020bf544     sc.obj
 0003:000155ac       ?_type@Class_Microsoft_Singularity_ServiceManager_ServiceManagerContract_StopWatchingServiceManager@@2UClass_System_RuntimeType@@A 020bf5ac     sc.obj
 0003:000155f8       ??_7Microsoft_Singularity_ServiceManager_ServiceManagerContract_EnumerateServices@@6B@ 020bf5f8     sc.obj
 0003:00015660       ?_type@Class_Microsoft_Singularity_ServiceManager_ServiceManagerContract_EnumerateServices@@2UClass_System_RuntimeType@@A 020bf660     sc.obj
 0003:000156ac       ??_7System_Number@@6B@     020bf6ac     sc.obj
 0003:00015714       ?_type@Class_System_Number@@2UClass_System_RuntimeType@@A 020bf714     sc.obj
 0003:00015760       ??_7Microsoft_Bartok_Runtime_PreHeader@@6B@ 020bf760     sc.obj
 0003:000157c8       ?_type@Class_Microsoft_Bartok_Runtime_PreHeader@@2UClass_System_RuntimeType@@A 020bf7c8     sc.obj
 0003:00015814       ??_7Microsoft_Singularity_Applications_ServiceManager_SMSClient@@6B@ 020bf814     sc.obj
 0003:0001587c       ?_type@Class_Microsoft_Singularity_Applications_ServiceManager_SMSClient@@2UClass_System_RuntimeType@@A 020bf87c     sc.obj
 0003:000158c8       ??_7Microsoft_Singularity_Directory_DirectoryServiceContract_NakCreateLink@@6B@ 020bf8c8     sc.obj
 0003:00015930       ?_type@Class_Microsoft_Singularity_Directory_DirectoryServiceContract_NakCreateLink@@2UClass_System_RuntimeType@@A 020bf930     sc.obj
 0003:0001597c       ??_7SurrogateMicrosoft_Singularity_Directory_DirectoryServiceContract_Imp@@6B@ 020bf97c     sc.obj
 0003:00015a0c       ?_type@Class_SurrogateMicrosoft_Singularity_Directory_DirectoryServiceContract_Imp@@2UClass_System_RuntimeType@@A 020bfa0c     sc.obj
 0003:00015a58       ??_7System_MultiUseWord_STMSnapshot@@6B@ 020bfa58     sc.obj
 0003:00015ac0       ?_type@Class_System_MultiUseWord_STMSnapshot@@2UClass_System_RuntimeType@@A 020bfac0     sc.obj
 0003:00015b0c       ??_7System_OutOfMemoryException@@6B@ 020bfb0c     sc.obj
 0003:00015b78       ?_type@Class_System_OutOfMemoryException@@2UClass_System_RuntimeType@@A 020bfb78     sc.obj
 0003:00015bc4       ??_7System_GCs_CallStack_TransitionRecord@@6B@ 020bfbc4     sc.obj
 0003:00015c2c       ?_type@Class_System_GCs_CallStack_TransitionRecord@@2UClass_System_RuntimeType@@A 020bfc2c     sc.obj
 0003:00015c78       ??_7Microsoft_Singularity_Tracing@@6B@ 020bfc78     sc.obj
 0003:00015ce0       ?_type@Class_Microsoft_Singularity_Tracing@@2UClass_System_RuntimeType@@A 020bfce0     sc.obj
 0003:00015d2c       ??_7Microsoft_Singularity_V1_Threads_ManualResetEventHandle@@6B@ 020bfd2c     sc.obj
 0003:00015d94       ?_type@Class_Microsoft_Singularity_V1_Threads_ManualResetEventHandle@@2UClass_System_RuntimeType@@A 020bfd94     sc.obj
 0003:00015de0       ??_7System_NullReferenceException@@6B@ 020bfde0     sc.obj
 0003:00015e4c       ?_type@Class_System_NullReferenceException@@2UClass_System_RuntimeType@@A 020bfe4c     sc.obj
 0003:00015e98       ??_7Microsoft_Singularity_Directory_DirectoryServiceContract_AckNotify@@6B@ 020bfe98     sc.obj
 0003:00015f00       ?_type@Class_Microsoft_Singularity_Directory_DirectoryServiceContract_AckNotify@@2UClass_System_RuntimeType@@A 020bff00     sc.obj
 0003:00015f4c       ??_7System_Threading_ManualResetEvent@@6B@ 020bff4c     sc.obj
 0003:00015fc8       ?_type@Class_System_Threading_ManualResetEvent@@2UClass_System_RuntimeType@@A 020bffc8     sc.obj
 0003:00016014       ??_7System_UpdateEnlistmentLog_Entry@@6B@ 020c0014     sc.obj
 0003:0001607c       ?_type@Class_System_UpdateEnlistmentLog_Entry@@2UClass_System_RuntimeType@@A 020c007c     sc.obj
 0003:000160c8       ??_7Microsoft_Singularity_Directory_ServiceProviderContract_AckConnect@@6B@ 020c00c8     sc.obj
 0003:00016130       ?_type@Class_Microsoft_Singularity_Directory_ServiceProviderContract_AckConnect@@2UClass_System_RuntimeType@@A 020c0130     sc.obj
 0003:0001617c       ??_7Microsoft_Singularity_ImpatientWatcher@@6B@ 020c017c     sc.obj
 0003:000161ec       DebugUtilsVersionInstance  020c01ec     sc.obj
 0003:000162c4       DebugUtilsassemblyNameInstance 020c02c4     sc.obj
 0003:000162dc       DebugUtilsAssemblyInstance 020c02dc     sc.obj
 0003:000162e8       DebugUtilsModuleInstance   020c02e8     sc.obj
 0003:000162f8       ?_type@Class_Microsoft_Singularity_ImpatientWatcher@@2UClass_System_RuntimeType@@A 020c02f8     sc.obj
 0003:00016344       ??_7Microsoft_Singularity_GCProfilerLogger_GCEventSource@@6B@ 020c0344     sc.obj
 0003:000163b0       ?_type@Class_Microsoft_Singularity_GCProfilerLogger_GCEventSource@@2UClass_System_RuntimeType@@A 020c03b0     sc.obj
 0003:000163fc       ??_7Microsoft_Singularity_Directory_DirectoryServiceContract_NakDeregister@@6B@ 020c03fc     sc.obj
 0003:00016464       ?_type@Class_Microsoft_Singularity_Directory_DirectoryServiceContract_NakDeregister@@2UClass_System_RuntimeType@@A 020c0464     sc.obj
 0003:000164b0       ??_7Microsoft_Singularity_Directory_DirectoryServiceContract_NakDeleteFileReparse@@6B@ 020c04b0     sc.obj
 0003:00016518       ?_type@Class_Microsoft_Singularity_Directory_DirectoryServiceContract_NakDeleteFileReparse@@2UClass_System_RuntimeType@@A 020c0518     sc.obj
 0003:00016564       ??_7System_RuntimeTypeHandle@@6B@ 020c0564     sc.obj
 0003:000165cc       ?_type@Class_System_RuntimeTypeHandle@@2UClass_System_RuntimeType@@A 020c05cc     sc.obj
 0003:00016618       ??_7Microsoft_Singularity_Applications_ServiceManager_TerminateServiceCommand@@6B@ 020c0618     sc.obj
 0003:00016680       ?_type@Class_Microsoft_Singularity_Applications_ServiceManager_TerminateServiceCommand@@2UClass_System_RuntimeType@@A 020c0680     sc.obj
 0003:000166cc       ??_7System_Collections_Hashtable_bucket@@6B@ 020c06cc     sc.obj
 0003:00016734       ?_type@Class_System_Collections_Hashtable_bucket@@2UClass_System_RuntimeType@@A 020c0734     sc.obj
 0003:00016780       ??_7System_ReadEnlistmentLogWriter@@6B@ 020c0780     sc.obj
 0003:000167e8       ?_type@Class_System_ReadEnlistmentLogWriter@@2UClass_System_RuntimeType@@A 020c07e8     sc.obj
 0003:00016834       ??_7System_GCs_FrameDescriptor@@6B@ 020c0834     sc.obj
 0003:0001689c       ?_type@Class_System_GCs_FrameDescriptor@@2UClass_System_RuntimeType@@A 020c089c     sc.obj
 0003:000168e8       ??_7Microsoft_Contracts_AssertException@@6B@ 020c08e8     sc.obj
 0003:00016954       ?_type@Class_Microsoft_Contracts_AssertException@@2UClass_System_RuntimeType@@A 020c0954     sc.obj
 0003:000169a0       ??_7System_DateTime@@6B@   020c09a0     sc.obj
 0003:00016a18       ?_type@Class_System_DateTime@@2UClass_System_RuntimeType@@A 020c0a18     sc.obj
 0003:00016a64       ???_7vtable@ClassVector_Struct_System_UpdateEnlistmentLog_Entry@@2PAUClass_System_VTable@@A 020c0a64     sc.obj
 0003:00016acc       ?_type@ClassVector_Struct_System_UpdateEnlistmentLog_Entry@@2UClass_System_RuntimeType@@A 020c0acc     sc.obj
 0003:00016b18       ??_7Microsoft_Singularity_ServiceManager_ServiceManagerContract_ServiceStarting@@6B@ 020c0b18     sc.obj
 0003:00016b80       ?_type@Class_Microsoft_Singularity_ServiceManager_ServiceManagerContract_ServiceStarting@@2UClass_System_RuntimeType@@A 020c0b80     sc.obj
 0003:00016bcc       ??_7Microsoft_Singularity_Directory_NotifyContract_AckChangeNotification@@6B@ 020c0bcc     sc.obj
 0003:00016c34       ?_type@Class_Microsoft_Singularity_Directory_NotifyContract_AckChangeNotification@@2UClass_System_RuntimeType@@A 020c0c34     sc.obj
 0003:00016c80       ??_7Microsoft_Singularity_Eventing_DataType@@6B@ 020c0c80     sc.obj
 0003:00016ce8       ?_type@Class_Microsoft_Singularity_Eventing_DataType@@2UClass_System_RuntimeType@@A 020c0ce8     sc.obj
 0003:00016d34       ??_7System_TryAllManager_GCHookMethod@@6B@ 020c0d34     sc.obj
 0003:00016da8       ?_type@Class_System_TryAllManager_GCHookMethod@@2UClass_System_RuntimeType@@A 020c0da8     sc.obj
 0003:00016df4       ??_7Microsoft_Singularity_Crypto_MD5@@6B@ 020c0df4     sc.obj
 0003:00016e5c       ?_type@Class_Microsoft_Singularity_Crypto_MD5@@2UClass_System_RuntimeType@@A 020c0e5c     sc.obj
 0003:00016ea8       ??_7System_RankException@@6B@ 020c0ea8     sc.obj
 0003:00016f14       ?_type@Class_System_RankException@@2UClass_System_RuntimeType@@A 020c0f14     sc.obj
 0003:00016f60       ??_7System_Runtime_CompilerServices_NoBarriersAttribute@@6B@ 020c0f60     sc.obj
 0003:00016fc8       ?_type@Class_System_Runtime_CompilerServices_NoBarriersAttribute@@2UClass_System_RuntimeType@@A 020c0fc8     sc.obj
 0003:00017014       ??_7System_IndexOutOfRangeException@@6B@ 020c1014     sc.obj
 0003:00017080       ?_type@Class_System_IndexOutOfRangeException@@2UClass_System_RuntimeType@@A 020c1080     sc.obj
 0003:000170cc       ??_7Microsoft_Singularity_V1_Services_SharedHeapService_Allocation@@6B@ 020c10cc     sc.obj
 0003:00017134       ?_type@Class_Microsoft_Singularity_V1_Services_SharedHeapService_Allocation@@2UClass_System_RuntimeType@@A 020c1134     sc.obj
 0003:00017180       ??_7Microsoft_Singularity_Eventing_LocalController@@6B@ 020c1180     sc.obj
 0003:000171f8       ?_type@Class_Microsoft_Singularity_Eventing_LocalController@@2UClass_System_RuntimeType@@A 020c11f8     sc.obj
 0003:00017244       ??_7System_GCs_GCProfiler_ObjectVisitor@@6B@ 020c1244     sc.obj
 0003:000172c0       ?_type@Class_System_GCs_GCProfiler_ObjectVisitor@@2UClass_System_RuntimeType@@A 020c12c0     sc.obj
 0003:0001730c       ??_7Microsoft_Singularity_ServiceManager_ServiceManagerContract_Ok@@6B@ 020c130c     sc.obj
 0003:00017374       ?_type@Class_Microsoft_Singularity_ServiceManager_ServiceManagerContract_Ok@@2UClass_System_RuntimeType@@A 020c1374     sc.obj
 0003:000173c0       ??_7System_Collections_ArrayList@@6B@ 020c13c0     sc.obj
 0003:00017428       ?_type@Class_System_Collections_ArrayList@@2UClass_System_RuntimeType@@A 020c1428     sc.obj
 0003:00017474       ??_7Microsoft_Singularity_Directory_DirectoryServiceContract_DeleteDirectory@@6B@ 020c1474     sc.obj
 0003:000174dc       ?_type@Class_Microsoft_Singularity_Directory_DirectoryServiceContract_DeleteDirectory@@2UClass_System_RuntimeType@@A 020c14dc     sc.obj
 0003:00017528       ??_7Microsoft_Singularity_Directory_DirectoryServiceContract_NakBindReparse@@6B@ 020c1528     sc.obj
 0003:00017590       ?_type@Class_Microsoft_Singularity_Directory_DirectoryServiceContract_NakBindReparse@@2UClass_System_RuntimeType@@A 020c1590     sc.obj
 0003:000175dc       ???_7vtable@ClassVector_Struct_System_InterfaceInfo@@2PAUClass_System_VTable@@A 020c15dc     sc.obj
 0003:00017644       ?_type@ClassVector_Struct_System_InterfaceInfo@@2UClass_System_RuntimeType@@A 020c1644     sc.obj
 0003:00017690       ??_7Microsoft_Singularity_Channels_TContainer$_1$LMicrosoft_Singularity_Io_ConsoleOutput$G@@6B@ 020c1690     sc.obj
 0003:000176f8       ?_type@Class_Microsoft_Singularity_Channels_TContainer$_1$LMicrosoft_Singularity_Io_ConsoleOutput$G@@2UClass_System_RuntimeType@@A 020c16f8     sc.obj
 0003:00017744       ??_7System_TryAll@@6B@     020c1744     sc.obj
 0003:000177ac       ?_type@Class_System_TryAll@@2UClass_System_RuntimeType@@A 020c17ac     sc.obj
 0003:000177f8       ??_7Microsoft_Singularity_ServiceManager_ServiceManagerContract_ServiceStatusChanged@@6B@ 020c17f8     sc.obj
 0003:00017860       ?_type@Class_Microsoft_Singularity_ServiceManager_ServiceManagerContract_ServiceStatusChanged@@2UClass_System_RuntimeType@@A 020c1860     sc.obj
 0003:000178ac       ??_7System_Reflection_Module@@6B@ 020c18ac     sc.obj
 0003:00017914       ?_type@Class_System_Reflection_Module@@2UClass_System_RuntimeType@@A 020c1914     sc.obj
 0003:00017960       ??_7System_GCs_OverflowFrameDescriptor@@6B@ 020c1960     sc.obj
 0003:000179c8       ?_type@Class_System_GCs_OverflowFrameDescriptor@@2UClass_System_RuntimeType@@A 020c19c8     sc.obj
 0003:00017a14       ??_7Microsoft_Singularity_V1_Threads_MutexHandle@@6B@ 020c1a14     sc.obj
 0003:00017a7c       ?_type@Class_Microsoft_Singularity_V1_Threads_MutexHandle@@2UClass_System_RuntimeType@@A 020c1a7c     sc.obj
 0003:00017ac8       ??_7Microsoft_Singularity_Isal_SpillContext@@6B@ 020c1ac8     sc.obj
 0003:00017b30       ?_type@Class_Microsoft_Singularity_Isal_SpillContext@@2UClass_System_RuntimeType@@A 020c1b30     sc.obj
 0003:00017b7c       ???_7vtable@ClassVector_Struct_System_UpdateLog_Entry@@2PAUClass_System_VTable@@A 020c1b7c     sc.obj
 0003:00017be4       ?_type@ClassVector_Struct_System_UpdateLog_Entry@@2UClass_System_RuntimeType@@A 020c1be4     sc.obj
 0003:00017c30       ??_7System_UpdateEnlistmentLog_Location@@6B@ 020c1c30     sc.obj
 0003:00017c98       ?_type@Class_System_UpdateEnlistmentLog_Location@@2UClass_System_RuntimeType@@A 020c1c98     sc.obj
 0003:00017ce4       ??_7SurrogateMicrosoft_Singularity_Io_UnicodePipeContract_Exp@@6B@ 020c1ce4     sc.obj
 0003:00017d74       ?_type@Class_SurrogateMicrosoft_Singularity_Io_UnicodePipeContract_Exp@@2UClass_System_RuntimeType@@A 020c1d74     sc.obj
 0003:00017dc0       ???_7vtable@Struct_System_GCs_SegregatedFreeList_PageHeader@@2PAUClass_System_VTable@@A 020c1dc0     sc.obj
 0003:00017e18       ?_type@Struct_System_GCs_SegregatedFreeList_PageHeader@@2UClass_System_RuntimeType@@A 020c1e18     sc.obj
 0003:00017e64       ???_7vtable@Struct_Microsoft_Singularity_Directory_ServiceContract_Exp@@2PAUClass_System_VTable@@A 020c1e64     sc.obj
 0003:00017ebc       ?_type@Struct_Microsoft_Singularity_Directory_ServiceContract_Exp@@2UClass_System_RuntimeType@@A 020c1ebc     sc.obj
 0003:00017f08       ?c_MonitorEMUAllocCount@Struct_System_MultiUseWord@@2HA 020c1f08     sc.obj
 0003:00017f0c       ?c_InflationToCount@Struct_System_MultiUseWord@@2PAUClassVector_int32@@A 020c1f0c     sc.obj
 0003:00017f10       ?c_FullEMUAllocCount@Struct_System_MultiUseWord@@2HA 020c1f10     sc.obj
 0003:00017f14       ?c_emuGCListAllTail@Struct_System_MultiUseWord@@2IA 020c1f14     sc.obj
 0003:00017f18       ?c_InflationFromCount@Struct_System_MultiUseWord@@2PAUClassVector_int32@@A 020c1f18     sc.obj
 0003:00017f1c       ?c_emuGCList@Struct_System_MultiUseWord@@2IA 020c1f1c     sc.obj
 0003:00017f20       ?c_ReInflationCount@Struct_System_MultiUseWord@@2HA 020c1f20     sc.obj
 0003:00017f24       ?c_DeadEMUsCount@Struct_System_MultiUseWord@@2HA 020c1f24     sc.obj
 0003:00017f28       ?c_AbandonedEMUsCount@Struct_System_MultiUseWord@@2HA 020c1f28     sc.obj
 0003:00017f2c       ?c_emuGCListShadow@Struct_System_MultiUseWord@@2IA 020c1f2c     sc.obj
 0003:00017f30       ?c_emuGCListAll@Struct_System_MultiUseWord@@2IA 020c1f30     sc.obj
 0003:00017f34       ?c_perMilleSymbol@Class_System_Globalization_NumberFormatInfo@@2PAUClass_System_String@@A 020c1f34     sc.obj
 0003:00017f38       ?c_Infinite@Struct_System_TimeSpan@@2?AU1@A 020c1f38     sc.obj
 0003:00017f40       ?c_MinSeconds@Struct_System_TimeSpan@@2_JA 020c1f40     sc.obj
 0003:00017f40       ?c_TicksPerMinute@Struct_System_TimeSpan@@2_JA 020c1f40     sc.obj
 0003:00017f40       ?c_MaxSeconds@Struct_System_TimeSpan@@2_JA 020c1f40     sc.obj
 0003:00017f40       ?c_MillisPerMinute@Struct_System_TimeSpan@@2HA 020c1f40     sc.obj
 0003:00017f40       ?c_MinValue@Struct_System_TimeSpan@@2?AU1@A 020c1f40     sc.obj
 0003:00017f40       ?c_TicksPerHour@Struct_System_TimeSpan@@2_JA 020c1f40     sc.obj
 0003:00017f40       ?c_MillisPerSecond@Struct_System_TimeSpan@@2HA 020c1f40     sc.obj
 0003:00017f40       ?c_TicksPerDay@Struct_System_TimeSpan@@2_JA 020c1f40     sc.obj
 0003:00017f48       ?c_MaxValue@Struct_System_TimeSpan@@2?AU1@A 020c1f48     sc.obj
 0003:00017f48       ?c_TicksPerSecond@Struct_System_TimeSpan@@2_JA 020c1f48     sc.obj
 0003:00017f48       ?c_MillisPerHour@Struct_System_TimeSpan@@2HA 020c1f48     sc.obj
 0003:00017f50       ?c_Zero@Struct_System_TimeSpan@@2?AU1@A 020c1f50     sc.obj
 0003:00017f58       ?c_MaxMilliSeconds@Struct_System_TimeSpan@@2_JA 020c1f58     sc.obj
 0003:00017f58       ?c_TicksPerMillisecond@Struct_System_TimeSpan@@2_JA 020c1f58     sc.obj
 0003:00017f58       ?c_CriticalSection@Class_System_Delegate@@2PAUClass_System_Threading_Mutex@@A 020c1f58     sc.obj
 0003:00017f58       ?c_MillisPerDay@Struct_System_TimeSpan@@2HA 020c1f58     sc.obj
 0003:00017f58       ?c_MinMilliSeconds@Struct_System_TimeSpan@@2_JA 020c1f58     sc.obj
 0003:00017f5c       ?c_FreeListStartIdx@Class_System_Delegate@@2HA 020c1f5c     sc.obj
 0003:00017f60       ?c_NativeDelegateTable@Class_System_Delegate@@2PAUClassVector_ClassVector_Struct_System_Delegate_NativeDelegateRecord@@A 020c1f60     sc.obj
 0003:00017f64       ?c_FreeExtentStartIdx@Class_System_Delegate@@2HA 020c1f64     sc.obj
 0003:00017f68       ?c_allocationGranularity@Class_System_GCs_MemoryManager@@2IA 020c1f68     sc.obj
 0003:00017f6c       ?c_operatingSystemSize@Class_System_GCs_MemoryManager@@2IA 020c1f6c     sc.obj
 0003:00017f70       ?c_totalMemorySize@Class_System_GCs_MemoryManager@@2IA 020c1f70     sc.obj
 0003:00017f74       ?c_consoleContainer@Class_Microsoft_Singularity_Io_ConsoleOutput@@2PAUClass_Microsoft_Singularity_Channels_TContainer$_1$LMicrosoft_Singularity_Io_ConsoleOutput$G@@A 020c1f74     sc.obj
 0003:00017f78       ?c_SR$$0@Class_Microsoft_Singularity_Io_ConsoleOutput@@2PAUClassVector_ClassVector_int32@@A 020c1f78     sc.obj
 0003:00017f7c       ?c_appName@Class_Microsoft_Singularity_AppRuntime@@2PAUClass_System_String@@A 020c1f7c     sc.obj
 0003:00017f80       ?c_AC@Struct_Microsoft_Singularity_Isal_IX_EFlags@@2IA 020c1f80     sc.obj
 0003:00017f80       ?c_ZF@Struct_Microsoft_Singularity_Isal_IX_EFlags@@2IA 020c1f80     sc.obj
 0003:00017f80       ?c_VM@Struct_Microsoft_Singularity_Isal_IX_EFlags@@2IA 020c1f80     sc.obj
 0003:00017f80       ?c_PF@Struct_Microsoft_Singularity_Isal_IX_EFlags@@2IA 020c1f80     sc.obj
 0003:00017f80       ?c_VIP@Struct_Microsoft_Singularity_Isal_IX_EFlags@@2IA 020c1f80     sc.obj
 0003:00017f80       ?c_SF@Struct_Microsoft_Singularity_Isal_IX_EFlags@@2IA 020c1f80     sc.obj
 0003:00017f80       ?c_VF@Struct_Microsoft_Singularity_Isal_IX_EFlags@@2IA 020c1f80     sc.obj
 0003:00017f80       ?c_DF@Struct_Microsoft_Singularity_Isal_IX_EFlags@@2IA 020c1f80     sc.obj
 0003:00017f80       ?c_IOPL@Struct_Microsoft_Singularity_Isal_IX_EFlags@@2IA 020c1f80     sc.obj
 0003:00017f80       ?c_AF@Struct_Microsoft_Singularity_Isal_IX_EFlags@@2IA 020c1f80     sc.obj
 0003:00017f80       ?c_ID@Struct_Microsoft_Singularity_Isal_IX_EFlags@@2IA 020c1f80     sc.obj
 0003:00017f80       ?c_NT@Struct_Microsoft_Singularity_Isal_IX_EFlags@@2IA 020c1f80     sc.obj
 0003:00017f80       ?c_RF@Struct_Microsoft_Singularity_Isal_IX_EFlags@@2IA 020c1f80     sc.obj
 0003:00017f80       ?c_IF@Struct_Microsoft_Singularity_Isal_IX_EFlags@@2IA 020c1f80     sc.obj
 0003:00017f80       ?c_CF@Struct_Microsoft_Singularity_Isal_IX_EFlags@@2IA 020c1f80     sc.obj
 0003:00017f80       ?c_VIF@Struct_Microsoft_Singularity_Isal_IX_EFlags@@2IA 020c1f80     sc.obj
 0003:00017f80       ?c_baseAddr@Class_System_GCs_PageTable@@2IA 020c1f80     sc.obj
 0003:00017f80       ?c_TF@Struct_Microsoft_Singularity_Isal_IX_EFlags@@2IA 020c1f80     sc.obj
 0003:00017f80       ?c_OF@Struct_Microsoft_Singularity_Isal_IX_EFlags@@2IA 020c1f80     sc.obj
 0003:00017f84       ?c_limitAddr@Class_System_GCs_PageTable@@2IA 020c1f84     sc.obj
 0003:00017f88       ?c_halPageDescriptor@Class_System_GCs_PageTable@@2PAIA 020c1f88     sc.obj
 0003:00017f8c       ?c_processTag@Class_System_GCs_PageTable@@2IA 020c1f8c     sc.obj
 0003:00017f90       ?c_pageTableCount@Class_System_GCs_PageTable@@2IA 020c1f90     sc.obj
 0003:00017f98       ?c_SR$$0@Class_Microsoft_Singularity_Io_PipeLookAhead@@2PAUClassVector_ClassVector_int32@@A 020c1f98     sc.obj
 0003:00017f98       ?c_MantissaAsUInt32@float32@@2_KA 020c1f98     sc.obj
 0003:00017f98       ?c_NaN@float32@@2MA        020c1f98     sc.obj
 0003:00017f98       ?c_MaxValue@float32@@2MA   020c1f98     sc.obj
 0003:00017f98       ?c_Epsilon@float32@@2MA    020c1f98     sc.obj
 0003:00017f98       ?c_MinValue@float32@@2MA   020c1f98     sc.obj
 0003:00017f98       ?c_NegativeInfinityAsUInt32@float32@@2_KA 020c1f98     sc.obj
 0003:00017f98       ?c_NegativeInfinity@float32@@2MA 020c1f98     sc.obj
 0003:00017f98       ?c_PositiveInfinityAsUInt32@float32@@2_KA 020c1f98     sc.obj
 0003:00017f98       ?c_ExponentAsUInt32@float32@@2_KA 020c1f98     sc.obj
 0003:00017f98       ?c_PositiveInfinity@float32@@2MA 020c1f98     sc.obj
 0003:00017f9c       ?c_SR$$1@Class_Microsoft_Singularity_Io_PipeLookAhead@@2PAUClassVector_ClassVector_int32@@A 020c1f9c     sc.obj
 0003:00017fa0       ?c_globalPages@Struct_System_GCs_SegregatedFreeList@@2PAUClassVector_uintPtr@@A 020c1fa0     sc.obj
 0003:00017fa4       ?c_futureGlobalFreePages@Struct_System_GCs_SegregatedFreeList@@2PAUClassVector_Struct_System_GCs_SegregatedFreeList_PageHeader@@A 020c1fa4     sc.obj
 0003:00017fa8       ?c_SmallFreedPages@Struct_System_GCs_SegregatedFreeList@@2IA 020c1fa8     sc.obj
 0003:00017fac       ?c_nullPartialFreePageVisitor@Struct_System_GCs_SegregatedFreeList@@2PAUClass_System_GCs_SegregatedFreeList_NullPartialFreePageVisitor@@A 020c1fac     sc.obj
 0003:00017fb0       ?c_globalFreePages@Struct_System_GCs_SegregatedFreeList@@2PAUClassVector_uintPtr@@A 020c1fb0     sc.obj
 0003:00017fb4       ?c_SmallBytes@Struct_System_GCs_SegregatedFreeList@@2IA 020c1fb4     sc.obj
 0003:00017fb8       ?c_largeOffset@Struct_System_GCs_SegregatedFreeList@@2HA 020c1fb8     sc.obj
 0003:00017fbc       ?c_SmallPages@Struct_System_GCs_SegregatedFreeList@@2IA 020c1fbc     sc.obj
 0003:00017fc0       ?c_LargePages@Struct_System_GCs_SegregatedFreeList@@2IA 020c1fc0     sc.obj
 0003:00017fc4       ?c_LargeFreedPages@Struct_System_GCs_SegregatedFreeList@@2IA 020c1fc4     sc.obj
 0003:00017fc8       ?c_SmallFreedBytes@Struct_System_GCs_SegregatedFreeList@@2IA 020c1fc8     sc.obj
 0003:00017fcc       ?c_threadIndexGenerator@Class_System_Threading_Thread@@2HA 020c1fcc     sc.obj
 0003:00017fd0       ?c_initialThread@Class_System_Threading_Thread@@2PAU1@A 020c1fd0     sc.obj
 0003:00017fd8       ?c_totalArrayBytesAllocated@Class_System_Threading_Thread@@2_JA 020c1fd8     sc.obj
 0003:00017fe0       ?c_threadCount@Class_System_Threading_Thread@@2HA 020c1fe0     sc.obj
 0003:00017fe4       ?c_closing@Class_System_Threading_Thread@@2_NA 020c1fe4     sc.obj
 0003:00017fe8       ?c_threadTableLock@Class_System_Threading_Thread@@2?AUStruct_System_Threading_SpinLock@@A 020c1fe8     sc.obj
 0003:00017ff0       ?c_maxThreads@Class_System_Threading_Thread@@2HA 020c1ff0     sc.obj
 0003:00017ff0       ?c_m$_LocalDataStoreMgr@Class_System_Threading_Thread@@2PAUClass_System_LocalDataStoreMgr@@A 020c1ff0     sc.obj
 0003:00017ff4       ?c_localDataStore@Class_System_Threading_Thread@@2PAUClass_System_LocalDataStore@@A 020c1ff4     sc.obj
 0003:00017ff8       ?c_totalArrayAllocations@Class_System_Threading_Thread@@2_JA 020c1ff8     sc.obj
 0003:00018000       ?c_totalStructBytesAllocated@Class_System_Threading_Thread@@2_JA 020c2000     sc.obj
 0003:00018008       ?c_notificationTable@Class_System_Threading_Thread@@2PAUClassVector_Class_System_Object@@A 020c2008     sc.obj
 0003:0001800c       ?c_notificationTableObject@Class_System_Threading_Thread@@2PAUClass_System_Object@@A 020c200c     sc.obj
 0003:00018010       ?c_threadTable@Class_System_Threading_Thread@@2PAUClassVector_Class_System_Threading_Thread@@A 020c2010     sc.obj
 0003:00018018       ?c_totalBytes@Class_System_Threading_Thread@@2_JA 020c2018     sc.obj
 0003:00018020       ?c_sMonDecimalSep@Class_System_Globalization_CultureInfo@@2PAUClass_System_String@@A 020c2020     sc.obj
 0003:00018024       ?c_nMonGrouping@Class_System_Globalization_CultureInfo@@2PAUClassVector_int32@@A 020c2024     sc.obj
 0003:00018028       ?c_sTimeFormat@Class_System_Globalization_CultureInfo@@2PAUClassVector_Class_System_String@@A 020c2028     sc.obj
 0003:0001802c       ?c_sDateWords@Class_System_Globalization_CultureInfo@@2PAUClassVector_Class_System_String@@A 020c202c     sc.obj
 0003:00018030       ?c_sEngDisplayName@Class_System_Globalization_CultureInfo@@2PAUClass_System_String@@A 020c2030     sc.obj
 0003:00018034       ?c_s1159@Class_System_Globalization_CultureInfo@@2PAUClass_System_String@@A 020c2034     sc.obj
 0003:00018038       ?c_sNegInfinity@Class_System_Globalization_CultureInfo@@2PAUClass_System_String@@A 020c2038     sc.obj
 0003:0001803c       ?c_sAbbrevDayName@Class_System_Globalization_CultureInfo@@2PAUClassVector_Class_System_String@@A 020c203c     sc.obj
 0003:00018040       ?c_sMonthNames@Class_System_Globalization_CultureInfo@@2PAUClassVector_Class_System_String@@A 020c2040     sc.obj
 0003:00018044       ?c_sAbbrevLangName@Class_System_Globalization_CultureInfo@@2PAUClass_System_String@@A 020c2044     sc.obj
 0003:00018048       ?c_sMonthDay@Class_System_Globalization_CultureInfo@@2PAUClass_System_String@@A 020c2048     sc.obj
 0003:0001804c       ?c_sIso639LangName2@Class_System_Globalization_CultureInfo@@2PAUClass_System_String@@A 020c204c     sc.obj
 0003:00018050       ?c_sNativeDisplayName@Class_System_Globalization_CultureInfo@@2PAUClass_System_String@@A 020c2050     sc.obj
 0003:00018054       ?c_iDigits@Class_System_Globalization_CultureInfo@@2GA 020c2054     sc.obj
 0003:00018058       ?c_sPercent@Class_System_Globalization_CultureInfo@@2PAUClass_System_String@@A 020c2058     sc.obj
 0003:0001805c       ?c_nGrouping@Class_System_Globalization_CultureInfo@@2PAUClassVector_int32@@A 020c205c     sc.obj
 0003:00018060       ?c_sDate@Class_System_Globalization_CultureInfo@@2PAUClass_System_String@@A 020c2060     sc.obj
 0003:00018064       ?c_sName@Class_System_Globalization_CultureInfo@@2PAUClass_System_String@@A 020c2064     sc.obj
 0003:00018068       ?c_sIso639LangName@Class_System_Globalization_CultureInfo@@2PAUClass_System_String@@A 020c2068     sc.obj
 0003:0001806c       ?c_iNegNumber@Class_System_Globalization_CultureInfo@@2GA 020c206c     sc.obj
 0003:00018070       ?c_sNegativeSign@Class_System_Globalization_CultureInfo@@2PAUClass_System_String@@A 020c2070     sc.obj
 0003:00018074       ?c_sList@Class_System_Globalization_CultureInfo@@2PAUClass_System_String@@A 020c2074     sc.obj
 0003:00018078       ?c_s2359@Class_System_Globalization_CultureInfo@@2PAUClass_System_String@@A 020c2078     sc.obj
 0003:0001807c       ?c_sMonThousandSep@Class_System_Globalization_CultureInfo@@2PAUClass_System_String@@A 020c207c     sc.obj
 0003:00018080       ?c_sDayNames@Class_System_Globalization_CultureInfo@@2PAUClassVector_Class_System_String@@A 020c2080     sc.obj
 0003:00018084       ?c_sPosInfinity@Class_System_Globalization_CultureInfo@@2PAUClass_System_String@@A 020c2084     sc.obj
 0003:00018088       ?c_sYearMonth@Class_System_Globalization_CultureInfo@@2PAUClass_System_String@@A 020c2088     sc.obj
 0003:0001808c       ?c_iCalendarType@Class_System_Globalization_CultureInfo@@2GA 020c208c     sc.obj
 0003:00018090       ?c_sNan@Class_System_Globalization_CultureInfo@@2PAUClass_System_String@@A 020c2090     sc.obj
 0003:00018094       ?c_iNegativePercent@Class_System_Globalization_CultureInfo@@2GA 020c2094     sc.obj
 0003:00018098       ?c_currentCulture@Class_System_Globalization_CultureInfo@@2PAU1@A 020c2098     sc.obj
 0003:0001809c       ?c_sShortTime@Class_System_Globalization_CultureInfo@@2PAUClassVector_Class_System_String@@A 020c209c     sc.obj
 0003:000180a0       ?c_sADEra@Class_System_Globalization_CultureInfo@@2PAUClass_System_String@@A 020c20a0     sc.obj
 0003:000180a4       ?c_sThousand@Class_System_Globalization_CultureInfo@@2PAUClass_System_String@@A 020c20a4     sc.obj
 0003:000180a8       ?c_sMonthGenitiveName@Class_System_Globalization_CultureInfo@@2PAUClassVector_Class_System_String@@A 020c20a8     sc.obj
 0003:000180ac       ?c_sTime@Class_System_Globalization_CultureInfo@@2PAUClass_System_String@@A 020c20ac     sc.obj
 0003:000180b0       ?c_sLongDate@Class_System_Globalization_CultureInfo@@2PAUClassVector_Class_System_String@@A 020c20b0     sc.obj
 0003:000180b4       ?c_sPositiveSign@Class_System_Globalization_CultureInfo@@2PAUClass_System_String@@A 020c20b4     sc.obj
 0003:000180b8       ?c_sAbbrevMonthNames@Class_System_Globalization_CultureInfo@@2PAUClassVector_Class_System_String@@A 020c20b8     sc.obj
 0003:000180bc       ?c_sAbbrevMonthGenitiveName@Class_System_Globalization_CultureInfo@@2PAUClassVector_Class_System_String@@A 020c20bc     sc.obj
 0003:000180c0       ?c_iFirstWeekOfYear@Class_System_Globalization_CultureInfo@@2GA 020c20c0     sc.obj
 0003:000180c2       ?c_iLanguage@Class_System_Globalization_CultureInfo@@2GA 020c20c2     sc.obj
 0003:000180c4       ?c_NativeLangId@Class_System_Globalization_CultureInfo@@2GA 020c20c4     sc.obj
 0003:000180c6       ?c_iFirstDayOfWeek@Class_System_Globalization_CultureInfo@@2GA 020c20c6     sc.obj
 0003:000180c8       ?c_sAbbevADEra@Class_System_Globalization_CultureInfo@@2PAUClass_System_String@@A 020c20c8     sc.obj
 0003:000180cc       ?c_sShortDate@Class_System_Globalization_CultureInfo@@2PAUClassVector_Class_System_String@@A 020c20cc     sc.obj
 0003:000180d0       ?c_iPositivePercent@Class_System_Globalization_CultureInfo@@2GA 020c20d0     sc.obj
 0003:000180d4       ?c_sDecimal@Class_System_Globalization_CultureInfo@@2PAUClass_System_String@@A 020c20d4     sc.obj
 0003:000180d8       ?c_ENLISTMENT$_LOG$_CHUNK$_SIZE@Class_System_TryAllManager@@2HA 020c20d8     sc.obj
 0003:000180dc       ?c_REMOVE$_READ$_DUPLICATES$_AT$_GC@Class_System_TryAllManager@@2_NA 020c20dc     sc.obj
 0003:000180e0       ?c_staticDummyLogged@Class_System_TryAllManager@@2IA 020c20e0     sc.obj
 0003:000180e4       ?c_fixup@Class_System_TryAllManager@@2HA 020c20e4     sc.obj
 0003:000180e8       ?c_objForStaticEnlists@Class_System_TryAllManager@@2PAUClass_System_Object@@A 020c20e8     sc.obj
 0003:000180ec       ?c_HASHING@Class_System_TryAllManager@@2_NA 020c20ec     sc.obj
 0003:000180ed       ?c_ENABLE$_PROFILING@Class_System_TryAllManager@@2_NA 020c20ed     sc.obj
 0003:000180f0       ?c_HASH$_MASK@Class_System_TryAllManager@@2HA 020c20f0     sc.obj
 0003:000180f4       ?c_UPDATE$_LOG$_CHUNK$_SIZE@Class_System_TryAllManager@@2HA 020c20f4     sc.obj
 0003:000180f8       ?c_TRACK$_TRANSACTION$_LOCALS@Class_System_TryAllManager@@2_NA 020c20f8     sc.obj
 0003:000180f9       ?c_REMOVE$_READ$_AFTER$_UPDATE$_AT$_GC@Class_System_TryAllManager@@2_NA 020c20f9     sc.obj
 0003:000180fc       ?c_postGCHookDelegate@Class_System_TryAllManager@@2PAUClass_System_TryAllManager_GCHookMethod@@A 020c20fc     sc.obj
 0003:00018100       ?c_DISABLE$_BEFORE$_WRITING$_LOG@Class_System_TryAllManager@@2_NA 020c2100     sc.obj
 0003:00018101       ?c_DISABLE$_BEFORE$_FILTERING@Class_System_TryAllManager@@2_NA 020c2101     sc.obj
 0003:00018102       ?c_DISABLE$_ON$_METHOD$_ENTRY@Class_System_TryAllManager@@2_NA 020c2102     sc.obj
 0003:00018103       ?c_DISABLE$_HOUSEKEEPING@Class_System_TryAllManager@@2_NA 020c2103     sc.obj
 0003:00018104       ?c_EXTERNAL$_BITMAP@Class_System_TryAllManager@@2_NA 020c2104     sc.obj
 0003:00018108       ?c_preGCHookDelegate@Class_System_TryAllManager@@2PAUClass_System_TryAllManager_GCHookMethod@@A 020c2108     sc.obj
 0003:0001810c       ?c_visitStrongRefsDelegate@Class_System_TryAllManager@@2PAUClass_System_TryAllManager_VisitMethod@@A 020c210c     sc.obj
 0003:00018110       ?c_visitWeakRefsDelegate@Class_System_TryAllManager@@2PAUClass_System_TryAllManager_VisitMethod@@A 020c2110     sc.obj
 0003:00018114       ?c_REMOVE$_READ$_AFTER$_UPDATE$_AT$_ENLISTMENT@Class_System_TryAllManager@@2_NA 020c2114     sc.obj
 0003:00018118       ?c_batchesAvailable@Class_System_TryAllManager@@2HA 020c2118     sc.obj
 0003:0001811c       ?c_DISABLE$_AFTER$_FILTERING@Class_System_TryAllManager@@2_NA 020c211c     sc.obj
 0003:0001811d       ?c_HASHING$_FOR$_READS@Class_System_TryAllManager@@2_NA 020c211d     sc.obj
 0003:00018120       ?c_daplock@Class_System_TryAllManager@@2HA 020c2120     sc.obj
 0003:00018124       ?c_BITMAP@Class_System_TryAllManager@@2_NA 020c2124     sc.obj
 0003:00018128       ?c_SR$$5@Class_Microsoft_Singularity_Applications_ServiceManager_DeleteServiceCommand@@2PAUClassVector_ClassVector_int32@@A 020c2128     sc.obj
 0003:00018128       ?c_ContentsSpilled@Struct_Microsoft_Singularity_Isal_SpillContext@@2HA 020c2128     sc.obj
 0003:0001812c       ?c_CAPTURE$_DEBUG$_PRINT@Class_Microsoft_Singularity_Eventing_EventSource@@2IA 020c212c     sc.obj
 0003:0001812c       ?c_CAPTURE$_STACK$_TRACE@Class_Microsoft_Singularity_Eventing_EventSource@@2IA 020c212c     sc.obj
 0003:0001812c       ?c_ENABLE$_ALL$_MASK@Class_Microsoft_Singularity_Eventing_EventSource@@2IA 020c212c     sc.obj
 0003:0001812c       ?c_gcTotalCount@Class_System_GCs_BaseCollector@@2HA 020c212c     sc.obj
 0003:00018130       ?c_maxPauseTime@Class_System_GCs_BaseCollector@@2_JA 020c2130     sc.obj
 0003:00018138       ?c_pauseCount@Class_System_GCs_BaseCollector@@2_JA 020c2138     sc.obj
 0003:00018140       ?c_gcTotalBytes@Class_System_GCs_BaseCollector@@2_JA 020c2140     sc.obj
 0003:00018148       ?c_HeapDamaged@Class_System_GCs_BaseCollector@@2_NA 020c2148     sc.obj
 0003:0001814c       ?c_newBytesSinceGC@Class_System_GCs_BaseCollector@@2IA 020c214c     sc.obj
 0003:00018150       ?c_gcTotalTime@Class_System_GCs_BaseCollector@@2_JA 020c2150     sc.obj
 0003:00018158       ?c_ProfileRoots@Class_System_GCs_BaseCollector@@2PAUClass_System_GCs_ProfileRootsDelegate@@A 020c2158     sc.obj
 0003:0001815c       ?c_ProfileObjects@Class_System_GCs_BaseCollector@@2PAUClass_System_GCs_ProfileObjectsDelegate@@A 020c215c     sc.obj
 0003:00018160       ?c_GcProfiler@Class_System_GCs_BaseCollector@@2PAUClass_System_GCs_GCProfiler@@A 020c2160     sc.obj
 0003:00018164       ?c_primes@Class_System_Collections_Hashtable@@2PAUClassVector_int32@@A 020c2164     sc.obj
 0003:0001828c       ?c_$_nullMessage@Class_System_ArgumentNullException@@2PAUClass_System_String@@A 020c228c     sc.obj
 0003:00018290       ?c_UnlinkStackBegin@Class_System_GCs_CallStack@@2IA 020c2290     sc.obj
 0003:00018290       ?c_MinValue@int32@@2HA     020c2290     sc.obj
 0003:00018290       ?c_MaxValue@int32@@2HA     020c2290     sc.obj
 0003:00018294       ?c_LinkStackBegin@Class_System_GCs_CallStack@@2IA 020c2294     sc.obj
 0003:00018298       ?c_threadBeingProcessed@Class_System_GCs_CallStack@@2PAUClass_System_Threading_Thread@@A 020c2298     sc.obj
 0003:0001829c       ?c_LinkStackStubsLimit@Class_System_GCs_CallStack@@2IA 020c229c     sc.obj
 0003:000182a0       ?c_LinkStackLimit@Class_System_GCs_CallStack@@2IA 020c22a0     sc.obj
 0003:000182a4       ?c_LinkStackFunctionsBegin@Class_System_GCs_CallStack@@2IA 020c22a4     sc.obj
 0003:000182a8       ?c_LinkStackFunctionsLimit@Class_System_GCs_CallStack@@2IA 020c22a8     sc.obj
 0003:000182ac       ?c_LinkStackStubsBegin@Class_System_GCs_CallStack@@2IA 020c22ac     sc.obj
 0003:000182b0       ?c_UnlinkStackLimit@Class_System_GCs_CallStack@@2IA 020c22b0     sc.obj
 0003:000182b4       ?c_IS64BIT@Struct_Microsoft_Singularity_Isal_IX_Gdte@@2IA 020c22b4     sc.obj
 0003:000182b4       ?c_LocalControllerObject@Class_Microsoft_Singularity_Eventing_Controller@@2PAUClass_Microsoft_Singularity_Eventing_LocalController@@A 020c22b4     sc.obj
 0003:000182b4       ?c_RING2@Struct_Microsoft_Singularity_Isal_IX_Gdte@@2IA 020c22b4     sc.obj
 0003:000182b4       ?c_Tss32Free@Struct_Microsoft_Singularity_Isal_IX_Gdte@@2IA 020c22b4     sc.obj
 0003:000182b4       ?c_Reserved8@Struct_Microsoft_Singularity_Isal_IX_Gdte@@2IA 020c22b4     sc.obj
 0003:000182b4       ?c_PAGES@Struct_Microsoft_Singularity_Isal_IX_Gdte@@2IA 020c22b4     sc.obj
 0003:000182b4       ?c_Reserved13@Struct_Microsoft_Singularity_Isal_IX_Gdte@@2IA 020c22b4     sc.obj
 0003:000182b4       ?c_WRITEABLE@Struct_Microsoft_Singularity_Isal_IX_Gdte@@2IA 020c22b4     sc.obj
 0003:000182b4       ?c_IS32BIT@Struct_Microsoft_Singularity_Isal_IX_Gdte@@2IA 020c22b4     sc.obj
 0003:000182b4       ?c_RING0@Struct_Microsoft_Singularity_Isal_IX_Gdte@@2IA 020c22b4     sc.obj
 0003:000182b4       ?c_Tss32Busy@Struct_Microsoft_Singularity_Isal_IX_Gdte@@2IA 020c22b4     sc.obj
 0003:000182b4       ?c_USER@Struct_Microsoft_Singularity_Isal_IX_Gdte@@2IA 020c22b4     sc.obj
 0003:000182b4       ?c_PRESENT@Struct_Microsoft_Singularity_Isal_IX_Gdte@@2IA 020c22b4     sc.obj
 0003:000182b4       ?c_IntGate32@Struct_Microsoft_Singularity_Isal_IX_Gdte@@2IA 020c22b4     sc.obj
 0003:000182b4       ?c_TrapGate32@Struct_Microsoft_Singularity_Isal_IX_Gdte@@2IA 020c22b4     sc.obj
 0003:000182b4       ?c_TaskGate@Struct_Microsoft_Singularity_Isal_IX_Gdte@@2IA 020c22b4     sc.obj
 0003:000182b4       ?c_CallGate16@Struct_Microsoft_Singularity_Isal_IX_Gdte@@2IA 020c22b4     sc.obj
 0003:000182b4       ?c_READABLE@Struct_Microsoft_Singularity_Isal_IX_Gdte@@2IA 020c22b4     sc.obj
 0003:000182b4       ?c_IntGate16@Struct_Microsoft_Singularity_Isal_IX_Gdte@@2IA 020c22b4     sc.obj
 0003:000182b4       ?c_Ldt@Struct_Microsoft_Singularity_Isal_IX_Gdte@@2IA 020c22b4     sc.obj
 0003:000182b4       ?c_RING1@Struct_Microsoft_Singularity_Isal_IX_Gdte@@2IA 020c22b4     sc.obj
 0003:000182b4       ?c_ACCESSED@Struct_Microsoft_Singularity_Isal_IX_Gdte@@2IA 020c22b4     sc.obj
 0003:000182b4       ?c_CallGate32@Struct_Microsoft_Singularity_Isal_IX_Gdte@@2IA 020c22b4     sc.obj
 0003:000182b4       ?c_Reserved10@Struct_Microsoft_Singularity_Isal_IX_Gdte@@2IA 020c22b4     sc.obj
 0003:000182b4       ?c_CODE@Struct_Microsoft_Singularity_Isal_IX_Gdte@@2IA 020c22b4     sc.obj
 0003:000182b4       ?c_LIMIT20@Struct_Microsoft_Singularity_Isal_IX_Gdte@@2IA 020c22b4     sc.obj
 0003:000182b4       ?c_CONFORMING@Struct_Microsoft_Singularity_Isal_IX_Gdte@@2IA 020c22b4     sc.obj
 0003:000182b4       ?c_Tss16Busy@Struct_Microsoft_Singularity_Isal_IX_Gdte@@2IA 020c22b4     sc.obj
 0003:000182b4       ?c_Tss16Free@Struct_Microsoft_Singularity_Isal_IX_Gdte@@2IA 020c22b4     sc.obj
 0003:000182b4       ?c_EXPANDDOWN@Struct_Microsoft_Singularity_Isal_IX_Gdte@@2IA 020c22b4     sc.obj
 0003:000182b4       ?c_TrapGate16@Struct_Microsoft_Singularity_Isal_IX_Gdte@@2IA 020c22b4     sc.obj
 0003:000182b4       ?c_RING3@Struct_Microsoft_Singularity_Isal_IX_Gdte@@2IA 020c22b4     sc.obj
 0003:000182b8       ?c_Finalized@Class_Microsoft_Singularity_Eventing_Controller@@2_NA 020c22b8     sc.obj
 0003:000182bc       ?c_SystemControllerObject@Class_Microsoft_Singularity_Eventing_Controller@@2PAU1@A 020c22bc     sc.obj
 0003:000182c0       ?c_MonitoringInfo@Class_Microsoft_Singularity_Eventing_Controller@@2IA 020c22c0     sc.obj
 0003:000182c0       ?c_arrayOfBox@Class_System_TypeInfo@@2PAUClassVector_Class_System_VTable@@A 020c22c0     sc.obj
 0003:000182c0       ?c_TracingInfo@Class_Microsoft_Singularity_Eventing_Controller@@2IA 020c22c0     sc.obj
 0003:000182c4       ?c_IsLittleEndian@Class_System_BitConverter@@2_NA 020c22c4     sc.obj
 0003:000182c8       ?c_installedBarrier@Class_System_GCs_Barrier@@2PAUClass_System_GCs_EmptyWriteBarrier@@A 020c22c8     sc.obj
 0003:000182cc       ?c_zeroFieldsVisitor@Class_System_GCs_Barrier@@2PAUClass_System_GCs_Barrier_ZeroFieldsVisitor@@A 020c22cc     sc.obj
 0003:000182d0       ?c_copyFieldsVisitor@Class_System_GCs_Barrier@@2PAUClass_System_GCs_Barrier_CopyFieldsVisitor@@A 020c22d0     sc.obj
 0003:000182d4       ?c_slowZeroFieldsVisitor@Class_System_GCs_Barrier@@2PAUClass_System_GCs_Barrier_SlowZeroFieldsVisitor@@A 020c22d4     sc.obj
 0003:000182d8       ?c_slowCopyFieldsVisitor@Class_System_GCs_Barrier@@2PAUClass_System_GCs_Barrier_SlowCopyFieldsVisitor@@A 020c22d8     sc.obj
 0003:000182dc       ?c_instance@Class_System_GCs_EmptyWriteBarrier@@2PAU1@A 020c22dc     sc.obj
 0003:000182e0       ?c_dblPower10@Class_System_Math@@2PAUClassVector_float64@@A 020c22e0     sc.obj
 0003:00018378       ?c_NegativeZero@Class_System_Math@@2NA 020c2378     sc.obj
 0003:00018380       ?c_currentCpuOffset@Class_Microsoft_Singularity_Isal_Isa@@2HA 020c2380     sc.obj
 0003:00018384       ?c_currentThreadOffset@Class_Microsoft_Singularity_Isal_Isa@@2HA 020c2384     sc.obj
 0003:00018388       ?c_headRef@Class_System_WeakReference@@2PAU1@A 020c2388     sc.obj
 0003:0001838c       ?c_MaxValue@uint16@@2GA    020c238c     sc.obj
 0003:0001838c       ?c_enableUserTiming@Class_System_VTable@@2_NA 020c238c     sc.obj
 0003:0001838c       ?c_MinValue@uint16@@2GA    020c238c     sc.obj
 0003:00018390       ?c_beforeUser@Class_System_VTable@@2HA 020c2390     sc.obj
 0003:00018394       ?c_enableGCAccurateHeapSize@Class_System_VTable@@2_NA 020c2394     sc.obj
 0003:00018398       ?c_hasShutdownStarted@Class_System_VTable@@2HA 020c2398     sc.obj
 0003:0001839c       ?c_callTraceInProgress@Class_System_VTable@@2_NA 020c239c     sc.obj
 0003:000183a0       ?c_dynamicCountProfileFunction@Class_System_VTable@@2PAUClassVector_int64@@A 020c23a0     sc.obj
 0003:000183a4       ?c_enableGCProfiling@Class_System_VTable@@2_NA 020c23a4     sc.obj
 0003:000183a5       ?c_enableGCTiming@Class_System_VTable@@2_NA 020c23a5     sc.obj
 0003:000183a6       ?c_enableDumpInterface@Class_System_VTable@@2_NA 020c23a6     sc.obj
 0003:000183a8       ?c_afterUser@Class_System_VTable@@2HA 020c23a8     sc.obj
 0003:000183ac       ?c_enableGCVerify@Class_System_VTable@@2_NA 020c23ac     sc.obj
 0003:000183ad       ?c_runtimeInitialized@Class_System_VTable@@2_NA 020c23ad     sc.obj
 0003:000183ad       ?c_enableLibraryOptions@Class_System_VTable@@2_NA 020c23ad     sc.obj
 0003:000183ae       ?c_enableDebugPrint@Class_System_VTable@@2_NA 020c23ae     sc.obj
 0003:000183b0       ?c_interfaceOffsetTable@Class_System_VTable@@2PAUClass_System_Collections_Hashtable@@A 020c23b0     sc.obj
 0003:000183b4       ?c_handle$_counts@Class_System_VTable@@2PAUClassVector_int32@@A 020c23b4     sc.obj
 0003:000183b8       ?c_cctorLock@Class_System_VTable@@2PAUClass_System_VTable_ClassConstructorLock@@A 020c23b8     sc.obj
 0003:000183bc       ?c_tryAllCheckMask@Class_System_VTable@@2HA 020c23bc     sc.obj
 0003:000183c0       ?c_enableDumpMemStats@Class_System_VTable@@2_NA 020c23c0     sc.obj
 0003:000183c1       ?c_enableDumpTryAllStats@Class_System_VTable@@2_NA 020c23c1     sc.obj
 0003:000183c2       ?c_enableFinalGCTiming@Class_System_VTable@@2_NA 020c23c2     sc.obj
 0003:000183c3       ?c_enableDumpMultiUseWords@Class_System_VTable@@2_NA 020c23c3     sc.obj
 0003:000183c4       ?c_enableGCAccounting@Class_System_VTable@@2_NA 020c23c4     sc.obj
 0003:000183c8       ?c_ZeroStart@Class_System_ParseNumbers@@2PAUClassVector_int32@@A 020c23c8     sc.obj
 0003:000183cc       ?c_pageCache@Struct_System_GCs_UnmanagedPageList@@2?AU1@A 020c23cc     sc.obj
 0003:000183d4       ?c_hexValues@Class_System_Reflection_Assembly@@2PAUClassVector_bartok_char@@A 020c23d4     sc.obj
 0003:00018404       ?c_updateReferenceVisitor@Class_System_GCs_MarkSweepCollector@@2PAUClass_System_GCs_MarkSweepCollector_UpdateReferenceVisitor@@A 020c2404     sc.obj
 0003:00018408       ?c_collectionTrigger@Class_System_GCs_MarkSweepCollector@@2IA 020c2408     sc.obj
 0003:0001840c       ?c_sweepTime@Class_System_GCs_MarkSweepCollector@@2HA 020c240c     sc.obj
 0003:00018410       ?c_traceTime@Class_System_GCs_MarkSweepCollector@@2HA 020c2410     sc.obj
 0003:00018414       ?c_numCollections@Class_System_GCs_MarkSweepCollector@@2HA 020c2414     sc.obj
 0003:00018418       ?c_threadMarkReferenceVisitor@Class_System_GCs_MarkSweepCollector@@2PAUClass_System_GCs_MarkSweepCollector_ThreadMarkReferenceVisitor@@A 020c2418     sc.obj
 0003:0001841c       ?c_markReferenceVisitor@Class_System_GCs_MarkSweepCollector@@2PAUClass_System_GCs_MarkSweepCollector_MarkReferenceVisitor@@A 020c241c     sc.obj
 0003:00018420       ?c_markAndProcessReferenceVisitor@Class_System_GCs_MarkSweepCollector@@2PAUClass_System_GCs_MarkSweepCollector_MarkAndProcessReferenceVisitor@@A 020c2420     sc.obj
 0003:00018424       ?c_instance@Class_System_GCs_MarkSweepCollector@@2PAU1@A 020c2424     sc.obj
 0003:00018428       ?c_sweepVisitor@Class_System_GCs_MarkSweepCollector@@2PAUClass_System_GCs_MarkSweepCollector_SweepVisitor@@A 020c2428     sc.obj
 0003:0001842c       ?c_SR$$6@Class_Microsoft_Singularity_Applications_ServiceManager_EnableServiceCommand@@2PAUClassVector_ClassVector_int32@@A 020c242c     sc.obj
 0003:00018430       ?c_PositiveInfinityAsUInt64@float64@@2_KA 020c2430     sc.obj
 0003:00018430       ?c_NegativeInfinityAsUInt64@float64@@2_KA 020c2430     sc.obj
 0003:00018430       ?c_Epsilon@float64@@2NA    020c2430     sc.obj
 0003:00018430       ?c_MantissaAsUInt64@float64@@2_KA 020c2430     sc.obj
 0003:00018430       ?c_MaxValue@Struct_System_SchedulerTime@@2?AU1@A 020c2430     sc.obj
 0003:00018430       ?c_ExponentAsUInt64@float64@@2_KA 020c2430     sc.obj
 0003:00018430       ?c_NaN@float64@@2NA        020c2430     sc.obj
 0003:00018430       ?c_NegativeInfinity@float64@@2NA 020c2430     sc.obj
 0003:00018430       ?c_PositiveInfinity@float64@@2NA 020c2430     sc.obj
 0003:00018430       ?c_MinValue@float64@@2NA   020c2430     sc.obj
 0003:00018430       ?c_MaxValue@float64@@2NA   020c2430     sc.obj
 0003:00018438       ?c_DaysPerYear@Struct_System_SchedulerTime@@2HA 020c2438     sc.obj
 0003:00018438       ?c_DaysPer400Years@Struct_System_SchedulerTime@@2HA 020c2438     sc.obj
 0003:00018438       ?c_TicksPerHour@Struct_System_SchedulerTime@@2_JA 020c2438     sc.obj
 0003:00018438       ?c_MillisPerSecond@Struct_System_SchedulerTime@@2HA 020c2438     sc.obj
 0003:00018438       ?c_MinValue@Struct_System_SchedulerTime@@2?AU1@A 020c2438     sc.obj
 0003:00018438       ?c_DaysTo10000@Struct_System_SchedulerTime@@2HA 020c2438     sc.obj
 0003:00018438       ?c_TicksPerDay@Struct_System_SchedulerTime@@2_JA 020c2438     sc.obj
 0003:00018438       ?c_DaysPer4Years@Struct_System_SchedulerTime@@2HA 020c2438     sc.obj
 0003:00018438       ?c_MinTicks@Struct_System_SchedulerTime@@2_JA 020c2438     sc.obj
 0003:00018438       ?c_DaysPer100Years@Struct_System_SchedulerTime@@2HA 020c2438     sc.obj
 0003:00018438       ?c_MaxTicks@Struct_System_SchedulerTime@@2_JA 020c2438     sc.obj
 0003:00018438       ?c_MillisPerMinute@Struct_System_SchedulerTime@@2HA 020c2438     sc.obj
 0003:00018438       ?c_TicksPerSecond@Struct_System_SchedulerTime@@2_JA 020c2438     sc.obj
 0003:00018438       ?c_MillisPerHour@Struct_System_SchedulerTime@@2HA 020c2438     sc.obj
 0003:00018438       ?c_MaxMillis@Struct_System_SchedulerTime@@2_JA 020c2438     sc.obj
 0003:00018438       ?c_TicksPerMinute@Struct_System_SchedulerTime@@2_JA 020c2438     sc.obj
 0003:00018440       ?c_UIntPtr@Struct_Microsoft_Bartok_Runtime_StructuralType@@2?AU1@A 020c2440     sc.obj
 0003:00018440       ?c_MillisPerDay@Struct_System_SchedulerTime@@2HA 020c2440     sc.obj
 0003:00018440       ?c_Int16@Struct_Microsoft_Bartok_Runtime_StructuralType@@2?AU1@A 020c2440     sc.obj
 0003:00018440       ?c_UInt8@Struct_Microsoft_Bartok_Runtime_StructuralType@@2?AU1@A 020c2440     sc.obj
 0003:00018440       ?c_Int64@Struct_Microsoft_Bartok_Runtime_StructuralType@@2?AU1@A 020c2440     sc.obj
 0003:00018440       ?c_UInt32@Struct_Microsoft_Bartok_Runtime_StructuralType@@2?AU1@A 020c2440     sc.obj
 0003:00018440       ?c_Char@Struct_Microsoft_Bartok_Runtime_StructuralType@@2?AU1@A 020c2440     sc.obj
 0003:00018440       ?c_UInt16@Struct_Microsoft_Bartok_Runtime_StructuralType@@2?AU1@A 020c2440     sc.obj
 0003:00018440       ?c_IF@Struct_Microsoft_Singularity_Isal_IX_EFlagsShift@@2IA 020c2440     sc.obj
 0003:00018440       ?c_IntPtr@Struct_Microsoft_Bartok_Runtime_StructuralType@@2?AU1@A 020c2440     sc.obj
 0003:00018440       ?c_Reference@Struct_Microsoft_Bartok_Runtime_StructuralType@@2?AU1@A 020c2440     sc.obj
 0003:00018440       ?c_TicksPerMillisecond@Struct_System_SchedulerTime@@2_JA 020c2440     sc.obj
 0003:00018440       ?c_readLineBuffer@Class_Microsoft_Singularity_Io_ConsoleInput@@2PAUClassVector_bartok_char@@A 020c2440     sc.obj
 0003:00018440       ?c_Float32@Struct_Microsoft_Bartok_Runtime_StructuralType@@2?AU1@A 020c2440     sc.obj
 0003:00018440       ?c_Bool@Struct_Microsoft_Bartok_Runtime_StructuralType@@2?AU1@A 020c2440     sc.obj
 0003:00018440       ?c_Int32@Struct_Microsoft_Bartok_Runtime_StructuralType@@2?AU1@A 020c2440     sc.obj
 0003:00018440       ?c_UInt64@Struct_Microsoft_Bartok_Runtime_StructuralType@@2?AU1@A 020c2440     sc.obj
 0003:00018440       ?c_Int8@Struct_Microsoft_Bartok_Runtime_StructuralType@@2?AU1@A 020c2440     sc.obj
 0003:00018440       ?c_MaxValue@uint64@@2_KA   020c2440     sc.obj
 0003:00018440       ?c_MinValue@uint64@@2_KA   020c2440     sc.obj
 0003:00018440       ?c_Float64@Struct_Microsoft_Bartok_Runtime_StructuralType@@2?AU1@A 020c2440     sc.obj
 0003:00018444       ?c_consoleContainer@Class_Microsoft_Singularity_Io_ConsoleInput@@2PAUClass_Microsoft_Singularity_Channels_TContainer$_1$LMicrosoft_Singularity_Io_PipeLookAhead$G@@A 020c2444     sc.obj
 0003:00018448       ?c_PermanentEvents@Struct_Microsoft_Singularity_Eventing_QualityOfService@@2IA 020c2448     sc.obj
 0003:00018448       ?c_PCD@Struct_Microsoft_Singularity_Isal_IX_CR3@@2IA 020c2448     sc.obj
 0003:00018448       ?c_PSE@Struct_Microsoft_Singularity_Isal_IX_CR4@@2IA 020c2448     sc.obj
 0003:00018448       ?c_X86@Struct_Microsoft_Singularity_Isal_Isa_Type@@2?AU1@A 020c2448     sc.obj
 0003:00018448       ?c_RecyclableEvents@Struct_Microsoft_Singularity_Eventing_QualityOfService@@2IA 020c2448     sc.obj
 0003:00018448       ?c_Arm@Struct_Microsoft_Singularity_Isal_Isa_Type@@2?AU1@A 020c2448     sc.obj
 0003:00018448       ?c_TSD@Struct_Microsoft_Singularity_Isal_IX_CR4@@2IA 020c2448     sc.obj
 0003:00018448       ?c_OSFXSR@Struct_Microsoft_Singularity_Isal_IX_CR4@@2IA 020c2448     sc.obj
 0003:00018448       ?c_OOM$_BreakOnRecycle@Struct_Microsoft_Singularity_Eventing_QualityOfService@@2IA 020c2448     sc.obj
 0003:00018448       ?c_PE@Struct_Microsoft_Singularity_Isal_IX_CR0@@2IA 020c2448     sc.obj
 0003:00018448       ?c_NW@Struct_Microsoft_Singularity_Isal_IX_CR0@@2IA 020c2448     sc.obj
 0003:00018448       ?c_OSXMMEXCPT@Struct_Microsoft_Singularity_Isal_IX_CR4@@2IA 020c2448     sc.obj
 0003:00018448       ?c_MP@Struct_Microsoft_Singularity_Isal_IX_CR0@@2IA 020c2448     sc.obj
 0003:00018448       ?c_OOM$_GeneralFailure@Struct_Microsoft_Singularity_Eventing_QualityOfService@@2IA 020c2448     sc.obj
 0003:00018448       ?c_MCE@Struct_Microsoft_Singularity_Isal_IX_CR4@@2IA 020c2448     sc.obj
 0003:00018448       ?c_ScopeGlobal@Struct_Microsoft_Singularity_Eventing_QualityOfService@@2IA 020c2448     sc.obj
 0003:00018448       ?c_DE@Struct_Microsoft_Singularity_Isal_IX_CR4@@2IA 020c2448     sc.obj
 0003:00018448       ?c_ScopeUndefined@Struct_Microsoft_Singularity_Eventing_QualityOfService@@2IA 020c2448     sc.obj
 0003:00018448       ?c_PCE@Struct_Microsoft_Singularity_Isal_IX_CR4@@2IA 020c2448     sc.obj
 0003:00018448       ?c_workList@Class_System_GCs_MarkSweepCollector_MarkReferenceVisitor@@2?AUStruct_System_GCs_UIntPtrStack@@A 020c2448     sc.obj
 0003:00018448       ?c_TS@Struct_Microsoft_Singularity_Isal_IX_CR0@@2IA 020c2448     sc.obj
 0003:00018448       ?c_ActiveEvents@Struct_Microsoft_Singularity_Eventing_QualityOfService@@2IA 020c2448     sc.obj
 0003:00018448       ?c_X64@Struct_Microsoft_Singularity_Isal_Isa_Type@@2?AU1@A 020c2448     sc.obj
 0003:00018448       ?c_PG@Struct_Microsoft_Singularity_Isal_IX_CR0@@2IA 020c2448     sc.obj
 0003:00018448       ?c_ET@Struct_Microsoft_Singularity_Isal_IX_CR0@@2IA 020c2448     sc.obj
 0003:00018448       ?c_EM@Struct_Microsoft_Singularity_Isal_IX_CR0@@2IA 020c2448     sc.obj
 0003:00018448       ?c_WP@Struct_Microsoft_Singularity_Isal_IX_CR0@@2IA 020c2448     sc.obj
 0003:00018448       ?c_AM@Struct_Microsoft_Singularity_Isal_IX_CR0@@2IA 020c2448     sc.obj
 0003:00018448       ?c_CD@Struct_Microsoft_Singularity_Isal_IX_CR0@@2IA 020c2448     sc.obj
 0003:00018448       ?c_NE@Struct_Microsoft_Singularity_Isal_IX_CR0@@2IA 020c2448     sc.obj
 0003:00018448       ?c_OOM$_DropNewEvents@Struct_Microsoft_Singularity_Eventing_QualityOfService@@2IA 020c2448     sc.obj
 0003:00018448       ?c_PWT@Struct_Microsoft_Singularity_Isal_IX_CR3@@2IA 020c2448     sc.obj
 0003:00018448       ?c_PVI@Struct_Microsoft_Singularity_Isal_IX_CR4@@2IA 020c2448     sc.obj
 0003:00018448       ?c_VME@Struct_Microsoft_Singularity_Isal_IX_CR4@@2IA 020c2448     sc.obj
 0003:00018448       ?c_PGE@Struct_Microsoft_Singularity_Isal_IX_CR4@@2IA 020c2448     sc.obj
 0003:00018448       ?c_PAE@Struct_Microsoft_Singularity_Isal_IX_CR4@@2IA 020c2448     sc.obj
 0003:00018448       ?c_ScopeLocal@Struct_Microsoft_Singularity_Eventing_QualityOfService@@2IA 020c2448     sc.obj
 0003:00018460       ?c_valueType@Class_System_Type@@2PAU1@A 020c2460     sc.obj
 0003:00018464       ?c_Delimiter@Class_System_Type@@2_WA 020c2464     sc.obj
 0003:00018468       ?c_enumType@Class_System_Type@@2PAU1@A 020c2468     sc.obj
 0003:0001846c       ?c_EVENTING$_STORAGE$_FLAGS$_ENABLED@Class_Microsoft_Singularity_Eventing_EventingStorage@@2IA 020c246c     sc.obj
 0003:0001846c       ?c_Default@Class_System_Collections_Comparer@@2PAU1@A 020c246c     sc.obj
 0003:0001846c       ?c_EVENTING$_STORAGE$_FLAGS$_STACKTRACES@Class_Microsoft_Singularity_Eventing_EventingStorage@@2IA 020c246c     sc.obj
 0003:00018470       ?c_unusedMemoryBlocks@Class_System_GCs_PageManager@@2PAUClassVector_Struct_System_GCs_PageManager_UnusedBlockHeader@@A 020c2470     sc.obj
 0003:00018474       ?c_outOfMemoryException@Class_System_GCs_PageManager@@2PAUClass_System_OutOfMemoryException@@A 020c2474     sc.obj
 0003:00018478       ?c_os$_commit$_size@Class_System_GCs_PageManager@@2IA 020c2478     sc.obj
 0003:0001847c       ?c_mutex@Class_System_GCs_PageManager@@2PAUClass_System_Threading_Mutex@@A 020c247c     sc.obj
 0003:00018480       ?c_heap$_commit$_size@Class_System_GCs_PageManager@@2IA 020c2480     sc.obj
 0003:00018484       ?c_avoidDirtyPages@Class_System_GCs_PageManager@@2_NA 020c2484     sc.obj
 0003:00018488       ?c_SR$$4@Class_Microsoft_Singularity_Applications_ServiceManager_CreateServiceCommand@@2PAUClassVector_ClassVector_int32@@A 020c2488     sc.obj
 0003:0001848c       ?c_collectorThreadIndex@Class_System_GCs_StopTheWorldGCData@@2HA 020c248c     sc.obj
 0003:00018490       ?c_CurrentPhase@Class_System_GCs_StopTheWorldGCData@@2?AUStruct_System_GCs_StopTheWorldPhase@@A 020c2490     sc.obj
 0003:00018494       ?c_StructuralTypeNames@Class_Microsoft_Bartok_Runtime_Constants@@2PAUClassVector_Class_System_String@@A 020c2494     sc.obj
 0003:00018498       ?c_SR$$2@Class_Microsoft_Singularity_Applications_ServiceManager_WatchAllConfig@@2PAUClassVector_ClassVector_int32@@A 020c2498     sc.obj
 0003:0001849c       ?c_SR$$3@Class_Microsoft_Singularity_Applications_ServiceManager_WatchAllConfig@@2PAUClassVector_ClassVector_int32@@A 020c249c     sc.obj
 0003:000184a0       ?c_SR$$7@Class_Microsoft_Singularity_Applications_ServiceManager_DisableServiceCommand@@2PAUClassVector_ClassVector_int32@@A 020c24a0     sc.obj
 0003:000184a4       ?c_internedStringVector@Class_System_String@@2PAUClassVector_Class_System_String@@A 020c24a4     sc.obj
 0003:000184a8       ?c_HighCharTable@Class_System_String@@2PAUClassVector_bool@@A 020c24a8     sc.obj
 0003:000184a8       ?c_TrimHead@Class_System_String@@2HA 020c24a8     sc.obj
 0003:000184a8       ?c_TrimTail@Class_System_String@@2HA 020c24a8     sc.obj
 0003:00018538       ?c_internedStringHashCodes@Class_System_String@@2PAUClassVector_int32@@A 020c2538     sc.obj
 0003:00018538       ?c_TrimBoth@Class_System_String@@2HA 020c2538     sc.obj
 0003:0001853c       ?c_internedStringBound@Class_System_String@@2HA 020c253c     sc.obj
 0003:00018540       ?c_Empty@Class_System_String@@2PAU1@A 020c2540     sc.obj
 0003:00018544       ?c_internedStringCount@Class_System_String@@2HA 020c2544     sc.obj
 0003:00018548       ?c_unicodeTableLevel3@Class_System_Globalization_CompareInfo@@2PAUClassVector_uint16@@A 020c2548     sc.obj
 0003:00019b98       ?c_caseTableLevel2@Class_System_Globalization_CompareInfo@@2PAUClassVector_int16@@A 020c3b98     sc.obj
 0003:00019f28       ?c_diacriticTableLevel1@Class_System_Globalization_CompareInfo@@2PAUClassVector_int16@@A 020c3f28     sc.obj
 0003:0001a138       ?c_unicodeTableLevel1@Class_System_Globalization_CompareInfo@@2PAUClassVector_int16@@A 020c4138     sc.obj
 0003:0001a348       ?c_caseTableLevel3@Class_System_Globalization_CompareInfo@@2PAUClassVector_uint8@@A 020c4348     sc.obj
 0003:0001a918       ?c_diacriticTableLevel3@Class_System_Globalization_CompareInfo@@2PAUClassVector_uint8@@A 020c4918     sc.obj
 0003:0001b118       ?c_unicodeTableLevel2@Class_System_Globalization_CompareInfo@@2PAUClassVector_int16@@A 020c5118     sc.obj
 0003:0001b4c8       ?c_caseTableLevel1@Class_System_Globalization_CompareInfo@@2PAUClassVector_int16@@A 020c54c8     sc.obj
 0003:0001b6d8       ?c_diacriticTableLevel2@Class_System_Globalization_CompareInfo@@2PAUClassVector_int16@@A 020c56d8     sc.obj
 0003:0001ba88       ?c_TypeStorageHandle@Class_Microsoft_Singularity_GCProfilerLogger@@2IA 020c5a88     sc.obj
 0003:0001ba8c       ?c_CurrentProfiler@Class_Microsoft_Singularity_GCProfilerLogger@@2PAU1@A 020c5a8c     sc.obj
 0003:0001ba90       ?c_StorageHandle@Class_Microsoft_Singularity_GCProfilerLogger@@2IA 020c5a90     sc.obj
 0003:0001ba94       ?c_ScaleShift@Struct_System_Decimal@@2HA 020c5a94     sc.obj
 0003:0001ba94       ?c_MinValue@Struct_System_Decimal@@2?AU1@A 020c5a94     sc.obj
 0003:0001baa4       ?c_Zero@Struct_System_Decimal@@2?AU1@A 020c5aa4     sc.obj
 0003:0001bab4       ?c_MaxValue@Struct_System_Decimal@@2?AU1@A 020c5ab4     sc.obj
 0003:0001bab4       ?c_SignMask@Struct_System_Decimal@@2HA 020c5ab4     sc.obj
 0003:0001bac4       ?c_One@Struct_System_Decimal@@2?AU1@A 020c5ac4     sc.obj
 0003:0001bac4       ?c_ScaleMask@Struct_System_Decimal@@2HA 020c5ac4     sc.obj
 0003:0001bad4       ?c_MinusOne@Struct_System_Decimal@@2?AU1@A 020c5ad4     sc.obj
 0003:0001bae4       ?c_$_rangeMessage@Class_System_ArgumentOutOfRangeException@@2PAUClass_System_String@@A 020c5ae4     sc.obj
 0003:0001bae8       ?c_BaseUserException@Struct_Microsoft_Singularity_Isal_IX_EVectors@@2IA 020c5ae8     sc.obj
 0003:0001bae8       ?c_FirstChanceException@Struct_Microsoft_Singularity_Isal_IX_EVectors@@2IA 020c5ae8     sc.obj
 0003:0001bae8       ?c_SseMathFault@Struct_Microsoft_Singularity_Isal_IX_EVectors@@2IA 020c5ae8     sc.obj
 0003:0001bae8       ?c_SingleStep@Struct_Microsoft_Singularity_Isal_IX_EVectors@@2IA 020c5ae8     sc.obj
 0003:0001bae8       ?c_InvalidTss@Struct_Microsoft_Singularity_Isal_IX_EVectors@@2IA 020c5ae8     sc.obj
 0003:0001bae8       ?c_HaltApProcessors@Struct_Microsoft_Singularity_Isal_IX_EVectors@@2IA 020c5ae8     sc.obj
 0003:0001bae8       ?c_GeneralProtectionFault@Struct_Microsoft_Singularity_Isal_IX_EVectors@@2IA 020c5ae8     sc.obj
 0003:0001bae8       ?c_DebuggerBreakRequest@Struct_Microsoft_Singularity_Isal_IX_EVectors@@2IA 020c5ae8     sc.obj
 0003:0001bae8       ?c_MachineCheck@Struct_Microsoft_Singularity_Isal_IX_EVectors@@2IA 020c5ae8     sc.obj
 0003:0001bae8       ?c_GCSynchronization@Struct_Microsoft_Singularity_Isal_IX_EVectors@@2IA 020c5ae8     sc.obj
 0003:0001bae8       ?c_IoLastVector@Struct_Microsoft_Singularity_Isal_IX_EVectors@@2IA 020c5ae8     sc.obj
 0003:0001bae8       ?c_SpuriousInterrupt@Struct_Microsoft_Singularity_Isal_IX_EVectors@@2IA 020c5ae8     sc.obj
 0003:0001bae8       ?c_DoubleFault@Struct_Microsoft_Singularity_Isal_IX_EVectors@@2IA 020c5ae8     sc.obj
 0003:0001bae8       ?c_PageFault@Struct_Microsoft_Singularity_Isal_IX_EVectors@@2IA 020c5ae8     sc.obj
 0003:0001bae8       ?c_Nmi@Struct_Microsoft_Singularity_Isal_IX_EVectors@@2IA 020c5ae8     sc.obj
 0003:0001bae8       ?c_SegmentNotPresent@Struct_Microsoft_Singularity_Isal_IX_EVectors@@2IA 020c5ae8     sc.obj
 0003:0001bae8       ?c_CoprocessorNotAvailable@Struct_Microsoft_Singularity_Isal_IX_EVectors@@2IA 020c5ae8     sc.obj
 0003:0001bae8       ?c_Breakpoint@Struct_Microsoft_Singularity_Isal_IX_EVectors@@2IA 020c5ae8     sc.obj
 0003:0001bae8       ?c_Zero@uintPtr@@2IA       020c5ae8     sc.obj
 0003:0001bae8       ?c_SecondChanceException@Struct_Microsoft_Singularity_Isal_IX_EVectors@@2IA 020c5ae8     sc.obj
 0003:0001bae8       ?c_OverflowException@Struct_Microsoft_Singularity_Isal_IX_EVectors@@2IA 020c5ae8     sc.obj
 0003:0001bae8       ?c_IllegalInstruction@Struct_Microsoft_Singularity_Isal_IX_EVectors@@2IA 020c5ae8     sc.obj
 0003:0001bae8       ?c_BoundRangeException@Struct_Microsoft_Singularity_Isal_IX_EVectors@@2IA 020c5ae8     sc.obj
 0003:0001bae8       ?c_FpuMathFault@Struct_Microsoft_Singularity_Isal_IX_EVectors@@2IA 020c5ae8     sc.obj
 0003:0001bae8       ?c_IntelReserved@Struct_Microsoft_Singularity_Isal_IX_EVectors@@2IA 020c5ae8     sc.obj
 0003:0001bae8       ?c_AlignmentCheck@Struct_Microsoft_Singularity_Isal_IX_EVectors@@2IA 020c5ae8     sc.obj
 0003:0001bae8       ?c_IoBaseVector@Struct_Microsoft_Singularity_Isal_IX_EVectors@@2IA 020c5ae8     sc.obj
 0003:0001bae8       ?c_CoprocessorSegmentOverrun@Struct_Microsoft_Singularity_Isal_IX_EVectors@@2IA 020c5ae8     sc.obj
 0003:0001bae8       ?c_DivideError@Struct_Microsoft_Singularity_Isal_IX_EVectors@@2IA 020c5ae8     sc.obj
 0003:0001bae8       ?c_StackSegmentFault@Struct_Microsoft_Singularity_Isal_IX_EVectors@@2IA 020c5ae8     sc.obj
 0003:0001baec       ?c_MaxValue@uintPtr@@2IA   020c5aec     sc.obj
 0003:0001baf0       ?c_Size@uintPtr@@2HA       020c5af0     sc.obj
 0003:0001baf4       ?c_SR$$1@Class_Microsoft_Singularity_Applications_ServiceManager_ShowServiceParameters@@2PAUClassVector_ClassVector_int32@@A 020c5af4     sc.obj
 0003:0001baf8       ?c_SR$$0@Class_Microsoft_Singularity_Applications_ServiceManager_ShowServiceParameters@@2PAUClassVector_ClassVector_int32@@A 020c5af8     sc.obj
 0003:0001bafc       ?c_MinValue@uint32@@2IA    020c5afc     sc.obj
 0003:0001bafc       ?c_MaxValue@uint32@@2IA    020c5afc     sc.obj
 0003:0001bafc       ?c_dummyGlobal@Class_System_GC@@2PAUClass_System_Object@@A 020c5afc     sc.obj
 0003:0001bb00       ?c_MaxHeapPages@Class_System_GC@@2HA 020c5b00     sc.obj
 0003:0001bb04       ?c_allocationGCInhibitCount@Class_System_GC@@2HA 020c5b04     sc.obj
 0003:0001bb08       ?c_isProfiling@Class_System_GC@@2_NA 020c5b08     sc.obj
 0003:0001bb0c       ?c_installedGC@Class_System_GC@@2PAUClass_System_GCs_Collector@@A 020c5b0c     sc.obj
 0003:0001bb10       ?c_perfCounter@Class_System_GC@@2IA 020c5b10     sc.obj
 0003:0001bb14       ?c_limitPtr@Class_System_GCs_BootstrapMemory@@2IA 020c5b14     sc.obj
 0003:0001bb18       ?c_allocPtr@Class_System_GCs_BootstrapMemory@@2IA 020c5b18     sc.obj
 0003:0001bb1c       ?c_cacheShutdown@Class_Microsoft_Singularity_Directory_SdsUtils@@2_NA 020c5b1c     sc.obj
 0003:0001bb20       ?c_SR$$1@Class_Microsoft_Singularity_Directory_SdsUtils@@2PAUClassVector_ClassVector_int32@@A 020c5b20     sc.obj
 0003:0001bb24       ?c_dspCache@Class_Microsoft_Singularity_Directory_SdsUtils@@2PAUClass_System_Collections_SortedList@@A 020c5b24     sc.obj
 0003:0001bb28       ?c_cacheUsers@Class_Microsoft_Singularity_Directory_SdsUtils@@2HA 020c5b28     sc.obj
 0003:0001bb2c       ?c_cacheEmpty@Class_Microsoft_Singularity_Directory_SdsUtils@@2PAUClass_System_Threading_Mutex@@A 020c5b2c     sc.obj
 0003:0001bb30       ?c_SR$$3@Class_Microsoft_Singularity_Directory_SdsUtils@@2PAUClassVector_ClassVector_int32@@A 020c5b30     sc.obj
 0003:0001bb34       ?c_flushCacheWaiting@Class_Microsoft_Singularity_Directory_SdsUtils@@2_NA 020c5b34     sc.obj
 0003:0001bb38       ?c_SR$$0@Class_Microsoft_Singularity_Directory_SdsUtils@@2PAUClassVector_ClassVector_int32@@A 020c5b38     sc.obj
 0003:0001bb3c       ?c_SR$$6@Class_Microsoft_Singularity_Directory_SdsUtils@@2PAUClassVector_ClassVector_int32@@A 020c5b3c     sc.obj
 0003:0001bb40       ?c_SR$$7@Class_Microsoft_Singularity_Directory_SdsUtils@@2PAUClassVector_ClassVector_int32@@A 020c5b40     sc.obj
 0003:0001bb44       ?c_SR$$11@Class_Microsoft_Singularity_Directory_SdsUtils@@2PAUClassVector_ClassVector_int32@@A 020c5b44     sc.obj
 0003:0001bb48       ?c_SR$$10@Class_Microsoft_Singularity_Directory_SdsUtils@@2PAUClassVector_ClassVector_int32@@A 020c5b48     sc.obj
 0003:0001bb4c       ?c_SR$$13@Class_Microsoft_Singularity_Directory_SdsUtils@@2PAUClassVector_ClassVector_int32@@A 020c5b4c     sc.obj
 0003:0001bb50       ?c_SR$$12@Class_Microsoft_Singularity_Directory_SdsUtils@@2PAUClassVector_ClassVector_int32@@A 020c5b50     sc.obj
 0003:0001bb54       ?c_SR$$2@Class_Microsoft_Singularity_Directory_SdsUtils@@2PAUClassVector_ClassVector_int32@@A 020c5b54     sc.obj
 0003:0001bb58       ?c_SR$$9@Class_Microsoft_Singularity_Directory_SdsUtils@@2PAUClassVector_ClassVector_int32@@A 020c5b58     sc.obj
 0003:0001bb5c       ?c_SR$$8@Class_Microsoft_Singularity_Directory_SdsUtils@@2PAUClassVector_ClassVector_int32@@A 020c5b5c     sc.obj
 0003:0001bb60       ?c_SR$$5@Class_Microsoft_Singularity_Directory_SdsUtils@@2PAUClassVector_ClassVector_int32@@A 020c5b60     sc.obj
 0003:0001bb64       ?c_SR$$4@Class_Microsoft_Singularity_Directory_SdsUtils@@2PAUClassVector_ClassVector_int32@@A 020c5b64     sc.obj
 0003:0001bb68       ?c_TryAllCountersList@Class_System_TryAllCounters@@2PAU1@A 020c5b68     sc.obj
 0003:0001bb6c       ?c_TryAllCountersLock@Class_System_TryAllCounters@@2PAUClass_System_Object@@A 020c5b6c     sc.obj
 0003:0001bb70       ?c_DormantState@Class_System_GCs_Transitions@@2HA 020c5b70     sc.obj
 0003:0001bb70       ?c_fInitializedRuntime@Class_System_GCs_Transitions@@2_NA 020c5b70     sc.obj
 0003:0001bb70       ?c_MinValue@int64@@2_JA    020c5b70     sc.obj
 0003:0001bb70       ?c_WRITETHROUGH@Struct_Microsoft_Singularity_Isal_IX_PE@@2_KA 020c5b70     sc.obj
 0003:0001bb70       ?c_ACCESSED@Struct_Microsoft_Singularity_Isal_IX_PE@@2_KA 020c5b70     sc.obj
 0003:0001bb70       ?c_CACHEDISABLE@Struct_Microsoft_Singularity_Isal_IX_PE@@2_KA 020c5b70     sc.obj
 0003:0001bb70       ?c_GLOBAL@Struct_Microsoft_Singularity_Isal_IX_PE@@2_KA 020c5b70     sc.obj
 0003:0001bb70       ?c_PAT@Struct_Microsoft_Singularity_Isal_IX_PE@@2_KA 020c5b70     sc.obj
 0003:0001bb70       ?c_MaxValue@int64@@2_JA    020c5b70     sc.obj
 0003:0001bb70       ?c_USER@Struct_Microsoft_Singularity_Isal_IX_PE@@2_KA 020c5b70     sc.obj
 0003:0001bb70       ?c_NX@Struct_Microsoft_Singularity_Isal_IX_PE@@2_KA 020c5b70     sc.obj
 0003:0001bb70       ?c_OtherMutatorState@Class_System_GCs_Transitions@@2HA 020c5b70     sc.obj
 0003:0001bb70       ?c_VALID@Struct_Microsoft_Singularity_Isal_IX_PE@@2_KA 020c5b70     sc.obj
 0003:0001bb70       ?c_MutatorState@Class_System_GCs_Transitions@@2HA 020c5b70     sc.obj
 0003:0001bb70       ?c_IS2MB@Struct_Microsoft_Singularity_Isal_IX_PE@@2_KA 020c5b70     sc.obj
 0003:0001bb70       ?c_WRITEABLE@Struct_Microsoft_Singularity_Isal_IX_PE@@2_KA 020c5b70     sc.obj
 0003:0001bb70       ?c_DIRTY@Struct_Microsoft_Singularity_Isal_IX_PE@@2_KA 020c5b70     sc.obj
 0003:0001bb74       ?c_OtherDormantState@Class_System_GCs_Transitions@@2HA 020c5b74     sc.obj
 0003:0001bb74       ?c_CandidateTable@Struct_System_Finalizer@@2PAUClassVector_ClassVector_uintPtr@@A 020c5b74     sc.obj
 0003:0001bb78       ?c_lastCandidateIndex@Struct_System_Finalizer@@2HA 020c5b78     sc.obj
 0003:0001bb7c       ?c_WaitForPendingShouldReturn@Struct_System_Finalizer@@2PAUClass_System_Threading_ManualResetEvent@@A 020c5b7c     sc.obj
 0003:0001bb80       ?c_spinLock@Struct_System_Finalizer@@2?AUStruct_System_Threading_SpinLock@@A 020c5b80     sc.obj
 0003:0001bb88       ?c_finalizerThread@Struct_System_Finalizer@@2PAUClass_System_Threading_Thread@@A 020c5b88     sc.obj
 0003:0001bb8c       ?c_WaitingToRun@Struct_System_Finalizer@@2HA 020c5b8c     sc.obj
 0003:0001bb90       ?c_CandidateTableShadow@Struct_System_Finalizer@@2PAUClassVector_ClassVector_uintPtr@@A 020c5b90     sc.obj
 0003:0001bb94       ?c_freeCandidateLink@Struct_System_Finalizer@@2HA 020c5b94     sc.obj
 0003:0001bb98       ?c_LastTableRun@Struct_System_Finalizer@@2HA 020c5b98     sc.obj
 0003:0001bb9c       ?c_WorkExistsForFinalizerThread@Struct_System_Finalizer@@2PAUClass_System_Threading_AutoResetEvent@@A 020c5b9c     sc.obj
 0003:0001bba0       ?c_LastEntryRun@Struct_System_Finalizer@@2HA 020c5ba0     sc.obj
 0003:0001bba4       ?c_RunFinalizerTable@Struct_System_Finalizer@@2PAUClassVector_ClassVector_uintPtr@@A 020c5ba4     sc.obj
 0003:0001bba8       ?c_RunFinalizerTableShadow@Struct_System_Finalizer@@2PAUClassVector_ClassVector_uintPtr@@A 020c5ba8     sc.obj
 0003:0001bbac       ?c_madeRunnable@Struct_System_Finalizer@@2_NA 020c5bac     sc.obj
 0003:0001bbad       ?c_running@Struct_System_Finalizer@@2_NA 020c5bad     sc.obj
 0003:0001bbae       ?c_doneWarning@Class_System_RuntimeType@@2_NA 020c5bae     sc.obj
 0003:0001bbaf       ?c_MaxValue@uint8@@2EA     020c5baf     sc.obj
 0003:0001bbaf       ?c_MinValue@uint8@@2EA     020c5baf     sc.obj
 0003:0001bbb0       ?c_genericReferenceVisitor@Class_System_GCs_Verifier@@2PAUClass_System_GCs_Verifier_GenericReferenceVisitor@@A 020c5bb0     sc.obj
 0003:0001bbb4       ?c_genericStackVerifier@Class_System_GCs_Verifier@@2PAUClass_System_GCs_Verifier_GenericStackVerifier@@A 020c5bb4     sc.obj
 0003:0001bbb8       ?c_segregatedFreeListVerifier@Class_System_GCs_Verifier@@2PAU1@A 020c5bb8     sc.obj
 0003:0001bbbc       ?c_genericThreadReferenceVisitor@Class_System_GCs_Verifier@@2PAUClass_System_GCs_Verifier_GenericThreadReferenceVisitor@@A 020c5bbc     sc.obj
 0003:0001bbc0       ?c_genericObjectVisitor@Class_System_GCs_Verifier@@2PAUClass_System_GCs_Verifier_GenericObjectVisitor@@A 020c5bc0     sc.obj
 0003:0001bbc4       ?c_bumpAllocatorVerifier@Class_System_GCs_Verifier@@2PAU1@A 020c5bc4     sc.obj
 0003:0001bbc8       ?c_EventMetadata@Class_Microsoft_Singularity_Eventing_QuerySession@@2PAUClass_Microsoft_Singularity_Eventing_EventDescriptor@@A 020c5bc8     sc.obj
 0003:0001bbcc       ?c_DescriptorTable@Class_Microsoft_Singularity_Eventing_QuerySession@@2PAUClass_System_Collections_Hashtable@@A 020c5bcc     sc.obj
 0003:0001bbd0       ?c_Lock@Class_Microsoft_Singularity_Eventing_QuerySession@@2PAUClass_System_Threading_Mutex@@A 020c5bd0     sc.obj
 0003:0001bbd4       ?c_buffer@Class_Microsoft_Singularity_Monitoring@@2PAEA 020c5bd4     sc.obj
 0003:0001bbd8       ?c_TrueString@bool@@2PAUClass_System_String@@A 020c5bd8     sc.obj
 0003:0001bbdc       ?c_FalseString@bool@@2PAUClass_System_String@@A 020c5bdc     sc.obj
 0003:0001bbe0       ?c_staticPtrs@Class_System_GCs_MemoryAccounting@@2PAUNull@@A 020c5be0     sc.obj
 0003:0001bbe0       ?c_False@bool@@2HA         020c5be0     sc.obj
 0003:0001bbe0       ?c_True@bool@@2HA          020c5be0     sc.obj
 0003:0001bbe4       ?c_runtimeTypeMapper@Class_System_GCs_MemoryAccounting@@2PAUNull@@A 020c5be4     sc.obj
 0003:0001bbe8       ?c_forGCRuntimeTypeReckoner@Class_System_GCs_MemoryAccounting@@2PAUNull@@A 020c5be8     sc.obj
 0003:0001bbec       ?c_totalSize@Class_System_GCs_MemoryAccounting@@2IA 020c5bec     sc.obj
 0003:0001bbf0       ?c_initialized@Class_System_GCs_MemoryAccounting@@2_NA 020c5bf0     sc.obj
 0003:0001bbf4       ?c_forGCInstanceReckoner@Class_System_GCs_MemoryAccounting@@2PAUNull@@A 020c5bf4     sc.obj
 0003:0001bbf8       ?c_instanceReckoner@Class_System_GCs_MemoryAccounting@@2PAUNull@@A 020c5bf8     sc.obj
 0003:0001bbfc       ?c_traceablePinnedPtrs@Class_System_GCs_MemoryAccounting@@2PAUNull@@A 020c5bfc     sc.obj
 0003:0001bc00       ?c_table@Class_System_GCs_MemoryAccounting@@2PAUNull@@A 020c5c00     sc.obj
 0003:0001bc04       ?c_runtimeTypeReckoner@Class_System_GCs_MemoryAccounting@@2PAUNull@@A 020c5c04     sc.obj
 0003:0001bc08       ?c_forGCAssertRTypeHeaders@Class_System_GCs_MemoryAccounting@@2PAUNull@@A 020c5c08     sc.obj
 0003:0001bc0c       ?c_traceablePtrs@Class_System_GCs_MemoryAccounting@@2PAUNull@@A 020c5c0c     sc.obj
 0003:0001bc10       ?c_forGCRuntimeTypeMapper@Class_System_GCs_MemoryAccounting@@2PAUNull@@A 020c5c10     sc.obj
 0003:0001bc14       ?c_negPercentFormats@Class_System_Number@@2PAUClassVector_Class_System_String@@A 020c5c14     sc.obj
 0003:0001bc18       ?c_posNumberFormat@Class_System_Number@@2PAUClass_System_String@@A 020c5c18     sc.obj
 0003:0001bc1c       ?c_negNumberFormats@Class_System_Number@@2PAUClassVector_Class_System_String@@A 020c5c1c     sc.obj
 0003:0001bc20       ?c_posPercentFormats@Class_System_Number@@2PAUClassVector_Class_System_String@@A 020c5c20     sc.obj
 0003:0001bc24       ?c_SR$$9@Class_Microsoft_Singularity_Applications_ServiceManager_SMSClient@@2PAUClassVector_ClassVector_int32@@A 020c5c24     sc.obj
 0003:0001bc28       ?c_SR$$15@Class_Microsoft_Singularity_Applications_ServiceManager_SMSClient@@2PAUClassVector_ClassVector_int32@@A 020c5c28     sc.obj
 0003:0001bc2c       ?c_SR$$14@Class_Microsoft_Singularity_Applications_ServiceManager_SMSClient@@2PAUClassVector_ClassVector_int32@@A 020c5c2c     sc.obj
 0003:0001bc30       ?c_SR$$16@Class_Microsoft_Singularity_Applications_ServiceManager_SMSClient@@2PAUClassVector_ClassVector_int32@@A 020c5c30     sc.obj
 0003:0001bc34       ?c_SR$$11@Class_Microsoft_Singularity_Applications_ServiceManager_SMSClient@@2PAUClassVector_ClassVector_int32@@A 020c5c34     sc.obj
 0003:0001bc38       ?c_SR$$10@Class_Microsoft_Singularity_Applications_ServiceManager_SMSClient@@2PAUClassVector_ClassVector_int32@@A 020c5c38     sc.obj
 0003:0001bc3c       ?c_SR$$13@Class_Microsoft_Singularity_Applications_ServiceManager_SMSClient@@2PAUClassVector_ClassVector_int32@@A 020c5c3c     sc.obj
 0003:0001bc40       ?c_SR$$12@Class_Microsoft_Singularity_Applications_ServiceManager_SMSClient@@2PAUClassVector_ClassVector_int32@@A 020c5c40     sc.obj
 0003:0001bc44       ?c_SR$$8@Class_Microsoft_Singularity_Applications_ServiceManager_TerminateServiceCommand@@2PAUClassVector_ClassVector_int32@@A 020c5c44     sc.obj
 0003:0001bc48       ?c_MaxValue@Struct_System_DateTime@@2?AU1@A 020c5c48     sc.obj
 0003:0001bc50       ?c_MinValue@Struct_System_DateTime@@2?AU1@A 020c5c50     sc.obj
 0003:0001bc58       ?c_DaysToMonth366@Struct_System_DateTime@@2PAUClassVector_int32@@A 020c5c58     sc.obj
 0003:0001bc9c       ?c_DaysToMonth365@Struct_System_DateTime@@2PAUClassVector_int32@@A 020c5c9c     sc.obj
 0003:0001bce0       ?c_$_$_int16@Class_Microsoft_Singularity_Eventing_DataType@@2GA 020c5ce0     sc.obj
 0003:0001bce0       ?c_$_$_int64@Class_Microsoft_Singularity_Eventing_DataType@@2GA 020c5ce0     sc.obj
 0003:0001bce0       ?c_$_$_int32@Class_Microsoft_Singularity_Eventing_DataType@@2GA 020c5ce0     sc.obj
 0003:0001bce0       ?c_$_$_uint64@Class_Microsoft_Singularity_Eventing_DataType@@2GA 020c5ce0     sc.obj
 0003:0001bce0       ?c_$_$_int@Class_Microsoft_Singularity_Eventing_DataType@@2GA 020c5ce0     sc.obj
 0003:0001bce0       ?c_$_$_uint16@Class_Microsoft_Singularity_Eventing_DataType@@2GA 020c5ce0     sc.obj
 0003:0001bce0       ?c_$_$_arrayType@Class_Microsoft_Singularity_Eventing_DataType@@2GA 020c5ce0     sc.obj
 0003:0001bce0       ?c_$_$_uint@Class_Microsoft_Singularity_Eventing_DataType@@2GA 020c5ce0     sc.obj
 0003:0001bce0       ?c_$_$_uint8@Class_Microsoft_Singularity_Eventing_DataType@@2GA 020c5ce0     sc.obj
 0003:0001bce0       ?c_$_$_uint32@Class_Microsoft_Singularity_Eventing_DataType@@2GA 020c5ce0     sc.obj
 0003:0001bce0       ?c_$_$_int8@Class_Microsoft_Singularity_Eventing_DataType@@2GA 020c5ce0     sc.obj
 0003:0001bce0       ?c_$_$_szChar@Class_Microsoft_Singularity_Eventing_DataType@@2GA 020c5ce0     sc.obj
 0003:0001bce0       ?c_$_$_string@Class_Microsoft_Singularity_Eventing_DataType@@2GA 020c5ce0     sc.obj
 0003:0001bce0       ?c_$_$_byte@Class_Microsoft_Singularity_Eventing_DataType@@2GA 020c5ce0     sc.obj
 0003:0001bce0       ?c_$_$_IntPtr@Class_Microsoft_Singularity_Eventing_DataType@@2GA 020c5ce0     sc.obj
 0003:0001bce0       ?c_$_$_UIntPtr@Class_Microsoft_Singularity_Eventing_DataType@@2GA 020c5ce0     sc.obj
 0003:0001bce0       ?c_MD5$_Const@Class_Microsoft_Singularity_Crypto_MD5@@2PAUClassVector_uint32@@A 020c5ce0     sc.obj
 0003:0001bdf0       ?c_internedStringConstants@Class_System_String@@2PAUClassVector_Class_System_String@@A 020c5df0     sc.obj
 0003:00031834       c_dataSectionEnd@Class_System_GCs_StaticData 020db834     sc.obj
 0003:00031980       __fltused                  020db980     native.Full:Number.obj
 0003:00031ef0       ?KdDebuggerNotPresent@@3HA 020dbef0     native.Full:ProcessEntry.obj
 0003:00031ef4       ?TracingStorageHandle@@3PAUuintPtr@@A 020dbef4     native.Full:Tracing.obj
 0003:00031ef8       ?TracingSource@@3PAU_SOURCE_DESCRIPTOR@@A 020dbef8     native.Full:Tracing.obj
 0003:00031efc       ?TracingTypeHandle@@3PAUuintPtr@@A 020dbefc     native.Full:Tracing.obj
 0003:00031f00       ?SourceController@@3U_SOURCE_CONTROLLER@@A 020dbf00     native.Full:EventController.obj
 0003:00031f1c       ?Handle_GC_TYPE@@3PAUuintPtr@@A 020dbf1c     native.Full:EventDescriptor.obj
 0003:00031f20       ?Handle_MEMORY_HEADER@@3PAUuintPtr@@A 020dbf20     native.Full:EventDescriptor.obj
 0003:00031f24       ?Handle_GC_FUNCTION@@3PAUuintPtr@@A 020dbf24     native.Full:EventDescriptor.obj
 0003:00031f28       ?Handle_GC_STACK@@3PAUuintPtr@@A 020dbf28     native.Full:EventDescriptor.obj
 0003:00031f2c       ?Handle_GC_OBJECT@@3PAUuintPtr@@A 020dbf2c     native.Full:EventDescriptor.obj
 0003:00031f30       ?Handle_LOG_EXCEPTION@@3PAUuintPtr@@A 020dbf30     native.Full:EventDescriptor.obj
 0003:00031f34       ?Handle_GC_ALLOCATION@@3PAUuintPtr@@A 020dbf34     native.Full:EventDescriptor.obj
 0003:00031f38       ?Handle_GC_GENERATIONS@@3PAUuintPtr@@A 020dbf38     native.Full:EventDescriptor.obj
 0003:00031f3c       ?Handle_LOG_SEVERITY@@3PAUuintPtr@@A 020dbf3c     native.Full:EventDescriptor.obj
 0003:00031f40       ?Handle_MONITORING_ENTRY@@3PAUuintPtr@@A 020dbf40     native.Full:EventDescriptor.obj
 0003:00031f44       ?Handle_GC_ROOTS@@3PAUuintPtr@@A 020dbf44     native.Full:EventDescriptor.obj
 0003:00031f48       ?Handle_LEGACY_LOG_ENTRY@@3PAUuintPtr@@A 020dbf48     native.Full:EventDescriptor.obj
 0003:00031f4c       ?Handle_GC_INTERVAL@@3PAUuintPtr@@A 020dbf4c     native.Full:EventDescriptor.obj
 0003:00031f50       ?MonitoringStorageHandle@@3PAUuintPtr@@A 020dbf50     native.Full:Monitoring.obj
 0003:00031f54       ?MonitoringSource@@3PAU_SOURCE_DESCRIPTOR@@A 020dbf54     native.Full:Monitoring.obj
 0003:00031f58       ?MonitoringTypeHandle@@3PAUuintPtr@@A 020dbf58     native.Full:Monitoring.obj
 0004:00000000       ___xc_a                    020dc000     native.Full:CInit.obj
 0004:00000004       ___xc_z                    020dc004     native.Full:CInit.obj
 0004:00000008       ___xi_a                    020dc008     native.Full:CInit.obj
 0004:0000000c       ___xi_z                    020dc00c     native.Full:CInit.obj
 0004:00000010       ___xp_a                    020dc010     native.Full:CInit.obj
 0004:00000014       ___xp_z                    020dc014     native.Full:CInit.obj
 0004:00000018       ___xt_a                    020dc018     native.Full:CInit.obj
 0004:0000001c       ___xt_z                    020dc01c     native.Full:CInit.obj

 entry point at        0000:00000000

 Static symbols

 0001:0008d2e0       ?dtold12@@YIXPAU_LDBL12@@PBN@Z 0208e2e0 f   native.Full:Number.obj
 0001:0008d3b0       ?ld12mul@@YIXPAU_LDBL12@@0@Z 0208e3b0 f   native.Full:Number.obj
 0001:0008d670       ?multtenpow12@@YIXPAU_LDBL12@@H@Z 0208e670 f   native.Full:Number.obj
 0001:0008e850       ?LookupTable@@YIIIPAPAUExceptionTableEntry@@0@Z 0208f850 f   native.Full:halexn.obj
