 Shell

 Timestamp is 62167189 (Wed Feb 23 18:40:25 2022)

 Preferred load address is 02000000

 Start         Length     Name                   Class
 0001:00000000 000e38a4H .text                   CODE
 0002:00000000 00000180H .idata$5                DATA
 0002:00000180 000259d9H .rdata                  DATA
 0002:00025b5c 00000014H .idata$2                DATA
 0002:00025b70 00000014H .idata$3                DATA
 0002:00025b84 00000180H .idata$4                DATA
 0002:00025d04 0000273aH .idata$6                DATA
 0002:0002843e 00000000H .edata                  DATA
 0002:00028440 0000007aH .rdata$debug            DATA
 0003:00000000 0004bd50H .data                   DATA
 0003:0004bd50 00000070H .bss                    DATA
 0004:00000000 00000004H .CRT$XCA                DATA
 0004:00000004 00000004H .CRT$XCZ                DATA
 0004:00000008 00000004H .CRT$XIA                DATA
 0004:0000000c 00000004H .CRT$XIZ                DATA
 0004:00000010 00000004H .CRT$XPA                DATA
 0004:00000014 00000004H .CRT$XPZ                DATA
 0004:00000018 00000004H .CRT$XTA                DATA
 0004:0000001c 00000004H .CRT$XTZ                DATA

  Address         Publics by Value              Rva+Base       Lib:Object

 0000:00000000       ___safe_se_handler_table   00000000     <absolute>
 0000:00000000       ___safe_se_handler_count   00000000     <absolute>
 0001:00000000       ?m_StructCopy@Struct_Microsoft_Singularity_Directory_DirectoryServiceContract_AckDeleteLink@@SIXPAU1@0@Z 02001000 f   Shell.obj
 0001:00000000       C:\Users\cc\source\repos\Singularity-OS\base.obj\AppNativeObj\Debug.x86.MarkSweep\Shell_CodeBase 02001000     Shell.obj
 0001:0000001c       ?m_StructCopy@Struct_Microsoft_Singularity_Directory_DirectoryServiceContract_AckDeleteLink@@SIXPAU1@PAU1@@Z 0200101c f   Shell.obj
 0001:00000070       ?m_Equals@Struct_Microsoft_Singularity_Directory_DirectoryServiceContract_AckDeleteLink@@SI_NPAU1@PAUClass_System_Object@@@Z 02001070 f   Shell.obj
 0001:000000a8       ?m_Equals@Struct_Microsoft_Singularity_Directory_DirectoryServiceContract_AckDeleteLink@@SI_NPAUClass_Microsoft_Singularity_Directory_DirectoryServiceContract_AckDeleteLink@@PAUClass_System_Object@@@Z 020010a8 f   Shell.obj
 0001:000000d4       ?m__ctor@Class_Microsoft_Singularity_Applications_Parser_Token@@SIXPAU1@HPAUClass_System_Object@@HH@Z 020010d4 f   Shell.obj
 0001:00000128       ?m__ctor@Class_System_LocalDataStoreMgr@@SIXPAU1@@Z 02001128 f   Shell.obj
 0001:000001b8       ?g_Write@Class_System_Text_RegularExpressions_RegexWriter@@SIPAUClass_System_Text_RegularExpressions_RegexCode@@PAUClass_System_Text_RegularExpressions_RegexTree@@@Z 020011b8 f   Shell.obj
 0001:00000220       ?m_StringCode@Class_System_Text_RegularExpressions_RegexWriter@@SIHPAU1@PAUClass_System_String@@@Z 02001220 f   Shell.obj
 0001:00000340       ?m_RegexCodeFromRegexTree@Class_System_Text_RegularExpressions_RegexWriter@@SIPAUClass_System_Text_RegularExpressions_RegexCode@@PAU1@PAUClass_System_Text_RegularExpressions_RegexTree@@@Z 02001340 f   Shell.obj
 0001:000007d0       ?m_PushInt@Class_System_Text_RegularExpressions_RegexWriter@@SIXPAU1@H@Z 020017d0 f   Shell.obj
 0001:0000086c       ?m_PopInt@Class_System_Text_RegularExpressions_RegexWriter@@SIHPAU1@@Z 0200186c f   Shell.obj
 0001:000008ac       ?m_PatchJump@Class_System_Text_RegularExpressions_RegexWriter@@SIXPAU1@HH@Z 020018ac f   Shell.obj
 0001:000008ec       ?m_MapCapnum@Class_System_Text_RegularExpressions_RegexWriter@@SIHPAU1@H@Z 020018ec f   Shell.obj
 0001:0000097c       ?m_MakeException@Class_System_Text_RegularExpressions_RegexWriter@@SIPAUClass_System_ArgumentException@@PAU1@PAUClass_System_String@@@Z 0200197c f   Shell.obj
 0001:000009b8       ?m_EmptyStack@Class_System_Text_RegularExpressions_RegexWriter@@SI_NPAU1@@Z 020019b8 f   Shell.obj
 0001:000009e0       ?m_EmitFragment@Class_System_Text_RegularExpressions_RegexWriter@@SIXPAU1@HPAUClass_System_Text_RegularExpressions_RegexNode@@H@Z 020019e0 f   Shell.obj
 0001:000012d4       ?m_Emit@Class_System_Text_RegularExpressions_RegexWriter@@SIXPAU1@H@Z 020022d4 f   Shell.obj
 0001:00001358       ?m_Emit@Class_System_Text_RegularExpressions_RegexWriter@@SIXPAU1@HH@Z 02002358 f   Shell.obj
 0001:00001400       ?m_Emit@Class_System_Text_RegularExpressions_RegexWriter@@SIXPAU1@HHH@Z 02002400 f   Shell.obj
 0001:000014d0       ?m_Emit@Class_System_Text_RegularExpressions_RegexWriter@@SIXPAU1@HHHH@Z 020024d0 f   Shell.obj
 0001:000015c4       ?m_CurPos@Class_System_Text_RegularExpressions_RegexWriter@@SIHPAU1@@Z 020025c4 f   Shell.obj
 0001:000015e4       ?m__ctor@Class_System_Text_RegularExpressions_RegexWriter@@SIXPAU1@@Z 020025e4 f   Shell.obj
 0001:00001680       ?m_StructCopy@Struct_Microsoft_Singularity_Directory_FileAttributesRecord@@SIXPAU1@0@Z 02002680 f   Shell.obj
 0001:00001708       ?m_StructCopy@Struct_Microsoft_Singularity_Directory_FileAttributesRecord@@SIXPAU1@PAU1@@Z 02002708 f   Shell.obj
 0001:000018a0       ?m_Equals@Struct_Microsoft_Singularity_Directory_FileAttributesRecord@@SI_NPAU1@PAUClass_System_Object@@@Z 020028a0 f   Shell.obj
 0001:000019e8       ?m_Equals@Struct_Microsoft_Singularity_Directory_FileAttributesRecord@@SI_NPAUClass_Microsoft_Singularity_Directory_FileAttributesRecord@@PAUClass_System_Object@@@Z 020029e8 f   Shell.obj
 0001:00001a14       ?m_StructCopy@Struct_Microsoft_Singularity_Directory_DirectoryServiceContract_AckDeleteFile@@SIXPAU1@0@Z 02002a14 f   Shell.obj
 0001:00001a30       ?m_StructCopy@Struct_Microsoft_Singularity_Directory_DirectoryServiceContract_AckDeleteFile@@SIXPAU1@PAU1@@Z 02002a30 f   Shell.obj
 0001:00001a84       ?m_Equals@Struct_Microsoft_Singularity_Directory_DirectoryServiceContract_AckDeleteFile@@SI_NPAU1@PAUClass_System_Object@@@Z 02002a84 f   Shell.obj
 0001:00001abc       ?m_Equals@Struct_Microsoft_Singularity_Directory_DirectoryServiceContract_AckDeleteFile@@SI_NPAUClass_Microsoft_Singularity_Directory_DirectoryServiceContract_AckDeleteFile@@PAUClass_System_Object@@@Z 02002abc f   Shell.obj
 0001:00001ae8       ?m_MoveNext@Class_System_Collections_Hashtable_HashtableEnumerator@@SI_NPAU1@@Z 02002ae8 f   Shell.obj
 0001:00001bb8       ?m_get$_Key@Class_System_Collections_Hashtable_HashtableEnumerator@@SIPAUClass_System_Object@@PAU1@@Z 02002bb8 f   Shell.obj
 0001:00001c3c       ?m_get$_Current@Class_System_Collections_Hashtable_HashtableEnumerator@@SIPAUClass_System_Object@@PAU1@@Z 02002c3c f   Shell.obj
 0001:00001d04       ?m__ctor@Class_System_Collections_Hashtable_HashtableEnumerator@@SIXPAU1@PAUClass_System_Collections_Hashtable@@H@Z 02002d04 f   Shell.obj
 0001:00001d58       ?m_StructCopy@Struct_Microsoft_Singularity_Directory_DirectoryServiceContract_NakNotifyReparse@@SIXPAU1@0@Z 02002d58 f   Shell.obj
 0001:00001da4       ?m_StructCopy@Struct_Microsoft_Singularity_Directory_DirectoryServiceContract_NakNotifyReparse@@SIXPAU1@PAU1@@Z 02002da4 f   Shell.obj
 0001:00001e88       ?m_Equals@Struct_Microsoft_Singularity_Directory_DirectoryServiceContract_NakNotifyReparse@@SI_NPAU1@PAUClass_System_Object@@@Z 02002e88 f   Shell.obj
 0001:00001f00       ?m_Equals@Struct_Microsoft_Singularity_Directory_DirectoryServiceContract_NakNotifyReparse@@SI_NPAUClass_Microsoft_Singularity_Directory_DirectoryServiceContract_NakNotifyReparse@@PAUClass_System_Object@@@Z 02002f00 f   Shell.obj
 0001:00001f2c       ?m_Get@Class_System_Text_RegularExpressions_SharedReference@@SIPAUClass_System_Object@@PAU1@@Z 02002f2c f   Shell.obj
 0001:00001f88       ?m_Cache@Class_System_Text_RegularExpressions_SharedReference@@SIXPAU1@PAUClass_System_Object@@@Z 02002f88 f   Shell.obj
 0001:00001fd4       ?m__ctor@Class_System_Text_RegularExpressions_SharedReference@@SIXPAU1@@Z 02002fd4 f   Shell.obj
 0001:0000201c       ?m_Interpret@Class_Microsoft_Singularity_Applications_ScriptEngine_IfThenElse@@SIXPAU1@PAUClass_Microsoft_Singularity_Applications_ShellControl@@PAUClass_Microsoft_Singularity_Applications_ScriptEngine_Interpretation@@@Z 0200301c f   Shell.obj
 0001:0000207c       ?m__ctor@Class_Microsoft_Singularity_Applications_ScriptEngine_IfThenElse@@SIXPAU1@PAUClass_Microsoft_Singularity_Applications_ScriptEngine_Expression@@PAUClass_Microsoft_Singularity_Applications_ScriptEngine_Block@@2@Z 0200307c f   Shell.obj
 0001:000020c0       ?m_StructCopy@Struct_Microsoft_Singularity_Directory_ServiceProviderContract_NackConnect@@SIXPAU1@0@Z 020030c0 f   Shell.obj
 0001:000020e8       ?m_StructCopy@Struct_Microsoft_Singularity_Directory_ServiceProviderContract_NackConnect@@SIXPAU1@PAU1@@Z 020030e8 f   Shell.obj
 0001:00002160       ?m_Equals@Struct_Microsoft_Singularity_Directory_ServiceProviderContract_NackConnect@@SI_NPAU1@PAUClass_System_Object@@@Z 02003160 f   Shell.obj
 0001:000021a8       ?m_Equals@Struct_Microsoft_Singularity_Directory_ServiceProviderContract_NackConnect@@SI_NPAUClass_Microsoft_Singularity_Directory_ServiceProviderContract_NackConnect@@PAUClass_System_Object@@@Z 020031a8 f   Shell.obj
 0001:000021d4       ?g_WaitForPending@Struct_System_Finalizer@@SIXXZ 020031d4 f   Shell.obj
 0001:00002204       ?g_VisitBootstrapData@Struct_System_Finalizer@@SIXPAUClass_System_GCs_DirectReferenceVisitor@@@Z 02003204 f   Shell.obj
 0001:0000226c       ?g_VisitAllRunFinalizer@Struct_System_Finalizer@@SIXPAUClass_System_GCs_DirectReferenceVisitor@@_N1@Z 0200326c f   Shell.obj
 0001:000023e4       ?g_ThreadLoop@Struct_System_Finalizer@@SIXXZ 020033e4 f   Shell.obj
 0001:00002480       ?g_SuppressCandidate@Struct_System_Finalizer@@SIXPAUClass_System_Object@@@Z 02003480 f   Shell.obj
 0001:0000265c       ?m_StructCopy@Struct_System_Finalizer@@SIXPAU1@0@Z 0200365c f   Shell.obj
 0001:00002678       ?m_StructCopy@Struct_System_Finalizer@@SIXPAU1@PAU1@@Z 02003678 f   Shell.obj
 0001:000026cc       ?g_StartFinalizerThread@Struct_System_Finalizer@@SIXXZ 020036cc f   Shell.obj
 0001:000027ac       ?g_Shutdown@Struct_System_Finalizer@@SIXXZ 020037ac f   Shell.obj
 0001:00002920       ?g_ResurrectCandidates@Struct_System_Finalizer@@SIXPAUClass_System_GCs_DirectReferenceVisitor@@0_N@Z 02003920 f   Shell.obj
 0001:00002ec0       ?g_ReleaseCollectFinalizers@Struct_System_Finalizer@@SIXXZ 02003ec0 f   Shell.obj
 0001:00002f08       ?g_RegisterCandidate@Struct_System_Finalizer@@SIXPAUClass_System_Object@@@Z 02003f08 f   Shell.obj
 0001:000032cc       ?g_PrepareCollectFinalizers@Struct_System_Finalizer@@SIXXZ 020042cc f   Shell.obj
 0001:000033b8       ?g_LinkToIndex@Struct_System_Finalizer@@SIHH@Z 020043b8 f   Shell.obj
 0001:000033e8       ?g_IsLink@Struct_System_Finalizer@@SI_NH@Z 020043e8 f   Shell.obj
 0001:00003410       ?g_IndexToLink@Struct_System_Finalizer@@SIHH@Z 02004410 f   Shell.obj
 0001:00003434       ?g_GetObjectFromRun@Struct_System_Finalizer@@SIPAUClass_System_Object@@XZ 02004434 f   Shell.obj
 0001:000035d0       ?m_Equals@Struct_System_Finalizer@@SI_NPAU1@PAUClass_System_Object@@@Z 020045d0 f   Shell.obj
 0001:00003608       ?m_Equals@Struct_System_Finalizer@@SI_NPAUClass_System_Finalizer@@PAUClass_System_Object@@@Z 02004608 f   Shell.obj
 0001:00003634       ?g_CompactTables@Struct_System_Finalizer@@SIXXZ 02004634 f   Shell.obj
 0001:00003648       ?g__cctor@Struct_System_Finalizer@@SIXXZ 02004648 f   Shell.obj
 0001:000037dc       ?m_RemoveStoppedJobs@Class_Microsoft_Singularity_Applications_ShellControl@@SIXPAU1@@Z 020047dc f   Shell.obj
 0001:00003ac4       ?m_Microsoft_SingSharp_ITracked_UnExpose@Class_Microsoft_Singularity_Applications_ShellControl@@SIXPAU1@@Z 02004ac4 f   Shell.obj
 0001:00003ae0       ?m_Microsoft_SingSharp_ITracked_Release@Class_Microsoft_Singularity_Applications_ShellControl@@SIXPAU1@@Z 02004ae0 f   Shell.obj
 0001:00003afc       ?m_Microsoft_SingSharp_ITracked_Expose@Class_Microsoft_Singularity_Applications_ShellControl@@SIXPAU1@@Z 02004afc f   Shell.obj
 0001:00003b18       ?m_Microsoft_SingSharp_ITracked_Acquire@Class_Microsoft_Singularity_Applications_ShellControl@@SIXPAU1@@Z 02004b18 f   Shell.obj
 0001:00003b34       ?m_GetEnumerator@Class_Microsoft_Singularity_Applications_ShellControl@@SIPAUClass_System_Collections_IEnumerator@@PAU1@@Z 02004b34 f   Shell.obj
 0001:00003ba8       ?m_get$_Item@Class_Microsoft_Singularity_Applications_ShellControl@@SIPAUClass_Microsoft_Singularity_Applications_Job@@PAU1@H@Z 02004ba8 f   Shell.obj
 0001:00003c38       ?m_FreshStdout@Class_Microsoft_Singularity_Applications_ShellControl@@SIPAUStruct_Microsoft_Singularity_Io_UnicodePipeContract_Imp@@PAU1@@Z 02004c38 f   Shell.obj
 0001:00003cc8       ?m_Dispose@Class_Microsoft_Singularity_Applications_ShellControl@@SIXPAU1@@Z 02004cc8 f   Shell.obj
 0001:00003cec       ?m_Add@Class_Microsoft_Singularity_Applications_ShellControl@@SIXPAU1@PAUClass_Microsoft_Singularity_Applications_Job@@@Z 02004cec f   Shell.obj
 0001:00003d4c       ?m__ctor@Class_Microsoft_Singularity_Applications_ShellControl@@SIXPAU1@PAUClass_Microsoft_Singularity_Io_PipeMultiplexer@@@Z 02004d4c f   Shell.obj
 0001:00003d9c       ?g_visitAllObjects@Class_System_GCs_MemoryAccounting@@SIXPAUClass_System_GCs_ObjectLayout_ObjectVisitor@@PAUuintPtr@@1@Z 02004d9c f   Shell.obj
 0001:00004100       ?g_TotalNumPages@Class_System_GCs_MemoryAccounting@@SIIUStruct_System_GCs_PageType@@@Z 02005100 f   Shell.obj
 0001:00004254       ?g_ReportStackDetails@Class_System_GCs_MemoryAccounting@@SIXXZ 02005254 f   Shell.obj
 0001:00004660       ?g_ReportNonGCDetails@Class_System_GCs_MemoryAccounting@@SIXXZ 02005660 f   Shell.obj
 0001:000048f8       ?g_ReportHeapDetails@Class_System_GCs_MemoryAccounting@@SIXXZ 020058f8 f   Shell.obj
 0001:00005244       ?g_Report@Class_System_GCs_MemoryAccounting@@SIXUStruct_Microsoft_Bartok_Runtime_GCType@@@Z 02006244 f   Shell.obj
 0001:00005404       ?g_assertRuntimeTypeHeaders@Class_System_GCs_MemoryAccounting@@SIXPAUuintPtr@@0@Z 02006404 f   Shell.obj
 0001:00005434       ?m__ctor@Class_System_GCs_MemoryAccounting@@SIXPAU1@@Z 02006434 f   Shell.obj
 0001:0000544c       ?m_MoveNext@Class_System_Array_ArrayEnumerator@@SI_NPAU1@@Z 0200644c f   Shell.obj
 0001:000054a4       ?m_IncArray@Class_System_Array_ArrayEnumerator@@SIXPAU1@@Z 020064a4 f   Shell.obj
 0001:000055e4       ?m_get$_Current@Class_System_Array_ArrayEnumerator@@SIPAUClass_System_Object@@PAU1@@Z 020065e4 f   Shell.obj
 0001:00005674       ?m__ctor@Class_System_Array_ArrayEnumerator@@SIXPAU1@PAUClass_System_Array@@HH@Z 02006674 f   Shell.obj
 0001:00005790       ?m_StructCopy@Struct_Microsoft_Singularity_Directory_DirectoryServiceContract_AckDeregister@@SIXPAU1@0@Z 02006790 f   Shell.obj
 0001:000057b8       ?m_StructCopy@Struct_Microsoft_Singularity_Directory_DirectoryServiceContract_AckDeregister@@SIXPAU1@PAU1@@Z 020067b8 f   Shell.obj
 0001:00005830       ?m_Equals@Struct_Microsoft_Singularity_Directory_DirectoryServiceContract_AckDeregister@@SI_NPAU1@PAUClass_System_Object@@@Z 02006830 f   Shell.obj
 0001:00005878       ?m_Equals@Struct_Microsoft_Singularity_Directory_DirectoryServiceContract_AckDeregister@@SI_NPAUClass_Microsoft_Singularity_Directory_DirectoryServiceContract_AckDeregister@@PAUClass_System_Object@@@Z 02006878 f   Shell.obj
 0001:000058a4       ?m__ctor@Class_System_Reflection_Assembly@@SIXPAU1@@Z 020068a4 f   Shell.obj
 0001:000058c0       ?g__cctor@Class_System_Reflection_Assembly@@SIXXZ 020068c0 f   Shell.obj
 0001:000058d4       ?m_Trackto@Class_System_Text_RegularExpressions_RegexInterpreter@@SIXPAU1@H@Z 020068d4 f   Shell.obj
 0001:00005904       ?m_Trackpos@Class_System_Text_RegularExpressions_RegexInterpreter@@SIHPAU1@@Z 02006904 f   Shell.obj
 0001:00005930       ?m_Trackframe@Class_System_Text_RegularExpressions_RegexInterpreter@@SIXPAU1@H@Z 02006930 f   Shell.obj
 0001:00005960       ?m_Tracked@Class_System_Text_RegularExpressions_RegexInterpreter@@SIHPAU1@H@Z 02006960 f   Shell.obj
 0001:000059a4       ?m_Track2@Class_System_Text_RegularExpressions_RegexInterpreter@@SIXPAU1@H@Z 020069a4 f   Shell.obj
 0001:00005a10       ?m_Track2@Class_System_Text_RegularExpressions_RegexInterpreter@@SIXPAU1@HH@Z 02006a10 f   Shell.obj
 0001:00005a9c       ?m_Track@Class_System_Text_RegularExpressions_RegexInterpreter@@SIXPAU1@@Z 02006a9c f   Shell.obj
 0001:00005ae0       ?m_Track@Class_System_Text_RegularExpressions_RegexInterpreter@@SIXPAU1@H@Z 02006ae0 f   Shell.obj
 0001:00005b48       ?m_Track@Class_System_Text_RegularExpressions_RegexInterpreter@@SIXPAU1@HH@Z 02006b48 f   Shell.obj
 0001:00005bd4       ?m_Track@Class_System_Text_RegularExpressions_RegexInterpreter@@SIXPAU1@HHH@Z 02006bd4 f   Shell.obj
 0001:00005c80       ?m_Textto@Class_System_Text_RegularExpressions_RegexInterpreter@@SIXPAU1@H@Z 02006c80 f   Shell.obj
 0001:00005ca8       ?m_Textstart@Class_System_Text_RegularExpressions_RegexInterpreter@@SIHPAU1@@Z 02006ca8 f   Shell.obj
 0001:00005cc8       ?m_Textpos@Class_System_Text_RegularExpressions_RegexInterpreter@@SIHPAU1@@Z 02006cc8 f   Shell.obj
 0001:00005ce8       ?m_Stringmatch@Class_System_Text_RegularExpressions_RegexInterpreter@@SI_NPAU1@PAUClass_System_String@@@Z 02006ce8 f   Shell.obj
 0001:00005e74       ?m_Stackframe@Class_System_Text_RegularExpressions_RegexInterpreter@@SIXPAU1@H@Z 02006e74 f   Shell.obj
 0001:00005ea4       ?m_Stacked@Class_System_Text_RegularExpressions_RegexInterpreter@@SIHPAU1@H@Z 02006ea4 f   Shell.obj
 0001:00005ee8       ?m_Stack@Class_System_Text_RegularExpressions_RegexInterpreter@@SIXPAU1@H@Z 02006ee8 f   Shell.obj
 0001:00005f2c       ?m_Stack@Class_System_Text_RegularExpressions_RegexInterpreter@@SIXPAU1@HH@Z 02006f2c f   Shell.obj
 0001:00005f94       ?m_SetOperator@Class_System_Text_RegularExpressions_RegexInterpreter@@SIXPAU1@H@Z 02006f94 f   Shell.obj
 0001:00005fe8       ?m_Rightchars@Class_System_Text_RegularExpressions_RegexInterpreter@@SIHPAU1@@Z 02006fe8 f   Shell.obj
 0001:00006014       ?m_Refmatch@Class_System_Text_RegularExpressions_RegexInterpreter@@SI_NPAU1@HH@Z 02007014 f   Shell.obj
 0001:000061b0       ?m_Operator@Class_System_Text_RegularExpressions_RegexInterpreter@@SIHPAU1@@Z 020071b0 f   Shell.obj
 0001:000061d0       ?m_Operand@Class_System_Text_RegularExpressions_RegexInterpreter@@SIHPAU1@H@Z 020071d0 f   Shell.obj
 0001:00006214       ?m_Leftchars@Class_System_Text_RegularExpressions_RegexInterpreter@@SIHPAU1@@Z 02007214 f   Shell.obj
 0001:00006240       ?m_InitTrackCount@Class_System_Text_RegularExpressions_RegexInterpreter@@SIXPAU1@@Z 02007240 f   Shell.obj
 0001:00006268       ?m_Goto@Class_System_Text_RegularExpressions_RegexInterpreter@@SIXPAU1@H@Z 02007268 f   Shell.obj
 0001:000062c8       ?m_Go@Class_System_Text_RegularExpressions_RegexInterpreter@@SIXPAU1@@Z 020072c8 f   Shell.obj
 0001:00007b54       ?m_Forwardchars@Class_System_Text_RegularExpressions_RegexInterpreter@@SIHPAU1@@Z 02008b54 f   Shell.obj
 0001:00007ba0       ?m_Forwardcharnext@Class_System_Text_RegularExpressions_RegexInterpreter@@SI_WPAU1@@Z 02008ba0 f   Shell.obj
 0001:00007c40       ?m_FindFirstChar@Class_System_Text_RegularExpressions_RegexInterpreter@@SI_NPAU1@@Z 02008c40 f   Shell.obj
 0001:00008060       ?m_CharAt@Class_System_Text_RegularExpressions_RegexInterpreter@@SI_WPAU1@H@Z 02009060 f   Shell.obj
 0001:00008090       ?m_Bump@Class_System_Text_RegularExpressions_RegexInterpreter@@SIHPAU1@@Z 02009090 f   Shell.obj
 0001:000080c4       ?m_Backwardnext@Class_System_Text_RegularExpressions_RegexInterpreter@@SIXPAU1@@Z 020090c4 f   Shell.obj
 0001:00008108       ?m_Backtrack@Class_System_Text_RegularExpressions_RegexInterpreter@@SIXPAU1@@Z 02009108 f   Shell.obj
 0001:000081e0       ?m_Advance@Class_System_Text_RegularExpressions_RegexInterpreter@@SIXPAU1@@Z 020091e0 f   Shell.obj
 0001:00008208       ?m_Advance@Class_System_Text_RegularExpressions_RegexInterpreter@@SIXPAU1@H@Z 02009208 f   Shell.obj
 0001:00008258       ?m__ctor@Class_System_Text_RegularExpressions_RegexInterpreter@@SIXPAU1@PAUClass_System_Text_RegularExpressions_RegexCode@@PAUClass_System_Globalization_CultureInfo@@@Z 02009258 f   Shell.obj
 0001:000082d8       ?m_UseOptionR@Class_System_Text_RegularExpressions_RegexNode@@SI_NPAU1@@Z 020092d8 f   Shell.obj
 0001:00008300       ?m_Type@Class_System_Text_RegularExpressions_RegexNode@@SIHPAU1@@Z 02009300 f   Shell.obj
 0001:00008320       ?m_StripEnation@Class_System_Text_RegularExpressions_RegexNode@@SIPAU1@PAU1@H@Z 02009320 f   Shell.obj
 0001:0000839c       ?m_ReverseLeft@Class_System_Text_RegularExpressions_RegexNode@@SIPAU1@PAU1@@Z 0200939c f   Shell.obj
 0001:00008420       ?m_ReduceSet@Class_System_Text_RegularExpressions_RegexNode@@SIPAU1@PAU1@@Z 02009420 f   Shell.obj
 0001:000085c0       ?m_ReduceRep@Class_System_Text_RegularExpressions_RegexNode@@SIPAU1@PAU1@@Z 020095c0 f   Shell.obj
 0001:000087d0       ?m_ReduceGroup@Class_System_Text_RegularExpressions_RegexNode@@SIPAU1@PAU1@@Z 020097d0 f   Shell.obj
 0001:00008834       ?m_ReduceConcatenation@Class_System_Text_RegularExpressions_RegexNode@@SIPAU1@PAU1@@Z 02009834 f   Shell.obj
 0001:00008bf4       ?m_ReduceAlternation@Class_System_Text_RegularExpressions_RegexNode@@SIPAU1@PAU1@@Z 02009bf4 f   Shell.obj
 0001:00008f90       ?m_Reduce@Class_System_Text_RegularExpressions_RegexNode@@SIPAU1@PAU1@@Z 02009f90 f   Shell.obj
 0001:00009024       ?m_MakeRep@Class_System_Text_RegularExpressions_RegexNode@@SIXPAU1@HHH@Z 0200a024 f   Shell.obj
 0001:00009068       ?m_MakeQuantifier@Class_System_Text_RegularExpressions_RegexNode@@SIPAU1@PAU1@_NHH@Z 0200a068 f   Shell.obj
 0001:000091cc       ?m_ChildCount@Class_System_Text_RegularExpressions_RegexNode@@SIHPAU1@@Z 0200a1cc f   Shell.obj
 0001:00009200       ?m_Child@Class_System_Text_RegularExpressions_RegexNode@@SIPAU1@PAU1@H@Z 0200a200 f   Shell.obj
 0001:00009248       ?m_AddChild@Class_System_Text_RegularExpressions_RegexNode@@SIXPAU1@0@Z 0200a248 f   Shell.obj
 0001:000092d0       ?m__ctor@Class_System_Text_RegularExpressions_RegexNode@@SIXPAU1@@Z 0200a2d0 f   Shell.obj
 0001:000092ec       ?m__ctor@Class_System_Text_RegularExpressions_RegexNode@@SIXPAU1@HUStruct_System_Text_RegularExpressions_RegexOptions@@@Z 0200a2ec f   Shell.obj
 0001:0000931c       ?m__ctor@Class_System_Text_RegularExpressions_RegexNode@@SIXPAU1@HUStruct_System_Text_RegularExpressions_RegexOptions@@H@Z 0200a31c f   Shell.obj
 0001:00009358       ?m__ctor@Class_System_Text_RegularExpressions_RegexNode@@SIXPAU1@HUStruct_System_Text_RegularExpressions_RegexOptions@@HH@Z 0200a358 f   Shell.obj
 0001:0000939c       ?m__ctor@Class_System_Text_RegularExpressions_RegexNode@@SIXPAU1@HUStruct_System_Text_RegularExpressions_RegexOptions@@PAUClass_System_String@@@Z 0200a39c f   Shell.obj
 0001:000093d8       ?m__ctor@Class_System_Text_RegularExpressions_RegexNode@@SIXPAU1@HUStruct_System_Text_RegularExpressions_RegexOptions@@PAUClass_System_String@@2@Z 0200a3d8 f   Shell.obj
 0001:0000941c       ?m__ctor@Class_System_Text_RegularExpressions_RegexNode@@SIXPAU1@HUStruct_System_Text_RegularExpressions_RegexOptions@@_W@Z 0200a41c f   Shell.obj
 0001:00009458       ?g_OpcodeBacktracks@Class_System_Text_RegularExpressions_RegexCode@@SI_NH@Z 0200a458 f   Shell.obj
 0001:00009498       ?m__ctor@Class_System_Text_RegularExpressions_RegexCode@@SIXPAU1@PAUClassVector_int32@@PAUClass_System_Collections_ArrayList@@HPAUClass_System_Collections_Hashtable@@HPAUClass_System_Text_RegularExpressions_RegexBoyerMoore@@PAUClass_System_Text_RegularExpressions_RegexPrefix@@5H_N@Z 0200a498 f   Shell.obj
 0001:0000955c       ?m__ctor@Class_Microsoft_Singularity_Applications_ScriptEngine_Interpretation_UnknownTypeException@@SIXPAU1@PAUClass_System_String@@@Z 0200a55c f   Shell.obj
 0001:00009590       ?g_Allocate@Class_Microsoft_Singularity_Channels_ChannelHeap@@SIPAUvoid@@PAUClass_System_Type@@@Z 0200a590 f   Shell.obj
 0001:00009678       ?m__ctor@Class_Microsoft_Singularity_Channels_ChannelHeap@@SIXPAU1@@Z 0200a678 f   Shell.obj
 0001:00009690       ?m_StartScanOneObject@Class_Microsoft_Singularity_GCProfilerLogger@@SIXPAU1@PAUuintPtr@@PAUClass_System_Type@@1@Z 0200a690 f   Shell.obj
 0001:00009750       ?g_StartProfiling@Class_Microsoft_Singularity_GCProfilerLogger@@SIXXZ 0200a750 f   Shell.obj
 0001:00009858       ?m_Shutdown@Class_Microsoft_Singularity_GCProfilerLogger@@SIXPAU1@@Z 0200a858 f   Shell.obj
 0001:00009884       ?m_ScanOneRoot@Class_Microsoft_Singularity_GCProfilerLogger@@SIXPAU1@PAUuintPtr@@@Z 0200a884 f   Shell.obj
 0001:00009934       ?m_ScanOneObjectField@Class_Microsoft_Singularity_GCProfilerLogger@@SIXPAU1@PAUuintPtr@@@Z 0200a934 f   Shell.obj
 0001:000099a8       ?m_PreGC@Class_Microsoft_Singularity_GCProfilerLogger@@SIXPAU1@H@Z 0200a9a8 f   Shell.obj
 0001:00009a88       ?m_PostGC@Class_Microsoft_Singularity_GCProfilerLogger@@SIXPAU1@@Z 0200aa88 f   Shell.obj
 0001:00009b60       ?m_Initialize@Class_Microsoft_Singularity_GCProfilerLogger@@SIXPAU1@_K1@Z 0200ab60 f   Shell.obj
 0001:00009d50       ?m_GetTypeId@Class_Microsoft_Singularity_GCProfilerLogger@@SIIPAU1@PAUClass_System_Type@@@Z 0200ad50 f   Shell.obj
 0001:00009e20       ?m_GetStackId@Class_Microsoft_Singularity_GCProfilerLogger@@SIIPAU1@PAUClass_System_Type@@PAUuintPtr@@PAUClassVector_uintPtr@@I@Z 0200ae20 f   Shell.obj
 0001:0000a184       ?m_GetFunctionId@Class_Microsoft_Singularity_GCProfilerLogger@@SIIPAU1@PAUuintPtr@@@Z 0200b184 f   Shell.obj
 0001:0000a288       ?m_EndScanOneObject@Class_Microsoft_Singularity_GCProfilerLogger@@SIXPAU1@@Z 0200b288 f   Shell.obj
 0001:0000a2ec       ?m_Allocation@Class_Microsoft_Singularity_GCProfilerLogger@@SIXPAU1@PAUuintPtr@@PAUClass_System_Type@@1@Z 0200b2ec f   Shell.obj
 0001:0000a47c       ?m__ctor@Class_Microsoft_Singularity_GCProfilerLogger@@SIXPAU1@@Z 0200b47c f   Shell.obj
 0001:0000a4a0       ?g__cctor@Class_Microsoft_Singularity_GCProfilerLogger@@SIXXZ 0200b4a0 f   Shell.obj
 0001:0000a4b4       ?m_Push@Class_System_Collections_Stack@@SIXPAU1@PAUClass_System_Object@@@Z 0200b4b4 f   Shell.obj
 0001:0000a560       ?m_Pop@Class_System_Collections_Stack@@SIPAUClass_System_Object@@PAU1@@Z 0200b560 f   Shell.obj
 0001:0000a5f8       ?m_Peek@Class_System_Collections_Stack@@SIPAUClass_System_Object@@PAU1@@Z 0200b5f8 f   Shell.obj
 0001:0000a65c       ?m_GetEnumerator@Class_System_Collections_Stack@@SIPAUClass_System_Collections_IEnumerator@@PAU1@@Z 0200b65c f   Shell.obj
 0001:0000a6a0       ?m_get$_SyncRoot@Class_System_Collections_Stack@@SIPAUClass_System_Object@@PAU1@@Z 0200b6a0 f   Shell.obj
 0001:0000a6c0       ?m_get$_Count@Class_System_Collections_Stack@@SIHPAU1@@Z 0200b6c0 f   Shell.obj
 0001:0000a6e0       ?m_CopyTo@Class_System_Collections_Stack@@SIXPAU1@PAUClass_System_Array@@H@Z 0200b6e0 f   Shell.obj
 0001:0000a8f4       ?m__ctor@Class_System_Collections_Stack@@SIXPAU1@@Z 0200b8f4 f   Shell.obj
 0001:0000a938       ?m__ctor@Class_System_Collections_Stack@@SIXPAU1@PAUClass_System_Collections_ICollection@@@Z 0200b938 f   Shell.obj
 0001:0000aa40       ?m__ctor@Class_System_Collections_Stack@@SIXPAU1@H@Z 0200ba40 f   Shell.obj
 0001:0000aac8       ?m__ctor@Class_System_ProcessCreateException@@SIXPAU1@@Z 0200bac8 f   Shell.obj
 0001:0000aaf0       ?g_StableState@Class_Microsoft_Singularity_Applications_WaitForChildContract@@SIHPAUStruct_Microsoft_Singularity_Channels_StateStack@@@Z 0200baf0 f   Shell.obj
 0001:0000ab6c       ?g_NewChannel@Class_Microsoft_Singularity_Applications_WaitForChildContract@@SIXPAPAUStruct_Microsoft_Singularity_Applications_WaitForChildContract_Imp@@PAPAUStruct_Microsoft_Singularity_Applications_WaitForChildContract_Exp@@@Z 0200bb6c f   Shell.obj
 0001:0000ac08       ?m__ctor@Class_Microsoft_Singularity_Applications_WaitForChildContract@@SIXPAU1@@Z 0200bc08 f   Shell.obj
 0001:0000ac20       ?m_StructCopy@Struct_System_GCs_BumpAllocator@@SIXPAU1@0@Z 0200bc20 f   Shell.obj
 0001:0000ac78       ?m_StructCopy@Struct_System_GCs_BumpAllocator@@SIXPAU1@PAU1@@Z 0200bc78 f   Shell.obj
 0001:0000ad80       ?m_Equals@Struct_System_GCs_BumpAllocator@@SI_NPAU1@PAUClass_System_Object@@@Z 0200bd80 f   Shell.obj
 0001:0000ae58       ?m_Equals@Struct_System_GCs_BumpAllocator@@SI_NPAUClass_System_GCs_BumpAllocator@@PAUClass_System_Object@@@Z 0200be58 f   Shell.obj
 0001:0000ae84       ?m_StructCopy@Struct_Microsoft_Singularity_Io_PipeMultiplexControl_Ack@@SIXPAU1@0@Z 0200be84 f   Shell.obj
 0001:0000aea0       ?m_StructCopy@Struct_Microsoft_Singularity_Io_PipeMultiplexControl_Ack@@SIXPAU1@PAU1@@Z 0200bea0 f   Shell.obj
 0001:0000aef4       ?m_MarshallContent@Struct_Microsoft_Singularity_Io_PipeMultiplexControl_Ack@@SIXPAU1@PAEPAUStruct_Microsoft_Singularity_Channels_Endpoint@@1PAH@Z 0200bef4 f   Shell.obj
 0001:0000af14       ?m_MarshallAll@Struct_Microsoft_Singularity_Io_PipeMultiplexControl_Ack@@SIXPAU1@PAEPAUStruct_Microsoft_Singularity_Channels_Endpoint@@PAH@Z 0200bf14 f   Shell.obj
 0001:0000af6c       ?m_Equals@Struct_Microsoft_Singularity_Io_PipeMultiplexControl_Ack@@SI_NPAU1@PAUClass_System_Object@@@Z 0200bf6c f   Shell.obj
 0001:0000afa4       ?m_Equals@Struct_Microsoft_Singularity_Io_PipeMultiplexControl_Ack@@SI_NPAUClass_Microsoft_Singularity_Io_PipeMultiplexControl_Ack@@PAUClass_System_Object@@@Z 0200bfa4 f   Shell.obj
 0001:0000afd0       ?m_VisitReferenceFields@Class_System_GCs_MarkSweepCollector_MarkAndProcessReferenceVisitor@@SIPAUuintPtr@@PAU1@PAUClass_System_Object@@@Z 0200bfd0 f   Shell.obj
 0001:0000b038       ?m_Visit@Class_System_GCs_MarkSweepCollector_MarkAndProcessReferenceVisitor@@SIXPAU1@PAPAUuintPtr@@@Z 0200c038 f   Shell.obj
 0001:0000b070       ?m__ctor@Class_System_GCs_MarkSweepCollector_MarkAndProcessReferenceVisitor@@SIXPAU1@@Z 0200c070 f   Shell.obj
 0001:0000b094       ?g_VisitWeakRefsPhase2@Class_System_TryAllManager@@SIXPAU1@PAUClass_System_GCs_DirectReferenceVisitor@@@Z 0200c094 f   Shell.obj
 0001:0000b10c       ?g_VisitWeakRefsPhase1@Class_System_TryAllManager@@SIXPAU1@PAUClass_System_GCs_DirectReferenceVisitor@@@Z 0200c10c f   Shell.obj
 0001:0000b150       ?g_VisitWeakRefs@Class_System_TryAllManager@@SIXPAUClass_System_GCs_DirectReferenceVisitor@@@Z 0200c150 f   Shell.obj
 0001:0000b17c       ?g_VisitStrongRefs@Class_System_TryAllManager@@SIXPAU1@PAUClass_System_GCs_DirectReferenceVisitor@@@Z 0200c17c f   Shell.obj
 0001:0000b1c8       ?g_VisitStrongRefs@Class_System_TryAllManager@@SIXPAUClass_System_GCs_DirectReferenceVisitor@@@Z 0200c1c8 f   Shell.obj
 0001:0000b1f4       ?m_startNestedTryAllHelper@Class_System_TryAllManager@@SIXPAU1@_NH@Z 0200c1f4 f   Shell.obj
 0001:0000b40c       ?m_Shake@Class_System_TryAllManager@@SIXPAU1@_N@Z 0200c40c f   Shell.obj
 0001:0000b428       ?g_SetDuringGC@Class_System_TryAllManager@@SIX_N@Z 0200c428 f   Shell.obj
 0001:0000b444       ?g_ReplenishTokens@Class_System_TryAllManager@@SIXXZ 0200c444 f   Shell.obj
 0001:0000b51c       ?g_RemoveCache@Class_System_TryAllManager@@SIXPAU1@@Z 0200c51c f   Shell.obj
 0001:0000b540       ?g_ReadBarrier@Class_System_TryAllManager@@SIPAUClass_System_Object@@PAUClass_System_GCs_DirectReferenceVisitor@@PAU2@@Z 0200c540 f   Shell.obj
 0001:0000b5a0       ?g_PreGCHookTryAll@Class_System_TryAllManager@@SIXXZ 0200c5a0 f   Shell.obj
 0001:0000b5c4       ?g_PostGCHookTryAll@Class_System_TryAllManager@@SIXXZ 0200c5c4 f   Shell.obj
 0001:0000b5e8       ?m_InitLocallyAllocatedSTMWords@Class_System_TryAllManager@@SIXPAU1@@Z 0200c5e8 f   Shell.obj
 0001:0000b760       ?g_EnsureCache@Class_System_TryAllManager@@SIXPAU1@@Z 0200c760 f   Shell.obj
 0001:0000b7bc       ?g_DumpPerCallSiteStats@Class_System_TryAllManager@@SIXXZ 0200c7bc f   Shell.obj
 0001:0000b7d0       ?g_doVisitWeakRefs@Class_System_TryAllManager@@SIXPAUClass_System_GCs_DirectReferenceVisitor@@@Z 0200c7d0 f   Shell.obj
 0001:0000b918       ?g_doVisitStrongRefs@Class_System_TryAllManager@@SIXPAUClass_System_GCs_DirectReferenceVisitor@@@Z 0200c918 f   Shell.obj
 0001:0000b9f0       ?g_doPreGCHook@Class_System_TryAllManager@@SIXXZ 0200c9f0 f   Shell.obj
 0001:0000badc       ?g_doPostGCHook@Class_System_TryAllManager@@SIXXZ 0200cadc f   Shell.obj
 0001:0000bd58       ?m_becomeInvalid@Class_System_TryAllManager@@SIXPAU1@_N@Z 0200cd58 f   Shell.obj
 0001:0000bdd0       ?m_AllocLocallyAllocatedSTMWords@Class_System_TryAllManager@@SIXPAU1@@Z 0200cdd0 f   Shell.obj
 0001:0000be80       ?m__ctor@Class_System_TryAllManager@@SIXPAU1@@Z 0200ce80 f   Shell.obj
 0001:0000c24c       ?g__cctor@Class_System_TryAllManager@@SIXXZ 0200d24c f   Shell.obj
 0001:0000c27c       ?m_StructCopy@Struct_Microsoft_Singularity_Directory_DirectoryServiceContract_AckDeleteDirectory@@SIXPAU1@0@Z 0200d27c f   Shell.obj
 0001:0000c298       ?m_StructCopy@Struct_Microsoft_Singularity_Directory_DirectoryServiceContract_AckDeleteDirectory@@SIXPAU1@PAU1@@Z 0200d298 f   Shell.obj
 0001:0000c2ec       ?m_Equals@Struct_Microsoft_Singularity_Directory_DirectoryServiceContract_AckDeleteDirectory@@SI_NPAU1@PAUClass_System_Object@@@Z 0200d2ec f   Shell.obj
 0001:0000c324       ?m_Equals@Struct_Microsoft_Singularity_Directory_DirectoryServiceContract_AckDeleteDirectory@@SI_NPAUClass_Microsoft_Singularity_Directory_DirectoryServiceContract_AckDeleteDirectory@@PAUClass_System_Object@@@Z 0200d324 f   Shell.obj
 0001:0000c350       ?m__ctor@Class_Microsoft_Singularity_Applications_Parser_State@@SIXPAU1@H@Z 0200d350 f   Shell.obj
 0001:0000c378       ?m_Compare@Class_System_Collections_Comparer@@SIHPAU1@PAUClass_System_Object@@1@Z 0200d378 f   Shell.obj
 0001:0000c50c       ?m__ctor@Class_System_Collections_Comparer@@SIXPAU1@@Z 0200d50c f   Shell.obj
 0001:0000c528       ?g__cctor@Class_System_Collections_Comparer@@SIXXZ 0200d528 f   Shell.obj
 0001:0000c568       ?m_StructCopy@Struct_Microsoft_Singularity_V1_Threads_AutoResetEventHandle@@SIXPAU1@0@Z 0200d568 f   Shell.obj
 0001:0000c590       ?m_StructCopy@Struct_Microsoft_Singularity_V1_Threads_AutoResetEventHandle@@SIXPAU1@PAU1@@Z 0200d590 f   Shell.obj
 0001:0000c608       ?m_Equals@Struct_Microsoft_Singularity_V1_Threads_AutoResetEventHandle@@SI_NPAU1@PAUClass_System_Object@@@Z 0200d608 f   Shell.obj
 0001:0000c650       ?m_Equals@Struct_Microsoft_Singularity_V1_Threads_AutoResetEventHandle@@SI_NPAUClass_Microsoft_Singularity_V1_Threads_AutoResetEventHandle@@PAUClass_System_Object@@@Z 0200d650 f   Shell.obj
 0001:0000c67c       ?g_Create@Struct_Microsoft_Singularity_V1_Threads_AutoResetEventHandle@@SI_N_NPAU1@@Z 0200d67c f   Shell.obj
 0001:0000c6c8       ?m_Interpret@Class_Microsoft_Singularity_Applications_ScriptEngine_Assign@@SIXPAU1@PAUClass_Microsoft_Singularity_Applications_ShellControl@@PAUClass_Microsoft_Singularity_Applications_ScriptEngine_Interpretation@@@Z 0200d6c8 f   Shell.obj
 0001:0000c738       ?m__ctor@Class_Microsoft_Singularity_Applications_ScriptEngine_Assign@@SIXPAU1@PAUClass_System_String@@PAUClass_Microsoft_Singularity_Applications_ScriptEngine_Expression@@@Z 0200d738 f   Shell.obj
 0001:0000c770       ?m_StructCopy@Struct_System_GCs_MemoryAccounting_RuntimeTypeAccounting@@SIXPAU1@0@Z 0200d770 f   Shell.obj
 0001:0000c7c0       ?m_StructCopy@Struct_System_GCs_MemoryAccounting_RuntimeTypeAccounting@@SIXPAU1@PAU1@@Z 0200d7c0 f   Shell.obj
 0001:0000c8b0       ?m_Equals@Struct_System_GCs_MemoryAccounting_RuntimeTypeAccounting@@SI_NPAU1@PAUClass_System_Object@@@Z 0200d8b0 f   Shell.obj
 0001:0000c990       ?m_Equals@Struct_System_GCs_MemoryAccounting_RuntimeTypeAccounting@@SI_NPAUClass_System_GCs_MemoryAccounting_RuntimeTypeAccounting@@PAUClass_System_Object@@@Z 0200d990 f   Shell.obj
 0001:0000c9bc       ?m_StructCopy@Struct_Microsoft_Singularity_Directory_DirectoryServiceContract_AckCreateDirectory@@SIXPAU1@0@Z 0200d9bc f   Shell.obj
 0001:0000c9d8       ?m_StructCopy@Struct_Microsoft_Singularity_Directory_DirectoryServiceContract_AckCreateDirectory@@SIXPAU1@PAU1@@Z 0200d9d8 f   Shell.obj
 0001:0000ca2c       ?m_Equals@Struct_Microsoft_Singularity_Directory_DirectoryServiceContract_AckCreateDirectory@@SI_NPAU1@PAUClass_System_Object@@@Z 0200da2c f   Shell.obj
 0001:0000ca64       ?m_Equals@Struct_Microsoft_Singularity_Directory_DirectoryServiceContract_AckCreateDirectory@@SI_NPAUClass_Microsoft_Singularity_Directory_DirectoryServiceContract_AckCreateDirectory@@PAUClass_System_Object@@@Z 0200da64 f   Shell.obj
 0001:0000ca90       ?m_StructCopy@Struct_Microsoft_Singularity_Directory_DirectoryServiceContract_NakCreateFileReparse@@SIXPAU1@0@Z 0200da90 f   Shell.obj
 0001:0000cad0       ?m_StructCopy@Struct_Microsoft_Singularity_Directory_DirectoryServiceContract_NakCreateFileReparse@@SIXPAU1@PAU1@@Z 0200dad0 f   Shell.obj
 0001:0000cb90       ?m_Equals@Struct_Microsoft_Singularity_Directory_DirectoryServiceContract_NakCreateFileReparse@@SI_NPAU1@PAUClass_System_Object@@@Z 0200db90 f   Shell.obj
 0001:0000cbf8       ?m_Equals@Struct_Microsoft_Singularity_Directory_DirectoryServiceContract_NakCreateFileReparse@@SI_NPAUClass_Microsoft_Singularity_Directory_DirectoryServiceContract_NakCreateFileReparse@@PAUClass_System_Object@@@Z 0200dbf8 f   Shell.obj
 0001:0000cc24       ?m_Microsoft_SingSharp_ITracked_Release@Class_SurrogateMicrosoft_Singularity_Io_PipeMultiplexControl_Imp@@SIXPAU1@@Z 0200dc24 f   Shell.obj
 0001:0000cc48       ?m_Microsoft_SingSharp_ITracked_Acquire@Class_SurrogateMicrosoft_Singularity_Io_PipeMultiplexControl_Imp@@SIXPAU1@@Z 0200dc48 f   Shell.obj
 0001:0000cc6c       ?m_HeadMatches@Class_SurrogateMicrosoft_Singularity_Io_PipeMultiplexControl_Imp@@SI_NPAU1@HPA_NPAPAUClass_System_Object@@@Z 0200dc6c f   Shell.obj
 0001:0000cca0       ?m_GetWaitHandle@Class_SurrogateMicrosoft_Singularity_Io_PipeMultiplexControl_Imp@@SI?AUStruct_Microsoft_Singularity_V1_Threads_SyncHandle@@PAU1@@Z 0200dca0 f   Shell.obj
 0001:0000ccc4       ?m_Dispose@Class_SurrogateMicrosoft_Singularity_Io_PipeMultiplexControl_Imp@@SIXPAU1@@Z 0200dcc4 f   Shell.obj
 0001:0000cce8       ?g__ctor@Class_SurrogateMicrosoft_Singularity_Io_PipeMultiplexControl_Imp@@SIXPAU1@PAUStruct_Microsoft_Singularity_Io_PipeMultiplexControl_Imp@@@Z 0200dce8 f   Shell.obj
 0001:0000cd10       ?m_set$_Item@Class_Microsoft_Singularity_Xml_XmlNode@@SIXPAU1@PAUClass_System_String@@1@Z 0200dd10 f   Shell.obj
 0001:0000cd94       ?m_GetChild@Class_Microsoft_Singularity_Xml_XmlNode@@SIPAU1@PAU1@PAUClass_System_String@@@Z 0200dd94 f   Shell.obj
 0001:0000cec8       ?m_GetAttribute@Class_Microsoft_Singularity_Xml_XmlNode@@SIHPAU1@PAUClass_System_String@@H@Z 0200dec8 f   Shell.obj
 0001:0000cf6c       ?m_GetAttribute@Class_Microsoft_Singularity_Xml_XmlNode@@SIPAUClass_System_String@@PAU1@PAU2@1@Z 0200df6c f   Shell.obj
 0001:0000cfb4       ?m_GetAttribute@Class_Microsoft_Singularity_Xml_XmlNode@@SI_NPAU1@PAUClass_System_String@@_N@Z 0200dfb4 f   Shell.obj
 0001:0000d024       ?m_get$_Name@Class_Microsoft_Singularity_Xml_XmlNode@@SIPAUClass_System_String@@PAU1@@Z 0200e024 f   Shell.obj
 0001:0000d044       ?m_get$_Item@Class_Microsoft_Singularity_Xml_XmlNode@@SIPAUClass_System_String@@PAU1@PAU2@@Z 0200e044 f   Shell.obj
 0001:0000d08c       ?m_get$_Children@Class_Microsoft_Singularity_Xml_XmlNode@@SIPAUClassVector_Class_Microsoft_Singularity_Xml_XmlNode@@PAU1@@Z 0200e08c f   Shell.obj
 0001:0000d218       ?m_FindAttr@Class_Microsoft_Singularity_Xml_XmlNode@@SIPAUClass_Microsoft_Singularity_Xml_XmlNode_XmlAttr@@PAU1@PAUClass_System_String@@@Z 0200e218 f   Shell.obj
 0001:0000d350       ?m_AddText@Class_Microsoft_Singularity_Xml_XmlNode@@SIXPAU1@PAUClass_System_String@@@Z 0200e350 f   Shell.obj
 0001:0000d380       ?m_AddChild@Class_Microsoft_Singularity_Xml_XmlNode@@SIXPAU1@0@Z 0200e380 f   Shell.obj
 0001:0000d3ac       ?m__ctor@Class_Microsoft_Singularity_Xml_XmlNode@@SIXPAU1@@Z 0200e3ac f   Shell.obj
 0001:0000d428       ?m__ctor@Class_Microsoft_Singularity_Xml_XmlNode@@SIXPAU1@PAUClass_System_String@@@Z 0200e428 f   Shell.obj
 0001:0000d4c0       ?m__ctor@Class_Microsoft_Singularity_Xml_XmlNode@@SIXPAU1@PAUClass_System_String@@H@Z 0200e4c0 f   Shell.obj
 0001:0000d554       ?g_WriteLine@Class_Microsoft_Singularity_DebugStub@@SIXPAUClass_System_String@@@Z 0200e554 f   Shell.obj
 0001:0000d5b8       ?g_WriteLine@Class_Microsoft_Singularity_DebugStub@@SIXPAUClass_System_String@@UStruct_System_VarargList@@@Z 0200e5b8 f   Shell.obj
 0001:0000d620       ?g_WriteLine@Class_Microsoft_Singularity_DebugStub@@SIXPAUClass_System_String@@UStruct_System_ArgIterator@@@Z 0200e620 f   Shell.obj
 0001:0000d818       ?g_Print@Class_Microsoft_Singularity_DebugStub@@SIXPAUClass_System_String@@@Z 0200e818 f   Shell.obj
 0001:0000d87c       ?g_Print@Class_Microsoft_Singularity_DebugStub@@SIXPAUClass_System_String@@UStruct_System_VarargList@@@Z 0200e87c f   Shell.obj
 0001:0000d8e4       ?g_Print@Class_Microsoft_Singularity_DebugStub@@SIXPAUClass_System_String@@UStruct_System_ArgIterator@@@Z 0200e8e4 f   Shell.obj
 0001:0000d91c       ?g_InsertFormat@Class_Microsoft_Singularity_DebugStub@@SIXPA_WPAHHPAUClass_System_String@@UStruct_System_VarargList@@@Z 0200e91c f   Shell.obj
 0001:0000d9bc       ?g_failAssert@Class_Microsoft_Singularity_DebugStub@@SIXPAUClass_System_String@@@Z 0200e9bc f   Shell.obj
 0001:0000d9e4       ?g_Assert@Class_Microsoft_Singularity_DebugStub@@SIX_N@Z 0200e9e4 f   Shell.obj
 0001:0000da14       ?g_AddToPerfCounter@Class_Microsoft_Singularity_DebugStub@@SI_NI_K@Z 0200ea14 f   Shell.obj
 0001:0000da4c       ?g_AddLineHeader@Class_Microsoft_Singularity_DebugStub@@SIXPA_WPAHH@Z 0200ea4c f   Shell.obj
 0001:0000dc4c       ?m__ctor@Class_Microsoft_Singularity_DebugStub@@SIXPAU1@@Z 0200ec4c f   Shell.obj
 0001:0000dc68       ?m_FieldOffset@Class_System_GCs_Barrier_ZeroFieldsVisitor@@SIXPAU1@PAUuintPtr@@PAUStruct_System_GCs_ReferenceVisitor_ObjectDescriptor@@@Z 0200ec68 f   Shell.obj
 0001:0000dd04       ?m__ctor@Class_System_GCs_Barrier_ZeroFieldsVisitor@@SIXPAU1@@Z 0200ed04 f   Shell.obj
 0001:0000dd28       ?m_ToString@Class_Microsoft_Singularity_Io_IoPort@@SIPAUClass_System_String@@PAU1@@Z 0200ed28 f   Shell.obj
 0001:0000ddac       ?m_StructCopy@Struct_Microsoft_Singularity_Isal_IX_EFlags@@SIXPAU1@0@Z 0200edac f   Shell.obj
 0001:0000ddc8       ?m_StructCopy@Struct_Microsoft_Singularity_Isal_IX_EFlags@@SIXPAU1@PAU1@@Z 0200edc8 f   Shell.obj
 0001:0000de1c       ?m_Equals@Struct_Microsoft_Singularity_Isal_IX_EFlags@@SI_NPAU1@PAUClass_System_Object@@@Z 0200ee1c f   Shell.obj
 0001:0000de54       ?m_Equals@Struct_Microsoft_Singularity_Isal_IX_EFlags@@SI_NPAUClass_Microsoft_Singularity_Isal_IX_EFlags@@PAUClass_System_Object@@@Z 0200ee54 f   Shell.obj
 0001:0000de80       ?m_StructCopy@Struct_System_UpdateLogWriter@@SIXPAU1@0@Z 0200ee80 f   Shell.obj
 0001:0000deb4       ?m_StructCopy@Struct_System_UpdateLogWriter@@SIXPAU1@PAU1@@Z 0200eeb4 f   Shell.obj
 0001:0000df50       ?m_Equals@Struct_System_UpdateLogWriter@@SI_NPAU1@PAUClass_System_Object@@@Z 0200ef50 f   Shell.obj
 0001:0000dfac       ?m_Equals@Struct_System_UpdateLogWriter@@SI_NPAUClass_System_UpdateLogWriter@@PAUClass_System_Object@@@Z 0200efac f   Shell.obj
 0001:0000dfd8       ?m_StructCopy@Struct_Microsoft_Singularity_Directory_DirectoryServiceContract_NakStoreACLReparse@@SIXPAU1@0@Z 0200efd8 f   Shell.obj
 0001:0000e018       ?m_StructCopy@Struct_Microsoft_Singularity_Directory_DirectoryServiceContract_NakStoreACLReparse@@SIXPAU1@PAU1@@Z 0200f018 f   Shell.obj
 0001:0000e0d8       ?m_Equals@Struct_Microsoft_Singularity_Directory_DirectoryServiceContract_NakStoreACLReparse@@SI_NPAU1@PAUClass_System_Object@@@Z 0200f0d8 f   Shell.obj
 0001:0000e140       ?m_Equals@Struct_Microsoft_Singularity_Directory_DirectoryServiceContract_NakStoreACLReparse@@SI_NPAUClass_Microsoft_Singularity_Directory_DirectoryServiceContract_NakStoreACLReparse@@PAUClass_System_Object@@@Z 0200f140 f   Shell.obj
 0001:0000e16c       ?m__ctor@Class_System_NotSupportedException@@SIXPAU1@@Z 0200f16c f   Shell.obj
 0001:0000e194       ?m__ctor@Class_System_NotSupportedException@@SIXPAU1@PAUClass_System_String@@@Z 0200f194 f   Shell.obj
 0001:0000e1bc       ?m_Visit@Class_System_GCs_GCProfiler_RootVisitor@@SIXPAU1@PAPAUuintPtr@@@Z 0200f1bc f   Shell.obj
 0001:0000e1e8       ?m__ctor@Class_System_GCs_GCProfiler_RootVisitor@@SIXPAU1@PAUClass_System_GCs_GCProfiler@@@Z 0200f1e8 f   Shell.obj
 0001:0000e218       ?m_StructCopy@Struct_System_InterfaceInfo@@SIXPAU1@0@Z 0200f218 f   Shell.obj
 0001:0000e24c       ?m_StructCopy@Struct_System_InterfaceInfo@@SIXPAU1@PAU1@@Z 0200f24c f   Shell.obj
 0001:0000e2e8       ?m_Equals@Struct_System_InterfaceInfo@@SI_NPAU1@PAUClass_System_Object@@@Z 0200f2e8 f   Shell.obj
 0001:0000e348       ?m_Equals@Struct_System_InterfaceInfo@@SI_NPAUClass_System_InterfaceInfo@@PAUClass_System_Object@@@Z 0200f348 f   Shell.obj
 0001:0000e374       ?g_SlowIndexOfString@Class_System_Globalization_CompareInfo@@SIHPAUClass_System_String@@0HHUStruct_System_Globalization_CompareOptions@@@Z 0200f374 f   Shell.obj
 0001:0000e3b8       ?g_QuickScanLongerString@Class_System_Globalization_CompareInfo@@SIHPAUClass_System_String@@HHHHHHH@Z 0200f3b8 f   Shell.obj
 0001:0000e480       ?g_IndexOfString@Class_System_Globalization_CompareInfo@@SIHPAUClass_System_String@@0HHUStruct_System_Globalization_CompareOptions@@@Z 0200f480 f   Shell.obj
 0001:0000e6e8       ?g_IndexOf@Class_System_Globalization_CompareInfo@@SIHPAUClass_System_String@@0@Z 0200f6e8 f   Shell.obj
 0001:0000e718       ?g_GetUnicode@Class_System_Globalization_CompareInfo@@SIG_W@Z 0200f718 f   Shell.obj
 0001:0000e7c0       ?g_GetDiacritic@Class_System_Globalization_CompareInfo@@SIE_W@Z 0200f7c0 f   Shell.obj
 0001:0000e864       ?g_GetCase@Class_System_Globalization_CompareInfo@@SIE_W@Z 0200f864 f   Shell.obj
 0001:0000e908       ?g_GET$_SCRIPT$_MEMBER@Class_System_Globalization_CompareInfo@@SIEG@Z 0200f908 f   Shell.obj
 0001:0000e934       ?g_GET$_ALPHA$_NUMERIC@Class_System_Globalization_CompareInfo@@SIEG@Z 0200f934 f   Shell.obj
 0001:0000e95c       ?g_FastIndexOfString@Class_System_Globalization_CompareInfo@@SIHPAUClass_System_String@@HH0@Z 0200f95c f   Shell.obj
 0001:0000ea54       ?g_CompareString@Class_System_Globalization_CompareInfo@@SIHUStruct_System_Globalization_CompareOptions@@PAUClass_System_String@@HH1HH@Z 0200fa54 f   Shell.obj
 0001:0000f14c       ?g_CompareRegion@Class_System_Globalization_CompareInfo@@SIHPAUClass_System_String@@HH0HHUStruct_System_Globalization_CompareOptions@@@Z 0201014c f   Shell.obj
 0001:0000f500       ?g_CompareOrdinal@Class_System_Globalization_CompareInfo@@SIHPAUClass_System_String@@HH0HH@Z 02010500 f   Shell.obj
 0001:0000f5fc       ?g_Compare@Class_System_Globalization_CompareInfo@@SIHPAUClass_System_String@@HH0HHUStruct_System_Globalization_CompareOptions@@@Z 020105fc f   Shell.obj
 0001:0000f69c       ?g_Compare@Class_System_Globalization_CompareInfo@@SIHPAUClass_System_String@@0@Z 0201069c f   Shell.obj
 0001:0000f6c8       ?g_Compare@Class_System_Globalization_CompareInfo@@SIHPAUClass_System_String@@0UStruct_System_Globalization_CompareOptions@@@Z 020106c8 f   Shell.obj
 0001:0000f7f8       ?m__ctor@Class_System_Globalization_CompareInfo@@SIXPAU1@@Z 020107f8 f   Shell.obj
 0001:0000f810       ?g__cctor@Class_System_Globalization_CompareInfo@@SIXXZ 02010810 f   Shell.obj
 0001:0000f824       ?m_StructCopy@Struct_System_UpdateLog_Location@@SIXPAU1@0@Z 02010824 f   Shell.obj
 0001:0000f858       ?m_StructCopy@Struct_System_UpdateLog_Location@@SIXPAU1@PAU1@@Z 02010858 f   Shell.obj
 0001:0000f8f4       ?m_Equals@Struct_System_UpdateLog_Location@@SI_NPAU1@PAUClass_System_Object@@@Z 020108f4 f   Shell.obj
 0001:0000f954       ?m_Equals@Struct_System_UpdateLog_Location@@SI_NPAUClass_System_UpdateLog_Location@@PAUClass_System_Object@@@Z 02010954 f   Shell.obj
 0001:0000f980       ?m__ctor@Struct_System_UpdateLog_Location@@SIXPAU1@PAUClass_System_UpdateLog_LogChunk@@H@Z 02010980 f   Shell.obj
 0001:0000f9b0       ?m_ToString@uint16@@SIPAUClass_System_String@@PAG@Z 020109b0 f   Shell.obj
 0001:0000f9d8       ?m_ToString@uint16@@SIPAUClass_System_String@@PAGPAU2@@Z 020109d8 f   Shell.obj
 0001:0000fa24       ?m_ToString@uint16@@SIPAUClass_System_String@@PAUClass_System_UInt16@@@Z 02010a24 f   Shell.obj
 0001:0000fa4c       ?m_ToString@uint16@@SIPAUClass_System_String@@PAUClass_System_UInt16@@PAU2@@Z 02010a4c f   Shell.obj
 0001:0000fa78       ?m_GetHashCode@uint16@@SIHPAG@Z 02010a78 f   Shell.obj
 0001:0000fa9c       ?m_GetHashCode@uint16@@SIHPAUClass_System_UInt16@@@Z 02010a9c f   Shell.obj
 0001:0000fac4       ?m_Equals@uint16@@SI_NPAGPAUClass_System_Object@@@Z 02010ac4 f   Shell.obj
 0001:0000fb28       ?m_Equals@uint16@@SI_NPAUClass_System_UInt16@@PAUClass_System_Object@@@Z 02010b28 f   Shell.obj
 0001:0000fb54       ?m_CompareTo@uint16@@SIHPAGPAUClass_System_Object@@@Z 02010b54 f   Shell.obj
 0001:0000fbe0       ?m_CompareTo@uint16@@SIHPAUClass_System_UInt16@@PAUClass_System_Object@@@Z 02010be0 f   Shell.obj
 0001:0000fc0c       ?m_Visit@Class_System_GCs_Verifier_GenericThreadReferenceVisitor@@SIXPAU1@PAPAUuintPtr@@@Z 02010c0c f   Shell.obj
 0001:0000ff10       ?m__ctor@Class_System_GCs_Verifier_GenericThreadReferenceVisitor@@SIXPAU1@@Z 02010f10 f   Shell.obj
 0001:0000ff34       ?m_StructCopy@Struct_Microsoft_Singularity_Directory_FileContract_Exp@@SIXPAU1@0@Z 02010f34 f   Shell.obj
 0001:00010034       ?m_StructCopy@Struct_Microsoft_Singularity_Directory_FileContract_Exp@@SIXPAU1@PAU1@@Z 02011034 f   Shell.obj
 0001:00010334       ?m_Peek@Struct_Microsoft_Singularity_Directory_FileContract_Exp@@SIHPAU1@@Z 02011334 f   Shell.obj
 0001:000105c8       ?m_MarshallDeliverRead0@Struct_Microsoft_Singularity_Directory_FileContract_Exp@@SIXPAU1@PAE_J22PAUStruct_Microsoft_Singularity_Channels_Endpoint@@@Z 020115c8 f   Shell.obj
 0001:00010638       ?m_HeadMatches@Struct_Microsoft_Singularity_Directory_FileContract_Exp@@SI_NPAU1@HPA_NPAPAUClass_System_Object@@@Z 02011638 f   Shell.obj
 0001:000106f8       ?m_HeadMatches@Struct_Microsoft_Singularity_Directory_FileContract_Exp@@SI_NPAUClass_Microsoft_Singularity_Directory_FileContract_Exp@@HPA_NPAPAUClass_System_Object@@@Z 020116f8 f   Shell.obj
 0001:00010730       ?m_Equals@Struct_Microsoft_Singularity_Directory_FileContract_Exp@@SI_NPAU1@PAUClass_System_Object@@@Z 02011730 f   Shell.obj
 0001:00010b10       ?m_Equals@Struct_Microsoft_Singularity_Directory_FileContract_Exp@@SI_NPAUClass_Microsoft_Singularity_Directory_FileContract_Exp@@PAUClass_System_Object@@@Z 02011b10 f   Shell.obj
 0001:00010b3c       ?m_Dispose@Struct_Microsoft_Singularity_Directory_FileContract_Exp@@SIXPAU1@@Z 02011b3c f   Shell.obj
 0001:00010b60       ?m_Dispose@Struct_Microsoft_Singularity_Directory_FileContract_Exp@@SIXPAUClass_Microsoft_Singularity_Directory_FileContract_Exp@@@Z 02011b60 f   Shell.obj
 0001:00010b88       ?m_DeliverRead0@Struct_Microsoft_Singularity_Directory_FileContract_Exp@@SIXPAU1@PAE_J22@Z 02011b88 f   Shell.obj
 0001:00010bf4       ?m__ctor@Struct_Microsoft_Singularity_Directory_FileContract_Exp@@SIXPAU1@H@Z 02011bf4 f   Shell.obj
 0001:00010c20       ?m_StructCopy@Struct_System_GCs_ReferenceVisitor_ObjectDescriptor@@SIXPAU1@0@Z 02011c20 f   Shell.obj
 0001:00010c84       ?m_StructCopy@Struct_System_GCs_ReferenceVisitor_ObjectDescriptor@@SIXPAU1@PAU1@@Z 02011c84 f   Shell.obj
 0001:00010db0       ?m_Equals@Struct_System_GCs_ReferenceVisitor_ObjectDescriptor@@SI_NPAU1@PAUClass_System_Object@@@Z 02011db0 f   Shell.obj
 0001:00010e50       ?m_Equals@Struct_System_GCs_ReferenceVisitor_ObjectDescriptor@@SI_NPAUClass_System_GCs_ReferenceVisitor_ObjectDescriptor@@PAUClass_System_Object@@@Z 02011e50 f   Shell.obj
 0001:00010e7c       ?m__ctor@Struct_System_GCs_ReferenceVisitor_ObjectDescriptor@@SIXPAU1@PAUClass_System_VTable@@PAUuintPtr@@@Z 02011e7c f   Shell.obj
 0001:00010ef4       ?m__ctor@Struct_System_GCs_ReferenceVisitor_ObjectDescriptor@@SIXPAU1@PAUClass_System_VTable@@PAUuintPtr@@2@Z 02011ef4 f   Shell.obj
 0001:00010f6c       ?m__ctor@Struct_System_GCs_ReferenceVisitor_ObjectDescriptor@@SIXPAU1@PAUClass_System_VTable@@PAUuintPtr@@22@Z 02011f6c f   Shell.obj
 0001:00010fe4       ?m__ctor@Struct_System_GCs_ReferenceVisitor_ObjectDescriptor@@SIXPAU1@PAUClass_System_VTable@@PAUuintPtr@@22PAUClass_System_Object@@3@Z 02011fe4 f   Shell.obj
 0001:0001103c       ?g_ConvertToLong@Class_System_RuntimeTypeHash@@SI_JPAUClassVector_uint8@@H@Z 0201203c f   Shell.obj
 0001:00011110       ?g_ComputeHashAndReturnName@Class_System_RuntimeTypeHash@@SIPAUClassVector_uint8@@PAUClass_System_String@@PA_J1@Z 02012110 f   Shell.obj
 0001:00011180       ?g_ComputeHash@Class_System_RuntimeTypeHash@@SIXPAUClassVector_uint8@@PA_J1@Z 02012180 f   Shell.obj
 0001:00011220       ?g_ComputeHash@Class_System_RuntimeTypeHash@@SIXPAUClass_System_String@@PA_J1@Z 02012220 f   Shell.obj
 0001:00011250       ?m__ctor@Class_System_RuntimeTypeHash@@SIXPAU1@@Z 02012250 f   Shell.obj
 0001:00011268       ?m_StructCopy@Struct_System_UpdateEnlistmentLog_Location@@SIXPAU1@0@Z 02012268 f   Shell.obj
 0001:0001129c       ?m_StructCopy@Struct_System_UpdateEnlistmentLog_Location@@SIXPAU1@PAU1@@Z 0201229c f   Shell.obj
 0001:00011338       ?m_Equals@Struct_System_UpdateEnlistmentLog_Location@@SI_NPAU1@PAUClass_System_Object@@@Z 02012338 f   Shell.obj
 0001:00011398       ?m_Equals@Struct_System_UpdateEnlistmentLog_Location@@SI_NPAUClass_System_UpdateEnlistmentLog_Location@@PAUClass_System_Object@@@Z 02012398 f   Shell.obj
 0001:000113c4       ?m__ctor@Struct_System_UpdateEnlistmentLog_Location@@SIXPAU1@PAUClass_System_UpdateEnlistmentLog_LogChunk@@H@Z 020123c4 f   Shell.obj
 0001:000113f4       ?m__ctor@Class_Microsoft_Singularity_Applications_Parser_Production@@SIXPAU1@HPAUClass_Microsoft_Singularity_Applications_Parser_Reducer@@@Z 020123f4 f   Shell.obj
 0001:00011424       ?g_StructSize@Class_System_Runtime_InteropServices_Marshal@@SIHPAUClass_System_Type@@@Z 02012424 f   Shell.obj
 0001:000114e4       ?m__ctor@Class_System_Runtime_InteropServices_Marshal@@SIXPAU1@@Z 020124e4 f   Shell.obj
 0001:000114fc       ?m__ctor@Class_System_Runtime_CompilerServices_CalledRarelyAttribute@@SIXPAU1@@Z 020124fc f   Shell.obj
 0001:00011520       ?m_StructCopy@Struct_Microsoft_Singularity_Directory_DirectoryServiceContract_NakQueryACL@@SIXPAU1@0@Z 02012520 f   Shell.obj
 0001:00011548       ?m_StructCopy@Struct_Microsoft_Singularity_Directory_DirectoryServiceContract_NakQueryACL@@SIXPAU1@PAU1@@Z 02012548 f   Shell.obj
 0001:000115c0       ?m_Equals@Struct_Microsoft_Singularity_Directory_DirectoryServiceContract_NakQueryACL@@SI_NPAU1@PAUClass_System_Object@@@Z 020125c0 f   Shell.obj
 0001:00011660       ?m_Equals@Struct_Microsoft_Singularity_Directory_DirectoryServiceContract_NakQueryACL@@SI_NPAUClass_Microsoft_Singularity_Directory_DirectoryServiceContract_NakQueryACL@@PAUClass_System_Object@@@Z 02012660 f   Shell.obj
 0001:0001168c       ?g_Truncate@Class_System_GCs_BootstrapMemory@@SIXXZ 0201268c f   Shell.obj
 0001:000117f0       ?g_Initialize@Class_System_GCs_BootstrapMemory@@SIXPAUuintPtr@@@Z 020127f0 f   Shell.obj
 0001:00011834       ?g_AllocateBlock@Class_System_GCs_BootstrapMemory@@SIPAUuintPtr@@PAU2@I@Z 02012834 f   Shell.obj
 0001:00011964       ?g_Allocate@Class_System_GCs_BootstrapMemory@@SIPAUClass_System_Object@@PAUClass_System_VTable@@@Z 02012964 f   Shell.obj
 0001:00011a1c       ?g_Allocate@Class_System_GCs_BootstrapMemory@@SIPAUClass_System_Object@@PAUClass_System_VTable@@I@Z 02012a1c f   Shell.obj
 0001:00011a94       ?g_Allocate@Class_System_GCs_BootstrapMemory@@SIPAUClass_System_Object@@PAUClass_System_Type@@@Z 02012a94 f   Shell.obj
 0001:00011ab8       ?g_Allocate@Class_System_GCs_BootstrapMemory@@SIPAUClass_System_Object@@PAUClass_System_Type@@I@Z 02012ab8 f   Shell.obj
 0001:00011ae4       ?g_Allocate@Class_System_GCs_BootstrapMemory@@SIPAUClass_System_Object@@PAUClass_System_RuntimeType@@@Z 02012ae4 f   Shell.obj
 0001:00011b08       ?g_Allocate@Class_System_GCs_BootstrapMemory@@SIPAUClass_System_Object@@PAUClass_System_RuntimeType@@I@Z 02012b08 f   Shell.obj
 0001:00011b34       ?m__ctor@Class_System_GCs_BootstrapMemory@@SIXPAU1@@Z 02012b34 f   Shell.obj
 0001:00011b4c       ?g_StableState@Class_Microsoft_Singularity_Directory_NotifyContract@@SIHPAUStruct_Microsoft_Singularity_Channels_StateStack@@@Z 02012b4c f   Shell.obj
 0001:00011ba8       ?m__ctor@Class_Microsoft_Singularity_Directory_NotifyContract@@SIXPAU1@@Z 02012ba8 f   Shell.obj
 0001:00011bc0       ?m_BoolValue@Class_Microsoft_Singularity_Applications_ScriptEngine_And@@SI_NPAU1@PAUClass_Microsoft_Singularity_Applications_ScriptEngine_Interpretation@@@Z 02012bc0 f   Shell.obj
 0001:00011c20       ?m__ctor@Class_Microsoft_Singularity_Applications_ScriptEngine_And@@SIXPAU1@PAUClass_Microsoft_Singularity_Applications_ScriptEngine_Expression@@1@Z 02012c20 f   Shell.obj
 0001:00011c50       ?m_Microsoft_SingSharp_ITracked_Release@Class_SurrogateMicrosoft_Singularity_Directory_FileContract_Imp@@SIXPAU1@@Z 02012c50 f   Shell.obj
 0001:00011c74       ?m_Microsoft_SingSharp_ITracked_Acquire@Class_SurrogateMicrosoft_Singularity_Directory_FileContract_Imp@@SIXPAU1@@Z 02012c74 f   Shell.obj
 0001:00011c98       ?m_HeadMatches@Class_SurrogateMicrosoft_Singularity_Directory_FileContract_Imp@@SI_NPAU1@HPA_NPAPAUClass_System_Object@@@Z 02012c98 f   Shell.obj
 0001:00011ccc       ?m_GetWaitHandle@Class_SurrogateMicrosoft_Singularity_Directory_FileContract_Imp@@SI?AUStruct_Microsoft_Singularity_V1_Threads_SyncHandle@@PAU1@@Z 02012ccc f   Shell.obj
 0001:00011cf0       ?m_Dispose@Class_SurrogateMicrosoft_Singularity_Directory_FileContract_Imp@@SIXPAU1@@Z 02012cf0 f   Shell.obj
 0001:00011d14       ?g__ctor@Class_SurrogateMicrosoft_Singularity_Directory_FileContract_Imp@@SIXPAU1@PAUStruct_Microsoft_Singularity_Directory_FileContract_Imp@@@Z 02012d14 f   Shell.obj
 0001:00011d3c       ?g_get$_TickCount@Class_System_Environment@@SIHXZ 02012d3c f   Shell.obj
 0001:00011da8       ?g_get$_NewLine@Class_System_Environment@@SIPAUClass_System_String@@XZ 02012da8 f   Shell.obj
 0001:00011dc0       ?m__ctor@Class_System_Environment@@SIXPAU1@@Z 02012dc0 f   Shell.obj
 0001:00011dd8       ?m_Visit@Class_System_GCs_GCProfiler_OneObjectVisitor@@SIXPAU1@PAPAUuintPtr@@@Z 02012dd8 f   Shell.obj
 0001:00011e04       ?m__ctor@Class_System_GCs_GCProfiler_OneObjectVisitor@@SIXPAU1@PAUClass_System_GCs_GCProfiler@@@Z 02012e04 f   Shell.obj
 0001:00011e34       ?g_StableState@Class_Microsoft_Singularity_Directory_FileContract@@SIHPAUStruct_Microsoft_Singularity_Channels_StateStack@@@Z 02012e34 f   Shell.obj
 0001:00011eb0       ?g_NewChannel@Class_Microsoft_Singularity_Directory_FileContract@@SIXPAPAUStruct_Microsoft_Singularity_Directory_FileContract_Imp@@PAPAUStruct_Microsoft_Singularity_Directory_FileContract_Exp@@@Z 02012eb0 f   Shell.obj
 0001:00011f4c       ?m__ctor@Class_Microsoft_Singularity_Directory_FileContract@@SIXPAU1@@Z 02012f4c f   Shell.obj
 0001:00011f64       ?m_StringValue@Class_Microsoft_Singularity_Applications_ScriptEngine_VariableReference@@SIPAUClass_System_String@@PAU1@PAUClass_Microsoft_Singularity_Applications_ScriptEngine_Interpretation@@@Z 02012f64 f   Shell.obj
 0001:00011fc0       ?m_IntValue@Class_Microsoft_Singularity_Applications_ScriptEngine_VariableReference@@SIHPAU1@PAUClass_Microsoft_Singularity_Applications_ScriptEngine_Interpretation@@@Z 02012fc0 f   Shell.obj
 0001:000120e8       ?m_GetValue@Class_Microsoft_Singularity_Applications_ScriptEngine_VariableReference@@SIPAUClass_System_Object@@PAU1@PAUClass_Microsoft_Singularity_Applications_ScriptEngine_Interpretation@@@Z 020130e8 f   Shell.obj
 0001:00012190       ?m_BoolValue@Class_Microsoft_Singularity_Applications_ScriptEngine_VariableReference@@SI_NPAU1@PAUClass_Microsoft_Singularity_Applications_ScriptEngine_Interpretation@@@Z 02013190 f   Shell.obj
 0001:00012314       ?m__ctor@Class_Microsoft_Singularity_Applications_ScriptEngine_VariableReference@@SIXPAU1@PAUClass_System_String@@@Z 02013314 f   Shell.obj
 0001:00012344       ?m__ctor@Class_Microsoft_Singularity_Applications_ScriptEngine_ScriptException@@SIXPAU1@PAUClass_System_String@@@Z 02013344 f   Shell.obj
 0001:0001236c       ?m_RecvControlZ@Class_Microsoft_Singularity_Io_PipeLookAhead@@SIXPAU1@@Z 0201336c f   Shell.obj
 0001:000123cc       ?m_RecvControlC@Class_Microsoft_Singularity_Io_PipeLookAhead@@SIXPAU1@@Z 020133cc f   Shell.obj
 0001:0001242c       ?m_RecvChar@Class_Microsoft_Singularity_Io_PipeLookAhead@@SIXPAU1@PA_W@Z 0201342c f   Shell.obj
 0001:00012494       ?m_ReadChar@Class_Microsoft_Singularity_Io_PipeLookAhead@@SIHPAU1@@Z 02013494 f   Shell.obj
 0001:00012598       ?m_Microsoft_Singularity_Channels_ISelectable_GetWaitHandle@Class_Microsoft_Singularity_Io_PipeLookAhead@@SI?AUStruct_Microsoft_Singularity_V1_Threads_SyncHandle@@PAU1@@Z 02013598 f   Shell.obj
 0001:0001264c       ?m_Microsoft_SingSharp_ITracked_UnExpose@Class_Microsoft_Singularity_Io_PipeLookAhead@@SIXPAU1@@Z 0201364c f   Shell.obj
 0001:00012668       ?m_Microsoft_SingSharp_ITracked_Release@Class_Microsoft_Singularity_Io_PipeLookAhead@@SIXPAU1@@Z 02013668 f   Shell.obj
 0001:00012684       ?m_Microsoft_SingSharp_ITracked_Expose@Class_Microsoft_Singularity_Io_PipeLookAhead@@SIXPAU1@@Z 02013684 f   Shell.obj
 0001:000126a0       ?m_Microsoft_SingSharp_ITracked_Acquire@Class_Microsoft_Singularity_Io_PipeLookAhead@@SIXPAU1@@Z 020136a0 f   Shell.obj
 0001:000126bc       ?m_HeadMatches@Class_Microsoft_Singularity_Io_PipeLookAhead@@SI_NPAU1@HPA_NPAPAUClass_System_Object@@@Z 020136bc f   Shell.obj
 0001:0001280c       ?m_get$_IsClosed@Class_Microsoft_Singularity_Io_PipeLookAhead@@SI_NPAU1@@Z 0201380c f   Shell.obj
 0001:000128a8       ?m_get$_HasControlZ@Class_Microsoft_Singularity_Io_PipeLookAhead@@SI_NPAU1@@Z 020138a8 f   Shell.obj
 0001:00012920       ?m_get$_HasControlC@Class_Microsoft_Singularity_Io_PipeLookAhead@@SI_NPAU1@@Z 02013920 f   Shell.obj
 0001:00012998       ?m_get$_HasCharacter@Class_Microsoft_Singularity_Io_PipeLookAhead@@SI_NPAU1@@Z 02013998 f   Shell.obj
 0001:00012a18       ?m_FillToLookAheadWithoutBlock@Class_Microsoft_Singularity_Io_PipeLookAhead@@SIXPAU1@@Z 02013a18 f   Shell.obj
 0001:00012c70       ?m_Dispose@Class_Microsoft_Singularity_Io_PipeLookAhead@@SIXPAU1@@Z 02013c70 f   Shell.obj
 0001:00012cf8       ?m__ctor@Class_Microsoft_Singularity_Io_PipeLookAhead@@SIXPAU1@PAUStruct_Microsoft_Singularity_Io_UnicodePipeContract_Exp@@H@Z 02013cf8 f   Shell.obj
 0001:00012d9c       ?g__cctor@Class_Microsoft_Singularity_Io_PipeLookAhead@@SIXXZ 02013d9c f   Shell.obj
 0001:00012e5c       ?m_StructCopy@Struct_Microsoft_Singularity_V1_Services_ProcessService@@SIXPAU1@0@Z 02013e5c f   Shell.obj
 0001:00012e78       ?m_StructCopy@Struct_Microsoft_Singularity_V1_Services_ProcessService@@SIXPAU1@PAU1@@Z 02013e78 f   Shell.obj
 0001:00012ecc       ?g_GetStartupStringArrayArg@Struct_Microsoft_Singularity_V1_Services_ProcessService@@SI?AUStruct_Microsoft_Singularity_V1_Services_ParameterCode@@HPA_WPAHPAH2@Z 02013ecc f   Shell.obj
 0001:00012f3c       ?g_GetStartupStringArg@Struct_Microsoft_Singularity_V1_Services_ProcessService@@SI?AUStruct_Microsoft_Singularity_V1_Services_ParameterCode@@HPA_WPAH@Z 02013f3c f   Shell.obj
 0001:00012f8c       ?g_GetSharedSourceHandles@Struct_Microsoft_Singularity_V1_Services_ProcessService@@SI_NIPAPAUuintPtr@@00@Z 02013f8c f   Shell.obj
 0001:00013010       ?m_Equals@Struct_Microsoft_Singularity_V1_Services_ProcessService@@SI_NPAU1@PAUClass_System_Object@@@Z 02014010 f   Shell.obj
 0001:00013048       ?m_Equals@Struct_Microsoft_Singularity_V1_Services_ProcessService@@SI_NPAUClass_Microsoft_Singularity_V1_Services_ProcessService@@PAUClass_System_Object@@@Z 02014048 f   Shell.obj
 0001:00013074       ?m_StructCopy@Struct_Microsoft_Singularity_Diagnostics_Contracts_ProcessContract_ProcessGcStats@@SIXPAU1@0@Z 02014074 f   Shell.obj
 0001:000130cc       ?m_StructCopy@Struct_Microsoft_Singularity_Diagnostics_Contracts_ProcessContract_ProcessGcStats@@SIXPAU1@PAU1@@Z 020140cc f   Shell.obj
 0001:000131d4       ?m_Equals@Struct_Microsoft_Singularity_Diagnostics_Contracts_ProcessContract_ProcessGcStats@@SI_NPAU1@PAUClass_System_Object@@@Z 020141d4 f   Shell.obj
 0001:00013278       ?m_Equals@Struct_Microsoft_Singularity_Diagnostics_Contracts_ProcessContract_ProcessGcStats@@SI_NPAUClass_Microsoft_Singularity_Diagnostics_Contracts_ProcessContract_ProcessGcStats@@PAUClass_System_Object@@@Z 02014278 f   Shell.obj
 0001:000132a4       ?g_UnderGCControl@Class_System_GCs_Transitions@@SI_NH@Z 020142a4 f   Shell.obj
 0001:00013358       ?g_TransferMutatorControl@Class_System_GCs_Transitions@@SIXPAUStruct_Microsoft_Singularity_ThreadContext@@@Z 02014358 f   Shell.obj
 0001:00013498       ?g_TransferMutatorControl@Class_System_GCs_Transitions@@SIXPAHH@Z 02014498 f   Shell.obj
 0001:000135ac       ?g_ThreadStart@Class_System_GCs_Transitions@@SIXXZ 020145ac f   Shell.obj
 0001:00013794       ?g_ThreadEnd@Class_System_GCs_Transitions@@SIXH@Z 02014794 f   Shell.obj
 0001:000139c0       ?g_TakeMutatorControlSlowNoGC@Class_System_GCs_Transitions@@SIXPAHH@Z 020149c0 f   Shell.obj
 0001:000139ec       ?g_TakeMutatorControlSlow@Class_System_GCs_Transitions@@SIXPAHH@Z 020149ec f   Shell.obj
 0001:00013a18       ?g_TakeMutatorControlSlow@Class_System_GCs_Transitions@@SIXPAHH_N1@Z 02014a18 f   Shell.obj
 0001:00013be4       ?g_TakeMutatorControlNoGC@Class_System_GCs_Transitions@@SIXPAUStruct_Microsoft_Singularity_ThreadContext@@@Z 02014be4 f   Shell.obj
 0001:00013d48       ?g_TakeMutatorControlNoGC@Class_System_GCs_Transitions@@SIXPAHH@Z 02014d48 f   Shell.obj
 0001:00013e84       ?g_TakeMutatorControlNoGC@Class_System_GCs_Transitions@@SIXH@Z 02014e84 f   Shell.obj
 0001:00014074       ?g_TakeMutatorControl@Class_System_GCs_Transitions@@SIXPAUStruct_Microsoft_Singularity_ThreadContext@@@Z 02015074 f   Shell.obj
 0001:000141d8       ?g_TakeMutatorControl@Class_System_GCs_Transitions@@SIXPAHH@Z 020151d8 f   Shell.obj
 0001:00014314       ?g_TakeMutatorControl@Class_System_GCs_Transitions@@SIXH@Z 02015314 f   Shell.obj
 0001:00014504       ?g_TakeGCControl@Class_System_GCs_Transitions@@SI_NPAH@Z 02015504 f   Shell.obj
 0001:000145c8       ?g_TakeGCControl@Class_System_GCs_Transitions@@SI_NH@Z 020155c8 f   Shell.obj
 0001:00014744       ?g_TakeDormantControlNoGC@Class_System_GCs_Transitions@@SIXPAH@Z 02015744 f   Shell.obj
 0001:000147f0       ?g_TakeDormantControlNoGC@Class_System_GCs_Transitions@@SIXH@Z 020157f0 f   Shell.obj
 0001:00014944       ?g_TakeDormantControl@Class_System_GCs_Transitions@@SIXPAUStruct_Microsoft_Singularity_ThreadContext@@@Z 02015944 f   Shell.obj
 0001:00014a50       ?g_TakeDormantControl@Class_System_GCs_Transitions@@SIXPAHH@Z 02015a50 f   Shell.obj
 0001:00014b24       ?g_TakeDormantControl@Class_System_GCs_Transitions@@SIXH@Z 02015b24 f   Shell.obj
 0001:00014c8c       ?g_SwitchToMutatorStateWithGCRequest@Class_System_GCs_Transitions@@SI_NPAH@Z 02015c8c f   Shell.obj
 0001:00014cf8       ?g_SwitchToMutatorState@Class_System_GCs_Transitions@@SI_NPAH@Z 02015cf8 f   Shell.obj
 0001:00014da8       ?g_RuntimeInitialized@Class_System_GCs_Transitions@@SIXXZ 02015da8 f   Shell.obj
 0001:00014dc4       ?g_ReturnToManagedSpace@Class_System_GCs_Transitions@@SIXPAUStruct_Microsoft_Singularity_ThreadContext@@@Z 02015dc4 f   Shell.obj
 0001:00014fa4       ?g_ReturnFromManagedSpaceNoCallerTransition@Class_System_GCs_Transitions@@SIXXZ 02015fa4 f   Shell.obj
 0001:000150b8       ?g_ReturnFromManagedSpace@Class_System_GCs_Transitions@@SIXXZ 020160b8 f   Shell.obj
 0001:00015200       ?g_RestoreMutatorControlIfNeeded@Class_System_GCs_Transitions@@SIXXZ 02016200 f   Shell.obj
 0001:00015338       ?g_ReleaseGCControl@Class_System_GCs_Transitions@@SIXPAHH@Z 02016338 f   Shell.obj
 0001:000153fc       ?g_ReleaseGCControl@Class_System_GCs_Transitions@@SIXH@Z 020163fc f   Shell.obj
 0001:0001555c       ?g_NewThreadNotification@Class_System_GCs_Transitions@@SIXH_N@Z 0201655c f   Shell.obj
 0001:000156fc       ?g_MakeGCRequests@Class_System_GCs_Transitions@@SIXH@Z 020166fc f   Shell.obj
 0001:00015824       ?g_MakeGCRequest@Class_System_GCs_Transitions@@SIXPAHH@Z 02016824 f   Shell.obj
 0001:00015888       ?g_MakeGCRequest@Class_System_GCs_Transitions@@SIXH@Z 02016888 f   Shell.obj
 0001:0001592c       ?g_LeaveManagedSpace@Class_System_GCs_Transitions@@SIXPAUStruct_Microsoft_Singularity_ThreadContext@@@Z 0201692c f   Shell.obj
 0001:00015a6c       ?g_LeaveLoadFunctionStub@Class_System_GCs_Transitions@@SIXXZ 02016a6c f   Shell.obj
 0001:00015bd8       ?g_InMutatorState@Class_System_GCs_Transitions@@SI_NPAUStruct_Microsoft_Singularity_ThreadContext@@@Z 02016bd8 f   Shell.obj
 0001:00015c28       ?g_InMutatorState@Class_System_GCs_Transitions@@SI_NH@Z 02016c28 f   Shell.obj
 0001:00015ce4       ?g_Initialize@Class_System_GCs_Transitions@@SIXXZ 02016ce4 f   Shell.obj
 0001:00015cf8       ?g_InDormantState@Class_System_GCs_Transitions@@SI_NH@Z 02016cf8 f   Shell.obj
 0001:00015da8       ?g_HasGCRequest@Class_System_GCs_Transitions@@SI_NH@Z 02016da8 f   Shell.obj
 0001:00015e58       ?g_GetThreadContext@Class_System_GCs_Transitions@@SIPAUStruct_Microsoft_Singularity_ThreadContext@@H@Z 02016e58 f   Shell.obj
 0001:00015ea8       ?g_GetCurrentThreadContext@Class_System_GCs_Transitions@@SIPAUStruct_Microsoft_Singularity_ThreadContext@@H@Z 02016ea8 f   Shell.obj
 0001:00015f30       ?g_fUnderGCControl@Class_System_GCs_Transitions@@SI_NH@Z 02016f30 f   Shell.obj
 0001:00015f58       ?g_fInMutatorState@Class_System_GCs_Transitions@@SI_NH@Z 02016f58 f   Shell.obj
 0001:00015f80       ?g_fInDormantState@Class_System_GCs_Transitions@@SI_NH@Z 02016f80 f   Shell.obj
 0001:00015fa8       ?g_fHasGCRequest@Class_System_GCs_Transitions@@SI_NH@Z 02016fa8 f   Shell.obj
 0001:00015fd0       ?g_EntryIntoManagedSpace@Class_System_GCs_Transitions@@SIXXZ 02016fd0 f   Shell.obj
 0001:000161b8       ?g_EnterLoadFunctionStub@Class_System_GCs_Transitions@@SIXXZ 020171b8 f   Shell.obj
 0001:000163b0       ?g_EnsureMutatorControlNoGC@Class_System_GCs_Transitions@@SIXPAUStruct_Microsoft_Singularity_ThreadContext@@@Z 020173b0 f   Shell.obj
 0001:00016590       ?g_EnsureMutatorControlNoGC@Class_System_GCs_Transitions@@SIXPAHH@Z 02017590 f   Shell.obj
 0001:00016748       ?g_EnsureMutatorControl@Class_System_GCs_Transitions@@SIXPAUStruct_Microsoft_Singularity_ThreadContext@@@Z 02017748 f   Shell.obj
 0001:00016928       ?g_EnsureMutatorControl@Class_System_GCs_Transitions@@SIXPAHH@Z 02017928 f   Shell.obj
 0001:00016ae0       ?g_DeadThreadNotification@Class_System_GCs_Transitions@@SIXH@Z 02017ae0 f   Shell.obj
 0001:00016c90       ?g_CompareAndSwap@Class_System_GCs_Transitions@@SI_NPAHHH@Z 02017c90 f   Shell.obj
 0001:00016cc4       ?g_ClearGCRequest@Class_System_GCs_Transitions@@SIXPAHH@Z 02017cc4 f   Shell.obj
 0001:00016d70       ?g_ClearGCRequest@Class_System_GCs_Transitions@@SIXH@Z 02017d70 f   Shell.obj
 0001:00016e14       ?m__ctor@Class_System_GCs_Transitions@@SIXPAU1@@Z 02017e14 f   Shell.obj
 0001:00016e30       ?m_StructCopy@Struct_Microsoft_Singularity_Diagnostics_Contracts_ProcessContract_GetParentID@@SIXPAU1@0@Z 02017e30 f   Shell.obj
 0001:00016e58       ?m_StructCopy@Struct_Microsoft_Singularity_Diagnostics_Contracts_ProcessContract_GetParentID@@SIXPAU1@PAU1@@Z 02017e58 f   Shell.obj
 0001:00016ed0       ?m_Equals@Struct_Microsoft_Singularity_Diagnostics_Contracts_ProcessContract_GetParentID@@SI_NPAU1@PAUClass_System_Object@@@Z 02017ed0 f   Shell.obj
 0001:00016f18       ?m_Equals@Struct_Microsoft_Singularity_Diagnostics_Contracts_ProcessContract_GetParentID@@SI_NPAUClass_Microsoft_Singularity_Diagnostics_Contracts_ProcessContract_GetParentID@@PAUClass_System_Object@@@Z 02017f18 f   Shell.obj
 0001:00016f44       ?m__ctor@Class_System_Text_RegularExpressions_MatchSparse@@SIXPAU1@PAUClass_System_Text_RegularExpressions_Regex@@PAUClass_System_Collections_Hashtable@@HPAUClass_System_String@@HHH@Z 02017f44 f   Shell.obj
 0001:00016f8c       ?g__cctor@Class_System_Text_RegularExpressions_MatchSparse@@SIXXZ 02017f8c f   Shell.obj
 0001:00016fb4       ?m__ctor@Class_Microsoft_Singularity_Xml_XmlNode_XmlAttr@@SIXPAU1@PAUClass_System_String@@1@Z 02017fb4 f   Shell.obj
 0001:00016ff8       ?m_StructCopy@Struct_Microsoft_Singularity_Directory_DirectoryServiceContract_Notify@@SIXPAU1@0@Z 02017ff8 f   Shell.obj
 0001:00017044       ?m_StructCopy@Struct_Microsoft_Singularity_Directory_DirectoryServiceContract_Notify@@SIXPAU1@PAU1@@Z 02018044 f   Shell.obj
 0001:00017128       ?m_Equals@Struct_Microsoft_Singularity_Directory_DirectoryServiceContract_Notify@@SI_NPAU1@PAUClass_System_Object@@@Z 02018128 f   Shell.obj
 0001:000171a0       ?m_Equals@Struct_Microsoft_Singularity_Directory_DirectoryServiceContract_Notify@@SI_NPAUClass_Microsoft_Singularity_Directory_DirectoryServiceContract_Notify@@PAUClass_System_Object@@@Z 020181a0 f   Shell.obj
 0001:000171cc       ?m_TryAcquire@Struct_System_Threading_SpinLockBase@@SI_NPAU1@H@Z 020181cc f   Shell.obj
 0001:00017224       ?m_StructCopy@Struct_System_Threading_SpinLockBase@@SIXPAU1@0@Z 02018224 f   Shell.obj
 0001:00017258       ?m_StructCopy@Struct_System_Threading_SpinLockBase@@SIXPAU1@PAU1@@Z 02018258 f   Shell.obj
 0001:000172f4       ?m_SpinToAcquire@Struct_System_Threading_SpinLockBase@@SIXPAU1@H@Z 020182f4 f   Shell.obj
 0001:000173d8       ?m_Release@Struct_System_Threading_SpinLockBase@@SIXPAU1@H@Z 020183d8 f   Shell.obj
 0001:00017418       ?m_get$_Type@Struct_System_Threading_SpinLockBase@@SIHPAU1@@Z 02018418 f   Shell.obj
 0001:00017438       ?m_Equals@Struct_System_Threading_SpinLockBase@@SI_NPAU1@PAUClass_System_Object@@@Z 02018438 f   Shell.obj
 0001:00017494       ?m_Equals@Struct_System_Threading_SpinLockBase@@SI_NPAUClass_System_Threading_SpinLockBase@@PAUClass_System_Object@@@Z 02018494 f   Shell.obj
 0001:000174c0       ?m_Acquire@Struct_System_Threading_SpinLockBase@@SIXPAU1@H@Z 020184c0 f   Shell.obj
 0001:0001753c       ?g_TopLevelException@Class_Microsoft_Singularity_AppRuntime@@SIXPAUClass_System_Exception@@@Z 0201853c f   Shell.obj
 0001:00017664       ?g_InitializeConsole@Class_Microsoft_Singularity_AppRuntime@@SIXXZ 02018664 f   Shell.obj
 0001:000176b0       ?g_get$_AppName@Class_Microsoft_Singularity_AppRuntime@@SIPAUClass_System_String@@XZ 020186b0 f   Shell.obj
 0001:000176c8       ?g_FinalizeConsole@Class_Microsoft_Singularity_AppRuntime@@SIXXZ 020186c8 f   Shell.obj
 0001:00017714       ?g_AppStart@Class_Microsoft_Singularity_AppRuntime@@SIHPAUClass_System_Type@@@Z 02018714 f   Shell.obj
 0001:00017bac       ?m__ctor@Class_Microsoft_Singularity_AppRuntime@@SIXPAU1@@Z 02018bac f   Shell.obj
 0001:00017bc8       ?m_Unlink@Class_Microsoft_Singularity_Channels_ESet$_2$LMicrosoft_Singularity_Io_UnicodePipeContract_Exp_Microsoft_Singularity_Io_UnicodePipeContract_READY$G_Node@@SIPAUStruct_Microsoft_Singularity_Io_UnicodePipeContract_Exp@@PAU1@PAUClass_Microsoft_Singularity_Channels_ESet$_2$LMicrosoft_Singularity_Io_UnicodePipeContract_Exp_Microsoft_Singularity_Io_UnicodePipeContract_READY$G@@@Z 02018bc8 f   Shell.obj
 0001:00017cdc       ?m_LinkAsNext@Class_Microsoft_Singularity_Channels_ESet$_2$LMicrosoft_Singularity_Io_UnicodePipeContract_Exp_Microsoft_Singularity_Io_UnicodePipeContract_READY$G_Node@@SIXPAU1@PAUStruct_Microsoft_Singularity_Io_UnicodePipeContract_Exp@@PAUClass_Microsoft_Singularity_Channels_ESet$_2$LMicrosoft_Singularity_Io_UnicodePipeContract_Exp_Microsoft_Singularity_Io_UnicodePipeContract_READY$G@@@Z 02018cdc f   Shell.obj
 0001:00017d58       ?m_Init@Class_Microsoft_Singularity_Channels_ESet$_2$LMicrosoft_Singularity_Io_UnicodePipeContract_Exp_Microsoft_Singularity_Io_UnicodePipeContract_READY$G_Node@@SIXPAU1@PAUStruct_Microsoft_Singularity_Io_UnicodePipeContract_Exp@@PAUClass_Microsoft_Singularity_Channels_ESet$_2$LMicrosoft_Singularity_Io_UnicodePipeContract_Exp_Microsoft_Singularity_Io_UnicodePipeContract_READY$G@@@Z 02018d58 f   Shell.obj
 0001:00017d88       ?m__ctor@Class_Microsoft_Singularity_Channels_ESet$_2$LMicrosoft_Singularity_Io_UnicodePipeContract_Exp_Microsoft_Singularity_Io_UnicodePipeContract_READY$G_Node@@SIXPAU1@PAUStruct_Microsoft_Singularity_Io_UnicodePipeContract_Exp@@PAUClass_Microsoft_Singularity_Channels_ESet$_2$LMicrosoft_Singularity_Io_UnicodePipeContract_Exp_Microsoft_Singularity_Io_UnicodePipeContract_READY$G@@@Z 02018d88 f   Shell.obj
 0001:00017dcc       ?m__ctor@Class_Microsoft_Singularity_Channels_ESet$_2$LMicrosoft_Singularity_Io_UnicodePipeContract_Exp_Microsoft_Singularity_Io_UnicodePipeContract_READY$G_Node@@SIXPAU1@PAUClass_Microsoft_Singularity_Channels_ESet$_2$LMicrosoft_Singularity_Io_UnicodePipeContract_Exp_Microsoft_Singularity_Io_UnicodePipeContract_READY$G@@@Z 02018dcc f   Shell.obj
 0001:00017e00       ?m__ctor@Class_System_Runtime_CompilerServices_InlineAttribute@@SIXPAU1@@Z 02018e00 f   Shell.obj
 0001:00017e24       ?m_StructCopy@Struct_System_ReadEnlistmentLog_Entry@@SIXPAU1@0@Z 02018e24 f   Shell.obj
 0001:00017e60       ?m_StructCopy@Struct_System_ReadEnlistmentLog_Entry@@SIXPAU1@PAU1@@Z 02018e60 f   Shell.obj
 0001:00017f14       ?m_Equals@Struct_System_ReadEnlistmentLog_Entry@@SI_NPAU1@PAUClass_System_Object@@@Z 02018f14 f   Shell.obj
 0001:0001802c       ?m_Equals@Struct_System_ReadEnlistmentLog_Entry@@SI_NPAUClass_System_ReadEnlistmentLog_Entry@@PAUClass_System_Object@@@Z 0201902c f   Shell.obj
 0001:00018058       ?m_Unlink@Class_Microsoft_Singularity_Channels_ESet$_2$LMicrosoft_Singularity_Io_UnicodePipeContract_Imp_Microsoft_Singularity_Io_UnicodePipeContract_ACK$G_Node@@SIPAUStruct_Microsoft_Singularity_Io_UnicodePipeContract_Imp@@PAU1@PAUClass_Microsoft_Singularity_Channels_ESet$_2$LMicrosoft_Singularity_Io_UnicodePipeContract_Imp_Microsoft_Singularity_Io_UnicodePipeContract_ACK$G@@@Z 02019058 f   Shell.obj
 0001:0001816c       ?m_LinkAsNext@Class_Microsoft_Singularity_Channels_ESet$_2$LMicrosoft_Singularity_Io_UnicodePipeContract_Imp_Microsoft_Singularity_Io_UnicodePipeContract_ACK$G_Node@@SIXPAU1@PAUStruct_Microsoft_Singularity_Io_UnicodePipeContract_Imp@@PAUClass_Microsoft_Singularity_Channels_ESet$_2$LMicrosoft_Singularity_Io_UnicodePipeContract_Imp_Microsoft_Singularity_Io_UnicodePipeContract_ACK$G@@@Z 0201916c f   Shell.obj
 0001:000181e8       ?m_Init@Class_Microsoft_Singularity_Channels_ESet$_2$LMicrosoft_Singularity_Io_UnicodePipeContract_Imp_Microsoft_Singularity_Io_UnicodePipeContract_ACK$G_Node@@SIXPAU1@PAUStruct_Microsoft_Singularity_Io_UnicodePipeContract_Imp@@PAUClass_Microsoft_Singularity_Channels_ESet$_2$LMicrosoft_Singularity_Io_UnicodePipeContract_Imp_Microsoft_Singularity_Io_UnicodePipeContract_ACK$G@@@Z 020191e8 f   Shell.obj
 0001:00018218       ?m__ctor@Class_Microsoft_Singularity_Channels_ESet$_2$LMicrosoft_Singularity_Io_UnicodePipeContract_Imp_Microsoft_Singularity_Io_UnicodePipeContract_ACK$G_Node@@SIXPAU1@PAUStruct_Microsoft_Singularity_Io_UnicodePipeContract_Imp@@PAUClass_Microsoft_Singularity_Channels_ESet$_2$LMicrosoft_Singularity_Io_UnicodePipeContract_Imp_Microsoft_Singularity_Io_UnicodePipeContract_ACK$G@@@Z 02019218 f   Shell.obj
 0001:0001825c       ?m__ctor@Class_Microsoft_Singularity_Channels_ESet$_2$LMicrosoft_Singularity_Io_UnicodePipeContract_Imp_Microsoft_Singularity_Io_UnicodePipeContract_ACK$G_Node@@SIXPAU1@PAUClass_Microsoft_Singularity_Channels_ESet$_2$LMicrosoft_Singularity_Io_UnicodePipeContract_Imp_Microsoft_Singularity_Io_UnicodePipeContract_ACK$G@@@Z 0201925c f   Shell.obj
 0001:00018290       ?m_GetController@Class_Microsoft_Singularity_Eventing_GlobalStorage@@SIPAUClass_Microsoft_Singularity_Eventing_Controller@@PAU1@@Z 02019290 f   Shell.obj
 0001:000182c4       ?m_Finalize@Class_Microsoft_Singularity_Eventing_GlobalStorage@@SIXPAU1@@Z 020192c4 f   Shell.obj
 0001:00018308       ?m_Destroy@Class_Microsoft_Singularity_Eventing_GlobalStorage@@SIXPAU1@@Z 02019308 f   Shell.obj
 0001:0001833c       ?m_StructCopy@Struct_Microsoft_Singularity_Isal_IX_Gdte64@@SIXPAU1@0@Z 0201933c f   Shell.obj
 0001:000183bc       ?m_StructCopy@Struct_Microsoft_Singularity_Isal_IX_Gdte64@@SIXPAU1@PAU1@@Z 020193bc f   Shell.obj
 0001:0001853c       ?m_Equals@Struct_Microsoft_Singularity_Isal_IX_Gdte64@@SI_NPAU1@PAUClass_System_Object@@@Z 0201953c f   Shell.obj
 0001:000185ec       ?m_Equals@Struct_Microsoft_Singularity_Isal_IX_Gdte64@@SI_NPAUClass_Microsoft_Singularity_Isal_IX_Gdte64@@PAUClass_System_Object@@@Z 020195ec f   Shell.obj
 0001:00018618       ?m_StructCopy@Struct_Microsoft_Singularity_Directory_DirectoryServiceContract_NakDeleteDirectory@@SIXPAU1@0@Z 02019618 f   Shell.obj
 0001:00018640       ?m_StructCopy@Struct_Microsoft_Singularity_Directory_DirectoryServiceContract_NakDeleteDirectory@@SIXPAU1@PAU1@@Z 02019640 f   Shell.obj
 0001:000186b8       ?m_Equals@Struct_Microsoft_Singularity_Directory_DirectoryServiceContract_NakDeleteDirectory@@SI_NPAU1@PAUClass_System_Object@@@Z 020196b8 f   Shell.obj
 0001:00018758       ?m_Equals@Struct_Microsoft_Singularity_Directory_DirectoryServiceContract_NakDeleteDirectory@@SI_NPAUClass_Microsoft_Singularity_Directory_DirectoryServiceContract_NakDeleteDirectory@@PAUClass_System_Object@@@Z 02019758 f   Shell.obj
 0001:00018784       ?m_StructCopy@Struct_Microsoft_Singularity_ProcessorContext@@SIXPAU1@0@Z 02019784 f   Shell.obj
 0001:0001881c       ?m_StructCopy@Struct_Microsoft_Singularity_ProcessorContext@@SIXPAU1@PAU1@@Z 0201981c f   Shell.obj
 0001:000189e4       ?m_Equals@Struct_Microsoft_Singularity_ProcessorContext@@SI_NPAU1@PAUClass_System_Object@@@Z 020199e4 f   Shell.obj
 0001:00018b28       ?m_Equals@Struct_Microsoft_Singularity_ProcessorContext@@SI_NPAUClass_Microsoft_Singularity_ProcessorContext@@PAUClass_System_Object@@@Z 02019b28 f   Shell.obj
 0001:00018b54       ?m_WaitOneNoGC@Class_System_Threading_AutoResetEvent@@SI_NPAU1@@Z 02019b54 f   Shell.obj
 0001:00018bbc       ?m_WaitOne@Class_System_Threading_AutoResetEvent@@SI_NPAU1@@Z 02019bbc f   Shell.obj
 0001:00018c30       ?m_WaitOne@Class_System_Threading_AutoResetEvent@@SI_NPAU1@UStruct_System_SchedulerTime@@@Z 02019c30 f   Shell.obj
 0001:00018cb8       ?m_SetNoGC@Class_System_Threading_AutoResetEvent@@SIXPAU1@@Z 02019cb8 f   Shell.obj
 0001:00018ce8       ?m_Set@Class_System_Threading_AutoResetEvent@@SIXPAU1@@Z 02019ce8 f   Shell.obj
 0001:00018d20       ?m_Finalize@Class_System_Threading_AutoResetEvent@@SIXPAU1@@Z 02019d20 f   Shell.obj
 0001:00018d84       ?m_Dispose@Class_System_Threading_AutoResetEvent@@SIXPAU1@_N@Z 02019d84 f   Shell.obj
 0001:00018dd0       ?m__ctor@Class_System_Threading_AutoResetEvent@@SIXPAU1@_N@Z 02019dd0 f   Shell.obj
 0001:00018e3c       ?m_ZeroIfMustBeQuiescent@Struct_System_MultiUseWord_STMSnapshot@@SIIPAU1@@Z 02019e3c f   Shell.obj
 0001:00018e64       ?m_Visit@Struct_System_MultiUseWord_STMSnapshot@@SIXPAU1@PAUClass_System_GCs_DirectReferenceVisitor@@@Z 02019e64 f   Shell.obj
 0001:00019020       ?m_StructCopy@Struct_System_MultiUseWord_STMSnapshot@@SIXPAU1@0@Z 0201a020 f   Shell.obj
 0001:00019048       ?m_StructCopy@Struct_System_MultiUseWord_STMSnapshot@@SIXPAU1@PAU1@@Z 0201a048 f   Shell.obj
 0001:000190c0       ?m_GetSTMWord@Struct_System_MultiUseWord_STMSnapshot@@SI?AUStruct_System_STMWord@@PAU1@@Z 0201a0c0 f   Shell.obj
 0001:0001916c       ?m_Equals@Struct_System_MultiUseWord_STMSnapshot@@SI_NPAU1@PAUClass_System_Object@@@Z 0201a16c f   Shell.obj
 0001:000191b4       ?m_Equals@Struct_System_MultiUseWord_STMSnapshot@@SI_NPAUClass_System_MultiUseWord_STMSnapshot@@PAUClass_System_Object@@@Z 0201a1b4 f   Shell.obj
 0001:000191e0       ?m_Eq@Struct_System_MultiUseWord_STMSnapshot@@SI_NPAU1@U1@@Z 0201a1e0 f   Shell.obj
 0001:0001920c       ?m__ctor@Struct_System_MultiUseWord_STMSnapshot@@SIXPAU1@UStruct_System_MultiUseWord@@@Z 0201a20c f   Shell.obj
 0001:00019234       ?g_get$_NullMessage@Class_System_ArgumentNullException@@SIPAUClass_System_String@@XZ 0201a234 f   Shell.obj
 0001:00019260       ?m__ctor@Class_System_ArgumentNullException@@SIXPAU1@@Z 0201a260 f   Shell.obj
 0001:00019288       ?m__ctor@Class_System_ArgumentNullException@@SIXPAU1@PAUClass_System_String@@@Z 0201a288 f   Shell.obj
 0001:000192b8       ?m__ctor@Class_System_ArgumentNullException@@SIXPAU1@PAUClass_System_String@@1@Z 0201a2b8 f   Shell.obj
 0001:000192e8       ?g__cctor@Class_System_ArgumentNullException@@SIXXZ 0201a2e8 f   Shell.obj
 0001:000192fc       ?m_Visit@Struct_System_MultiUseWord_STMHandle@@SI_NPAU1@PAUClass_System_GCs_DirectReferenceVisitor@@@Z 0201a2fc f   Shell.obj
 0001:00019350       ?m_StructCopy@Struct_System_MultiUseWord_STMHandle@@SIXPAU1@0@Z 0201a350 f   Shell.obj
 0001:00019378       ?m_StructCopy@Struct_System_MultiUseWord_STMHandle@@SIXPAU1@PAU1@@Z 0201a378 f   Shell.obj
 0001:000193f0       ?m_SetSTMWordAtGC@Struct_System_MultiUseWord_STMHandle@@SIXPAU1@PAUClass_System_GCs_DirectReferenceVisitor@@UStruct_System_STMWord@@@Z 0201a3f0 f   Shell.obj
 0001:000194e8       ?m_SetMark@Struct_System_MultiUseWord_STMHandle@@SIXPAU1@_N@Z 0201a4e8 f   Shell.obj
 0001:0001957c       ?m_IsMarked@Struct_System_MultiUseWord_STMHandle@@SI_NPAU1@@Z 0201a57c f   Shell.obj
 0001:000195c0       ?m_GetSTMSnapshot@Struct_System_MultiUseWord_STMHandle@@SI?AUStruct_System_MultiUseWord_STMSnapshot@@PAU1@@Z 0201a5c0 f   Shell.obj
 0001:0001960c       ?m_Equals@Struct_System_MultiUseWord_STMHandle@@SI_NPAU1@PAUClass_System_Object@@@Z 0201a60c f   Shell.obj
 0001:00019654       ?m_Equals@Struct_System_MultiUseWord_STMHandle@@SI_NPAUClass_System_MultiUseWord_STMHandle@@PAUClass_System_Object@@@Z 0201a654 f   Shell.obj
 0001:00019680       ?m_StructCopy@Struct_Microsoft_Singularity_Diagnostics_Contracts_ProcessContract_GetProcessGcStats@@SIXPAU1@0@Z 0201a680 f   Shell.obj
 0001:000196a8       ?m_StructCopy@Struct_Microsoft_Singularity_Diagnostics_Contracts_ProcessContract_GetProcessGcStats@@SIXPAU1@PAU1@@Z 0201a6a8 f   Shell.obj
 0001:00019720       ?m_Equals@Struct_Microsoft_Singularity_Diagnostics_Contracts_ProcessContract_GetProcessGcStats@@SI_NPAU1@PAUClass_System_Object@@@Z 0201a720 f   Shell.obj
 0001:00019768       ?m_Equals@Struct_Microsoft_Singularity_Diagnostics_Contracts_ProcessContract_GetProcessGcStats@@SI_NPAUClass_Microsoft_Singularity_Diagnostics_Contracts_ProcessContract_GetProcessGcStats@@PAUClass_System_Object@@@Z 0201a768 f   Shell.obj
 0001:00019794       ?m__ctor@Class_System_Runtime_CompilerServices_NoInlineAttribute@@SIXPAU1@@Z 0201a794 f   Shell.obj
 0001:000197b8       ?m_StructCopy@Struct_Microsoft_Singularity_Directory_DirectoryServiceContract_BeginEnumeration@@SIXPAU1@0@Z 0201a7b8 f   Shell.obj
 0001:000197d4       ?m_StructCopy@Struct_Microsoft_Singularity_Directory_DirectoryServiceContract_BeginEnumeration@@SIXPAU1@PAU1@@Z 0201a7d4 f   Shell.obj
 0001:00019828       ?m_MarshallContent@Struct_Microsoft_Singularity_Directory_DirectoryServiceContract_BeginEnumeration@@SIXPAU1@PAEPAUStruct_Microsoft_Singularity_Channels_Endpoint@@1PAH@Z 0201a828 f   Shell.obj
 0001:00019848       ?m_MarshallAll@Struct_Microsoft_Singularity_Directory_DirectoryServiceContract_BeginEnumeration@@SIXPAU1@PAEPAUStruct_Microsoft_Singularity_Channels_Endpoint@@PAH@Z 0201a848 f   Shell.obj
 0001:000198a0       ?m_Equals@Struct_Microsoft_Singularity_Directory_DirectoryServiceContract_BeginEnumeration@@SI_NPAU1@PAUClass_System_Object@@@Z 0201a8a0 f   Shell.obj
 0001:000198d8       ?m_Equals@Struct_Microsoft_Singularity_Directory_DirectoryServiceContract_BeginEnumeration@@SI_NPAUClass_Microsoft_Singularity_Directory_DirectoryServiceContract_BeginEnumeration@@PAUClass_System_Object@@@Z 0201a8d8 f   Shell.obj
 0001:00019904       ?m_System_Collections_IEnumerable_GetEnumerator@Class_System_Collections_SortedList@@SIPAUClass_System_Collections_IEnumerator@@PAU1@@Z 0201a904 f   Shell.obj
 0001:00019958       ?m_set$_Item@Class_System_Collections_SortedList@@SIXPAU1@PAUClass_System_Object@@1@Z 0201a958 f   Shell.obj
 0001:00019a44       ?m_set$_Capacity@Class_System_Collections_SortedList@@SIXPAU1@H@Z 0201aa44 f   Shell.obj
 0001:00019b60       ?m_Insert@Class_System_Collections_SortedList@@SIXPAU1@HPAUClass_System_Object@@1@Z 0201ab60 f   Shell.obj
 0001:00019c64       ?m_IndexOfKey@Class_System_Collections_SortedList@@SIHPAU1@PAUClass_System_Object@@@Z 0201ac64 f   Shell.obj
 0001:00019d08       ?m_get$_SyncRoot@Class_System_Collections_SortedList@@SIPAUClass_System_Object@@PAU1@@Z 0201ad08 f   Shell.obj
 0001:00019d28       ?m_get$_Item@Class_System_Collections_SortedList@@SIPAUClass_System_Object@@PAU1@PAU2@@Z 0201ad28 f   Shell.obj
 0001:00019d8c       ?m_get$_Count@Class_System_Collections_SortedList@@SIHPAU1@@Z 0201ad8c f   Shell.obj
 0001:00019dac       ?m_EnsureCapacity@Class_System_Collections_SortedList@@SIXPAU1@H@Z 0201adac f   Shell.obj
 0001:00019e10       ?m_CopyTo@Class_System_Collections_SortedList@@SIXPAU1@PAUClass_System_Array@@H@Z 0201ae10 f   Shell.obj
 0001:0001a020       ?m_Contains@Class_System_Collections_SortedList@@SI_NPAU1@PAUClass_System_Object@@@Z 0201b020 f   Shell.obj
 0001:0001a054       ?m_Add@Class_System_Collections_SortedList@@SIXPAU1@PAUClass_System_Object@@1@Z 0201b054 f   Shell.obj
 0001:0001a13c       ?m__ctor@Class_System_Collections_SortedList@@SIXPAU1@@Z 0201b13c f   Shell.obj
 0001:0001a1a4       ?m_set$_Target@Class_System_WeakReference@@SIXPAU1@PAUClass_System_Object@@@Z 0201b1a4 f   Shell.obj
 0001:0001a1e8       ?g_Process@Class_System_WeakReference@@SIXPAUClass_System_GCs_DirectReferenceVisitor@@_N1@Z 0201b1e8 f   Shell.obj
 0001:0001a320       ?m_get$_Target@Class_System_WeakReference@@SIPAUClass_System_Object@@PAU1@@Z 0201b320 f   Shell.obj
 0001:0001a364       ?m__ctor@Class_System_WeakReference@@SIXPAU1@@Z 0201b364 f   Shell.obj
 0001:0001a380       ?m__ctor@Class_System_WeakReference@@SIXPAU1@PAUClass_System_Object@@@Z 0201b380 f   Shell.obj
 0001:0001a3ac       ?m__ctor@Class_System_WeakReference@@SIXPAU1@PAUClass_System_Object@@_N@Z 0201b3ac f   Shell.obj
 0001:0001a418       ?g__cctor@Class_System_WeakReference@@SIXXZ 0201b418 f   Shell.obj
 0001:0001a458       ?m_StructCopy@Struct_Microsoft_Singularity_Directory_DirectoryServiceContract_NakGetAttributes@@SIXPAU1@0@Z 0201b458 f   Shell.obj
 0001:0001a480       ?m_StructCopy@Struct_Microsoft_Singularity_Directory_DirectoryServiceContract_NakGetAttributes@@SIXPAU1@PAU1@@Z 0201b480 f   Shell.obj
 0001:0001a4f8       ?m_Equals@Struct_Microsoft_Singularity_Directory_DirectoryServiceContract_NakGetAttributes@@SI_NPAU1@PAUClass_System_Object@@@Z 0201b4f8 f   Shell.obj
 0001:0001a598       ?m_Equals@Struct_Microsoft_Singularity_Directory_DirectoryServiceContract_NakGetAttributes@@SI_NPAUClass_Microsoft_Singularity_Directory_DirectoryServiceContract_NakGetAttributes@@PAUClass_System_Object@@@Z 0201b598 f   Shell.obj
 0001:0001a5c4       ?m_Tidy@Class_System_Text_RegularExpressions_Match@@SIXPAU1@H@Z 0201b5c4 f   Shell.obj
 0001:0001a820       ?m_Reset@Class_System_Text_RegularExpressions_Match@@SIXPAU1@PAUClass_System_Text_RegularExpressions_Regex@@PAUClass_System_String@@HHH@Z 0201b820 f   Shell.obj
 0001:0001a8c4       ?m_RemoveMatch@Class_System_Text_RegularExpressions_Match@@SIXPAU1@H@Z 0201b8c4 f   Shell.obj
 0001:0001a904       ?m_NextMatch@Class_System_Text_RegularExpressions_Match@@SIPAU1@PAU1@@Z 0201b904 f   Shell.obj
 0001:0001a970       ?m_MatchLength@Class_System_Text_RegularExpressions_Match@@SIHPAU1@H@Z 0201b970 f   Shell.obj
 0001:0001aa18       ?m_MatchIndex@Class_System_Text_RegularExpressions_Match@@SIHPAU1@H@Z 0201ba18 f   Shell.obj
 0001:0001aac0       ?m_LastGroupToStringImpl@Class_System_Text_RegularExpressions_Match@@SIPAUClass_System_String@@PAU1@@Z 0201bac0 f   Shell.obj
 0001:0001aaf0       ?m_IsMatched@Class_System_Text_RegularExpressions_Match@@SI_NPAU1@H@Z 0201baf0 f   Shell.obj
 0001:0001ab74       ?m_GroupToStringImpl@Class_System_Text_RegularExpressions_Match@@SIPAUClass_System_String@@PAU1@H@Z 0201bb74 f   Shell.obj
 0001:0001ac4c       ?g_get$_Empty@Class_System_Text_RegularExpressions_Match@@SIPAU1@XZ 0201bc4c f   Shell.obj
 0001:0001ac64       ?m_BalanceMatch@Class_System_Text_RegularExpressions_Match@@SIXPAU1@H@Z 0201bc64 f   Shell.obj
 0001:0001adb0       ?m_AddMatch@Class_System_Text_RegularExpressions_Match@@SIXPAU1@HHH@Z 0201bdb0 f   Shell.obj
 0001:0001af50       ?m__ctor@Class_System_Text_RegularExpressions_Match@@SIXPAU1@PAUClass_System_Text_RegularExpressions_Regex@@HPAUClass_System_String@@HHH@Z 0201bf50 f   Shell.obj
 0001:0001b044       ?g__cctor@Class_System_Text_RegularExpressions_Match@@SIXXZ 0201c044 f   Shell.obj
 0001:0001b0b4       ?m_StructCopy@Struct_Microsoft_Singularity_Directory_ServiceProviderContract_Imp@@SIXPAU1@0@Z 0201c0b4 f   Shell.obj
 0001:0001b1a0       ?m_StructCopy@Struct_Microsoft_Singularity_Directory_ServiceProviderContract_Imp@@SIXPAU1@PAU1@@Z 0201c1a0 f   Shell.obj
 0001:0001b464       ?m_Peek@Struct_Microsoft_Singularity_Directory_ServiceProviderContract_Imp@@SIHPAU1@@Z 0201c464 f   Shell.obj
 0001:0001b598       ?m_HeadMatches@Struct_Microsoft_Singularity_Directory_ServiceProviderContract_Imp@@SI_NPAU1@HPA_NPAPAUClass_System_Object@@@Z 0201c598 f   Shell.obj
 0001:0001b658       ?m_HeadMatches@Struct_Microsoft_Singularity_Directory_ServiceProviderContract_Imp@@SI_NPAUClass_Microsoft_Singularity_Directory_ServiceProviderContract_Imp@@HPA_NPAPAUClass_System_Object@@@Z 0201c658 f   Shell.obj
 0001:0001b690       ?m_Equals@Struct_Microsoft_Singularity_Directory_ServiceProviderContract_Imp@@SI_NPAU1@PAUClass_System_Object@@@Z 0201c690 f   Shell.obj
 0001:0001b9c8       ?m_Equals@Struct_Microsoft_Singularity_Directory_ServiceProviderContract_Imp@@SI_NPAUClass_Microsoft_Singularity_Directory_ServiceProviderContract_Imp@@PAUClass_System_Object@@@Z 0201c9c8 f   Shell.obj
 0001:0001b9f4       ?m_Dispose@Struct_Microsoft_Singularity_Directory_ServiceProviderContract_Imp@@SIXPAU1@@Z 0201c9f4 f   Shell.obj
 0001:0001ba18       ?m_Dispose@Struct_Microsoft_Singularity_Directory_ServiceProviderContract_Imp@@SIXPAUClass_Microsoft_Singularity_Directory_ServiceProviderContract_Imp@@@Z 0201ca18 f   Shell.obj
 0001:0001ba40       ?m_MoveNext@Class_System_Array_SZArrayEnumerator@@SI_NPAU1@@Z 0201ca40 f   Shell.obj
 0001:0001ba84       ?m_get$_Current@Class_System_Array_SZArrayEnumerator@@SIPAUClass_System_Object@@PAU1@@Z 0201ca84 f   Shell.obj
 0001:0001bb08       ?m__ctor@Class_System_Array_SZArrayEnumerator@@SIXPAU1@PAUClass_System_Array@@@Z 0201cb08 f   Shell.obj
 0001:0001bb80       ?m_StructCopy@Struct_Microsoft_Singularity_Directory_DirectoryServiceContract_NakDeregister@@SIXPAU1@0@Z 0201cb80 f   Shell.obj
 0001:0001bba8       ?m_StructCopy@Struct_Microsoft_Singularity_Directory_DirectoryServiceContract_NakDeregister@@SIXPAU1@PAU1@@Z 0201cba8 f   Shell.obj
 0001:0001bc20       ?m_Equals@Struct_Microsoft_Singularity_Directory_DirectoryServiceContract_NakDeregister@@SI_NPAU1@PAUClass_System_Object@@@Z 0201cc20 f   Shell.obj
 0001:0001bcc0       ?m_Equals@Struct_Microsoft_Singularity_Directory_DirectoryServiceContract_NakDeregister@@SI_NPAUClass_Microsoft_Singularity_Directory_DirectoryServiceContract_NakDeregister@@PAUClass_System_Object@@@Z 0201ccc0 f   Shell.obj
 0001:0001bcec       ?m_StructCopy@Struct_Microsoft_Singularity_Directory_NotifyContract_AckChangeNotification@@SIXPAU1@0@Z 0201ccec f   Shell.obj
 0001:0001bd08       ?m_StructCopy@Struct_Microsoft_Singularity_Directory_NotifyContract_AckChangeNotification@@SIXPAU1@PAU1@@Z 0201cd08 f   Shell.obj
 0001:0001bd5c       ?m_Equals@Struct_Microsoft_Singularity_Directory_NotifyContract_AckChangeNotification@@SI_NPAU1@PAUClass_System_Object@@@Z 0201cd5c f   Shell.obj
 0001:0001bd94       ?m_Equals@Struct_Microsoft_Singularity_Directory_NotifyContract_AckChangeNotification@@SI_NPAUClass_Microsoft_Singularity_Directory_NotifyContract_AckChangeNotification@@PAUClass_System_Object@@@Z 0201cd94 f   Shell.obj
 0001:0001bdc0       ?g_WriteNewLine@Class_System_Console@@SIXXZ 0201cdc0 f   Shell.obj
 0001:0001bde0       ?g_WriteLine@Class_System_Console@@SIXPAUClass_System_String@@@Z 0201cde0 f   Shell.obj
 0001:0001be08       ?g_WriteLine@Class_System_Console@@SIXPAUClass_System_String@@PAUClassVector_Class_System_Object@@@Z 0201ce08 f   Shell.obj
 0001:0001be3c       ?g_WriteLine@Class_System_Console@@SIXPAUClass_System_String@@PAUClass_System_Object@@@Z 0201ce3c f   Shell.obj
 0001:0001be70       ?g_WriteLine@Class_System_Console@@SIXPAUClass_System_String@@PAUClass_System_Object@@1@Z 0201ce70 f   Shell.obj
 0001:0001beac       ?g_WriteLine@Class_System_Console@@SIXPAUClass_System_String@@PAUClass_System_Object@@11@Z 0201ceac f   Shell.obj
 0001:0001beec       ?g_WriteLine@Class_System_Console@@SIXXZ 0201ceec f   Shell.obj
 0001:0001bf04       ?g_WriteInternal@Class_System_Console@@SIXPAUClassVector_bartok_char@@HH@Z 0201cf04 f   Shell.obj
 0001:0001bf60       ?g_WriteInternal@Class_System_Console@@SIXPAUClass_System_String@@@Z 0201cf60 f   Shell.obj
 0001:0001bfb0       ?g_Write@Class_System_Console@@SIXPAUClassVector_bartok_char@@HH@Z 0201cfb0 f   Shell.obj
 0001:0001bfe0       ?g_Write@Class_System_Console@@SIXPAUClass_System_String@@@Z 0201cfe0 f   Shell.obj
 0001:0001c004       ?g_Write@Class_System_Console@@SIXPAUClass_System_String@@PAUClassVector_Class_System_Object@@@Z 0201d004 f   Shell.obj
 0001:0001c034       ?g_Write@Class_System_Console@@SIXPAUClass_System_String@@PAUClass_System_Object@@@Z 0201d034 f   Shell.obj
 0001:0001c064       ?g_Write@Class_System_Console@@SIXPAUClass_System_String@@PAUClass_System_Object@@1@Z 0201d064 f   Shell.obj
 0001:0001c098       ?g_Write@Class_System_Console@@SIX_W@Z 0201d098 f   Shell.obj
 0001:0001c0c4       ?g_Read@Class_System_Console@@SIHXZ 0201d0c4 f   Shell.obj
 0001:0001c114       ?m_IntValue@Class_Microsoft_Singularity_Applications_ScriptEngine_Divide@@SIHPAU1@PAUClass_Microsoft_Singularity_Applications_ScriptEngine_Interpretation@@@Z 0201d114 f   Shell.obj
 0001:0001c1b0       ?m__ctor@Class_Microsoft_Singularity_Applications_ScriptEngine_Divide@@SIXPAU1@PAUClass_Microsoft_Singularity_Applications_ScriptEngine_Expression@@1@Z 0201d1b0 f   Shell.obj
 0001:0001c1e0       ?m_StructCopy@Struct_System_GCs_SegregatedFreeList_PageHeader@@SIXPAU1@0@Z 0201d1e0 f   Shell.obj
 0001:0001c23c       ?m_StructCopy@Struct_System_GCs_SegregatedFreeList_PageHeader@@SIXPAU1@PAU1@@Z 0201d23c f   Shell.obj
 0001:0001c350       ?g_get$_Size@Struct_System_GCs_SegregatedFreeList_PageHeader@@SIHXZ 0201d350 f   Shell.obj
 0001:0001c368       ?m_Equals@Struct_System_GCs_SegregatedFreeList_PageHeader@@SI_NPAU1@PAUClass_System_Object@@@Z 0201d368 f   Shell.obj
 0001:0001c3f0       ?m_Equals@Struct_System_GCs_SegregatedFreeList_PageHeader@@SI_NPAUClass_System_GCs_SegregatedFreeList_PageHeader@@PAUClass_System_Object@@@Z 0201d3f0 f   Shell.obj
 0001:0001c41c       ?g_UInt64BitsToDouble@Class_System_BitConverter@@SIN_K@Z 0201d41c f   Shell.obj
 0001:0001c440       ?g_SingleToUInt32Bits@Class_System_BitConverter@@SIIM@Z 0201d440 f   Shell.obj
 0001:0001c45c       ?g_GetBytes@Class_System_BitConverter@@SIPAUClassVector_uint8@@F@Z 0201d45c f   Shell.obj
 0001:0001c4a4       ?g_GetBytes@Class_System_BitConverter@@SIXFPAUClassVector_uint8@@H@Z 0201d4a4 f   Shell.obj
 0001:0001c568       ?g_DoubleToUInt64Bits@Class_System_BitConverter@@SI_KN@Z 0201d568 f   Shell.obj
 0001:0001c588       ?m__ctor@Class_System_BitConverter@@SIXPAU1@@Z 0201d588 f   Shell.obj
 0001:0001c5a4       ?g__cctor@Class_System_BitConverter@@SIXXZ 0201d5a4 f   Shell.obj
 0001:0001c5f8       ?m_TrimHelper@Class_System_String@@SIPAU1@PAU1@PAUClassVector_bartok_char@@H@Z 0201d5f8 f   Shell.obj
 0001:0001c6d0       ?m_TrimHelper@Class_System_String@@SIXPAU1@PAUClassVector_bartok_char@@HPAH2@Z 0201d6d0 f   Shell.obj
 0001:0001c800       ?m_Trim@Class_System_String@@SIPAU1@PAU1@@Z 0201d800 f   Shell.obj
 0001:0001c840       ?m_Trim@Class_System_String@@SIPAU1@PAU1@PAUClassVector_bartok_char@@@Z 0201d840 f   Shell.obj
 0001:0001c8ac       ?m_ToString@Class_System_String@@SIPAU1@PAU1@@Z 0201d8ac f   Shell.obj
 0001:0001c8cc       ?m_ToLower@Class_System_String@@SIPAU1@PAU1@@Z 0201d8cc f   Shell.obj
 0001:0001c904       ?m_ToCharArray@Class_System_String@@SIPAUClassVector_bartok_char@@PAU1@@Z 0201d904 f   Shell.obj
 0001:0001c934       ?m_ToCharArray@Class_System_String@@SIPAUClassVector_bartok_char@@PAU1@HH@Z 0201d934 f   Shell.obj
 0001:0001ca1c       ?m_System_Collections_IEnumerable_GetEnumerator@Class_System_String@@SIPAUClass_System_Collections_IEnumerator@@PAU1@@Z 0201da1c f   Shell.obj
 0001:0001ca60       ?m_Substring@Class_System_String@@SIPAU1@PAU1@H@Z 0201da60 f   Shell.obj
 0001:0001ca98       ?m_Substring@Class_System_String@@SIPAU1@PAU1@HH@Z 0201da98 f   Shell.obj
 0001:0001cb98       ?g_StringCTOR@Class_System_String@@SIPAU1@PAEHH@Z 0201db98 f   Shell.obj
 0001:0001cc6c       ?g_StringCTOR@Class_System_String@@SIPAU1@PA_WHH@Z 0201dc6c f   Shell.obj
 0001:0001cd44       ?g_StringCTOR@Class_System_String@@SIPAU1@PAUClassVector_bartok_char@@HH@Z 0201dd44 f   Shell.obj
 0001:0001ce40       ?m_StartsWith@Class_System_String@@SI_NPAU1@0@Z 0201de40 f   Shell.obj
 0001:0001cee4       ?m_Split@Class_System_String@@SIPAUClassVector_Class_System_String@@PAU1@PAUClassVector_bartok_char@@@Z 0201dee4 f   Shell.obj
 0001:0001cf10       ?m_Split@Class_System_String@@SIPAUClassVector_Class_System_String@@PAU1@PAUClassVector_bartok_char@@H@Z 0201df10 f   Shell.obj
 0001:0001d18c       ?m_SetLength@Class_System_String@@SIXPAU1@H@Z 0201e18c f   Shell.obj
 0001:0001d1cc       ?m_Replace@Class_System_String@@SIPAU1@PAU1@00@Z 0201e1cc f   Shell.obj
 0001:0001d460       ?m_Remove@Class_System_String@@SIPAU1@PAU1@HH@Z 0201e460 f   Shell.obj
 0001:0001d56c       ?m_PadRight@Class_System_String@@SIPAU1@PAU1@H@Z 0201e56c f   Shell.obj
 0001:0001d598       ?m_PadRight@Class_System_String@@SIPAU1@PAU1@H_W@Z 0201e598 f   Shell.obj
 0001:0001d5cc       ?m_PadLeft@Class_System_String@@SIPAU1@PAU1@H_W@Z 0201e5cc f   Shell.obj
 0001:0001d600       ?m_PadHelper@Class_System_String@@SIPAU1@PAU1@H_W_N@Z 0201e600 f   Shell.obj
 0001:0001d6ec       ?g_op$_Inequality@Class_System_String@@SI_NPAU1@0@Z 0201e6ec f   Shell.obj
 0001:0001d718       ?g_op$_Equality@Class_System_String@@SI_NPAU1@0@Z 0201e718 f   Shell.obj
 0001:0001d740       ?m_NullTerminate@Class_System_String@@SIXPAU1@@Z 0201e740 f   Shell.obj
 0001:0001d798       ?g_MakeSeparatorList@Class_System_String@@SIHPAU1@PAUClassVector_bartok_char@@PAUClassVector_int32@@H@Z 0201e798 f   Shell.obj
 0001:0001d93c       ?m_LocalIndexOfString@Class_System_String@@SIHPAU1@0H@Z 0201e93c f   Shell.obj
 0001:0001dab4       ?g_LimitedFormatTo@Class_System_String@@SIHPAU1@UStruct_System_ArgIterator@@PA_WH@Z 0201eab4 f   Shell.obj
 0001:0001e290       ?m_LastIndexOf@Class_System_String@@SIHPAU1@_W@Z 0201f290 f   Shell.obj
 0001:0001e2d8       ?m_LastIndexOf@Class_System_String@@SIHPAU1@_WHH@Z 0201f2d8 f   Shell.obj
 0001:0001e450       ?g_Join@Class_System_String@@SIPAU1@PAU1@PAUClassVector_Class_System_String@@@Z 0201f450 f   Shell.obj
 0001:0001e4c4       ?g_Join@Class_System_String@@SIPAU1@PAU1@PAUClassVector_Class_System_String@@HH@Z 0201f4c4 f   Shell.obj
 0001:0001e7b8       ?m_InternalSetCharNoBoundsCheck@Class_System_String@@SIXPAU1@H_W@Z 0201f7b8 f   Shell.obj
 0001:0001e814       ?m_InternalLength@Class_System_String@@SIHPAU1@@Z 0201f814 f   Shell.obj
 0001:0001e834       ?m_InternalGetChar@Class_System_String@@SI_WPAU1@H@Z 0201f834 f   Shell.obj
 0001:0001e8b0       ?m_InternalCopyTo@Class_System_String@@SIXPAU1@HPAUClassVector_bartok_char@@HH@Z 0201f8b0 f   Shell.obj
 0001:0001e9d4       ?g_InternalCopy@Class_System_String@@SIPAU1@PAU1@@Z 0201f9d4 f   Shell.obj
 0001:0001ea34       ?g_InternalCopy@Class_System_String@@SIXPAU1@PAUClassVector_uint8@@H@Z 0201fa34 f   Shell.obj
 0001:0001eafc       ?m_InitializeStringLength@Class_System_String@@SIXPAU1@H@Z 0201fafc f   Shell.obj
 0001:0001eb30       ?m_IndexOf@Class_System_String@@SIHPAU1@0@Z 0201fb30 f   Shell.obj
 0001:0001eb70       ?m_IndexOf@Class_System_String@@SIHPAU1@_W@Z 0201fb70 f   Shell.obj
 0001:0001eba4       ?m_IndexOf@Class_System_String@@SIHPAU1@_WH@Z 0201fba4 f   Shell.obj
 0001:0001ebe4       ?m_IndexOf@Class_System_String@@SIHPAU1@_WHH@Z 0201fbe4 f   Shell.obj
 0001:0001ed50       ?g_GetStringForStringBuilder@Class_System_String@@SIPAU1@PAU1@H@Z 0201fd50 f   Shell.obj
 0001:0001edf8       ?m_GetHashCode@Class_System_String@@SIHPAU1@@Z 0201fdf8 f   Shell.obj
 0001:0001eef4       ?m_get$_Length@Class_System_String@@SIHPAU1@@Z 0201fef4 f   Shell.obj
 0001:0001ef18       ?m_get$_Item@Class_System_String@@SI_WPAU1@H@Z 0201ff18 f   Shell.obj
 0001:0001ef40       ?m_get$_Capacity@Class_System_String@@SIHPAU1@@Z 0201ff40 f   Shell.obj
 0001:0001ef64       ?m_get$_ArrayLength@Class_System_String@@SIHPAU1@@Z 0201ff64 f   Shell.obj
 0001:0001ef84       ?g_Format@Class_System_String@@SIPAU1@PAU1@PAUClassVector_Class_System_Object@@@Z 0201ff84 f   Shell.obj
 0001:0001f07c       ?g_Format@Class_System_String@@SIPAU1@PAU1@PAUClass_System_Object@@@Z 0202007c f   Shell.obj
 0001:0001f0d4       ?g_Format@Class_System_String@@SIPAU1@PAU1@PAUClass_System_Object@@1@Z 020200d4 f   Shell.obj
 0001:0001f138       ?g_Format@Class_System_String@@SIPAU1@PAU1@PAUClass_System_Object@@11@Z 02020138 f   Shell.obj
 0001:0001f1ac       ?g_FillSubstring@Class_System_String@@SIXPAU1@H0HH@Z 020201ac f   Shell.obj
 0001:0001f210       ?g_FillStringEx@Class_System_String@@SIXPAU1@H0H@Z 02020210 f   Shell.obj
 0001:0001f26c       ?g_FillStringChecked@Class_System_String@@SIXPAU1@H0@Z 0202026c f   Shell.obj
 0001:0001f30c       ?g_FillStringCharPtr@Class_System_String@@SIXPAU1@HPA_WH@Z 0202030c f   Shell.obj
 0001:0001f380       ?g_FillStringChar@Class_System_String@@SIXPAU1@H_WH@Z 02020380 f   Shell.obj
 0001:0001f49c       ?g_FillStringBytePtr@Class_System_String@@SIXPAU1@HPAEH@Z 0202049c f   Shell.obj
 0001:0001f54c       ?g_FillStringArray@Class_System_String@@SIXPAU1@HPAUClassVector_bartok_char@@HH@Z 0202054c f   Shell.obj
 0001:0001f5b8       ?g_FillString@Class_System_String@@SIXPAU1@H0@Z 020205b8 f   Shell.obj
 0001:0001f618       ?g_FastAllocateString@Class_System_String@@SIPAU1@H@Z 02020618 f   Shell.obj
 0001:0001f71c       ?g_Equals@Class_System_String@@SI_NPAU1@0@Z 0202071c f   Shell.obj
 0001:0001f77c       ?m_Equals@Class_System_String@@SI_NPAU1@0@Z 0202077c f   Shell.obj
 0001:0001f87c       ?m_Equals@Class_System_String@@SI_NPAU1@PAUClass_System_Object@@@Z 0202087c f   Shell.obj
 0001:0001f8cc       ?m_EndsWith@Class_System_String@@SI_NPAU1@0@Z 020208cc f   Shell.obj
 0001:0001f988       ?g_CountDigits@Class_System_String@@SIH_KI@Z 02020988 f   Shell.obj
 0001:0001fa20       ?m_CopyTo@Class_System_String@@SIXPAU1@HPAUClassVector_bartok_char@@HH@Z 02020a20 f   Shell.obj
 0001:0001fb94       ?g_ConcatArray@Class_System_String@@SIPAU1@PAUClassVector_Class_System_String@@H@Z 02020b94 f   Shell.obj
 0001:0001fc74       ?g_Concat@Class_System_String@@SIPAU1@PAUClassVector_Class_System_String@@@Z 02020c74 f   Shell.obj
 0001:0001fdc0       ?g_Concat@Class_System_String@@SIPAU1@PAUClassVector_Class_System_Object@@@Z 02020dc0 f   Shell.obj
 0001:0001ff18       ?g_Concat@Class_System_String@@SIPAU1@PAU1@0@Z 02020f18 f   Shell.obj
 0001:0001ffbc       ?g_Concat@Class_System_String@@SIPAU1@PAU1@00@Z 02020fbc f   Shell.obj
 0001:000200fc       ?g_Concat@Class_System_String@@SIPAU1@PAU1@000@Z 020210fc f   Shell.obj
 0001:0002029c       ?g_Concat@Class_System_String@@SIPAU1@PAUClass_System_Object@@@Z 0202129c f   Shell.obj
 0001:000202d0       ?g_Concat@Class_System_String@@SIPAU1@PAUClass_System_Object@@0@Z 020212d0 f   Shell.obj
 0001:00020338       ?g_Concat@Class_System_String@@SIPAU1@PAUClass_System_Object@@00@Z 02021338 f   Shell.obj
 0001:000203c4       ?m_CompareTo@Class_System_String@@SIHPAU1@0@Z 020213c4 f   Shell.obj
 0001:00020414       ?m_CompareTo@Class_System_String@@SIHPAU1@PAUClass_System_Object@@@Z 02021414 f   Shell.obj
 0001:00020498       ?g_Compare@Class_System_String@@SIHPAU1@H0HH@Z 02021498 f   Shell.obj
 0001:00020574       ?g_Compare@Class_System_String@@SIHPAU1@H0HH_N@Z 02021574 f   Shell.obj
 0001:000206a0       ?g_Compare@Class_System_String@@SIHPAU1@0@Z 020216a0 f   Shell.obj
 0001:000206e0       ?g_Compare@Class_System_String@@SIHPAU1@0_N@Z 020216e0 f   Shell.obj
 0001:00020754       ?m_ClearPostNullChar@Class_System_String@@SIXPAU1@@Z 02021754 f   Shell.obj
 0001:000207cc       ?g_ArrayContains@Class_System_String@@SIH_WPAUClassVector_bartok_char@@@Z 020217cc f   Shell.obj
 0001:0002085c       ?m_AppendInPlace@Class_System_String@@SIXPAU1@PAUClassVector_bartok_char@@HHH@Z 0202185c f   Shell.obj
 0001:000208f8       ?m_AppendInPlace@Class_System_String@@SIXPAU1@0H@Z 020218f8 f   Shell.obj
 0001:00020980       ?m_AppendInPlace@Class_System_String@@SIXPAU1@0HHH@Z 02021980 f   Shell.obj
 0001:00020a4c       ?m_AppendInPlace@Class_System_String@@SIXPAU1@_WH@Z 02021a4c f   Shell.obj
 0001:00020ae4       ?m_AppendInPlace@Class_System_String@@SIXPAU1@_WHH@Z 02021ae4 f   Shell.obj
 0001:00020bb0       ?g_AddString@Class_System_String@@SIPA_WPA_W00HH@Z 02021bb0 f   Shell.obj
 0001:00020ccc       ?g_AddString@Class_System_String@@SIPA_WPA_W0PAU1@H@Z 02021ccc f   Shell.obj
 0001:00020d28       ?g_AddNumber@Class_System_String@@SIPA_WPA_W0_KHI_W2@Z 02021d28 f   Shell.obj
 0001:00020fd4       ?g_AddChar@Class_System_String@@SIPA_WPA_W0_WH@Z 02021fd4 f   Shell.obj
 0001:000210c4       ?g__cctor@Class_System_String@@SIXXZ 020220c4 f   Shell.obj
 0001:000210d8       ?m_InvokeStaticStub@Class_System_TryAllManager_GCHookMethod@@SIXPAU1@@Z 020220d8 f   Shell.obj
 0001:00021100       ?m_Invoke@Class_System_TryAllManager_GCHookMethod@@SIXPAU1@@Z 02022100 f   Shell.obj
 0001:00021154       ?m_EndInvoke@Class_System_TryAllManager_GCHookMethod@@SIXPAU1@PAUClass_System_IAsyncResult@@@Z 02022154 f   Shell.obj
 0001:00021170       ?m_BeginInvoke@Class_System_TryAllManager_GCHookMethod@@SIPAUClass_System_IAsyncResult@@PAU1@PAUClass_System_AsyncCallback@@PAUClass_System_Object@@@Z 02022170 f   Shell.obj
 0001:00021190       ?m__ctor@Class_System_TryAllManager_GCHookMethod@@SIXPAU1@PAUClass_System_Object@@PAUintPtr@@@Z 02022190 f   Shell.obj
 0001:000211d0       ?m__ctor@Class_System_IndexOutOfRangeException@@SIXPAU1@@Z 020221d0 f   Shell.obj
 0001:000211f8       ?m__ctor@Class_System_IndexOutOfRangeException@@SIXPAU1@PAUClass_System_String@@@Z 020221f8 f   Shell.obj
 0001:00021220       ?m__ctor@Class_System_IndexOutOfRangeException@@SIXPAU1@PAUClass_System_String@@PAUClass_System_Exception@@@Z 02022220 f   Shell.obj
 0001:00021250       ?m_StructCopy@Struct_Microsoft_Singularity_V1_Types_SystemType@@SIXPAU1@0@Z 02022250 f   Shell.obj
 0001:00021278       ?m_StructCopy@Struct_Microsoft_Singularity_V1_Types_SystemType@@SIXPAU1@PAU1@@Z 02022278 f   Shell.obj
 0001:000212f0       ?g_IsNull@Struct_Microsoft_Singularity_V1_Types_SystemType@@SI_NU1@@Z 020222f0 f   Shell.obj
 0001:00021314       ?m_get$_TypeId@Struct_Microsoft_Singularity_V1_Types_SystemType@@SIPAUuintPtr@@PAU1@@Z 02022314 f   Shell.obj
 0001:00021334       ?m_Equals@Struct_Microsoft_Singularity_V1_Types_SystemType@@SI_NPAU1@PAUClass_System_Object@@@Z 02022334 f   Shell.obj
 0001:0002137c       ?m_Equals@Struct_Microsoft_Singularity_V1_Types_SystemType@@SI_NPAUClass_Microsoft_Singularity_V1_Types_SystemType@@PAUClass_System_Object@@@Z 0202237c f   Shell.obj
 0001:000213a8       ?g_VerifyPages@Class_System_GCs_Verifier@@SIXPAUClass_System_GCs_ObjectLayout_ObjectVisitor@@@Z 020223a8 f   Shell.obj
 0001:000217cc       ?m_VerifyHeap@Class_System_GCs_Verifier@@SIXPAU1@@Z 020227cc f   Shell.obj
 0001:00021a74       ?g_VerifyAllThreadsGCControlled@Class_System_GCs_Verifier@@SIXPAUClass_System_Threading_Thread@@@Z 02022a74 f   Shell.obj
 0001:00021afc       ?m__ctor@Class_System_GCs_Verifier@@SIXPAU1@PAUClass_System_GCs_NonNullReferenceVisitor@@1PAUClass_System_GCs_ObjectLayout_ObjectVisitor@@PAUClass_System_GCs_Verifier_StackVerifier@@@Z 02022afc f   Shell.obj
 0001:00021b40       ?g__cctor@Class_System_GCs_Verifier@@SIXXZ 02022b40 f   Shell.obj
 0001:00021c64       ?m_InvokeStaticStub@Class_Microsoft_Singularity_Applications_Parser_Lexer@@SIXPAU1@PAUClass_Microsoft_Singularity_Applications_Parser_Token@@@Z 02022c64 f   Shell.obj
 0001:00021c94       ?m_Invoke@Class_Microsoft_Singularity_Applications_Parser_Lexer@@SIXPAU1@PAUClass_Microsoft_Singularity_Applications_Parser_Token@@@Z 02022c94 f   Shell.obj
 0001:00021cf0       ?m_EndInvoke@Class_Microsoft_Singularity_Applications_Parser_Lexer@@SIXPAU1@PAUClass_System_IAsyncResult@@@Z 02022cf0 f   Shell.obj
 0001:00021d0c       ?m_BeginInvoke@Class_Microsoft_Singularity_Applications_Parser_Lexer@@SIPAUClass_System_IAsyncResult@@PAU1@PAUClass_Microsoft_Singularity_Applications_Parser_Token@@PAUClass_System_AsyncCallback@@PAUClass_System_Object@@@Z 02022d0c f   Shell.obj
 0001:00021d2c       ?m__ctor@Class_Microsoft_Singularity_Applications_Parser_Lexer@@SIXPAU1@PAUClass_System_Object@@PAUintPtr@@@Z 02022d2c f   Shell.obj
 0001:00021d90       ?m_StructCopy@Struct_Microsoft_Singularity_Isal_IX_EFlagsShift@@SIXPAU1@0@Z 02022d90 f   Shell.obj
 0001:00021dac       ?m_StructCopy@Struct_Microsoft_Singularity_Isal_IX_EFlagsShift@@SIXPAU1@PAU1@@Z 02022dac f   Shell.obj
 0001:00021e00       ?m_Equals@Struct_Microsoft_Singularity_Isal_IX_EFlagsShift@@SI_NPAU1@PAUClass_System_Object@@@Z 02022e00 f   Shell.obj
 0001:00021e38       ?m_Equals@Struct_Microsoft_Singularity_Isal_IX_EFlagsShift@@SI_NPAUClass_Microsoft_Singularity_Isal_IX_EFlagsShift@@PAUClass_System_Object@@@Z 02022e38 f   Shell.obj
 0001:00021e64       ?m_Visit@Class_System_GCs_MemoryAccounting_InstanceReckoner@@SIPAUuintPtr@@PAU1@PAUClass_System_Object@@@Z 02022e64 f   Shell.obj
 0001:00021e80       ?m_Initialize@Class_System_GCs_MemoryAccounting_InstanceReckoner@@SIXPAU1@PAUClassVector_Struct_System_GCs_MemoryAccounting_RuntimeTypeAccounting@@@Z 02022e80 f   Shell.obj
 0001:00021e9c       ?m__ctor@Class_System_GCs_MemoryAccounting_InstanceReckoner@@SIXPAU1@@Z 02022e9c f   Shell.obj
 0001:00021eb4       ?m__ctor@Class_System_ReadEnlistmentLog_LogChunk@@SIXPAU1@PAUClassVector_Struct_System_ReadEnlistmentLog_Entry@@0@Z 02022eb4 f   Shell.obj
 0001:00021ee8       ?m_StructCopy@Struct_System_GCs_SegregatedFreeList_TempList@@SIXPAU1@0@Z 02022ee8 f   Shell.obj
 0001:00021f10       ?m_StructCopy@Struct_System_GCs_SegregatedFreeList_TempList@@SIXPAU1@PAU1@@Z 02022f10 f   Shell.obj
 0001:00021f88       ?m_GetList@Struct_System_GCs_SegregatedFreeList_TempList@@SIPAUuintPtr@@PAU1@@Z 02022f88 f   Shell.obj
 0001:00021fbc       ?m_Equals@Struct_System_GCs_SegregatedFreeList_TempList@@SI_NPAU1@PAUClass_System_Object@@@Z 02022fbc f   Shell.obj
 0001:00022004       ?m_Equals@Struct_System_GCs_SegregatedFreeList_TempList@@SI_NPAUClass_System_GCs_SegregatedFreeList_TempList@@PAUClass_System_Object@@@Z 02023004 f   Shell.obj
 0001:00022030       ?m_Add@Struct_System_GCs_SegregatedFreeList_TempList@@SIXPAU1@PAUuintPtr@@@Z 02023030 f   Shell.obj
 0001:00022060       ?m_StructCopy@Struct_System_GCs_UnmanagedPageList@@SIXPAU1@0@Z 02023060 f   Shell.obj
 0001:00022094       ?m_StructCopy@Struct_System_GCs_UnmanagedPageList@@SIXPAU1@PAU1@@Z 02023094 f   Shell.obj
 0001:00022130       ?g_SetNext@Struct_System_GCs_UnmanagedPageList@@SIXPAUuintPtr@@0@Z 02023130 f   Shell.obj
 0001:00022154       ?m_RemoveHead@Struct_System_GCs_UnmanagedPageList@@SIPAUuintPtr@@PAU1@@Z 02023154 f   Shell.obj
 0001:000221c0       ?g_ReleaseStandbyPages@Struct_System_GCs_UnmanagedPageList@@SIXXZ 020231c0 f   Shell.obj
 0001:00022284       ?g_Next@Struct_System_GCs_UnmanagedPageList@@SIPAUuintPtr@@PAU2@@Z 02023284 f   Shell.obj
 0001:000222a4       ?m_get$_IsEmpty@Struct_System_GCs_UnmanagedPageList@@SI_NPAU1@@Z 020232a4 f   Shell.obj
 0001:000222c8       ?g_FirstPageAddr@Struct_System_GCs_UnmanagedPageList@@SIPAPAUuintPtr@@PAU2@@Z 020232c8 f   Shell.obj
 0001:000222e8       ?m_Equals@Struct_System_GCs_UnmanagedPageList@@SI_NPAU1@PAUClass_System_Object@@@Z 020232e8 f   Shell.obj
 0001:00022344       ?m_Equals@Struct_System_GCs_UnmanagedPageList@@SI_NPAUClass_System_GCs_UnmanagedPageList@@PAUClass_System_Object@@@Z 02023344 f   Shell.obj
 0001:00022370       ?g_EndPageAddr@Struct_System_GCs_UnmanagedPageList@@SIPAPAUuintPtr@@PAU2@@Z 02023370 f   Shell.obj
 0001:000223ac       ?m_AddHead@Struct_System_GCs_UnmanagedPageList@@SIXPAU1@PAUuintPtr@@@Z 020233ac f   Shell.obj
 0001:000223f0       ?g_WaitForGCEvent@Class_System_Threading_Thread@@SI_NH@Z 020233f0 f   Shell.obj
 0001:00022440       ?g_VisitBootstrapData@Class_System_Threading_Thread@@SIXPAUClass_System_GCs_ReferenceVisitor@@@Z 02023440 f   Shell.obj
 0001:0002247c       ?g_ThreadStub@Class_System_Threading_Thread@@SIXH@Z 0202347c f   Shell.obj
 0001:000228f4       ?m_Start@Class_System_Threading_Thread@@SIXPAU1@@Z 020238f4 f   Shell.obj
 0001:000229f8       ?g_Sleep@Class_System_Threading_Thread@@SIXUStruct_System_TimeSpan@@@Z 020239f8 f   Shell.obj
 0001:00022a34       ?g_Sleep@Class_System_Threading_Thread@@SIXH@Z 02023a34 f   Shell.obj
 0001:00022aa0       ?g_SignalGCEvent@Class_System_Threading_Thread@@SIXH@Z 02023aa0 f   Shell.obj
 0001:00022af8       ?m_SetIgnoredByJoinAll@Class_System_Threading_Thread@@SIXPAU1@@Z 02023af8 f   Shell.obj
 0001:00022b18       ?m_set$_DebugName@Class_System_Threading_Thread@@SIXPAU1@PAUClass_System_String@@@Z 02023b18 f   Shell.obj
 0001:00022b40       ?g_RemoveThread@Class_System_Threading_Thread@@SIXH@Z 02023b40 f   Shell.obj
 0001:00022bf4       ?m_PushSelectSyncHandles@Class_System_Threading_Thread@@SIXPAU1@PAUClassVector_Struct_Microsoft_Singularity_V1_Threads_SyncHandle@@@Z 02023bf4 f   Shell.obj
 0001:00022c70       ?m_PushSelectObjects@Class_System_Threading_Thread@@SIXPAU1@PAUClassVector_Class_Microsoft_Singularity_Channels_ISelectable@@@Z 02023c70 f   Shell.obj
 0001:00022ce8       ?m_PushSelectBools@Class_System_Threading_Thread@@SIXPAU1@PAUClassVector_bool@@@Z 02023ce8 f   Shell.obj
 0001:00022d18       ?m_PopSelectSyncHandles@Class_System_Threading_Thread@@SIPAUClassVector_Struct_Microsoft_Singularity_V1_Threads_SyncHandle@@PAU1@H@Z 02023d18 f   Shell.obj
 0001:00022dd0       ?m_PopSelectObjects@Class_System_Threading_Thread@@SIPAUClassVector_Class_Microsoft_Singularity_Channels_ISelectable@@PAU1@H@Z 02023dd0 f   Shell.obj
 0001:00022e88       ?m_PopSelectBools@Class_System_Threading_Thread@@SIPAUClassVector_bool@@PAU1@H@Z 02023e88 f   Shell.obj
 0001:00022f40       ?m_NotifySpinLockReleased@Class_System_Threading_Thread@@SIXPAU1@H@Z 02023f40 f   Shell.obj
 0001:00022f5c       ?m_NotifySpinLockAboutToAcquire@Class_System_Threading_Thread@@SIXPAU1@H@Z 02023f5c f   Shell.obj
 0001:00022f78       ?g_NotifyServiceThreads@Class_System_Threading_Thread@@SIXXZ 02023f78 f   Shell.obj
 0001:00023070       ?g_JoinAll@Class_System_Threading_Thread@@SI_NXZ 02024070 f   Shell.obj
 0001:000231d4       ?m_Join@Class_System_Threading_Thread@@SIXPAU1@@Z 020241d4 f   Shell.obj
 0001:00023234       ?m_Join@Class_System_Threading_Thread@@SI_NPAU1@UStruct_System_SchedulerTime@@@Z 02024234 f   Shell.obj
 0001:000232a0       ?m_GetThreadId@Class_System_Threading_Thread@@SIHPAU1@@Z 020242a0 f   Shell.obj
 0001:000232c0       ?g_GetCurrentThreadNative@Class_System_Threading_Thread@@SIPAU1@XZ 020242c0 f   Shell.obj
 0001:000232d8       ?g_GetCurrentThreadIndex@Class_System_Threading_Thread@@SIHXZ 020242d8 f   Shell.obj
 0001:000232f4       ?m_get$_DebugName@Class_System_Threading_Thread@@SIPAUClass_System_String@@PAU1@@Z 020242f4 f   Shell.obj
 0001:00023314       ?g_get$_CurrentThread@Class_System_Threading_Thread@@SIPAU1@XZ 02024314 f   Shell.obj
 0001:0002332c       ?g_FinishInitializeThread@Class_System_Threading_Thread@@SIXXZ 0202432c f   Shell.obj
 0001:0002349c       ?m_Finalize@Class_System_Threading_Thread@@SIXPAU1@@Z 0202449c f   Shell.obj
 0001:00023500       ?g_CheckKernelProcessBoundary@Class_System_Threading_Thread@@SIPAUuintPtr@@PAU2@0PAUClass_System_Exception@@@Z 02024500 f   Shell.obj
 0001:000235b4       ?g_AddThread@Class_System_Threading_Thread@@SI_NH@Z 020245b4 f   Shell.obj
 0001:00023688       ?m__ctor@Class_System_Threading_Thread@@SIXPAU1@@Z 02024688 f   Shell.obj
 0001:000236a4       ?m__ctor@Class_System_Threading_Thread@@SIXPAU1@PAUClass_System_Threading_ThreadStart@@@Z 020246a4 f   Shell.obj
 0001:000239b0       ?g__cctor@Class_System_Threading_Thread@@SIXXZ 020249b0 f   Shell.obj
 0001:00023a6c       ?m_StructCopy@Struct_Microsoft_Singularity_V1_Services_SharedHeapService@@SIXPAU1@0@Z 02024a6c f   Shell.obj
 0001:00023a88       ?m_StructCopy@Struct_Microsoft_Singularity_V1_Services_SharedHeapService@@SIXPAU1@PAU1@@Z 02024a88 f   Shell.obj
 0001:00023adc       ?g_GetType@Struct_Microsoft_Singularity_V1_Services_SharedHeapService@@SIPAUuintPtr@@PAUStruct_Microsoft_Singularity_V1_Services_SharedHeapService_Allocation@@@Z 02024adc f   Shell.obj
 0001:00023afc       ?g_GetSize@Struct_Microsoft_Singularity_V1_Services_SharedHeapService@@SIPAUuintPtr@@PAUStruct_Microsoft_Singularity_V1_Services_SharedHeapService_Allocation@@@Z 02024afc f   Shell.obj
 0001:00023b1c       ?g_GetData@Struct_Microsoft_Singularity_V1_Services_SharedHeapService@@SIPAUuintPtr@@PAUStruct_Microsoft_Singularity_V1_Services_SharedHeapService_Allocation@@@Z 02024b1c f   Shell.obj
 0001:00023b3c       ?m_Equals@Struct_Microsoft_Singularity_V1_Services_SharedHeapService@@SI_NPAU1@PAUClass_System_Object@@@Z 02024b3c f   Shell.obj
 0001:00023b74       ?m_Equals@Struct_Microsoft_Singularity_V1_Services_SharedHeapService@@SI_NPAUClass_Microsoft_Singularity_V1_Services_SharedHeapService@@PAUClass_System_Object@@@Z 02024b74 f   Shell.obj
 0001:00023ba0       ?m_StructCopy@Struct_System_GCs_OverflowFrameDescriptor@@SIXPAU1@0@Z 02024ba0 f   Shell.obj
 0001:00023bd4       ?m_StructCopy@Struct_System_GCs_OverflowFrameDescriptor@@SIXPAU1@PAU1@@Z 02024bd4 f   Shell.obj
 0001:00023c70       ?m_Equals@Struct_System_GCs_OverflowFrameDescriptor@@SI_NPAU1@PAUClass_System_Object@@@Z 02024c70 f   Shell.obj
 0001:00023ccc       ?m_Equals@Struct_System_GCs_OverflowFrameDescriptor@@SI_NPAUClass_System_GCs_OverflowFrameDescriptor@@PAUClass_System_Object@@@Z 02024ccc f   Shell.obj
 0001:00023cf8       ?m_InvokeStaticStub@Class_Microsoft_Singularity_Applications_Parser_Reducer@@SIPAUClass_System_Object@@PAU1@PAUClass_System_Collections_Stack@@@Z 02024cf8 f   Shell.obj
 0001:00023d2c       ?m_Invoke@Class_Microsoft_Singularity_Applications_Parser_Reducer@@SIPAUClass_System_Object@@PAU1@PAUClass_System_Collections_Stack@@@Z 02024d2c f   Shell.obj
 0001:00023d90       ?m_EndInvoke@Class_Microsoft_Singularity_Applications_Parser_Reducer@@SIPAUClass_System_Object@@PAU1@PAUClass_System_IAsyncResult@@@Z 02024d90 f   Shell.obj
 0001:00023dac       ?m_BeginInvoke@Class_Microsoft_Singularity_Applications_Parser_Reducer@@SIPAUClass_System_IAsyncResult@@PAU1@PAUClass_System_Collections_Stack@@PAUClass_System_AsyncCallback@@PAUClass_System_Object@@@Z 02024dac f   Shell.obj
 0001:00023dcc       ?m__ctor@Class_Microsoft_Singularity_Applications_Parser_Reducer@@SIXPAU1@PAUClass_System_Object@@PAUintPtr@@@Z 02024dcc f   Shell.obj
 0001:00023e30       ?m_StructCopy@Struct_System_GCs_CompressedFrameDescriptor@@SIXPAU1@0@Z 02024e30 f   Shell.obj
 0001:00023e58       ?m_StructCopy@Struct_System_GCs_CompressedFrameDescriptor@@SIXPAU1@PAU1@@Z 02024e58 f   Shell.obj
 0001:00023ed0       ?m_StackArgSize@Struct_System_GCs_CompressedFrameDescriptor@@SIIPAU1@@Z 02024ed0 f   Shell.obj
 0001:00023ef4       ?m_OverflowDescriptor@Struct_System_GCs_CompressedFrameDescriptor@@SIPAUStruct_System_GCs_OverflowFrameDescriptor@@PAU1@@Z 02024ef4 f   Shell.obj
 0001:00023f14       ?m_IsFramePointerOmitted@Struct_System_GCs_CompressedFrameDescriptor@@SI_NPAU1@@Z 02024f14 f   Shell.obj
 0001:00023f3c       ?m_IsFramePointerOmitted@Struct_System_GCs_CompressedFrameDescriptor@@SI_NPAU1@PAUStruct_System_GCs_OverflowFrameDescriptor@@@Z 02024f3c f   Shell.obj
 0001:00023f68       ?m_IsCompressed@Struct_System_GCs_CompressedFrameDescriptor@@SI_NPAU1@@Z 02024f68 f   Shell.obj
 0001:00023f90       ?m_InBetweenSlotsBelowWithFP@Struct_System_GCs_CompressedFrameDescriptor@@SIHPAU1@@Z 02024f90 f   Shell.obj
 0001:00023fb0       ?m_InBetweenSlotsBelowNoFP@Struct_System_GCs_CompressedFrameDescriptor@@SIHPAU1@@Z 02024fb0 f   Shell.obj
 0001:00023fd0       ?m_InBetweenSlotsAboveWithFP@Struct_System_GCs_CompressedFrameDescriptor@@SIHPAU1@@Z 02024fd0 f   Shell.obj
 0001:00023ff0       ?m_InBetweenSlotsAboveNoFP@Struct_System_GCs_CompressedFrameDescriptor@@SIHPAU1@@Z 02024ff0 f   Shell.obj
 0001:00024010       ?m_HasTransitionRecord@Struct_System_GCs_CompressedFrameDescriptor@@SI_NPAU1@@Z 02025010 f   Shell.obj
 0001:00024038       ?m_HasTransitionRecord@Struct_System_GCs_CompressedFrameDescriptor@@SI_NPAU1@PAUStruct_System_GCs_OverflowFrameDescriptor@@@Z 02025038 f   Shell.obj
 0001:00024064       ?m_HasPinnedPointersWithFP@Struct_System_GCs_CompressedFrameDescriptor@@SI_NPAU1@PAUStruct_System_GCs_OverflowFrameDescriptor@@@Z 02025064 f   Shell.obj
 0001:00024090       ?m_HasPinnedPointersNoFP@Struct_System_GCs_CompressedFrameDescriptor@@SI_NPAU1@PAUStruct_System_GCs_OverflowFrameDescriptor@@@Z 02025090 f   Shell.obj
 0001:000240bc       ?m_FrameSizeNoFP@Struct_System_GCs_CompressedFrameDescriptor@@SIHPAU1@@Z 020250bc f   Shell.obj
 0001:000240e0       ?m_FrameSizeNoFP@Struct_System_GCs_CompressedFrameDescriptor@@SIHPAU1@PAUStruct_System_GCs_OverflowFrameDescriptor@@@Z 020250e0 f   Shell.obj
 0001:00024104       ?m_Equals@Struct_System_GCs_CompressedFrameDescriptor@@SI_NPAU1@PAUClass_System_Object@@@Z 02025104 f   Shell.obj
 0001:0002414c       ?m_Equals@Struct_System_GCs_CompressedFrameDescriptor@@SI_NPAUClass_System_GCs_CompressedFrameDescriptor@@PAUClass_System_Object@@@Z 0202514c f   Shell.obj
 0001:00024178       ?m_EntrySizeWithFP@Struct_System_GCs_CompressedFrameDescriptor@@SIIPAU1@PAUStruct_System_GCs_OverflowFrameDescriptor@@@Z 02025178 f   Shell.obj
 0001:000241a0       ?m_EntrySizeNoFP@Struct_System_GCs_CompressedFrameDescriptor@@SIIPAU1@PAUStruct_System_GCs_OverflowFrameDescriptor@@@Z 020251a0 f   Shell.obj
 0001:000241c8       ?m_CalleeSaveValueMaskWithFP@Struct_System_GCs_CompressedFrameDescriptor@@SIPAUuintPtr@@PAU1@@Z 020251c8 f   Shell.obj
 0001:000241ec       ?m_CalleeSaveValueMaskWithFP@Struct_System_GCs_CompressedFrameDescriptor@@SIPAUuintPtr@@PAU1@PAUStruct_System_GCs_OverflowFrameDescriptor@@@Z 020251ec f   Shell.obj
 0001:00024214       ?m_CalleeSaveValueMaskNoFP@Struct_System_GCs_CompressedFrameDescriptor@@SIPAUuintPtr@@PAU1@@Z 02025214 f   Shell.obj
 0001:0002423c       ?m_CalleeSaveValueMaskNoFP@Struct_System_GCs_CompressedFrameDescriptor@@SIPAUuintPtr@@PAU1@PAUStruct_System_GCs_OverflowFrameDescriptor@@@Z 0202523c f   Shell.obj
 0001:00024268       ?m_CalleeSaveMaskWithFP@Struct_System_GCs_CompressedFrameDescriptor@@SIPAUuintPtr@@PAU1@@Z 02025268 f   Shell.obj
 0001:0002428c       ?m_CalleeSaveMaskWithFP@Struct_System_GCs_CompressedFrameDescriptor@@SIPAUuintPtr@@PAU1@PAUStruct_System_GCs_OverflowFrameDescriptor@@@Z 0202528c f   Shell.obj
 0001:000242b4       ?m_CalleeSaveMaskNoFP@Struct_System_GCs_CompressedFrameDescriptor@@SIPAUuintPtr@@PAU1@@Z 020252b4 f   Shell.obj
 0001:000242d8       ?m_CalleeSaveMaskNoFP@Struct_System_GCs_CompressedFrameDescriptor@@SIPAUuintPtr@@PAU1@PAUStruct_System_GCs_OverflowFrameDescriptor@@@Z 020252d8 f   Shell.obj
 0001:00024300       ?m_ArgumentMaskWithFP@Struct_System_GCs_CompressedFrameDescriptor@@SIPAUuintPtr@@PAU1@@Z 02025300 f   Shell.obj
 0001:00024324       ?m_ArgumentMaskNoFP@Struct_System_GCs_CompressedFrameDescriptor@@SIPAUuintPtr@@PAU1@@Z 02025324 f   Shell.obj
 0001:00024348       ?g_get$_InvariantCulture@Class_System_Globalization_CultureInfo@@SIPAU1@XZ 02025348 f   Shell.obj
 0001:00024360       ?g_get$_CurrentCulture@Class_System_Globalization_CultureInfo@@SIPAU1@XZ 02025360 f   Shell.obj
 0001:00024378       ?m__ctor@Class_System_Globalization_CultureInfo@@SIXPAU1@@Z 02025378 f   Shell.obj
 0001:00024394       ?g__cctor@Class_System_Globalization_CultureInfo@@SIXXZ 02025394 f   Shell.obj
 0001:0002489c       ?m_StructCopy@Struct_Microsoft_Singularity_Io_PipeLookAhead_CircularBuffer@@SIXPAU1@0@Z 0202589c f   Shell.obj
 0001:0002490c       ?m_StructCopy@Struct_Microsoft_Singularity_Io_PipeLookAhead_CircularBuffer@@SIXPAU1@PAU1@@Z 0202590c f   Shell.obj
 0001:00024a5c       ?m_Microsoft_SingSharp_ITracked_UnExpose@Struct_Microsoft_Singularity_Io_PipeLookAhead_CircularBuffer@@SIXPAU1@@Z 02025a5c f   Shell.obj
 0001:00024a78       ?m_Microsoft_SingSharp_ITracked_Release@Struct_Microsoft_Singularity_Io_PipeLookAhead_CircularBuffer@@SIXPAU1@@Z 02025a78 f   Shell.obj
 0001:00024a94       ?m_Microsoft_SingSharp_ITracked_Release@Struct_Microsoft_Singularity_Io_PipeLookAhead_CircularBuffer@@SIXPAUClass_Microsoft_Singularity_Io_PipeLookAhead_CircularBuffer@@@Z 02025a94 f   Shell.obj
 0001:00024abc       ?m_Microsoft_SingSharp_ITracked_Expose@Struct_Microsoft_Singularity_Io_PipeLookAhead_CircularBuffer@@SIXPAU1@@Z 02025abc f   Shell.obj
 0001:00024ad8       ?m_Microsoft_SingSharp_ITracked_Acquire@Struct_Microsoft_Singularity_Io_PipeLookAhead_CircularBuffer@@SIXPAU1@@Z 02025ad8 f   Shell.obj
 0001:00024af4       ?m_Microsoft_SingSharp_ITracked_Acquire@Struct_Microsoft_Singularity_Io_PipeLookAhead_CircularBuffer@@SIXPAUClass_Microsoft_Singularity_Io_PipeLookAhead_CircularBuffer@@@Z 02025af4 f   Shell.obj
 0001:00024b1c       ?m_GetChar@Struct_Microsoft_Singularity_Io_PipeLookAhead_CircularBuffer@@SIXPAU1@PA_W@Z 02025b1c f   Shell.obj
 0001:00024cd4       ?m_get$_HasControlZ@Struct_Microsoft_Singularity_Io_PipeLookAhead_CircularBuffer@@SI_NPAU1@@Z 02025cd4 f   Shell.obj
 0001:00024d14       ?m_get$_HasControlC@Struct_Microsoft_Singularity_Io_PipeLookAhead_CircularBuffer@@SI_NPAU1@@Z 02025d14 f   Shell.obj
 0001:00024d54       ?m_get$_FreeSpace@Struct_Microsoft_Singularity_Io_PipeLookAhead_CircularBuffer@@SIHPAU1@@Z 02025d54 f   Shell.obj
 0001:00024dec       ?m_get$_CharsInBuffer@Struct_Microsoft_Singularity_Io_PipeLookAhead_CircularBuffer@@SIHPAU1@@Z 02025dec f   Shell.obj
 0001:00024e98       ?m_get$_CharsAvailable@Struct_Microsoft_Singularity_Io_PipeLookAhead_CircularBuffer@@SIHPAU1@@Z 02025e98 f   Shell.obj
 0001:00024ef8       ?m_Equals@Struct_Microsoft_Singularity_Io_PipeLookAhead_CircularBuffer@@SI_NPAU1@PAUClass_System_Object@@@Z 02025ef8 f   Shell.obj
 0001:00024f94       ?m_Equals@Struct_Microsoft_Singularity_Io_PipeLookAhead_CircularBuffer@@SI_NPAUClass_Microsoft_Singularity_Io_PipeLookAhead_CircularBuffer@@PAUClass_System_Object@@@Z 02025f94 f   Shell.obj
 0001:00024fc0       ?m_EnsureCapacity@Struct_Microsoft_Singularity_Io_PipeLookAhead_CircularBuffer@@SIXPAU1@H@Z 02025fc0 f   Shell.obj
 0001:0002516c       ?m_Dispose@Struct_Microsoft_Singularity_Io_PipeLookAhead_CircularBuffer@@SIXPAU1@@Z 0202616c f   Shell.obj
 0001:000251a8       ?m_Dispose@Struct_Microsoft_Singularity_Io_PipeLookAhead_CircularBuffer@@SIXPAUClass_Microsoft_Singularity_Io_PipeLookAhead_CircularBuffer@@@Z 020261a8 f   Shell.obj
 0001:000251d0       ?m_ConsumeControlZ@Struct_Microsoft_Singularity_Io_PipeLookAhead_CircularBuffer@@SIXPAU1@@Z 020261d0 f   Shell.obj
 0001:00025254       ?m_ConsumeControlC@Struct_Microsoft_Singularity_Io_PipeLookAhead_CircularBuffer@@SIXPAU1@@Z 02026254 f   Shell.obj
 0001:000252d8       ?m_Add@Struct_Microsoft_Singularity_Io_PipeLookAhead_CircularBuffer@@SIXPAU1@PA_WHH@Z 020262d8 f   Shell.obj
 0001:00025388       ?m_Add@Struct_Microsoft_Singularity_Io_PipeLookAhead_CircularBuffer@@SIXPAU1@_W@Z 02026388 f   Shell.obj
 0001:000254b4       ?m__ctor@Struct_Microsoft_Singularity_Io_PipeLookAhead_CircularBuffer@@SIXPAU1@H@Z 020264b4 f   Shell.obj
 0001:0002552c       ?m_StructCopy@Struct_Microsoft_Singularity_Directory_DirectoryServiceContract_NakGetLinkValueReparse@@SIXPAU1@0@Z 0202652c f   Shell.obj
 0001:0002556c       ?m_StructCopy@Struct_Microsoft_Singularity_Directory_DirectoryServiceContract_NakGetLinkValueReparse@@SIXPAU1@PAU1@@Z 0202656c f   Shell.obj
 0001:0002562c       ?m_Equals@Struct_Microsoft_Singularity_Directory_DirectoryServiceContract_NakGetLinkValueReparse@@SI_NPAU1@PAUClass_System_Object@@@Z 0202662c f   Shell.obj
 0001:00025694       ?m_Equals@Struct_Microsoft_Singularity_Directory_DirectoryServiceContract_NakGetLinkValueReparse@@SI_NPAUClass_Microsoft_Singularity_Directory_DirectoryServiceContract_NakGetLinkValueReparse@@PAUClass_System_Object@@@Z 02026694 f   Shell.obj
 0001:000256c0       ?m_StructCopy@Struct_Microsoft_Singularity_Directory_ServiceProviderContract_AckConnect@@SIXPAU1@0@Z 020266c0 f   Shell.obj
 0001:000256dc       ?m_StructCopy@Struct_Microsoft_Singularity_Directory_ServiceProviderContract_AckConnect@@SIXPAU1@PAU1@@Z 020266dc f   Shell.obj
 0001:00025730       ?m_Equals@Struct_Microsoft_Singularity_Directory_ServiceProviderContract_AckConnect@@SI_NPAU1@PAUClass_System_Object@@@Z 02026730 f   Shell.obj
 0001:00025768       ?m_Equals@Struct_Microsoft_Singularity_Directory_ServiceProviderContract_AckConnect@@SI_NPAUClass_Microsoft_Singularity_Directory_ServiceProviderContract_AckConnect@@PAUClass_System_Object@@@Z 02026768 f   Shell.obj
 0001:00025794       ?g_VisitSmallObjects@Struct_System_GCs_SegregatedFreeList@@SIXPAUuintPtr@@PAUClass_System_GCs_SegregatedFreeList_ObjectVisitor@@@Z 02026794 f   Shell.obj
 0001:00025d78       ?g_VisitObjects@Struct_System_GCs_SegregatedFreeList@@SIXPAUuintPtr@@0PAUClass_System_GCs_SegregatedFreeList_ObjectVisitor@@@Z 02026d78 f   Shell.obj
 0001:000264ec       ?g_VisitObjects@Struct_System_GCs_SegregatedFreeList@@SIXPAUuintPtr@@0PAUClass_System_GCs_ObjectLayout_ObjectVisitor@@@Z 020274ec f   Shell.obj
 0001:00026cb4       ?g_VisitLargeObject@Struct_System_GCs_SegregatedFreeList@@SIPAUuintPtr@@PAU2@PAUClass_System_GCs_SegregatedFreeList_ObjectVisitor@@@Z 02027cb4 f   Shell.obj
 0001:00026f60       ?g_VisitAllObjects@Struct_System_GCs_SegregatedFreeList@@SIXPAUClass_System_GCs_SegregatedFreeList_ObjectVisitor@@@Z 02027f60 f   Shell.obj
 0001:000276f8       ?g_VerifySimpleList@Struct_System_GCs_SegregatedFreeList@@SIPAUStruct_System_GCs_SegregatedFreeList_PageHeader@@PAU2@@Z 020286f8 f   Shell.obj
 0001:000277dc       ?g_SubSmallPage@Struct_System_GCs_SegregatedFreeList@@SIXPAUStruct_System_GCs_SegregatedFreeList_PageHeader@@@Z 020287dc f   Shell.obj
 0001:00027888       ?g_SubSmallBytes@Struct_System_GCs_SegregatedFreeList@@SIXPAUuintPtr@@@Z 02028888 f   Shell.obj
 0001:000278b4       ?g_SubLargePages@Struct_System_GCs_SegregatedFreeList@@SIXPAUuintPtr@@@Z 020288b4 f   Shell.obj
 0001:000278e0       ?m_StructCopy@Struct_System_GCs_SegregatedFreeList@@SIXPAU1@0@Z 020288e0 f   Shell.obj
 0001:00027914       ?m_StructCopy@Struct_System_GCs_SegregatedFreeList@@SIXPAU1@PAU1@@Z 02028914 f   Shell.obj
 0001:000279b0       ?g_SplitList@Struct_System_GCs_SegregatedFreeList@@SI_NPAUStruct_System_GCs_SegregatedFreeList_PageHeader@@HHPAUClass_System_GCs_SegregatedFreeList_PartialFreePageVisitor@@PAUStruct_System_GCs_SegregatedFreeList_PageSeparation@@@Z 020289b0 f   Shell.obj
 0001:00027e50       ?m_ReleaseLocalPage@Struct_System_GCs_SegregatedFreeList@@SIXPAU1@I@Z 02028e50 f   Shell.obj
 0001:00028024       ?g_RecycleGlobalPagesPhase2@Struct_System_GCs_SegregatedFreeList@@SIXPAUClass_System_GCs_SegregatedFreeList_PartialFreePageVisitor@@@Z 02029024 f   Shell.obj
 0001:000283e0       ?g_RecycleGlobalPagesPhase2@Struct_System_GCs_SegregatedFreeList@@SIXXZ 020293e0 f   Shell.obj
 0001:00028400       ?g_RecycleGlobalPagesPhase1@Struct_System_GCs_SegregatedFreeList@@SIXPAUClass_System_GCs_SegregatedFreeList_PartialFreePageVisitor@@@Z 02029400 f   Shell.obj
 0001:00028628       ?g_RecycleGlobalPagesPhase1@Struct_System_GCs_SegregatedFreeList@@SIXXZ 02029628 f   Shell.obj
 0001:00028648       ?g_RecycleGlobalPages@Struct_System_GCs_SegregatedFreeList@@SIXXZ 02029648 f   Shell.obj
 0001:00028668       ?g_NewThreadNotification@Struct_System_GCs_SegregatedFreeList@@SIXPAUClass_System_Threading_Thread@@_N@Z 02029668 f   Shell.obj
 0001:00028748       ?m_NewLocalPage@Struct_System_GCs_SegregatedFreeList@@SIPAUStruct_System_GCs_SegregatedFreeList_PageHeader@@PAU1@IPAUClass_System_Threading_Thread@@@Z 02029748 f   Shell.obj
 0001:00028acc       ?g_MixinThread@Struct_System_GCs_SegregatedFreeList@@SIPAUClass_System_Threading_Thread@@PAU2@@Z 02029acc f   Shell.obj
 0001:00028ae8       ?g_Initialize@Struct_System_GCs_SegregatedFreeList@@SIXXZ 02029ae8 f   Shell.obj
 0001:00028bb8       ?g_GetSizeClass@Struct_System_GCs_SegregatedFreeList@@SIIPAUuintPtr@@@Z 02029bb8 f   Shell.obj
 0001:00028c48       ?m_GetLocalPage@Struct_System_GCs_SegregatedFreeList@@SIPAUStruct_System_GCs_SegregatedFreeList_PageHeader@@PAU1@IPAUClass_System_Threading_Thread@@@Z 02029c48 f   Shell.obj
 0001:00028cd0       ?g_GetCellSize@Struct_System_GCs_SegregatedFreeList@@SIII@Z 02029cd0 f   Shell.obj
 0001:00028d78       ?g_get$_TotalBytes@Struct_System_GCs_SegregatedFreeList@@SIPAUuintPtr@@XZ 02029d78 f   Shell.obj
 0001:00028da8       ?g_get$_SIZE$_CLASSES@Struct_System_GCs_SegregatedFreeList@@SIIXZ 02029da8 f   Shell.obj
 0001:00028dcc       ?g_get$_LazyMemClear@Struct_System_GCs_SegregatedFreeList@@SI_NXZ 02029dcc f   Shell.obj
 0001:00028de4       ?g_get$_LargeBytes@Struct_System_GCs_SegregatedFreeList@@SIPAUuintPtr@@XZ 02029de4 f   Shell.obj
 0001:00028e20       ?g_get$_LARGE$_OBJECT$_THRESHOLD@Struct_System_GCs_SegregatedFreeList@@SIPAUuintPtr@@XZ 02029e20 f   Shell.obj
 0001:00028e40       ?g_get$_fVerifyLists@Struct_System_GCs_SegregatedFreeList@@SI_NXZ 02029e40 f   Shell.obj
 0001:00028e58       ?g_get$_EagerMemClear@Struct_System_GCs_SegregatedFreeList@@SI_NXZ 02029e58 f   Shell.obj
 0001:00028e70       ?g_get$_BLOCK$_SIZE@Struct_System_GCs_SegregatedFreeList@@SIHXZ 02029e70 f   Shell.obj
 0001:00028e94       ?g_FreeSmallList@Struct_System_GCs_SegregatedFreeList@@SIXPAUStruct_System_GCs_SegregatedFreeList_TempList@@@Z 02029e94 f   Shell.obj
 0001:00029058       ?g_FreeListContains@Struct_System_GCs_SegregatedFreeList@@SI_NPAUuintPtr@@0@Z 0202a058 f   Shell.obj
 0001:000290a8       ?g_FreeLarge@Struct_System_GCs_SegregatedFreeList@@SIXPAUClass_System_Object@@@Z 0202a0a8 f   Shell.obj
 0001:000294b4       ?g_FindSmallCell@Struct_System_GCs_SegregatedFreeList@@SIPAUuintPtr@@PAU2@@Z 0202a4b4 f   Shell.obj
 0001:000295c4       ?g_FindSmall@Struct_System_GCs_SegregatedFreeList@@SIPAUuintPtr@@PAU2@@Z 0202a5c4 f   Shell.obj
 0001:00029688       ?g_FindLarge@Struct_System_GCs_SegregatedFreeList@@SIPAUuintPtr@@PAU2@@Z 0202a688 f   Shell.obj
 0001:0002990c       ?g_Find@Struct_System_GCs_SegregatedFreeList@@SIPAUuintPtr@@PAU2@@Z 0202a90c f   Shell.obj
 0001:00029a2c       ?m_Equals@Struct_System_GCs_SegregatedFreeList@@SI_NPAU1@PAUClass_System_Object@@@Z 0202aa2c f   Shell.obj
 0001:00029a94       ?m_Equals@Struct_System_GCs_SegregatedFreeList@@SI_NPAUClass_System_GCs_SegregatedFreeList@@PAUClass_System_Object@@@Z 0202aa94 f   Shell.obj
 0001:00029ac0       ?g_DoLazyMemClear@Struct_System_GCs_SegregatedFreeList@@SIXPAUuintPtr@@I@Z 0202aac0 f   Shell.obj
 0001:00029b04       ?g_DeadThreadNotification@Struct_System_GCs_SegregatedFreeList@@SIXPAUClass_System_Threading_Thread@@@Z 0202ab04 f   Shell.obj
 0001:00029b9c       ?g_CountListElements@Struct_System_GCs_SegregatedFreeList@@SIHPAUuintPtr@@@Z 0202ab9c f   Shell.obj
 0001:00029cd4       ?g_CompilerAllocateMarkSweep@Struct_System_GCs_SegregatedFreeList@@SIPAUClass_System_Object@@PAUClass_System_VTable@@PAUClass_System_Threading_Thread@@PAUuintPtr@@I@Z 0202acd4 f   Shell.obj
 0001:0002a020       ?g_CommitFreedData@Struct_System_GCs_SegregatedFreeList@@SIXXZ 0202b020 f   Shell.obj
 0001:0002a088       ?g_AtomicSwitchChains@Struct_System_GCs_SegregatedFreeList@@SIPAUStruct_System_GCs_SegregatedFreeList_PageHeader@@PAPAUuintPtr@@PAU2@@Z 0202b088 f   Shell.obj
 0001:0002a0ac       ?g_AtomicPushIncrementList@Struct_System_GCs_SegregatedFreeList@@SIXPAPAUuintPtr@@UStruct_System_GCs_SegregatedFreeList_PageHeaderList@@@Z 0202b0ac f   Shell.obj
 0001:0002a148       ?g_AtomicPushDecrementList@Struct_System_GCs_SegregatedFreeList@@SIPAUStruct_System_GCs_SegregatedFreeList_PageHeader@@PAPAUuintPtr@@UStruct_System_GCs_SegregatedFreeList_PageHeaderList@@@Z 0202b148 f   Shell.obj
 0001:0002a1e4       ?g_AtomicPush@Struct_System_GCs_SegregatedFreeList@@SIXPAPAUuintPtr@@PAUStruct_System_GCs_SegregatedFreeList_PageHeader@@@Z 0202b1e4 f   Shell.obj
 0001:0002a244       ?g_AtomicPopChain@Struct_System_GCs_SegregatedFreeList@@SIPAUStruct_System_GCs_SegregatedFreeList_PageHeader@@PAPAUuintPtr@@@Z 0202b244 f   Shell.obj
 0001:0002a268       ?g_AtomicPop@Struct_System_GCs_SegregatedFreeList@@SIPAUStruct_System_GCs_SegregatedFreeList_PageHeader@@PAPAUuintPtr@@@Z 0202b268 f   Shell.obj
 0001:0002a2cc       ?g_AtomicAdd@Struct_System_GCs_SegregatedFreeList@@SIXPAHH@Z 0202b2cc f   Shell.obj
 0001:0002a324       ?m_AllocateSmallSlow@Struct_System_GCs_SegregatedFreeList@@SIPAUuintPtr@@PAU1@IPAUClass_System_Threading_Thread@@@Z 0202b324 f   Shell.obj
 0001:0002a5d4       ?m_AllocateSmallFast@Struct_System_GCs_SegregatedFreeList@@SIPAUuintPtr@@PAU1@I@Z 0202b5d4 f   Shell.obj
 0001:0002a638       ?m_AllocateSmall@Struct_System_GCs_SegregatedFreeList@@SIPAUuintPtr@@PAU1@IPAUClass_System_Threading_Thread@@@Z 0202b638 f   Shell.obj
 0001:0002a6a8       ?m_AllocateSlow@Struct_System_GCs_SegregatedFreeList@@SIPAUuintPtr@@PAU1@PAU2@IPAUClass_System_Threading_Thread@@@Z 0202b6a8 f   Shell.obj
 0001:0002a9cc       ?g_AllocateSlow@Struct_System_GCs_SegregatedFreeList@@SIPAUuintPtr@@PAUClass_System_Threading_Thread@@PAU2@I@Z 0202b9cc f   Shell.obj
 0001:0002aa20       ?g_AllocateLarge@Struct_System_GCs_SegregatedFreeList@@SIPAUuintPtr@@IPAU2@PAUClass_System_Threading_Thread@@@Z 0202ba20 f   Shell.obj
 0001:0002b07c       ?m_AllocateFast@Struct_System_GCs_SegregatedFreeList@@SIPAUuintPtr@@PAU1@PAU2@I@Z 0202c07c f   Shell.obj
 0001:0002b3a4       ?g_AllocateFast@Struct_System_GCs_SegregatedFreeList@@SIPAUuintPtr@@PAUClass_System_Threading_Thread@@PAU2@I@Z 0202c3a4 f   Shell.obj
 0001:0002b730       ?g_AddSmallPage@Struct_System_GCs_SegregatedFreeList@@SIXPAUStruct_System_GCs_SegregatedFreeList_PageHeader@@@Z 0202c730 f   Shell.obj
 0001:0002b7e4       ?g_AddSmallBytes@Struct_System_GCs_SegregatedFreeList@@SIXPAUuintPtr@@@Z 0202c7e4 f   Shell.obj
 0001:0002b818       ?g_AddLargePages@Struct_System_GCs_SegregatedFreeList@@SIXPAUuintPtr@@@Z 0202c818 f   Shell.obj
 0001:0002b874       ?m_StructCopy@Struct_Microsoft_Singularity_Memory_PhysicalAddress@@SIXPAU1@0@Z 0202c874 f   Shell.obj
 0001:0002b8a8       ?m_StructCopy@Struct_Microsoft_Singularity_Memory_PhysicalAddress@@SIXPAU1@PAU1@@Z 0202c8a8 f   Shell.obj
 0001:0002b944       ?g_op$_Equality@Struct_Microsoft_Singularity_Memory_PhysicalAddress@@SI_NU1@0@Z 0202c944 f   Shell.obj
 0001:0002b98c       ?m_GetHashCode@Struct_Microsoft_Singularity_Memory_PhysicalAddress@@SIHPAU1@@Z 0202c98c f   Shell.obj
 0001:0002b9b0       ?m_GetHashCode@Struct_Microsoft_Singularity_Memory_PhysicalAddress@@SIHPAUClass_Microsoft_Singularity_Memory_PhysicalAddress@@@Z 0202c9b0 f   Shell.obj
 0001:0002b9d8       ?m_get$_Value@Struct_Microsoft_Singularity_Memory_PhysicalAddress@@SI_KPAU1@@Z 0202c9d8 f   Shell.obj
 0001:0002b9fc       ?m_Equals@Struct_Microsoft_Singularity_Memory_PhysicalAddress@@SI_NPAU1@PAUClass_System_Object@@@Z 0202c9fc f   Shell.obj
 0001:0002ba90       ?m_Equals@Struct_Microsoft_Singularity_Memory_PhysicalAddress@@SI_NPAUClass_Microsoft_Singularity_Memory_PhysicalAddress@@PAUClass_System_Object@@@Z 0202ca90 f   Shell.obj
 0001:0002babc       ?m__ctor@Struct_Microsoft_Singularity_Memory_PhysicalAddress@@SIXPAU1@PAUuintPtr@@@Z 0202cabc f   Shell.obj
 0001:0002baec       ?m_StructCopy@Struct_Microsoft_Singularity_Directory_DirectoryServiceContract_NakCreateDirectory@@SIXPAU1@0@Z 0202caec f   Shell.obj
 0001:0002bb14       ?m_StructCopy@Struct_Microsoft_Singularity_Directory_DirectoryServiceContract_NakCreateDirectory@@SIXPAU1@PAU1@@Z 0202cb14 f   Shell.obj
 0001:0002bb8c       ?m_Equals@Struct_Microsoft_Singularity_Directory_DirectoryServiceContract_NakCreateDirectory@@SI_NPAU1@PAUClass_System_Object@@@Z 0202cb8c f   Shell.obj
 0001:0002bc2c       ?m_Equals@Struct_Microsoft_Singularity_Directory_DirectoryServiceContract_NakCreateDirectory@@SI_NPAUClass_Microsoft_Singularity_Directory_DirectoryServiceContract_NakCreateDirectory@@PAUClass_System_Object@@@Z 0202cc2c f   Shell.obj
 0001:0002bc58       ?g_IsWhiteSpace@Class_System_Globalization_CharacterInfo@@SI_N_W@Z 0202cc58 f   Shell.obj
 0001:0002bcc8       ?g_IsNumber@Class_System_Globalization_CharacterInfo@@SI_N_W@Z 0202ccc8 f   Shell.obj
 0001:0002bd1c       ?g_IsLetter@Class_System_Globalization_CharacterInfo@@SI_N_W@Z 0202cd1c f   Shell.obj
 0001:0002bd80       ?g_GetUnicodeCategory@Class_System_Globalization_CharacterInfo@@SI?AUStruct_System_Globalization_UnicodeCategory@@_W@Z 0202cd80 f   Shell.obj
 0001:0002be28       ?m__ctor@Class_System_Globalization_CharacterInfo@@SIXPAU1@@Z 0202ce28 f   Shell.obj
 0001:0002be40       ?g__cctor@Class_System_Globalization_CharacterInfo@@SIXXZ 0202ce40 f   Shell.obj
 0001:0002be54       ?m_Visit@Class_System_GCs_MarkSweepCollector_ThreadMarkReferenceVisitor@@SIXPAU1@PAPAUuintPtr@@@Z 0202ce54 f   Shell.obj
 0001:0002c244       ?m__ctor@Class_System_GCs_MarkSweepCollector_ThreadMarkReferenceVisitor@@SIXPAU1@@Z 0202d244 f   Shell.obj
 0001:0002c268       ?m__ctor@Class_Microsoft_Contracts_AssumeException@@SIXPAU1@@Z 0202d268 f   Shell.obj
 0001:0002c28c       ?m__ctor@Class_System_Runtime_CompilerServices_SelfPointAttribute@@SIXPAU1@@Z 0202d28c f   Shell.obj
 0001:0002c2b0       ?m_StructCopy@Struct_Microsoft_Singularity_Isal_IX_TSS@@SIXPAU1@0@Z 0202d2b0 f   Shell.obj
 0001:0002c4c4       ?m_StructCopy@Struct_Microsoft_Singularity_Isal_IX_TSS@@SIXPAU1@PAU1@@Z 0202d4c4 f   Shell.obj
 0001:0002cb00       ?m_Equals@Struct_Microsoft_Singularity_Isal_IX_TSS@@SI_NPAU1@PAUClass_System_Object@@@Z 0202db00 f   Shell.obj
 0001:0002cdf0       ?m_Equals@Struct_Microsoft_Singularity_Isal_IX_TSS@@SI_NPAUClass_Microsoft_Singularity_Isal_IX_TSS@@PAUClass_System_Object@@@Z 0202ddf0 f   Shell.obj
 0001:0002ce1c       ?g_WalkStackFrame@Class_System_GCs_CallStack@@SI_NPAPAPAUuintPtr@@0PAUStruct_System_GCs_CalleeSaveLocations@@PAPAU2@PAUClass_System_GCs_NonNullReferenceVisitor@@3UStruct_System_GCs_CompressedFrameDescriptor@@PAUStruct_System_GCs_CallStack_TransitionRecord@@PAUClass_System_Threading_Thread@@@Z 0202de1c f   Shell.obj
 0001:0002d7c4       ?g_VisitIfNotContext@Class_System_GCs_CallStack@@SIXPAUClass_System_Threading_Thread@@PAUClass_System_GCs_NonNullReferenceVisitor@@PAPAUuintPtr@@@Z 0202e7c4 f   Shell.obj
 0001:0002d820       ?g_SkipUnlinkStackFrame@Class_System_GCs_CallStack@@SIPAUuintPtr@@PAPAPAU2@0@Z 0202e820 f   Shell.obj
 0001:0002d854       ?g_SkipLinkStackStubFrame@Class_System_GCs_CallStack@@SIPAUuintPtr@@PAPAPAU2@0@Z 0202e854 f   Shell.obj
 0001:0002d894       ?g_SkipLinkStackFrame@Class_System_GCs_CallStack@@SIPAUuintPtr@@PAPAPAU2@0@Z 0202e894 f   Shell.obj
 0001:0002d8d4       ?g_ScanStackSegment@Class_System_GCs_CallStack@@SIIPAUStruct_System_GCs_CalleeSaveLocations@@PAUuintPtr@@PAPAU3@2PAUStruct_System_GCs_CallStack_TransitionRecord@@PAUClass_System_GCs_NonNullReferenceVisitor@@4PAUClass_System_Threading_Thread@@@Z 0202e8d4 f   Shell.obj
 0001:0002db3c       ?g_ScanStacks@Class_System_GCs_CallStack@@SIHPAUClass_System_GCs_NonNullReferenceVisitor@@0@Z 0202eb3c f   Shell.obj
 0001:0002dbf0       ?g_ScanStack@Class_System_GCs_CallStack@@SIIPAUClass_System_Threading_Thread@@PAUClass_System_GCs_NonNullReferenceVisitor@@1@Z 0202ebf0 f   Shell.obj
 0001:0002ddf4       ?g_Initialize@Class_System_GCs_CallStack@@SIXXZ 0202edf4 f   Shell.obj
 0001:0002df64       ?g_FrameContainsTransitionRecord@Class_System_GCs_CallStack@@SI_NPAPAUuintPtr@@0PAUStruct_System_GCs_CallStack_TransitionRecord@@@Z 0202ef64 f   Shell.obj
 0001:0002dfbc       ?g_CountBits@Class_System_GCs_CallStack@@SIHPAUuintPtr@@@Z 0202efbc f   Shell.obj
 0001:0002e024       ?g_CallSiteTableNumber@Class_System_GCs_CallStack@@SIHPAUuintPtr@@@Z 0202f024 f   Shell.obj
 0001:0002e12c       ?g_CallSiteSetNumber@Class_System_GCs_CallStack@@SIHPAUuintPtr@@H@Z 0202f12c f   Shell.obj
 0001:0002e238       ?m__ctor@Class_System_GCs_CallStack@@SIXPAU1@@Z 0202f238 f   Shell.obj
 0001:0002e254       ?m_StructCopy@Struct_System_UpdateEnlistmentLog_Entry@@SIXPAU1@0@Z 0202f254 f   Shell.obj
 0001:0002e2d8       ?m_StructCopy@Struct_System_UpdateEnlistmentLog_Entry@@SIXPAU1@PAU1@@Z 0202f2d8 f   Shell.obj
 0001:0002e464       ?m_Equals@Struct_System_UpdateEnlistmentLog_Entry@@SI_NPAU1@PAUClass_System_Object@@@Z 0202f464 f   Shell.obj
 0001:0002e5dc       ?m_Equals@Struct_System_UpdateEnlistmentLog_Entry@@SI_NPAUClass_System_UpdateEnlistmentLog_Entry@@PAUClass_System_Object@@@Z 0202f5dc f   Shell.obj
 0001:0002e608       ?m_InitializeFromExistingHandle@Class_Microsoft_Singularity_Eventing_MemoryStorage@@SI_NPAU1@@Z 0202f608 f   Shell.obj
 0001:0002e6b0       ?m_Initialize@Class_Microsoft_Singularity_Eventing_MemoryStorage@@SI_NPAU1@_K@Z 0202f6b0 f   Shell.obj
 0001:0002e7f4       ?m_Finalize@Class_Microsoft_Singularity_Eventing_MemoryStorage@@SIXPAU1@@Z 0202f7f4 f   Shell.obj
 0001:0002e838       ?m_Destroy@Class_Microsoft_Singularity_Eventing_MemoryStorage@@SIXPAU1@@Z 0202f838 f   Shell.obj
 0001:0002e868       ?m_AddBuffer@Class_Microsoft_Singularity_Eventing_MemoryStorage@@SI_NPAU1@_K@Z 0202f868 f   Shell.obj
 0001:0002e934       ?m__ctor@Class_Microsoft_Singularity_Eventing_MemoryStorage@@SIXPAU1@@Z 0202f934 f   Shell.obj
 0001:0002e960       ?m_StructCopy@Struct_Microsoft_Singularity_Io_UnicodePipeContract_Moved@@SIXPAU1@0@Z 0202f960 f   Shell.obj
 0001:0002e97c       ?m_StructCopy@Struct_Microsoft_Singularity_Io_UnicodePipeContract_Moved@@SIXPAU1@PAU1@@Z 0202f97c f   Shell.obj
 0001:0002e9d0       ?m_MarshallContent@Struct_Microsoft_Singularity_Io_UnicodePipeContract_Moved@@SIXPAU1@PAEPAUStruct_Microsoft_Singularity_Channels_Endpoint@@1PAH@Z 0202f9d0 f   Shell.obj
 0001:0002e9f0       ?m_MarshallAll@Struct_Microsoft_Singularity_Io_UnicodePipeContract_Moved@@SIXPAU1@PAEPAUStruct_Microsoft_Singularity_Channels_Endpoint@@PAH@Z 0202f9f0 f   Shell.obj
 0001:0002ea48       ?m_Equals@Struct_Microsoft_Singularity_Io_UnicodePipeContract_Moved@@SI_NPAU1@PAUClass_System_Object@@@Z 0202fa48 f   Shell.obj
 0001:0002ea80       ?m_Equals@Struct_Microsoft_Singularity_Io_UnicodePipeContract_Moved@@SI_NPAUClass_Microsoft_Singularity_Io_UnicodePipeContract_Moved@@PAUClass_System_Object@@@Z 0202fa80 f   Shell.obj
 0001:0002eaac       ?m_Release@Class_Microsoft_Singularity_Channels_TContainer$_1$LMicrosoft_Singularity_Io_PipeLookAhead$G@@SIXPAU1@PAUClass_Microsoft_Singularity_Io_PipeLookAhead@@@Z 0202faac f   Shell.obj
 0001:0002eb40       ?m_Finalize@Class_Microsoft_Singularity_Channels_TContainer$_1$LMicrosoft_Singularity_Io_PipeLookAhead$G@@SIXPAU1@@Z 0202fb40 f   Shell.obj
 0001:0002ebbc       ?m_Acquire@Class_Microsoft_Singularity_Channels_TContainer$_1$LMicrosoft_Singularity_Io_PipeLookAhead$G@@SIPAUClass_Microsoft_Singularity_Io_PipeLookAhead@@PAU1@@Z 0202fbbc f   Shell.obj
 0001:0002ec64       ?m__ctor@Class_Microsoft_Singularity_Channels_TContainer$_1$LMicrosoft_Singularity_Io_PipeLookAhead$G@@SIXPAU1@PAUClass_Microsoft_Singularity_Io_PipeLookAhead@@@Z 0202fc64 f   Shell.obj
 0001:0002ed18       ?m__ctor@Class_System_UndoLog@@SIXPAU1@@Z 0202fd18 f   Shell.obj
 0001:0002ed48       ?m_System_Collections_IEnumerator_get$_Current@Class_System_CharEnumerator@@SIPAUClass_System_Object@@PAU1@@Z 0202fd48 f   Shell.obj
 0001:0002ede8       ?m_MoveNext@Class_System_CharEnumerator@@SI_NPAU1@@Z 0202fde8 f   Shell.obj
 0001:0002ee58       ?m__ctor@Class_System_CharEnumerator@@SIXPAU1@PAUClass_System_String@@@Z 0202fe58 f   Shell.obj
 0001:0002ee88       ?m_ToString@Class_System_Text_RegularExpressions_RegexBoyerMoore@@SIPAUClass_System_String@@PAU1@@Z 0202fe88 f   Shell.obj
 0001:0002eea8       ?m_Scan@Class_System_Text_RegularExpressions_RegexBoyerMoore@@SIHPAU1@PAUClass_System_String@@HHH@Z 0202fea8 f   Shell.obj
 0001:0002f2a4       ?m_IsMatch@Class_System_Text_RegularExpressions_RegexBoyerMoore@@SI_NPAU1@PAUClass_System_String@@HHH@Z 020302a4 f   Shell.obj
 0001:0002f3d8       ?m__ctor@Class_System_Text_RegularExpressions_RegexBoyerMoore@@SIXPAU1@PAUClass_System_String@@_N2PAUClass_System_Globalization_CultureInfo@@@Z 020303d8 f   Shell.obj
 0001:0002f8bc       ?m_production$_action$_9@Class_Microsoft_Singularity_Applications_ScriptParser@@SIPAUClass_System_Object@@PAU1@PAUClass_System_Collections_Stack@@@Z 020308bc f   Shell.obj
 0001:0002f930       ?m_production$_action$_8@Class_Microsoft_Singularity_Applications_ScriptParser@@SIPAUClass_System_Object@@PAU1@PAUClass_System_Collections_Stack@@@Z 02030930 f   Shell.obj
 0001:0002fa28       ?m_production$_action$_7@Class_Microsoft_Singularity_Applications_ScriptParser@@SIPAUClass_System_Object@@PAU1@PAUClass_System_Collections_Stack@@@Z 02030a28 f   Shell.obj
 0001:0002fb1c       ?m_production$_action$_6@Class_Microsoft_Singularity_Applications_ScriptParser@@SIPAUClass_System_Object@@PAU1@PAUClass_System_Collections_Stack@@@Z 02030b1c f   Shell.obj
 0001:0002fc08       ?m_production$_action$_5@Class_Microsoft_Singularity_Applications_ScriptParser@@SIPAUClass_System_Object@@PAU1@PAUClass_System_Collections_Stack@@@Z 02030c08 f   Shell.obj
 0001:0002fcf4       ?m_production$_action$_4@Class_Microsoft_Singularity_Applications_ScriptParser@@SIPAUClass_System_Object@@PAU1@PAUClass_System_Collections_Stack@@@Z 02030cf4 f   Shell.obj
 0001:0002fde0       ?m_production$_action$_38@Class_Microsoft_Singularity_Applications_ScriptParser@@SIPAUClass_System_Object@@PAU1@PAUClass_System_Collections_Stack@@@Z 02030de0 f   Shell.obj
 0001:000300bc       ?m_production$_action$_37@Class_Microsoft_Singularity_Applications_ScriptParser@@SIPAUClass_System_Object@@PAU1@PAUClass_System_Collections_Stack@@@Z 020310bc f   Shell.obj
 0001:000302c0       ?m_production$_action$_36@Class_Microsoft_Singularity_Applications_ScriptParser@@SIPAUClass_System_Object@@PAU1@PAUClass_System_Collections_Stack@@@Z 020312c0 f   Shell.obj
 0001:000304c4       ?m_production$_action$_35@Class_Microsoft_Singularity_Applications_ScriptParser@@SIPAUClass_System_Object@@PAU1@PAUClass_System_Collections_Stack@@@Z 020314c4 f   Shell.obj
 0001:00030634       ?m_production$_action$_34@Class_Microsoft_Singularity_Applications_ScriptParser@@SIPAUClass_System_Object@@PAU1@PAUClass_System_Collections_Stack@@@Z 02031634 f   Shell.obj
 0001:000307a4       ?m_production$_action$_33@Class_Microsoft_Singularity_Applications_ScriptParser@@SIPAUClass_System_Object@@PAU1@PAUClass_System_Collections_Stack@@@Z 020317a4 f   Shell.obj
 0001:00030914       ?m_production$_action$_32@Class_Microsoft_Singularity_Applications_ScriptParser@@SIPAUClass_System_Object@@PAU1@PAUClass_System_Collections_Stack@@@Z 02031914 f   Shell.obj
 0001:00030a6c       ?m_production$_action$_31@Class_Microsoft_Singularity_Applications_ScriptParser@@SIPAUClass_System_Object@@PAU1@PAUClass_System_Collections_Stack@@@Z 02031a6c f   Shell.obj
 0001:00030bdc       ?m_production$_action$_30@Class_Microsoft_Singularity_Applications_ScriptParser@@SIPAUClass_System_Object@@PAU1@PAUClass_System_Collections_Stack@@@Z 02031bdc f   Shell.obj
 0001:00030d4c       ?m_production$_action$_3@Class_Microsoft_Singularity_Applications_ScriptParser@@SIPAUClass_System_Object@@PAU1@PAUClass_System_Collections_Stack@@@Z 02031d4c f   Shell.obj
 0001:00030e38       ?m_production$_action$_29@Class_Microsoft_Singularity_Applications_ScriptParser@@SIPAUClass_System_Object@@PAU1@PAUClass_System_Collections_Stack@@@Z 02031e38 f   Shell.obj
 0001:00030fa8       ?m_production$_action$_28@Class_Microsoft_Singularity_Applications_ScriptParser@@SIPAUClass_System_Object@@PAU1@PAUClass_System_Collections_Stack@@@Z 02031fa8 f   Shell.obj
 0001:00031118       ?m_production$_action$_27@Class_Microsoft_Singularity_Applications_ScriptParser@@SIPAUClass_System_Object@@PAU1@PAUClass_System_Collections_Stack@@@Z 02032118 f   Shell.obj
 0001:00031288       ?m_production$_action$_26@Class_Microsoft_Singularity_Applications_ScriptParser@@SIPAUClass_System_Object@@PAU1@PAUClass_System_Collections_Stack@@@Z 02032288 f   Shell.obj
 0001:000313f8       ?m_production$_action$_25@Class_Microsoft_Singularity_Applications_ScriptParser@@SIPAUClass_System_Object@@PAU1@PAUClass_System_Collections_Stack@@@Z 020323f8 f   Shell.obj
 0001:00031568       ?m_production$_action$_24@Class_Microsoft_Singularity_Applications_ScriptParser@@SIPAUClass_System_Object@@PAU1@PAUClass_System_Collections_Stack@@@Z 02032568 f   Shell.obj
 0001:000316d8       ?m_production$_action$_23@Class_Microsoft_Singularity_Applications_ScriptParser@@SIPAUClass_System_Object@@PAU1@PAUClass_System_Collections_Stack@@@Z 020326d8 f   Shell.obj
 0001:00031848       ?m_production$_action$_22@Class_Microsoft_Singularity_Applications_ScriptParser@@SIPAUClass_System_Object@@PAU1@PAUClass_System_Collections_Stack@@@Z 02032848 f   Shell.obj
 0001:0003191c       ?m_production$_action$_21@Class_Microsoft_Singularity_Applications_ScriptParser@@SIPAUClass_System_Object@@PAU1@PAUClass_System_Collections_Stack@@@Z 0203291c f   Shell.obj
 0001:00031a80       ?m_production$_action$_20@Class_Microsoft_Singularity_Applications_ScriptParser@@SIPAUClass_System_Object@@PAU1@PAUClass_System_Collections_Stack@@@Z 02032a80 f   Shell.obj
 0001:00031c2c       ?m_production$_action$_2@Class_Microsoft_Singularity_Applications_ScriptParser@@SIPAUClass_System_Object@@PAU1@PAUClass_System_Collections_Stack@@@Z 02032c2c f   Shell.obj
 0001:00031d2c       ?m_production$_action$_19@Class_Microsoft_Singularity_Applications_ScriptParser@@SIPAUClass_System_Object@@PAU1@PAUClass_System_Collections_Stack@@@Z 02032d2c f   Shell.obj
 0001:00031e34       ?m_production$_action$_18@Class_Microsoft_Singularity_Applications_ScriptParser@@SIPAUClass_System_Object@@PAU1@PAUClass_System_Collections_Stack@@@Z 02032e34 f   Shell.obj
 0001:00032070       ?m_production$_action$_17@Class_Microsoft_Singularity_Applications_ScriptParser@@SIPAUClass_System_Object@@PAU1@PAUClass_System_Collections_Stack@@@Z 02033070 f   Shell.obj
 0001:000321b8       ?m_production$_action$_16@Class_Microsoft_Singularity_Applications_ScriptParser@@SIPAUClass_System_Object@@PAU1@PAUClass_System_Collections_Stack@@@Z 020331b8 f   Shell.obj
 0001:000322a4       ?m_production$_action$_15@Class_Microsoft_Singularity_Applications_ScriptParser@@SIPAUClass_System_Object@@PAU1@PAUClass_System_Collections_Stack@@@Z 020332a4 f   Shell.obj
 0001:00032378       ?m_production$_action$_14@Class_Microsoft_Singularity_Applications_ScriptParser@@SIPAUClass_System_Object@@PAU1@PAUClass_System_Collections_Stack@@@Z 02033378 f   Shell.obj
 0001:0003246c       ?m_production$_action$_13@Class_Microsoft_Singularity_Applications_ScriptParser@@SIPAUClass_System_Object@@PAU1@PAUClass_System_Collections_Stack@@@Z 0203346c f   Shell.obj
 0001:00032554       ?m_production$_action$_12@Class_Microsoft_Singularity_Applications_ScriptParser@@SIPAUClass_System_Object@@PAU1@PAUClass_System_Collections_Stack@@@Z 02033554 f   Shell.obj
 0001:00032650       ?m_production$_action$_11@Class_Microsoft_Singularity_Applications_ScriptParser@@SIPAUClass_System_Object@@PAU1@PAUClass_System_Collections_Stack@@@Z 02033650 f   Shell.obj
 0001:0003275c       ?m_production$_action$_10@Class_Microsoft_Singularity_Applications_ScriptParser@@SIPAUClass_System_Object@@PAU1@PAUClass_System_Collections_Stack@@@Z 0203375c f   Shell.obj
 0001:00032888       ?m_production$_action$_1@Class_Microsoft_Singularity_Applications_ScriptParser@@SIPAUClass_System_Object@@PAU1@PAUClass_System_Collections_Stack@@@Z 02033888 f   Shell.obj
 0001:00032960       ?m_production$_action$_0@Class_Microsoft_Singularity_Applications_ScriptParser@@SIPAUClass_System_Object@@PAU1@PAUClass_System_Collections_Stack@@@Z 02033960 f   Shell.obj
 0001:000329ec       ?m_LexActionMethod$_5@Class_Microsoft_Singularity_Applications_ScriptParser@@SIXPAU1@PAUClass_Microsoft_Singularity_Applications_Parser_Token@@@Z 020339ec f   Shell.obj
 0001:00032a14       ?m_LexActionMethod$_4@Class_Microsoft_Singularity_Applications_ScriptParser@@SIXPAU1@PAUClass_Microsoft_Singularity_Applications_Parser_Token@@@Z 02033a14 f   Shell.obj
 0001:00032a38       ?m_LexActionMethod$_3@Class_Microsoft_Singularity_Applications_ScriptParser@@SIXPAU1@PAUClass_Microsoft_Singularity_Applications_Parser_Token@@@Z 02033a38 f   Shell.obj
 0001:00032ab4       ?m_LexActionMethod$_2@Class_Microsoft_Singularity_Applications_ScriptParser@@SIXPAU1@PAUClass_Microsoft_Singularity_Applications_Parser_Token@@@Z 02033ab4 f   Shell.obj
 0001:00032adc       ?m_LexActionMethod$_1@Class_Microsoft_Singularity_Applications_ScriptParser@@SIXPAU1@PAUClass_Microsoft_Singularity_Applications_Parser_Token@@@Z 02033adc f   Shell.obj
 0001:00032b2c       ?m_LexActionMethod$_0@Class_Microsoft_Singularity_Applications_ScriptParser@@SIXPAU1@PAUClass_Microsoft_Singularity_Applications_Parser_Token@@@Z 02033b2c f   Shell.obj
 0001:00032b7c       ?m_get$_TokenList@Class_Microsoft_Singularity_Applications_ScriptParser@@SIPAUClassVector_Class_Microsoft_Singularity_Applications_Parser_TokenType@@PAU1@@Z 02033b7c f   Shell.obj
 0001:00032bb8       ?m_get$_ProductionTable@Class_Microsoft_Singularity_Applications_ScriptParser@@SIPAUClassVector_Class_Microsoft_Singularity_Applications_Parser_Production@@PAU1@@Z 02033bb8 f   Shell.obj
 0001:00032bf4       ?m_get$_GotoTable@Class_Microsoft_Singularity_Applications_ScriptParser@@SIPAUClassArray2_Class_Microsoft_Singularity_Applications_Parser_State@@PAU1@@Z 02033bf4 f   Shell.obj
 0001:00032c30       ?m_get$_ActionTable@Class_Microsoft_Singularity_Applications_ScriptParser@@SIPAUClassArray2_Class_Microsoft_Singularity_Applications_Parser_Action@@PAU1@@Z 02033c30 f   Shell.obj
 0001:00032c6c       ?m__ctor@Class_Microsoft_Singularity_Applications_ScriptParser@@SIXPAU1@@Z 02033c6c f   Shell.obj
 0001:0004b688       ?m_StringValue@Class_Microsoft_Singularity_Applications_ScriptEngine_StringLiteral@@SIPAUClass_System_String@@PAU1@PAUClass_Microsoft_Singularity_Applications_ScriptEngine_Interpretation@@@Z 0204c688 f   Shell.obj
 0001:0004b6c8       ?m__ctor@Class_Microsoft_Singularity_Applications_ScriptEngine_StringLiteral@@SIXPAU1@PAUClass_System_String@@@Z 0204c6c8 f   Shell.obj
 0001:0004b6f8       ?m_ToSetCi@Class_System_Text_RegularExpressions_RegexCharClass@@SIPAUClass_System_String@@PAU1@_NPAUClass_System_Globalization_CultureInfo@@@Z 0204c6f8 f   Shell.obj
 0001:0004b738       ?m_ToSet@Class_System_Text_RegularExpressions_RegexCharClass@@SIPAUClass_System_String@@PAU1@@Z 0204c738 f   Shell.obj
 0001:0004b90c       ?g_SingletonChar@Class_System_Text_RegularExpressions_RegexCharClass@@SI_WPAUClass_System_String@@@Z 0204c90c f   Shell.obj
 0001:0004b938       ?g_SetUnion@Class_System_Text_RegularExpressions_RegexCharClass@@SIPAUClass_System_String@@PAU2@0@Z 0204c938 f   Shell.obj
 0001:0004bc70       ?g_SetSize@Class_System_Text_RegularExpressions_RegexCharClass@@SIHPAUClass_System_String@@@Z 0204cc70 f   Shell.obj
 0001:0004bd44       ?g_SetInverse@Class_System_Text_RegularExpressions_RegexCharClass@@SIPAUClass_System_String@@PAU2@@Z 0204cd44 f   Shell.obj
 0001:0004bdd0       ?g_SetFromProperty@Class_System_Text_RegularExpressions_RegexCharClass@@SIPAUClass_System_String@@PAU2@_N0@Z 0204cdd0 f   Shell.obj
 0001:0004bf20       ?g_SetFromChar@Class_System_Text_RegularExpressions_RegexCharClass@@SIPAUClass_System_String@@_W@Z 0204cf20 f   Shell.obj
 0001:0004bfac       ?m_set$_Negate@Class_System_Text_RegularExpressions_RegexCharClass@@SIXPAU1@_N@Z 0204cfac f   Shell.obj
 0001:0004bfd4       ?m_RangeCount@Class_System_Text_RegularExpressions_RegexCharClass@@SIHPAU1@@Z 0204cfd4 f   Shell.obj
 0001:0004bffc       ?m_Range@Class_System_Text_RegularExpressions_RegexCharClass@@SIPAUClass_System_Text_RegularExpressions_RegexCharClass_SingleRange@@PAU1@H@Z 0204cffc f   Shell.obj
 0001:0004c044       ?g_NegateCategory@Class_System_Text_RegularExpressions_RegexCharClass@@SIPAUClass_System_String@@PAU2@@Z 0204d044 f   Shell.obj
 0001:0004c108       ?g_IsWordChar@Class_System_Text_RegularExpressions_RegexCharClass@@SI_N_W@Z 0204d108 f   Shell.obj
 0001:0004c134       ?g_IsSingleton@Class_System_Text_RegularExpressions_RegexCharClass@@SI_NPAUClass_System_String@@@Z 0204d134 f   Shell.obj
 0001:0004c198       ?g_IsECMAWordChar@Class_System_Text_RegularExpressions_RegexCharClass@@SI_N_W@Z 0204d198 f   Shell.obj
 0001:0004c1c8       ?m_get$_Category@Class_System_Text_RegularExpressions_RegexCharClass@@SIPAUClass_System_String@@PAU1@@Z 0204d1c8 f   Shell.obj
 0001:0004c1ec       ?g_CreateFromCategory@Class_System_Text_RegularExpressions_RegexCharClass@@SIPAU1@PAUClass_System_String@@_N10@Z 0204d1ec f   Shell.obj
 0001:0004c25c       ?g_CharInSetInternal@Class_System_Text_RegularExpressions_RegexCharClass@@SI_N_WPAUClass_System_String@@1@Z 0204d25c f   Shell.obj
 0001:0004c32c       ?g_CharInSet@Class_System_Text_RegularExpressions_RegexCharClass@@SI_N_WPAUClass_System_String@@1@Z 0204d32c f   Shell.obj
 0001:0004c3c4       ?g_CharInCategoryGroup@Class_System_Text_RegularExpressions_RegexCharClass@@SI_N_WUStruct_System_Globalization_UnicodeCategory@@PAUClass_System_String@@PAH@Z 0204d3c4 f   Shell.obj
 0001:0004c500       ?g_CharInCategory@Class_System_Text_RegularExpressions_RegexCharClass@@SI_N_WPAUClass_System_String@@@Z 0204d500 f   Shell.obj
 0001:0004c65c       ?g_CategoryUnion@Class_System_Text_RegularExpressions_RegexCharClass@@SIPAUClass_System_String@@PAU2@0@Z 0204d65c f   Shell.obj
 0001:0004c684       ?m_Canonicalize@Class_System_Text_RegularExpressions_RegexCharClass@@SIXPAU1@@Z 0204d684 f   Shell.obj
 0001:0004c8a0       ?m_AddSet@Class_System_Text_RegularExpressions_RegexCharClass@@SIXPAU1@PAUClass_System_String@@@Z 0204d8a0 f   Shell.obj
 0001:0004ca4c       ?m_AddRange@Class_System_Text_RegularExpressions_RegexCharClass@@SIXPAU1@_W1@Z 0204da4c f   Shell.obj
 0001:0004cb30       ?m_AddLowercaseImpl@Class_System_Text_RegularExpressions_RegexCharClass@@SIXPAU1@_W1PAUClass_System_Globalization_CultureInfo@@@Z 0204db30 f   Shell.obj
 0001:0004cde0       ?m_AddLowercase@Class_System_Text_RegularExpressions_RegexCharClass@@SIXPAU1@PAUClass_System_Globalization_CultureInfo@@@Z 0204dde0 f   Shell.obj
 0001:0004cec0       ?m_AddCharClass@Class_System_Text_RegularExpressions_RegexCharClass@@SIXPAU1@0@Z 0204dec0 f   Shell.obj
 0001:0004cfe4       ?m_AddCategoryFromName@Class_System_Text_RegularExpressions_RegexCharClass@@SIXPAU1@PAUClass_System_String@@_N21@Z 0204dfe4 f   Shell.obj
 0001:0004d100       ?m_AddCategory@Class_System_Text_RegularExpressions_RegexCharClass@@SIXPAU1@PAUClass_System_String@@@Z 0204e100 f   Shell.obj
 0001:0004d130       ?m__ctor@Class_System_Text_RegularExpressions_RegexCharClass@@SIXPAU1@@Z 0204e130 f   Shell.obj
 0001:0004d1a8       ?m__ctor@Class_System_Text_RegularExpressions_RegexCharClass@@SIXPAU1@PAUClass_System_String@@@Z 0204e1a8 f   Shell.obj
 0001:0004d258       ?g__cctor@Class_System_Text_RegularExpressions_RegexCharClass@@SIXXZ 0204e258 f   Shell.obj
 0001:00050994       ?m_Release@Class_System_Text_RegularExpressions_CachedCodeEntry@@SIXPAU1@@Z 02051994 f   Shell.obj
 0001:000509ac       ?m_NoReferences@Class_System_Text_RegularExpressions_CachedCodeEntry@@SI_NPAU1@@Z 020519ac f   Shell.obj
 0001:000509c4       ?m_StructCopy@Struct_Microsoft_Singularity_Directory_FileContract_AckClose@@SIXPAU1@0@Z 020519c4 f   Shell.obj
 0001:000509e0       ?m_StructCopy@Struct_Microsoft_Singularity_Directory_FileContract_AckClose@@SIXPAU1@PAU1@@Z 020519e0 f   Shell.obj
 0001:00050a34       ?m_Equals@Struct_Microsoft_Singularity_Directory_FileContract_AckClose@@SI_NPAU1@PAUClass_System_Object@@@Z 02051a34 f   Shell.obj
 0001:00050a6c       ?m_Equals@Struct_Microsoft_Singularity_Directory_FileContract_AckClose@@SI_NPAUClass_Microsoft_Singularity_Directory_FileContract_AckClose@@PAUClass_System_Object@@@Z 02051a6c f   Shell.obj
 0001:00050a98       ?m_ToString@Struct_System_Decimal@@SIPAUClass_System_String@@PAU1@@Z 02051a98 f   Shell.obj
 0001:00050ac0       ?m_ToString@Struct_System_Decimal@@SIPAUClass_System_String@@PAU1@PAU2@@Z 02051ac0 f   Shell.obj
 0001:00050b44       ?m_ToString@Struct_System_Decimal@@SIPAUClass_System_String@@PAUClass_System_Decimal@@@Z 02051b44 f   Shell.obj
 0001:00050b8c       ?m_ToString@Struct_System_Decimal@@SIPAUClass_System_String@@PAUClass_System_Decimal@@PAU2@@Z 02051b8c f   Shell.obj
 0001:00050bd8       ?m_StructCopy@Struct_System_Decimal@@SIXPAU1@0@Z 02051bd8 f   Shell.obj
 0001:00050c24       ?m_StructCopy@Struct_System_Decimal@@SIXPAU1@PAU1@@Z 02051c24 f   Shell.obj
 0001:00050d08       ?m_set$_mid32@Struct_System_Decimal@@SIXPAU1@I@Z 02051d08 f   Shell.obj
 0001:00050d30       ?m_set$_lo32@Struct_System_Decimal@@SIXPAU1@I@Z 02051d30 f   Shell.obj
 0001:00050d58       ?m_set$_hi32@Struct_System_Decimal@@SIXPAU1@I@Z 02051d58 f   Shell.obj
 0001:00050d80       ?m_GetHashCode@Struct_System_Decimal@@SIHPAU1@@Z 02051d80 f   Shell.obj
 0001:00050de0       ?m_GetHashCode@Struct_System_Decimal@@SIHPAUClass_System_Decimal@@@Z 02051de0 f   Shell.obj
 0001:00050e28       ?m_get$_scale@Struct_System_Decimal@@SIEPAU1@@Z 02051e28 f   Shell.obj
 0001:00050e4c       ?m_get$_negative@Struct_System_Decimal@@SI_NPAU1@@Z 02051e4c f   Shell.obj
 0001:00050e70       ?m_get$_mid32@Struct_System_Decimal@@SIIPAU1@@Z 02051e70 f   Shell.obj
 0001:00050e90       ?m_get$_lo32@Struct_System_Decimal@@SIIPAU1@@Z 02051e90 f   Shell.obj
 0001:00050eb0       ?m_get$_hi32@Struct_System_Decimal@@SIIPAU1@@Z 02051eb0 f   Shell.obj
 0001:00050ed0       ?m_Equals@Struct_System_Decimal@@SI_NPAU1@PAUClass_System_Object@@@Z 02051ed0 f   Shell.obj
 0001:00050fa4       ?m_Equals@Struct_System_Decimal@@SI_NPAUClass_System_Decimal@@PAUClass_System_Object@@@Z 02051fa4 f   Shell.obj
 0001:00050ff0       ?m_CompareTo@Struct_System_Decimal@@SIHPAU1@PAUClass_System_Object@@@Z 02051ff0 f   Shell.obj
 0001:000510f4       ?m_CompareTo@Struct_System_Decimal@@SIHPAUClass_System_Decimal@@PAUClass_System_Object@@@Z 020520f4 f   Shell.obj
 0001:00051140       ?g_Compare@Struct_System_Decimal@@SIHU1@0@Z 02052140 f   Shell.obj
 0001:00051164       ?m__ctor@Struct_System_Decimal@@SIXPAU1@H@Z 02052164 f   Shell.obj
 0001:000511c4       ?m__ctor@Struct_System_Decimal@@SIXPAU1@HHH_NE@Z 020521c4 f   Shell.obj
 0001:00051254       ?g__cctor@Struct_System_Decimal@@SIXXZ 02052254 f   Shell.obj
 0001:000513e4       ?m_StructCopy@Struct_Microsoft_Singularity_Isal_SpillContext@@SIXPAU1@0@Z 020523e4 f   Shell.obj
 0001:000514c0       ?m_StructCopy@Struct_Microsoft_Singularity_Isal_SpillContext@@SIXPAU1@PAU1@@Z 020524c0 f   Shell.obj
 0001:00051754       ?m_Equals@Struct_Microsoft_Singularity_Isal_SpillContext@@SI_NPAU1@PAUClass_System_Object@@@Z 02052754 f   Shell.obj
 0001:00051904       ?m_Equals@Struct_Microsoft_Singularity_Isal_SpillContext@@SI_NPAUClass_Microsoft_Singularity_Isal_SpillContext@@PAUClass_System_Object@@@Z 02052904 f   Shell.obj
 0001:00051930       ?m_StructCopy@Struct_Microsoft_Singularity_Isal_IX_Gdtp@@SIXPAU1@0@Z 02052930 f   Shell.obj
 0001:00051974       ?m_StructCopy@Struct_Microsoft_Singularity_Isal_IX_Gdtp@@SIXPAU1@PAU1@@Z 02052974 f   Shell.obj
 0001:00051a40       ?m_Equals@Struct_Microsoft_Singularity_Isal_IX_Gdtp@@SI_NPAU1@PAUClass_System_Object@@@Z 02052a40 f   Shell.obj
 0001:00051ab0       ?m_Equals@Struct_Microsoft_Singularity_Isal_IX_Gdtp@@SI_NPAUClass_Microsoft_Singularity_Isal_IX_Gdtp@@PAUClass_System_Object@@@Z 02052ab0 f   Shell.obj
 0001:00051adc       ?m_StructCopy@Struct_Microsoft_Singularity_V1_Services_PlatformService@@SIXPAU1@0@Z 02052adc f   Shell.obj
 0001:00051af8       ?m_StructCopy@Struct_Microsoft_Singularity_V1_Services_PlatformService@@SIXPAU1@PAU1@@Z 02052af8 f   Shell.obj
 0001:00051b4c       ?m_Equals@Struct_Microsoft_Singularity_V1_Services_PlatformService@@SI_NPAU1@PAUClass_System_Object@@@Z 02052b4c f   Shell.obj
 0001:00051b84       ?m_Equals@Struct_Microsoft_Singularity_V1_Services_PlatformService@@SI_NPAUClass_Microsoft_Singularity_V1_Services_PlatformService@@PAUClass_System_Object@@@Z 02052b84 f   Shell.obj
 0001:00051bb0       ?m_StructCopy@Struct_Microsoft_Singularity_Directory_DirectoryServiceContract_NakCreateFile@@SIXPAU1@0@Z 02052bb0 f   Shell.obj
 0001:00051bd8       ?m_StructCopy@Struct_Microsoft_Singularity_Directory_DirectoryServiceContract_NakCreateFile@@SIXPAU1@PAU1@@Z 02052bd8 f   Shell.obj
 0001:00051c50       ?m_Equals@Struct_Microsoft_Singularity_Directory_DirectoryServiceContract_NakCreateFile@@SI_NPAU1@PAUClass_System_Object@@@Z 02052c50 f   Shell.obj
 0001:00051cf0       ?m_Equals@Struct_Microsoft_Singularity_Directory_DirectoryServiceContract_NakCreateFile@@SI_NPAUClass_Microsoft_Singularity_Directory_DirectoryServiceContract_NakCreateFile@@PAUClass_System_Object@@@Z 02052cf0 f   Shell.obj
 0001:00051d1c       ?m_BoolValue@Class_Microsoft_Singularity_Applications_ScriptEngine_LessEqual@@SI_NPAU1@PAUClass_Microsoft_Singularity_Applications_ScriptEngine_Interpretation@@@Z 02052d1c f   Shell.obj
 0001:00051d88       ?m__ctor@Class_Microsoft_Singularity_Applications_ScriptEngine_LessEqual@@SIXPAU1@PAUClass_Microsoft_Singularity_Applications_ScriptEngine_Expression@@1@Z 02052d88 f   Shell.obj
 0001:00051db8       ?m__ctor@Class_System_UpdateEnlistmentLog_LogChunk@@SIXPAU1@PAUClassVector_Struct_System_UpdateEnlistmentLog_Entry@@0@Z 02052db8 f   Shell.obj
 0001:00051df4       ?g_Verify@Struct_System_GCs_PageManager_UnusedBlockHeader@@SIXPAU1@@Z 02052df4 f   Shell.obj
 0001:0005209c       ?m_StructCopy@Struct_System_GCs_PageManager_UnusedBlockHeader@@SIXPAU1@0@Z 0205309c f   Shell.obj
 0001:000520f4       ?m_StructCopy@Struct_System_GCs_PageManager_UnusedBlockHeader@@SIXPAU1@PAU1@@Z 020530f4 f   Shell.obj
 0001:000521fc       ?g_Remove@Struct_System_GCs_PageManager_UnusedBlockHeader@@SIPAUuintPtr@@PAU1@@Z 020531fc f   Shell.obj
 0001:000522c4       ?g_InsertNext@Struct_System_GCs_PageManager_UnusedBlockHeader@@SIXPAU1@0@Z 020532c4 f   Shell.obj
 0001:00052320       ?g_Initialize@Struct_System_GCs_PageManager_UnusedBlockHeader@@SIXPAU1@PAUuintPtr@@@Z 02053320 f   Shell.obj
 0001:000523a4       ?m_Equals@Struct_System_GCs_PageManager_UnusedBlockHeader@@SI_NPAU1@PAUClass_System_Object@@@Z 020533a4 f   Shell.obj
 0001:00052428       ?m_Equals@Struct_System_GCs_PageManager_UnusedBlockHeader@@SI_NPAUClass_System_GCs_PageManager_UnusedBlockHeader@@PAUClass_System_Object@@@Z 02053428 f   Shell.obj
 0001:00052454       ?m_StructCopy@Struct_Microsoft_Singularity_Io_UnicodePipeContract_Imp@@SIXPAU1@0@Z 02053454 f   Shell.obj
 0001:00052540       ?m_StructCopy@Struct_Microsoft_Singularity_Io_UnicodePipeContract_Imp@@SIXPAU1@PAU1@@Z 02053540 f   Shell.obj
 0001:00052804       ?m_SendWrite@Struct_Microsoft_Singularity_Io_UnicodePipeContract_Imp@@SIXPAU1@PA_WHH@Z 02053804 f   Shell.obj
 0001:0005292c       ?m_Release@Struct_Microsoft_Singularity_Io_UnicodePipeContract_Imp@@SIXPAU1@@Z 0205392c f   Shell.obj
 0001:00052948       ?m_RecvMoved@Struct_Microsoft_Singularity_Io_UnicodePipeContract_Imp@@SIXPAU1@@Z 02053948 f   Shell.obj
 0001:00052ac0       ?m_RecvAckWrite@Struct_Microsoft_Singularity_Io_UnicodePipeContract_Imp@@SIXPAU1@PAPA_W@Z 02053ac0 f   Shell.obj
 0001:00052c48       ?m_Peek@Struct_Microsoft_Singularity_Io_UnicodePipeContract_Imp@@SIHPAU1@@Z 02053c48 f   Shell.obj
 0001:00052df0       ?m_MarshallDeliverMoved0@Struct_Microsoft_Singularity_Io_UnicodePipeContract_Imp@@SIXPAU1@PAUStruct_Microsoft_Singularity_Channels_Endpoint@@@Z 02053df0 f   Shell.obj
 0001:00052e3c       ?m_MarshallDeliverAckWrite0@Struct_Microsoft_Singularity_Io_UnicodePipeContract_Imp@@SIXPAU1@PA_WPAUStruct_Microsoft_Singularity_Channels_Endpoint@@@Z 02053e3c f   Shell.obj
 0001:00052e8c       ?m_HeadMatches@Struct_Microsoft_Singularity_Io_UnicodePipeContract_Imp@@SI_NPAU1@HPA_NPAPAUClass_System_Object@@@Z 02053e8c f   Shell.obj
 0001:00052f4c       ?m_HeadMatches@Struct_Microsoft_Singularity_Io_UnicodePipeContract_Imp@@SI_NPAUClass_Microsoft_Singularity_Io_UnicodePipeContract_Imp@@HPA_NPAPAUClass_System_Object@@@Z 02053f4c f   Shell.obj
 0001:00052f84       ?m_Equals@Struct_Microsoft_Singularity_Io_UnicodePipeContract_Imp@@SI_NPAU1@PAUClass_System_Object@@@Z 02053f84 f   Shell.obj
 0001:000532bc       ?m_Equals@Struct_Microsoft_Singularity_Io_UnicodePipeContract_Imp@@SI_NPAUClass_Microsoft_Singularity_Io_UnicodePipeContract_Imp@@PAUClass_System_Object@@@Z 020542bc f   Shell.obj
 0001:000532e8       ?m_Dispose@Struct_Microsoft_Singularity_Io_UnicodePipeContract_Imp@@SIXPAU1@@Z 020542e8 f   Shell.obj
 0001:0005330c       ?m_Dispose@Struct_Microsoft_Singularity_Io_UnicodePipeContract_Imp@@SIXPAUClass_Microsoft_Singularity_Io_UnicodePipeContract_Imp@@@Z 0205430c f   Shell.obj
 0001:00053334       ?m_DeliverMoved0@Struct_Microsoft_Singularity_Io_UnicodePipeContract_Imp@@SIXPAU1@@Z 02054334 f   Shell.obj
 0001:00053368       ?m_DeliverAckWrite0@Struct_Microsoft_Singularity_Io_UnicodePipeContract_Imp@@SIXPAU1@PA_W@Z 02054368 f   Shell.obj
 0001:000533b0       ?m_CurrentState@Struct_Microsoft_Singularity_Io_UnicodePipeContract_Imp@@SIPAUClass_System_String@@PAU1@@Z 020543b0 f   Shell.obj
 0001:0005343c       ?m_Acquire@Struct_Microsoft_Singularity_Io_UnicodePipeContract_Imp@@SIXPAU1@@Z 0205443c f   Shell.obj
 0001:00053458       ?m__ctor@Struct_Microsoft_Singularity_Io_UnicodePipeContract_Imp@@SIXPAU1@H@Z 02054458 f   Shell.obj
 0001:00053484       ?m_StructCopy@Struct_Microsoft_Singularity_Directory_DirectoryServiceContract_NakCreateLink@@SIXPAU1@0@Z 02054484 f   Shell.obj
 0001:000534ac       ?m_StructCopy@Struct_Microsoft_Singularity_Directory_DirectoryServiceContract_NakCreateLink@@SIXPAU1@PAU1@@Z 020544ac f   Shell.obj
 0001:00053524       ?m_Equals@Struct_Microsoft_Singularity_Directory_DirectoryServiceContract_NakCreateLink@@SI_NPAU1@PAUClass_System_Object@@@Z 02054524 f   Shell.obj
 0001:000535c4       ?m_Equals@Struct_Microsoft_Singularity_Directory_DirectoryServiceContract_NakCreateLink@@SI_NPAUClass_Microsoft_Singularity_Directory_DirectoryServiceContract_NakCreateLink@@PAUClass_System_Object@@@Z 020545c4 f   Shell.obj
 0001:000535f0       ?m_StructCopy@Struct_Microsoft_Singularity_Directory_DirectoryServiceContract_EnumerationTerminated@@SIXPAU1@0@Z 020545f0 f   Shell.obj
 0001:00053618       ?m_StructCopy@Struct_Microsoft_Singularity_Directory_DirectoryServiceContract_EnumerationTerminated@@SIXPAU1@PAU1@@Z 02054618 f   Shell.obj
 0001:00053690       ?m_Equals@Struct_Microsoft_Singularity_Directory_DirectoryServiceContract_EnumerationTerminated@@SI_NPAU1@PAUClass_System_Object@@@Z 02054690 f   Shell.obj
 0001:00053730       ?m_Equals@Struct_Microsoft_Singularity_Directory_DirectoryServiceContract_EnumerationTerminated@@SI_NPAUClass_Microsoft_Singularity_Directory_DirectoryServiceContract_EnumerationTerminated@@PAUClass_System_Object@@@Z 02054730 f   Shell.obj
 0001:0005375c       ?m_Start@Class_Microsoft_Singularity_Io_PipeMultiplexer_PipeThread@@SIXPAU1@@Z 0205475c f   Shell.obj
 0001:000537c8       ?g_MessagePump@Class_Microsoft_Singularity_Io_PipeMultiplexer_PipeThread@@SIXPAUStruct_Microsoft_Singularity_Io_UnicodePipeContract_Imp@@PAUStruct_Microsoft_Singularity_Io_PipeMultiplexControl_Exp@@PAUStruct_Microsoft_Singularity_Io_UnicodePipeContract_Exp@@@Z 020547c8 f   Shell.obj
 0001:00053cfc       ?m__ctor@Class_Microsoft_Singularity_Io_PipeMultiplexer_PipeThread@@SIXPAU1@PAUStruct_Microsoft_Singularity_Io_UnicodePipeContract_Imp@@PAUStruct_Microsoft_Singularity_Io_PipeMultiplexControl_Exp@@PAUStruct_Microsoft_Singularity_Io_UnicodePipeContract_Exp@@@Z 02054cfc f   Shell.obj
 0001:00053db0       ?g__cctor@Class_Microsoft_Singularity_Io_PipeMultiplexer_PipeThread@@SIXXZ 02054db0 f   Shell.obj
 0001:00053f38       ?m_StructCopy@Struct_Microsoft_Singularity_Directory_DirectoryServiceContract_EndEnumeration@@SIXPAU1@0@Z 02054f38 f   Shell.obj
 0001:00053f54       ?m_StructCopy@Struct_Microsoft_Singularity_Directory_DirectoryServiceContract_EndEnumeration@@SIXPAU1@PAU1@@Z 02054f54 f   Shell.obj
 0001:00053fa8       ?m_MarshallContent@Struct_Microsoft_Singularity_Directory_DirectoryServiceContract_EndEnumeration@@SIXPAU1@PAEPAUStruct_Microsoft_Singularity_Channels_Endpoint@@1PAH@Z 02054fa8 f   Shell.obj
 0001:00053fc8       ?m_MarshallAll@Struct_Microsoft_Singularity_Directory_DirectoryServiceContract_EndEnumeration@@SIXPAU1@PAEPAUStruct_Microsoft_Singularity_Channels_Endpoint@@PAH@Z 02054fc8 f   Shell.obj
 0001:00054020       ?m_Equals@Struct_Microsoft_Singularity_Directory_DirectoryServiceContract_EndEnumeration@@SI_NPAU1@PAUClass_System_Object@@@Z 02055020 f   Shell.obj
 0001:00054058       ?m_Equals@Struct_Microsoft_Singularity_Directory_DirectoryServiceContract_EndEnumeration@@SI_NPAUClass_Microsoft_Singularity_Directory_DirectoryServiceContract_EndEnumeration@@PAUClass_System_Object@@@Z 02055058 f   Shell.obj
 0001:00054084       ?m_Visit@Class_System_GCs_MarkSweepCollector_UpdateReferenceVisitor@@SIXPAU1@PAPAUuintPtr@@@Z 02055084 f   Shell.obj
 0001:0005432c       ?m__ctor@Class_System_GCs_MarkSweepCollector_UpdateReferenceVisitor@@SIXPAU1@@Z 0205532c f   Shell.obj
 0001:00054350       ?m_StructCopy@Struct_Microsoft_Singularity_Diagnostics_Contracts_ProcessContract_ParentID@@SIXPAU1@0@Z 02055350 f   Shell.obj
 0001:00054378       ?m_StructCopy@Struct_Microsoft_Singularity_Diagnostics_Contracts_ProcessContract_ParentID@@SIXPAU1@PAU1@@Z 02055378 f   Shell.obj
 0001:000543f0       ?m_Equals@Struct_Microsoft_Singularity_Diagnostics_Contracts_ProcessContract_ParentID@@SI_NPAU1@PAUClass_System_Object@@@Z 020553f0 f   Shell.obj
 0001:00054438       ?m_Equals@Struct_Microsoft_Singularity_Diagnostics_Contracts_ProcessContract_ParentID@@SI_NPAUClass_Microsoft_Singularity_Diagnostics_Contracts_ProcessContract_ParentID@@PAUClass_System_Object@@@Z 02055438 f   Shell.obj
 0001:00054464       ?m_StructCopy@Struct_System_Threading_SpinLock@@SIXPAU1@0@Z 02055464 f   Shell.obj
 0001:00054490       ?m_StructCopy@Struct_System_Threading_SpinLock@@SIXPAU1@PAU1@@Z 02055490 f   Shell.obj
 0001:00054514       ?m_ReleaseInternal@Struct_System_Threading_SpinLock@@SIXPAU1@PAUClass_System_Threading_Thread@@H@Z 02055514 f   Shell.obj
 0001:00054590       ?m_Release@Struct_System_Threading_SpinLock@@SIXPAU1@@Z 02055590 f   Shell.obj
 0001:000545d4       ?m_Release@Struct_System_Threading_SpinLock@@SIXPAU1@PAUClass_System_Threading_Thread@@@Z 020555d4 f   Shell.obj
 0001:0005460c       ?m_Equals@Struct_System_Threading_SpinLock@@SI_NPAU1@PAUClass_System_Object@@@Z 0205560c f   Shell.obj
 0001:000546d0       ?m_Equals@Struct_System_Threading_SpinLock@@SI_NPAUClass_System_Threading_SpinLock@@PAUClass_System_Object@@@Z 020556d0 f   Shell.obj
 0001:000546fc       ?m_AcquireInternal@Struct_System_Threading_SpinLock@@SIXPAU1@PAUClass_System_Threading_Thread@@H@Z 020556fc f   Shell.obj
 0001:000547c4       ?m_Acquire@Struct_System_Threading_SpinLock@@SIXPAU1@@Z 020557c4 f   Shell.obj
 0001:00054808       ?m_Acquire@Struct_System_Threading_SpinLock@@SIXPAU1@PAUClass_System_Threading_Thread@@@Z 02055808 f   Shell.obj
 0001:00054840       ?m_StructCopy@Struct_Microsoft_Singularity_Directory_DirectoryServiceContract_NakDeleteDirectoryReparse@@SIXPAU1@0@Z 02055840 f   Shell.obj
 0001:00054880       ?m_StructCopy@Struct_Microsoft_Singularity_Directory_DirectoryServiceContract_NakDeleteDirectoryReparse@@SIXPAU1@PAU1@@Z 02055880 f   Shell.obj
 0001:00054940       ?m_Equals@Struct_Microsoft_Singularity_Directory_DirectoryServiceContract_NakDeleteDirectoryReparse@@SI_NPAU1@PAUClass_System_Object@@@Z 02055940 f   Shell.obj
 0001:000549a8       ?m_Equals@Struct_Microsoft_Singularity_Directory_DirectoryServiceContract_NakDeleteDirectoryReparse@@SI_NPAUClass_Microsoft_Singularity_Directory_DirectoryServiceContract_NakDeleteDirectoryReparse@@PAUClass_System_Object@@@Z 020559a8 f   Shell.obj
 0001:000549d4       ?m_StructCopy@Struct_Microsoft_Singularity_Directory_DirectoryServiceContract_NakBind@@SIXPAU1@0@Z 020559d4 f   Shell.obj
 0001:00054a08       ?m_StructCopy@Struct_Microsoft_Singularity_Directory_DirectoryServiceContract_NakBind@@SIXPAU1@PAU1@@Z 02055a08 f   Shell.obj
 0001:00054aa4       ?m_Equals@Struct_Microsoft_Singularity_Directory_DirectoryServiceContract_NakBind@@SI_NPAU1@PAUClass_System_Object@@@Z 02055aa4 f   Shell.obj
 0001:00054b58       ?m_Equals@Struct_Microsoft_Singularity_Directory_DirectoryServiceContract_NakBind@@SI_NPAUClass_Microsoft_Singularity_Directory_DirectoryServiceContract_NakBind@@PAUClass_System_Object@@@Z 02055b58 f   Shell.obj
 0001:00054b84       ?m_Verify@Class_System_GCs_Verifier_GenericStackVerifier@@SIXPAU1@PAUClass_System_GCs_NonNullReferenceVisitor@@PAUClass_System_Threading_Thread@@@Z 02055b84 f   Shell.obj
 0001:00054bb4       ?m__ctor@Class_System_GCs_Verifier_GenericStackVerifier@@SIXPAU1@@Z 02055bb4 f   Shell.obj
 0001:00054bd8       ?m_StructCopy@Struct_Microsoft_Singularity_Applications_WaitForChildContract_Imp@@SIXPAU1@0@Z 02055bd8 f   Shell.obj
 0001:00054cb4       ?m_StructCopy@Struct_Microsoft_Singularity_Applications_WaitForChildContract_Imp@@SIXPAU1@PAU1@@Z 02055cb4 f   Shell.obj
 0001:00054f48       ?m_RecvFinish@Struct_Microsoft_Singularity_Applications_WaitForChildContract_Imp@@SIXPAU1@@Z 02055f48 f   Shell.obj
 0001:000550c0       ?m_Peek@Struct_Microsoft_Singularity_Applications_WaitForChildContract_Imp@@SIHPAU1@@Z 020560c0 f   Shell.obj
 0001:00055188       ?m_MarshallDeliverFinish0@Struct_Microsoft_Singularity_Applications_WaitForChildContract_Imp@@SIXPAU1@PAUStruct_Microsoft_Singularity_Channels_Endpoint@@@Z 02056188 f   Shell.obj
 0001:000551d4       ?m_HeadMatches@Struct_Microsoft_Singularity_Applications_WaitForChildContract_Imp@@SI_NPAU1@HPA_NPAPAUClass_System_Object@@@Z 020561d4 f   Shell.obj
 0001:00055294       ?m_HeadMatches@Struct_Microsoft_Singularity_Applications_WaitForChildContract_Imp@@SI_NPAUClass_Microsoft_Singularity_Applications_WaitForChildContract_Imp@@HPA_NPAPAUClass_System_Object@@@Z 02056294 f   Shell.obj
 0001:000552cc       ?m_Equals@Struct_Microsoft_Singularity_Applications_WaitForChildContract_Imp@@SI_NPAU1@PAUClass_System_Object@@@Z 020562cc f   Shell.obj
 0001:000555a0       ?m_Equals@Struct_Microsoft_Singularity_Applications_WaitForChildContract_Imp@@SI_NPAUClass_Microsoft_Singularity_Applications_WaitForChildContract_Imp@@PAUClass_System_Object@@@Z 020565a0 f   Shell.obj
 0001:000555cc       ?m_Dispose@Struct_Microsoft_Singularity_Applications_WaitForChildContract_Imp@@SIXPAU1@@Z 020565cc f   Shell.obj
 0001:000555f0       ?m_Dispose@Struct_Microsoft_Singularity_Applications_WaitForChildContract_Imp@@SIXPAUClass_Microsoft_Singularity_Applications_WaitForChildContract_Imp@@@Z 020565f0 f   Shell.obj
 0001:00055618       ?m_DeliverFinish0@Struct_Microsoft_Singularity_Applications_WaitForChildContract_Imp@@SIXPAU1@@Z 02056618 f   Shell.obj
 0001:0005564c       ?m_CurrentState@Struct_Microsoft_Singularity_Applications_WaitForChildContract_Imp@@SIPAUClass_System_String@@PAU1@@Z 0205664c f   Shell.obj
 0001:000556c8       ?m__ctor@Struct_Microsoft_Singularity_Applications_WaitForChildContract_Imp@@SIXPAU1@H@Z 020566c8 f   Shell.obj
 0001:000556f4       ?m__ctor@Class_Microsoft_Contracts_NullException@@SIXPAU1@@Z 020566f4 f   Shell.obj
 0001:00055718       ?m_MoveNext@Class_System_Collections_Stack_StackEnumerator@@SI_NPAU1@@Z 02056718 f   Shell.obj
 0001:00055804       ?m_get$_Current@Class_System_Collections_Stack_StackEnumerator@@SIPAUClass_System_Object@@PAU1@@Z 02056804 f   Shell.obj
 0001:0005587c       ?m__ctor@Class_System_Collections_Stack_StackEnumerator@@SIXPAU1@PAUClass_System_Collections_Stack@@@Z 0205687c f   Shell.obj
 0001:000558c4       ?m_StructCopy@Struct_Microsoft_Singularity_Directory_DirectoryServiceContract_CreateLink@@SIXPAU1@0@Z 020568c4 f   Shell.obj
 0001:000558f8       ?m_StructCopy@Struct_Microsoft_Singularity_Directory_DirectoryServiceContract_CreateLink@@SIXPAU1@PAU1@@Z 020568f8 f   Shell.obj
 0001:00055994       ?m_Equals@Struct_Microsoft_Singularity_Directory_DirectoryServiceContract_CreateLink@@SI_NPAU1@PAUClass_System_Object@@@Z 02056994 f   Shell.obj
 0001:000559f0       ?m_Equals@Struct_Microsoft_Singularity_Directory_DirectoryServiceContract_CreateLink@@SI_NPAUClass_Microsoft_Singularity_Directory_DirectoryServiceContract_CreateLink@@PAUClass_System_Object@@@Z 020569f0 f   Shell.obj
 0001:00055a1c       ?m_StructCopy@Struct_Microsoft_Singularity_V1_Threads_ManualResetEventHandle@@SIXPAU1@0@Z 02056a1c f   Shell.obj
 0001:00055a44       ?m_StructCopy@Struct_Microsoft_Singularity_V1_Threads_ManualResetEventHandle@@SIXPAU1@PAU1@@Z 02056a44 f   Shell.obj
 0001:00055abc       ?m_Equals@Struct_Microsoft_Singularity_V1_Threads_ManualResetEventHandle@@SI_NPAU1@PAUClass_System_Object@@@Z 02056abc f   Shell.obj
 0001:00055b04       ?m_Equals@Struct_Microsoft_Singularity_V1_Threads_ManualResetEventHandle@@SI_NPAUClass_Microsoft_Singularity_V1_Threads_ManualResetEventHandle@@PAUClass_System_Object@@@Z 02056b04 f   Shell.obj
 0001:00055b30       ?g_Create@Struct_Microsoft_Singularity_V1_Threads_ManualResetEventHandle@@SI_N_NPAU1@@Z 02056b30 f   Shell.obj
 0001:00055b7c       ?m__ctor@Class_System_Runtime_CompilerServices_ExternalEntryPointAttribute@@SIXPAU1@@Z 02056b7c f   Shell.obj
 0001:00055ba0       ?m__ctor@Class_System_Text_RegularExpressions_RegexTree@@SIXPAU1@PAUClass_System_Text_RegularExpressions_RegexNode@@PAUClass_System_Collections_Hashtable@@PAUClassVector_Class_System_Object@@H2PAUClassVector_Class_System_String@@UStruct_System_Text_RegularExpressions_RegexOptions@@@Z 02056ba0 f   Shell.obj
 0001:00055c00       ?m_InvokeStaticStub@Class_Microsoft_Singularity_Applications_ScriptEngine_CommandLineRunner@@SIHPAU1@PAUClass_Microsoft_Singularity_Applications_ShellControl@@PAUClassVector_Class_System_String@@_N@Z 02056c00 f   Shell.obj
 0001:00055c40       ?m_Invoke@Class_Microsoft_Singularity_Applications_ScriptEngine_CommandLineRunner@@SIHPAU1@PAUClass_Microsoft_Singularity_Applications_ShellControl@@PAUClassVector_Class_System_String@@_N@Z 02056c40 f   Shell.obj
 0001:00055cbc       ?m_EndInvoke@Class_Microsoft_Singularity_Applications_ScriptEngine_CommandLineRunner@@SIHPAU1@PAUClass_System_IAsyncResult@@@Z 02056cbc f   Shell.obj
 0001:00055cd8       ?m_BeginInvoke@Class_Microsoft_Singularity_Applications_ScriptEngine_CommandLineRunner@@SIPAUClass_System_IAsyncResult@@PAU1@PAUClass_Microsoft_Singularity_Applications_ShellControl@@PAUClassVector_Class_System_String@@_NPAUClass_System_AsyncCallback@@PAUClass_System_Object@@@Z 02056cd8 f   Shell.obj
 0001:00055cf8       ?m__ctor@Class_Microsoft_Singularity_Applications_ScriptEngine_CommandLineRunner@@SIXPAU1@PAUClass_System_Object@@PAUintPtr@@@Z 02056cf8 f   Shell.obj
 0001:00055d38       ?m_set$_Value@Class_System_MutableInt32@@SIXPAU1@H@Z 02056d38 f   Shell.obj
 0001:00055d60       ?m_get$_Value@Class_System_MutableInt32@@SIHPAU1@@Z 02056d60 f   Shell.obj
 0001:00055d80       ?m__ctor@Class_System_MutableInt32@@SIXPAU1@H@Z 02056d80 f   Shell.obj
 0001:00055da8       ?g_ReleaseDirectoryServiceContract@Class_Microsoft_Singularity_Applications_Dir@@SIXPAUStruct_Microsoft_Singularity_Directory_DirectoryServiceContract_Imp@@@Z 02056da8 f   Shell.obj
 0001:00055dd0       ?g_GetDirectoryServiceContract@Class_Microsoft_Singularity_Applications_Dir@@SIPAUStruct_Microsoft_Singularity_Directory_DirectoryServiceContract_Imp@@XZ 02056dd0 f   Shell.obj
 0001:00055e58       ?m__ctor@Class_Microsoft_Singularity_Applications_Dir@@SIXPAU1@@Z 02056e58 f   Shell.obj
 0001:00055e70       ?g__cctor@Class_Microsoft_Singularity_Applications_Dir@@SIXXZ 02056e70 f   Shell.obj
 0001:00055e84       ?m__ctor@Class_System_GCs_Verifier_StackVerifier@@SIXPAU1@@Z 02056e84 f   Shell.obj
 0001:00055ea0       ?m_Microsoft_SingSharp_ITracked_Release@Class_SurrogateMicrosoft_Singularity_Io_PipeMultiplexControl_Exp@@SIXPAU1@@Z 02056ea0 f   Shell.obj
 0001:00055ec4       ?m_Microsoft_SingSharp_ITracked_Acquire@Class_SurrogateMicrosoft_Singularity_Io_PipeMultiplexControl_Exp@@SIXPAU1@@Z 02056ec4 f   Shell.obj
 0001:00055ee8       ?m_HeadMatches@Class_SurrogateMicrosoft_Singularity_Io_PipeMultiplexControl_Exp@@SI_NPAU1@HPA_NPAPAUClass_System_Object@@@Z 02056ee8 f   Shell.obj
 0001:00055f1c       ?m_GetWaitHandle@Class_SurrogateMicrosoft_Singularity_Io_PipeMultiplexControl_Exp@@SI?AUStruct_Microsoft_Singularity_V1_Threads_SyncHandle@@PAU1@@Z 02056f1c f   Shell.obj
 0001:00055f40       ?m_Dispose@Class_SurrogateMicrosoft_Singularity_Io_PipeMultiplexControl_Exp@@SIXPAU1@@Z 02056f40 f   Shell.obj
 0001:00055f64       ?g__ctor@Class_SurrogateMicrosoft_Singularity_Io_PipeMultiplexControl_Exp@@SIXPAU1@PAUStruct_Microsoft_Singularity_Io_PipeMultiplexControl_Exp@@@Z 02056f64 f   Shell.obj
 0001:00055f8c       ?m_WaitOne@Class_System_Threading_Mutex@@SI_NPAU1@@Z 02056f8c f   Shell.obj
 0001:00056000       ?m_WaitOne@Class_System_Threading_Mutex@@SI_NPAU1@UStruct_System_SchedulerTime@@@Z 02057000 f   Shell.obj
 0001:00056088       ?m_ReleaseMutex@Class_System_Threading_Mutex@@SIXPAU1@@Z 02057088 f   Shell.obj
 0001:000560c0       ?m_IsOwnedByCurrentThread@Class_System_Threading_Mutex@@SI_NPAU1@@Z 020570c0 f   Shell.obj
 0001:0005610c       ?m_Finalize@Class_System_Threading_Mutex@@SIXPAU1@@Z 0205710c f   Shell.obj
 0001:00056170       ?m_Dispose@Class_System_Threading_Mutex@@SIXPAU1@_N@Z 02057170 f   Shell.obj
 0001:000561bc       ?m_AcquireMutex@Class_System_Threading_Mutex@@SI_NPAU1@@Z 020571bc f   Shell.obj
 0001:000561e0       ?m_AcquireMutex@Class_System_Threading_Mutex@@SI_NPAU1@UStruct_System_SchedulerTime@@@Z 020571e0 f   Shell.obj
 0001:00056220       ?m__ctor@Class_System_Threading_Mutex@@SIXPAU1@@Z 02057220 f   Shell.obj
 0001:00056288       ?g_LoopInvariant@Class_Microsoft_Contracts_AssertHelpers@@SIXPAUClass_System_String@@0@Z 02057288 f   Shell.obj
 0001:000562a4       ?g_AssumeStatement@Class_Microsoft_Contracts_AssertHelpers@@SIXPAUClass_System_String@@@Z 020572a4 f   Shell.obj
 0001:000562c0       ?g_Assume@Class_Microsoft_Contracts_AssertHelpers@@SIX_N@Z 020572c0 f   Shell.obj
 0001:00056304       ?g_AssertStatement@Class_Microsoft_Contracts_AssertHelpers@@SIXPAUClass_System_String@@0@Z 02057304 f   Shell.obj
 0001:00056320       ?g_Assert@Class_Microsoft_Contracts_AssertHelpers@@SIX_N@Z 02057320 f   Shell.obj
 0001:00056364       ?m__ctor@Class_Microsoft_Contracts_AssertHelpers@@SIXPAU1@@Z 02057364 f   Shell.obj
 0001:0005637c       ?m_StructCopy@Struct_Microsoft_Singularity_Directory_DirectoryServiceContract_StoreACL@@SIXPAU1@0@Z 0205737c f   Shell.obj
 0001:000563bc       ?m_StructCopy@Struct_Microsoft_Singularity_Directory_DirectoryServiceContract_StoreACL@@SIXPAU1@PAU1@@Z 020573bc f   Shell.obj
 0001:0005647c       ?m_Equals@Struct_Microsoft_Singularity_Directory_DirectoryServiceContract_StoreACL@@SI_NPAU1@PAUClass_System_Object@@@Z 0205747c f   Shell.obj
 0001:000564e4       ?m_Equals@Struct_Microsoft_Singularity_Directory_DirectoryServiceContract_StoreACL@@SI_NPAUClass_Microsoft_Singularity_Directory_DirectoryServiceContract_StoreACL@@PAUClass_System_Object@@@Z 020574e4 f   Shell.obj
 0001:00056510       ?m__ctor@Class_System_GCs_StopTheWorldGCData@@SIXPAU1@@Z 02057510 f   Shell.obj
 0001:00056528       ?m_SetSymbol@Class_Microsoft_Singularity_Applications_ScriptEngine_Interpretation@@SIXPAU1@PAUClass_System_String@@PAUClass_System_Object@@@Z 02057528 f   Shell.obj
 0001:00056564       ?m_set$_ExitCode@Class_Microsoft_Singularity_Applications_ScriptEngine_Interpretation@@SIXPAU1@H@Z 02057564 f   Shell.obj
 0001:000565b0       ?m_set$_Exit@Class_Microsoft_Singularity_Applications_ScriptEngine_Interpretation@@SIXPAU1@_N@Z 020575b0 f   Shell.obj
 0001:000565d8       ?m_LookupSymbol@Class_Microsoft_Singularity_Applications_ScriptEngine_Interpretation@@SIPAUClass_System_Object@@PAU1@PAUClass_System_String@@@Z 020575d8 f   Shell.obj
 0001:00056644       ?m_get$_ExitCode@Class_Microsoft_Singularity_Applications_ScriptEngine_Interpretation@@SIHPAU1@@Z 02057644 f   Shell.obj
 0001:000566b8       ?m_get$_Exit@Class_Microsoft_Singularity_Applications_ScriptEngine_Interpretation@@SI_NPAU1@@Z 020576b8 f   Shell.obj
 0001:000566ec       ?m__ctor@Class_Microsoft_Singularity_Applications_ScriptEngine_Interpretation@@SIXPAU1@PAUClass_Microsoft_Singularity_Applications_ScriptEngine_CommandLineRunner@@PAUClassVector_Class_System_String@@@Z 020576ec f   Shell.obj
 0001:000567e0       ?g__cctor@Class_Microsoft_Singularity_Applications_ScriptEngine_Interpretation@@SIXXZ 020577e0 f   Shell.obj
 0001:00056810       ?m_StructCopy@Struct_Microsoft_Singularity_Isal_IX_MmxContext@@SIXPAU1@0@Z 02057810 f   Shell.obj
 0001:00056b58       ?m_StructCopy@Struct_Microsoft_Singularity_Isal_IX_MmxContext@@SIXPAU1@PAU1@@Z 02057b58 f   Shell.obj
 0001:00057530       ?m_Equals@Struct_Microsoft_Singularity_Isal_IX_MmxContext@@SI_NPAU1@PAUClass_System_Object@@@Z 02058530 f   Shell.obj
 0001:00058950       ?m_Equals@Struct_Microsoft_Singularity_Isal_IX_MmxContext@@SI_NPAUClass_Microsoft_Singularity_Isal_IX_MmxContext@@PAUClass_System_Object@@@Z 02059950 f   Shell.obj
 0001:0005897c       ?m_ToString@uintPtr@@SIPAUClass_System_String@@PAPAU1@@Z 0205997c f   Shell.obj
 0001:000589b0       ?m_ToString@uintPtr@@SIPAUClass_System_String@@PAPAU1@PAU2@@Z 020599b0 f   Shell.obj
 0001:000589e8       ?m_ToString@uintPtr@@SIPAUClass_System_String@@PAUClass_System_UIntPtr@@@Z 020599e8 f   Shell.obj
 0001:00058a3c       ?m_ToString@uintPtr@@SIPAUClass_System_String@@PAUClass_System_UIntPtr@@PAU2@@Z 02059a3c f   Shell.obj
 0001:00058a94       ?m_GetHashCode@uintPtr@@SIHPAPAU1@@Z 02059a94 f   Shell.obj
 0001:00058ab8       ?m_GetHashCode@uintPtr@@SIHPAUClass_System_UIntPtr@@@Z 02059ab8 f   Shell.obj
 0001:00058af4       ?m_Equals@uintPtr@@SI_NPAPAU1@PAUClass_System_Object@@@Z 02059af4 f   Shell.obj
 0001:00058b50       ?m_Equals@uintPtr@@SI_NPAUClass_System_UIntPtr@@PAUClass_System_Object@@@Z 02059b50 f   Shell.obj
 0001:00058bd8       ?m_StructCopy@Struct_Microsoft_Singularity_Directory_DirectoryServiceContract_NakGetLinkValue@@SIXPAU1@0@Z 02059bd8 f   Shell.obj
 0001:00058c00       ?m_StructCopy@Struct_Microsoft_Singularity_Directory_DirectoryServiceContract_NakGetLinkValue@@SIXPAU1@PAU1@@Z 02059c00 f   Shell.obj
 0001:00058c78       ?m_Equals@Struct_Microsoft_Singularity_Directory_DirectoryServiceContract_NakGetLinkValue@@SI_NPAU1@PAUClass_System_Object@@@Z 02059c78 f   Shell.obj
 0001:00058d18       ?m_Equals@Struct_Microsoft_Singularity_Directory_DirectoryServiceContract_NakGetLinkValue@@SI_NPAUClass_Microsoft_Singularity_Directory_DirectoryServiceContract_NakGetLinkValue@@PAUClass_System_Object@@@Z 02059d18 f   Shell.obj
 0001:00058d44       ?g_StableState@Class_Microsoft_Singularity_Directory_ServiceProviderContract@@SIHPAUStruct_Microsoft_Singularity_Channels_StateStack@@@Z 02059d44 f   Shell.obj
 0001:00058da0       ?m__ctor@Class_Microsoft_Singularity_Directory_ServiceProviderContract@@SIXPAU1@@Z 02059da0 f   Shell.obj
 0001:00058db8       ?m_StructCopy@Struct_Microsoft_Singularity_Directory_DirectoryServiceContract_AckRegister@@SIXPAU1@0@Z 02059db8 f   Shell.obj
 0001:00058dd4       ?m_StructCopy@Struct_Microsoft_Singularity_Directory_DirectoryServiceContract_AckRegister@@SIXPAU1@PAU1@@Z 02059dd4 f   Shell.obj
 0001:00058e28       ?m_Equals@Struct_Microsoft_Singularity_Directory_DirectoryServiceContract_AckRegister@@SI_NPAU1@PAUClass_System_Object@@@Z 02059e28 f   Shell.obj
 0001:00058e60       ?m_Equals@Struct_Microsoft_Singularity_Directory_DirectoryServiceContract_AckRegister@@SI_NPAUClass_Microsoft_Singularity_Directory_DirectoryServiceContract_AckRegister@@PAUClass_System_Object@@@Z 02059e60 f   Shell.obj
 0001:00058e8c       ?m_Interpret@Class_Microsoft_Singularity_Applications_ScriptEngine_While@@SIXPAU1@PAUClass_Microsoft_Singularity_Applications_ShellControl@@PAUClass_Microsoft_Singularity_Applications_ScriptEngine_Interpretation@@@Z 02059e8c f   Shell.obj
 0001:00058f00       ?m__ctor@Class_Microsoft_Singularity_Applications_ScriptEngine_While@@SIXPAU1@PAUClass_Microsoft_Singularity_Applications_ScriptEngine_Expression@@PAUClass_Microsoft_Singularity_Applications_ScriptEngine_Block@@@Z 02059f00 f   Shell.obj
 0001:00058f38       ?m_StructCopy@Struct_System_TryAll@@SIXPAU1@0@Z 02059f38 f   Shell.obj
 0001:00058fb4       ?m_StructCopy@Struct_System_TryAll@@SIXPAU1@PAU1@@Z 02059fb4 f   Shell.obj
 0001:00059128       ?m_Equals@Struct_System_TryAll@@SI_NPAU1@PAUClass_System_Object@@@Z 0205a128 f   Shell.obj
 0001:0005941c       ?m_Equals@Struct_System_TryAll@@SI_NPAUClass_System_TryAll@@PAUClass_System_Object@@@Z 0205a41c f   Shell.obj
 0001:00059448       ?m_StructCopy@Struct_Microsoft_Singularity_Directory_DirectoryServiceContract_Exp@@SIXPAU1@0@Z 0205a448 f   Shell.obj
 0001:00059670       ?m_StructCopy@Struct_Microsoft_Singularity_Directory_DirectoryServiceContract_Exp@@SIXPAU1@PAU1@@Z 0205a670 f   Shell.obj
 0001:00059ce8       ?m_Peek@Struct_Microsoft_Singularity_Directory_DirectoryServiceContract_Exp@@SIHPAU1@@Z 0205ace8 f   Shell.obj
 0001:0005a690       ?m_MarshallDeliverReadEnumeration1@Struct_Microsoft_Singularity_Directory_DirectoryServiceContract_Exp@@SIXPAU1@PAUStruct_Microsoft_Singularity_Channels_Endpoint@@@Z 0205b690 f   Shell.obj
 0001:0005a6dc       ?m_MarshallDeliverGetLinkValue0@Struct_Microsoft_Singularity_Directory_DirectoryServiceContract_Exp@@SIXPAU1@PA_WPAUStruct_Microsoft_Singularity_Channels_Endpoint@@@Z 0205b6dc f   Shell.obj
 0001:0005a738       ?m_MarshallDeliverGetAttributes0@Struct_Microsoft_Singularity_Directory_DirectoryServiceContract_Exp@@SIXPAU1@PA_WPAUStruct_Microsoft_Singularity_Channels_Endpoint@@@Z 0205b738 f   Shell.obj
 0001:0005a790       ?m_MarshallDeliverEndEnumeration1@Struct_Microsoft_Singularity_Directory_DirectoryServiceContract_Exp@@SIXPAU1@PAUStruct_Microsoft_Singularity_Channels_Endpoint@@@Z 0205b790 f   Shell.obj
 0001:0005a7dc       ?m_MarshallDeliverBind0@Struct_Microsoft_Singularity_Directory_DirectoryServiceContract_Exp@@SIXPAU1@PA_WPAUStruct_Microsoft_Singularity_Directory_ServiceContract_Exp@@PAUStruct_Microsoft_Singularity_Channels_Endpoint@@@Z 0205b7dc f   Shell.obj
 0001:0005a838       ?m_MarshallDeliverBeginEnumeration0@Struct_Microsoft_Singularity_Directory_DirectoryServiceContract_Exp@@SIXPAU1@PAUStruct_Microsoft_Singularity_Channels_Endpoint@@@Z 0205b838 f   Shell.obj
 0001:0005a88c       ?m_HeadMatches@Struct_Microsoft_Singularity_Directory_DirectoryServiceContract_Exp@@SI_NPAU1@HPA_NPAPAUClass_System_Object@@@Z 0205b88c f   Shell.obj
 0001:0005a94c       ?m_HeadMatches@Struct_Microsoft_Singularity_Directory_DirectoryServiceContract_Exp@@SI_NPAUClass_Microsoft_Singularity_Directory_DirectoryServiceContract_Exp@@HPA_NPAPAUClass_System_Object@@@Z 0205b94c f   Shell.obj
 0001:0005a984       ?m_Equals@Struct_Microsoft_Singularity_Directory_DirectoryServiceContract_Exp@@SI_NPAU1@PAUClass_System_Object@@@Z 0205b984 f   Shell.obj
 0001:0005b4e8       ?m_Equals@Struct_Microsoft_Singularity_Directory_DirectoryServiceContract_Exp@@SI_NPAUClass_Microsoft_Singularity_Directory_DirectoryServiceContract_Exp@@PAUClass_System_Object@@@Z 0205c4e8 f   Shell.obj
 0001:0005b514       ?m_Dispose@Struct_Microsoft_Singularity_Directory_DirectoryServiceContract_Exp@@SIXPAU1@@Z 0205c514 f   Shell.obj
 0001:0005b538       ?m_Dispose@Struct_Microsoft_Singularity_Directory_DirectoryServiceContract_Exp@@SIXPAUClass_Microsoft_Singularity_Directory_DirectoryServiceContract_Exp@@@Z 0205c538 f   Shell.obj
 0001:0005b560       ?m_DeliverReadEnumeration1@Struct_Microsoft_Singularity_Directory_DirectoryServiceContract_Exp@@SIXPAU1@@Z 0205c560 f   Shell.obj
 0001:0005b594       ?m_DeliverGetLinkValue0@Struct_Microsoft_Singularity_Directory_DirectoryServiceContract_Exp@@SIXPAU1@PA_W@Z 0205c594 f   Shell.obj
 0001:0005b5e0       ?m_DeliverGetAttributes0@Struct_Microsoft_Singularity_Directory_DirectoryServiceContract_Exp@@SIXPAU1@PA_W@Z 0205c5e0 f   Shell.obj
 0001:0005b628       ?m_DeliverEndEnumeration1@Struct_Microsoft_Singularity_Directory_DirectoryServiceContract_Exp@@SIXPAU1@@Z 0205c628 f   Shell.obj
 0001:0005b65c       ?m_DeliverBind0@Struct_Microsoft_Singularity_Directory_DirectoryServiceContract_Exp@@SIXPAU1@PA_WPAUStruct_Microsoft_Singularity_Directory_ServiceContract_Exp@@@Z 0205c65c f   Shell.obj
 0001:0005b6ac       ?m_DeliverBeginEnumeration0@Struct_Microsoft_Singularity_Directory_DirectoryServiceContract_Exp@@SIXPAU1@@Z 0205c6ac f   Shell.obj
 0001:0005b6e0       ?m__ctor@Struct_Microsoft_Singularity_Directory_DirectoryServiceContract_Exp@@SIXPAU1@H@Z 0205c6e0 f   Shell.obj
 0001:0005b70c       ?m_ToString@intPtr@@SIPAUClass_System_String@@PAPAU1@@Z 0205c70c f   Shell.obj
 0001:0005b740       ?m_ToString@intPtr@@SIPAUClass_System_String@@PAUClass_System_IntPtr@@@Z 0205c740 f   Shell.obj
 0001:0005b794       ?m_GetHashCode@intPtr@@SIHPAPAU1@@Z 0205c794 f   Shell.obj
 0001:0005b7b4       ?m_GetHashCode@intPtr@@SIHPAUClass_System_IntPtr@@@Z 0205c7b4 f   Shell.obj
 0001:0005b7dc       ?m_Equals@intPtr@@SI_NPAPAU1@PAUClass_System_Object@@@Z 0205c7dc f   Shell.obj
 0001:0005b838       ?m_Equals@intPtr@@SI_NPAUClass_System_IntPtr@@PAUClass_System_Object@@@Z 0205c838 f   Shell.obj
 0001:0005b864       ?m_StructCopy@Struct_Microsoft_Singularity_Isal_IX_DescriptorTable@@SIXPAU1@0@Z 0205c864 f   Shell.obj
 0001:0005b8a0       ?m_StructCopy@Struct_Microsoft_Singularity_Isal_IX_DescriptorTable@@SIXPAU1@PAU1@@Z 0205c8a0 f   Shell.obj
 0001:0005b954       ?m_Equals@Struct_Microsoft_Singularity_Isal_IX_DescriptorTable@@SI_NPAU1@PAUClass_System_Object@@@Z 0205c954 f   Shell.obj
 0001:0005bacc       ?m_Equals@Struct_Microsoft_Singularity_Isal_IX_DescriptorTable@@SI_NPAUClass_Microsoft_Singularity_Isal_IX_DescriptorTable@@PAUClass_System_Object@@@Z 0205cacc f   Shell.obj
 0001:0005baf8       ?g_Create@Class_Microsoft_Singularity_Eventing_ControllerLogger@@SIPAU1@PAUClass_System_String@@PAUClass_Microsoft_Singularity_Eventing_EventingStorage@@@Z 0205caf8 f   Shell.obj
 0001:0005bb6c       ?m__ctor@Class_Microsoft_Singularity_Eventing_ControllerLogger@@SIXPAU1@PAUClass_System_String@@PAUClass_Microsoft_Singularity_Eventing_EventingStorage@@I@Z 0205cb6c f   Shell.obj
 0001:0005bba0       ?m_StructCopy@Struct_Microsoft_Singularity_Diagnostics_Contracts_ProcessContract_Ready@@SIXPAU1@0@Z 0205cba0 f   Shell.obj
 0001:0005bbbc       ?m_StructCopy@Struct_Microsoft_Singularity_Diagnostics_Contracts_ProcessContract_Ready@@SIXPAU1@PAU1@@Z 0205cbbc f   Shell.obj
 0001:0005bc10       ?m_Equals@Struct_Microsoft_Singularity_Diagnostics_Contracts_ProcessContract_Ready@@SI_NPAU1@PAUClass_System_Object@@@Z 0205cc10 f   Shell.obj
 0001:0005bc48       ?m_Equals@Struct_Microsoft_Singularity_Diagnostics_Contracts_ProcessContract_Ready@@SI_NPAUClass_Microsoft_Singularity_Diagnostics_Contracts_ProcessContract_Ready@@PAUClass_System_Object@@@Z 0205cc48 f   Shell.obj
 0001:0005bc74       ?m_StructCopy@Struct_Microsoft_Singularity_Directory_DirectoryServiceContract_CreateFile@@SIXPAU1@0@Z 0205cc74 f   Shell.obj
 0001:0005bc9c       ?m_StructCopy@Struct_Microsoft_Singularity_Directory_DirectoryServiceContract_CreateFile@@SIXPAU1@PAU1@@Z 0205cc9c f   Shell.obj
 0001:0005bd14       ?m_Equals@Struct_Microsoft_Singularity_Directory_DirectoryServiceContract_CreateFile@@SI_NPAU1@PAUClass_System_Object@@@Z 0205cd14 f   Shell.obj
 0001:0005bd5c       ?m_Equals@Struct_Microsoft_Singularity_Directory_DirectoryServiceContract_CreateFile@@SI_NPAUClass_Microsoft_Singularity_Directory_DirectoryServiceContract_CreateFile@@PAUClass_System_Object@@@Z 0205cd5c f   Shell.obj
 0001:0005bd88       ?m_StructCopy@Struct_Microsoft_Singularity_Isal_IX_PE@@SIXPAU1@0@Z 0205cd88 f   Shell.obj
 0001:0005bda4       ?m_StructCopy@Struct_Microsoft_Singularity_Isal_IX_PE@@SIXPAU1@PAU1@@Z 0205cda4 f   Shell.obj
 0001:0005bdf8       ?m_Equals@Struct_Microsoft_Singularity_Isal_IX_PE@@SI_NPAU1@PAUClass_System_Object@@@Z 0205cdf8 f   Shell.obj
 0001:0005be30       ?m_Equals@Struct_Microsoft_Singularity_Isal_IX_PE@@SI_NPAUClass_Microsoft_Singularity_Isal_IX_PE@@PAUClass_System_Object@@@Z 0205ce30 f   Shell.obj
 0001:0005be5c       ?g_WriterIsValid@Class_System_UpdateLog@@SI_NUStruct_System_UpdateLogWriter@@@Z 0205ce5c f   Shell.obj
 0001:0005be7c       ?m_VisitWeakRefs@Class_System_UpdateLog@@SIXPAU1@PAUClass_System_TryAllManager@@PAUClass_System_GCs_DirectReferenceVisitor@@@Z 0205ce7c f   Shell.obj
 0001:0005c338       ?m_VisitStrongRefs@Class_System_UpdateLog@@SIXPAU1@PAUClass_System_TryAllManager@@PAUClass_System_GCs_DirectReferenceVisitor@@@Z 0205d338 f   Shell.obj
 0001:0005c55c       ?g_SyncFromWriter@Class_System_UpdateLog@@SIXPAUClass_System_TryAllManager@@@Z 0205d55c f   Shell.obj
 0001:0005c5e0       ?g_InitWriter@Class_System_UpdateLog@@SIXPAUClass_System_TryAllManager@@@Z 0205d5e0 f   Shell.obj
 0001:0005c65c       ?m_get$_CurrentLocation@Class_System_UpdateLog@@SI?AUStruct_System_UpdateLog_Location@@PAU1@@Z 0205d65c f   Shell.obj
 0001:0005c6f0       ?m_AddrToIndex@Class_System_UpdateLog@@SIIPAU1@PAUStruct_System_UpdateLog_Entry@@@Z 0205d6f0 f   Shell.obj
 0001:0005c780       ?m_AddrOfEntry@Class_System_UpdateLog@@SIPAUStruct_System_UpdateLog_Entry@@PAU1@H@Z 0205d780 f   Shell.obj
 0001:0005c820       ?m__ctor@Class_System_UpdateLog@@SIXPAU1@@Z 0205d820 f   Shell.obj
 0001:0005c884       ?m_GetHandle@Class_Microsoft_Singularity_Eventing_EventingStorage@@SIPAUuintPtr@@PAU1@@Z 0205d884 f   Shell.obj
 0001:0005c8a4       ?m_GetController@Class_Microsoft_Singularity_Eventing_EventingStorage@@SIPAUClass_Microsoft_Singularity_Eventing_Controller@@PAU1@@Z 0205d8a4 f   Shell.obj
 0001:0005c8d8       ?g_CreateStorageFromHandle@Class_Microsoft_Singularity_Eventing_EventingStorage@@SIPAU1@PAUuintPtr@@@Z 0205d8d8 f   Shell.obj
 0001:0005c950       ?g_CreateLocalStorage@Class_Microsoft_Singularity_Eventing_EventingStorage@@SIPAU1@II@Z 0205d950 f   Shell.obj
 0001:0005c9d0       ?m_AddBuffer@Class_Microsoft_Singularity_Eventing_EventingStorage@@SI_NPAU1@_K@Z 0205d9d0 f   Shell.obj
 0001:0005c9f0       ?m__ctor@Class_Microsoft_Singularity_Eventing_EventingStorage@@SIXPAU1@@Z 0205d9f0 f   Shell.obj
 0001:0005ca0c       ?m_Compare@Class_System_Text_RegularExpressions_RegexCharClass_SingleRangeComparer@@SIHPAU1@PAUClass_System_Object@@1@Z 0205da0c f   Shell.obj
 0001:0005ca78       ?m__ctor@Class_System_Text_RegularExpressions_RegexCharClass_SingleRangeComparer@@SIXPAU1@@Z 0205da78 f   Shell.obj
 0001:0005ca94       ?m_VisitReferenceFields@Class_System_GCs_MarkSweepCollector_MarkReferenceVisitor@@SIPAUuintPtr@@PAU1@PAU2@PAUClass_System_VTable@@@Z 0205da94 f   Shell.obj
 0001:0005d230       ?m_VisitReferenceFields@Class_System_GCs_MarkSweepCollector_MarkReferenceVisitor@@SIPAUuintPtr@@PAU1@PAUClass_System_Object@@@Z 0205e230 f   Shell.obj
 0001:0005d298       ?m_Visit@Class_System_GCs_MarkSweepCollector_MarkReferenceVisitor@@SIXPAU1@PAPAUuintPtr@@@Z 0205e298 f   Shell.obj
 0001:0005d594       ?m_ProcessScheduledObjects@Class_System_GCs_MarkSweepCollector_MarkReferenceVisitor@@SIXPAU1@@Z 0205e594 f   Shell.obj
 0001:0005d640       ?m_Filter@Class_System_GCs_MarkSweepCollector_MarkReferenceVisitor@@SIXPAU1@PAPAUuintPtr@@PAUStruct_System_GCs_ReferenceVisitor_ObjectDescriptor@@@Z 0205e640 f   Shell.obj
 0001:0005d678       ?m_Cleanup@Class_System_GCs_MarkSweepCollector_MarkReferenceVisitor@@SIXPAU1@@Z 0205e678 f   Shell.obj
 0001:0005d6b0       ?m__ctor@Class_System_GCs_MarkSweepCollector_MarkReferenceVisitor@@SIXPAU1@@Z 0205e6b0 f   Shell.obj
 0001:0005d6d4       ?m__ctor@Class_Microsoft_Singularity_Tracing@@SIXPAU1@@Z 0205e6d4 f   Shell.obj
 0001:0005d6f0       ?m_StructCopy@Struct_System_VarargList@@SIXPAU1@0@Z 0205e6f0 f   Shell.obj
 0001:0005d718       ?m_StructCopy@Struct_System_VarargList@@SIXPAU1@PAU1@@Z 0205e718 f   Shell.obj
 0001:0005d790       ?m_Equals@Struct_System_VarargList@@SI_NPAU1@PAUClass_System_Object@@@Z 0205e790 f   Shell.obj
 0001:0005d7d8       ?m_Equals@Struct_System_VarargList@@SI_NPAUClass_System_VarargList@@PAUClass_System_Object@@@Z 0205e7d8 f   Shell.obj
 0001:0005d804       ?g_Create@Struct_System_VarargList@@SI?AU1@H@Z 0205e804 f   Shell.obj
 0001:0005d834       ?m_StructCopy@Struct_Microsoft_Singularity_Directory_FileContract_Imp@@SIXPAU1@0@Z 0205e834 f   Shell.obj
 0001:0005d954       ?m_StructCopy@Struct_Microsoft_Singularity_Directory_FileContract_Imp@@SIXPAU1@PAU1@@Z 0205e954 f   Shell.obj
 0001:0005dcb4       ?m_SendRead@Struct_Microsoft_Singularity_Directory_FileContract_Imp@@SIXPAU1@PAE_J22@Z 0205ecb4 f   Shell.obj
 0001:0005de00       ?m_RecvSuccess@Struct_Microsoft_Singularity_Directory_FileContract_Imp@@SIXPAU1@@Z 0205ee00 f   Shell.obj
 0001:0005df78       ?m_RecvAckRead@Struct_Microsoft_Singularity_Directory_FileContract_Imp@@SIXPAU1@PAPAEPA_JPAH@Z 0205ef78 f   Shell.obj
 0001:0005e130       ?m_Peek@Struct_Microsoft_Singularity_Directory_FileContract_Imp@@SIHPAU1@@Z 0205f130 f   Shell.obj
 0001:0005e3c4       ?m_HeadMatches@Struct_Microsoft_Singularity_Directory_FileContract_Imp@@SI_NPAU1@HPA_NPAPAUClass_System_Object@@@Z 0205f3c4 f   Shell.obj
 0001:0005e484       ?m_HeadMatches@Struct_Microsoft_Singularity_Directory_FileContract_Imp@@SI_NPAUClass_Microsoft_Singularity_Directory_FileContract_Imp@@HPA_NPAPAUClass_System_Object@@@Z 0205f484 f   Shell.obj
 0001:0005e4bc       ?m_Equals@Struct_Microsoft_Singularity_Directory_FileContract_Imp@@SI_NPAU1@PAUClass_System_Object@@@Z 0205f4bc f   Shell.obj
 0001:0005e9b8       ?m_Equals@Struct_Microsoft_Singularity_Directory_FileContract_Imp@@SI_NPAUClass_Microsoft_Singularity_Directory_FileContract_Imp@@PAUClass_System_Object@@@Z 0205f9b8 f   Shell.obj
 0001:0005e9e4       ?m_Dispose@Struct_Microsoft_Singularity_Directory_FileContract_Imp@@SIXPAU1@@Z 0205f9e4 f   Shell.obj
 0001:0005ea08       ?m_Dispose@Struct_Microsoft_Singularity_Directory_FileContract_Imp@@SIXPAUClass_Microsoft_Singularity_Directory_FileContract_Imp@@@Z 0205fa08 f   Shell.obj
 0001:0005ea30       ?m_CurrentState@Struct_Microsoft_Singularity_Directory_FileContract_Imp@@SIPAUClass_System_String@@PAU1@@Z 0205fa30 f   Shell.obj
 0001:0005eaf4       ?m__ctor@Struct_Microsoft_Singularity_Directory_FileContract_Imp@@SIXPAU1@H@Z 0205faf4 f   Shell.obj
 0001:0005eb20       ?m_Unlink@Class_Microsoft_Singularity_Channels_ESet$_2$LMicrosoft_Singularity_Io_UnicodePipeContract_Exp_Microsoft_Singularity_Io_UnicodePipeContract_ACK$G_Node@@SIPAUStruct_Microsoft_Singularity_Io_UnicodePipeContract_Exp@@PAU1@PAUClass_Microsoft_Singularity_Channels_ESet$_2$LMicrosoft_Singularity_Io_UnicodePipeContract_Exp_Microsoft_Singularity_Io_UnicodePipeContract_ACK$G@@@Z 0205fb20 f   Shell.obj
 0001:0005ec34       ?m_LinkAsNext@Class_Microsoft_Singularity_Channels_ESet$_2$LMicrosoft_Singularity_Io_UnicodePipeContract_Exp_Microsoft_Singularity_Io_UnicodePipeContract_ACK$G_Node@@SIXPAU1@PAUStruct_Microsoft_Singularity_Io_UnicodePipeContract_Exp@@PAUClass_Microsoft_Singularity_Channels_ESet$_2$LMicrosoft_Singularity_Io_UnicodePipeContract_Exp_Microsoft_Singularity_Io_UnicodePipeContract_ACK$G@@@Z 0205fc34 f   Shell.obj
 0001:0005ecb0       ?m_Init@Class_Microsoft_Singularity_Channels_ESet$_2$LMicrosoft_Singularity_Io_UnicodePipeContract_Exp_Microsoft_Singularity_Io_UnicodePipeContract_ACK$G_Node@@SIXPAU1@PAUStruct_Microsoft_Singularity_Io_UnicodePipeContract_Exp@@PAUClass_Microsoft_Singularity_Channels_ESet$_2$LMicrosoft_Singularity_Io_UnicodePipeContract_Exp_Microsoft_Singularity_Io_UnicodePipeContract_ACK$G@@@Z 0205fcb0 f   Shell.obj
 0001:0005ece0       ?m__ctor@Class_Microsoft_Singularity_Channels_ESet$_2$LMicrosoft_Singularity_Io_UnicodePipeContract_Exp_Microsoft_Singularity_Io_UnicodePipeContract_ACK$G_Node@@SIXPAU1@PAUStruct_Microsoft_Singularity_Io_UnicodePipeContract_Exp@@PAUClass_Microsoft_Singularity_Channels_ESet$_2$LMicrosoft_Singularity_Io_UnicodePipeContract_Exp_Microsoft_Singularity_Io_UnicodePipeContract_ACK$G@@@Z 0205fce0 f   Shell.obj
 0001:0005ed24       ?m__ctor@Class_Microsoft_Singularity_Channels_ESet$_2$LMicrosoft_Singularity_Io_UnicodePipeContract_Exp_Microsoft_Singularity_Io_UnicodePipeContract_ACK$G_Node@@SIXPAU1@PAUClass_Microsoft_Singularity_Channels_ESet$_2$LMicrosoft_Singularity_Io_UnicodePipeContract_Exp_Microsoft_Singularity_Io_UnicodePipeContract_ACK$G@@@Z 0205fd24 f   Shell.obj
 0001:0005ed58       ?m_StructCopy@Struct_Microsoft_Singularity_Directory_DirectoryServiceContract_GetAttributes@@SIXPAU1@0@Z 0205fd58 f   Shell.obj
 0001:0005ed80       ?m_StructCopy@Struct_Microsoft_Singularity_Directory_DirectoryServiceContract_GetAttributes@@SIXPAU1@PAU1@@Z 0205fd80 f   Shell.obj
 0001:0005edf8       ?m_MarshallContent@Struct_Microsoft_Singularity_Directory_DirectoryServiceContract_GetAttributes@@SIXPAU1@PAEPAUStruct_Microsoft_Singularity_Channels_Endpoint@@1PAH@Z 0205fdf8 f   Shell.obj
 0001:0005eeb8       ?m_MarshallAll@Struct_Microsoft_Singularity_Directory_DirectoryServiceContract_GetAttributes@@SIXPAU1@PAEPAUStruct_Microsoft_Singularity_Channels_Endpoint@@PAH@Z 0205feb8 f   Shell.obj
 0001:0005ef10       ?m_Equals@Struct_Microsoft_Singularity_Directory_DirectoryServiceContract_GetAttributes@@SI_NPAU1@PAUClass_System_Object@@@Z 0205ff10 f   Shell.obj
 0001:0005ef58       ?m_Equals@Struct_Microsoft_Singularity_Directory_DirectoryServiceContract_GetAttributes@@SI_NPAUClass_Microsoft_Singularity_Directory_DirectoryServiceContract_GetAttributes@@PAUClass_System_Object@@@Z 0205ff58 f   Shell.obj
 0001:0005ef84       ?m_VisitSmall@Class_System_GCs_SegregatedFreeList_ObjectVisitorWrapper@@SIXPAU1@PAUClass_System_Object@@PAUuintPtr@@@Z 0205ff84 f   Shell.obj
 0001:0005efb0       ?m_VisitLarge@Class_System_GCs_SegregatedFreeList_ObjectVisitorWrapper@@SIPAUuintPtr@@PAU1@PAUClass_System_Object@@@Z 0205ffb0 f   Shell.obj
 0001:0005efdc       ?m__ctor@Class_System_GCs_SegregatedFreeList_ObjectVisitorWrapper@@SIXPAU1@PAUClass_System_GCs_ObjectLayout_ObjectVisitor@@@Z 0205ffdc f   Shell.obj
 0001:0005f00c       ?m_StructCopy@Struct_Microsoft_Singularity_Directory_DirectoryServiceContract_NakNotify@@SIXPAU1@0@Z 0206000c f   Shell.obj
 0001:0005f040       ?m_StructCopy@Struct_Microsoft_Singularity_Directory_DirectoryServiceContract_NakNotify@@SIXPAU1@PAU1@@Z 02060040 f   Shell.obj
 0001:0005f0dc       ?m_Equals@Struct_Microsoft_Singularity_Directory_DirectoryServiceContract_NakNotify@@SI_NPAU1@PAUClass_System_Object@@@Z 020600dc f   Shell.obj
 0001:0005f18c       ?m_Equals@Struct_Microsoft_Singularity_Directory_DirectoryServiceContract_NakNotify@@SI_NPAUClass_Microsoft_Singularity_Directory_DirectoryServiceContract_NakNotify@@PAUClass_System_Object@@@Z 0206018c f   Shell.obj
 0001:0005f1b8       ?m_StructCopy@Struct_System_TypedReference@@SIXPAU1@0@Z 020601b8 f   Shell.obj
 0001:0005f1ec       ?m_StructCopy@Struct_System_TypedReference@@SIXPAU1@PAU1@@Z 020601ec f   Shell.obj
 0001:0005f288       ?g_RefAnyType@Struct_System_TypedReference@@SI?AUStruct_System_RuntimeTypeHandle@@U1@@Z 02060288 f   Shell.obj
 0001:0005f2c0       ?g_MakeRefAny@Struct_System_TypedReference@@SI?AU1@PAUvoid@@PAUClass_System_RuntimeType@@@Z 020602c0 f   Shell.obj
 0001:0005f360       ?m_GetHashCode@Struct_System_TypedReference@@SIHPAU1@@Z 02060360 f   Shell.obj
 0001:0005f3d4       ?m_GetHashCode@Struct_System_TypedReference@@SIHPAUClass_System_TypedReference@@@Z 020603d4 f   Shell.obj
 0001:0005f3fc       ?m_Equals@Struct_System_TypedReference@@SI_NPAU1@PAUClass_System_Object@@@Z 020603fc f   Shell.obj
 0001:0005f43c       ?m_Equals@Struct_System_TypedReference@@SI_NPAUClass_System_TypedReference@@PAUClass_System_Object@@@Z 0206043c f   Shell.obj
 0001:0005f468       ?m__ctor@Struct_System_TypedReference@@SIXPAU1@PAUvoid@@PAUClass_System_RuntimeType@@@Z 02060468 f   Shell.obj
 0001:0005f498       ?m_BoolValue@Class_Microsoft_Singularity_Applications_ScriptEngine_BooleanLiteral@@SI_NPAU1@PAUClass_Microsoft_Singularity_Applications_ScriptEngine_Interpretation@@@Z 02060498 f   Shell.obj
 0001:0005f4d0       ?m__ctor@Class_Microsoft_Singularity_Applications_ScriptEngine_BooleanLiteral@@SIXPAU1@_N@Z 020604d0 f   Shell.obj
 0001:0005f500       ?m__ctor@Class_System_ArrayTypeMismatchException@@SIXPAU1@@Z 02060500 f   Shell.obj
 0001:0005f528       ?m__ctor@Class_System_ArrayTypeMismatchException@@SIXPAU1@PAUClass_System_String@@@Z 02060528 f   Shell.obj
 0001:0005f550       ?m_GetChars@Class_System_Text_UTF8Encoding_UTF8Decoder@@SIHPAU1@PAUClassVector_uint8@@HHPAUClassVector_bartok_char@@H@Z 02060550 f   Shell.obj
 0001:0005f590       ?m_GetCharCount@Class_System_Text_UTF8Encoding_UTF8Decoder@@SIHPAU1@PAUClassVector_uint8@@HH@Z 02060590 f   Shell.obj
 0001:0005f5c8       ?m__ctor@Class_System_Text_UTF8Encoding_UTF8Decoder@@SIXPAU1@PAUClass_System_Text_UTF8Encoding@@@Z 020605c8 f   Shell.obj
 0001:0005f5f8       ?m__ctor@Class_System_Text_RegularExpressions_RegexCharClass_SingleRange@@SIXPAU1@_W1@Z 020605f8 f   Shell.obj
 0001:0005f630       ?m__ctor@Class_System_Threading_ThreadQueue@@SIXPAU1@@Z 02060630 f   Shell.obj
 0001:0005f648       ?g_ValidateParseStyle@Class_System_Globalization_NumberFormatInfo@@SIXUStruct_System_Globalization_NumberStyles@@@Z 02060648 f   Shell.obj
 0001:0005f6a0       ?g_get$_validForParseAsNumber@Class_System_Globalization_NumberFormatInfo@@SI_NXZ 020606a0 f   Shell.obj
 0001:0005f6b8       ?g_get$_positiveSign@Class_System_Globalization_NumberFormatInfo@@SIPAUClass_System_String@@XZ 020606b8 f   Shell.obj
 0001:0005f6e8       ?g_get$_positiveInfinitySymbol@Class_System_Globalization_NumberFormatInfo@@SIPAUClass_System_String@@XZ 020606e8 f   Shell.obj
 0001:0005f718       ?g_get$_percentSymbol@Class_System_Globalization_NumberFormatInfo@@SIPAUClass_System_String@@XZ 02060718 f   Shell.obj
 0001:0005f748       ?g_get$_percentPositivePattern@Class_System_Globalization_NumberFormatInfo@@SIHXZ 02060748 f   Shell.obj
 0001:0005f77c       ?g_get$_percentNegativePattern@Class_System_Globalization_NumberFormatInfo@@SIHXZ 0206077c f   Shell.obj
 0001:0005f7b0       ?g_get$_percentGroupSizes@Class_System_Globalization_NumberFormatInfo@@SIPAUClassVector_int32@@XZ 020607b0 f   Shell.obj
 0001:0005f7e0       ?g_get$_percentGroupSeparator@Class_System_Globalization_NumberFormatInfo@@SIPAUClass_System_String@@XZ 020607e0 f   Shell.obj
 0001:0005f810       ?g_get$_percentDecimalSeparator@Class_System_Globalization_NumberFormatInfo@@SIPAUClass_System_String@@XZ 02060810 f   Shell.obj
 0001:0005f840       ?g_get$_percentDecimalDigits@Class_System_Globalization_NumberFormatInfo@@SIHXZ 02060840 f   Shell.obj
 0001:0005f874       ?g_get$_numberNegativePattern@Class_System_Globalization_NumberFormatInfo@@SIHXZ 02060874 f   Shell.obj
 0001:0005f8a8       ?g_get$_numberGroupSizes@Class_System_Globalization_NumberFormatInfo@@SIPAUClassVector_int32@@XZ 020608a8 f   Shell.obj
 0001:0005f8d8       ?g_get$_numberGroupSeparator@Class_System_Globalization_NumberFormatInfo@@SIPAUClass_System_String@@XZ 020608d8 f   Shell.obj
 0001:0005f908       ?g_get$_numberDecimalSeparator@Class_System_Globalization_NumberFormatInfo@@SIPAUClass_System_String@@XZ 02060908 f   Shell.obj
 0001:0005f938       ?g_get$_numberDecimalDigits@Class_System_Globalization_NumberFormatInfo@@SIHXZ 02060938 f   Shell.obj
 0001:0005f96c       ?g_get$_negativeSign@Class_System_Globalization_NumberFormatInfo@@SIPAUClass_System_String@@XZ 0206096c f   Shell.obj
 0001:0005f99c       ?g_get$_negativeInfinitySymbol@Class_System_Globalization_NumberFormatInfo@@SIPAUClass_System_String@@XZ 0206099c f   Shell.obj
 0001:0005f9cc       ?g_get$_nanSymbol@Class_System_Globalization_NumberFormatInfo@@SIPAUClass_System_String@@XZ 020609cc f   Shell.obj
 0001:0005f9fc       ?m__ctor@Class_System_Globalization_NumberFormatInfo@@SIXPAU1@@Z 020609fc f   Shell.obj
 0001:0005fa14       ?g__cctor@Class_System_Globalization_NumberFormatInfo@@SIXXZ 02060a14 f   Shell.obj
 0001:0005fa28       ?g_WriterIsValid@Class_System_ReadEnlistmentLog@@SI_NUStruct_System_ReadEnlistmentLogWriter@@@Z 02060a28 f   Shell.obj
 0001:0005fa48       ?m_VisitWeakRefs@Class_System_ReadEnlistmentLog@@SIXPAU1@PAUClass_System_TryAllManager@@PAUClass_System_GCs_DirectReferenceVisitor@@@Z 02060a48 f   Shell.obj
 0001:0005ffbc       ?m_ValidateAndRemoveDuplicates@Class_System_ReadEnlistmentLog@@SIXPAU1@PAUClass_System_TryAllManager@@@Z 02060fbc f   Shell.obj
 0001:00060a9c       ?m_Validate@Class_System_ReadEnlistmentLog@@SIXPAU1@PAUClass_System_TryAllManager@@_N@Z 02061a9c f   Shell.obj
 0001:0006112c       ?g_SyncFromWriter@Class_System_ReadEnlistmentLog@@SIXPAUClass_System_TryAllManager@@@Z 0206212c f   Shell.obj
 0001:000611b0       ?g_InitWriter@Class_System_ReadEnlistmentLog@@SIXPAUClass_System_TryAllManager@@@Z 020621b0 f   Shell.obj
 0001:0006122c       ?m_get$_CurrentLocation@Class_System_ReadEnlistmentLog@@SI?AUStruct_System_ReadEnlistmentLog_Location@@PAU1@@Z 0206222c f   Shell.obj
 0001:000612c0       ?m_AddrToIndex@Class_System_ReadEnlistmentLog@@SIIPAU1@PAUStruct_System_ReadEnlistmentLog_Entry@@@Z 020622c0 f   Shell.obj
 0001:00061350       ?m_AddrOfEntry@Class_System_ReadEnlistmentLog@@SIPAUStruct_System_ReadEnlistmentLog_Entry@@PAU1@H@Z 02062350 f   Shell.obj
 0001:000613f0       ?m__ctor@Class_System_ReadEnlistmentLog@@SIXPAU1@@Z 020623f0 f   Shell.obj
 0001:00061454       ?m_Release@Class__Shell_Microsoft_Singularity_Channels_TRef$_2$LMicrosoft_Singularity_Diagnostics_Contracts_ProcessContract_Imp_Microsoft_Singularity_Diagnostics_Contracts_ProcessContract_ReadyState$G@@SIXPAU1@PAUStruct_Microsoft_Singularity_Diagnostics_Contracts_ProcessContract_Imp@@@Z 02062454 f   Shell.obj
 0001:000614d8       ?m_Finalize@Class__Shell_Microsoft_Singularity_Channels_TRef$_2$LMicrosoft_Singularity_Diagnostics_Contracts_ProcessContract_Imp_Microsoft_Singularity_Diagnostics_Contracts_ProcessContract_ReadyState$G@@SIXPAU1@@Z 020624d8 f   Shell.obj
 0001:00061564       ?m_Acquire@Class__Shell_Microsoft_Singularity_Channels_TRef$_2$LMicrosoft_Singularity_Diagnostics_Contracts_ProcessContract_Imp_Microsoft_Singularity_Diagnostics_Contracts_ProcessContract_ReadyState$G@@SIPAUStruct_Microsoft_Singularity_Diagnostics_Contracts_ProcessContract_Imp@@PAU1@@Z 02062564 f   Shell.obj
 0001:00061600       ?m__ctor@Class__Shell_Microsoft_Singularity_Channels_TRef$_2$LMicrosoft_Singularity_Diagnostics_Contracts_ProcessContract_Imp_Microsoft_Singularity_Diagnostics_Contracts_ProcessContract_ReadyState$G@@SIXPAU1@PAUStruct_Microsoft_Singularity_Diagnostics_Contracts_ProcessContract_Imp@@@Z 02062600 f   Shell.obj
 0001:000616a4       ?m__ctor@Class_System_StackOverflowException@@SIXPAU1@@Z 020626a4 f   Shell.obj
 0001:000616cc       ?m__ctor@Class_System_StackOverflowException@@SIXPAU1@PAUClass_System_String@@@Z 020626cc f   Shell.obj
 0001:000616f4       ?m__ctor@Class_System_StackOverflowException@@SIXPAU1@PAUClass_System_String@@PAUClass_System_Exception@@@Z 020626f4 f   Shell.obj
 0001:00061724       ?m_StructCopy@Struct_Microsoft_Singularity_Directory_DirectoryServiceContract_NakCreateDirectoryReparse@@SIXPAU1@0@Z 02062724 f   Shell.obj
 0001:00061764       ?m_StructCopy@Struct_Microsoft_Singularity_Directory_DirectoryServiceContract_NakCreateDirectoryReparse@@SIXPAU1@PAU1@@Z 02062764 f   Shell.obj
 0001:00061824       ?m_Equals@Struct_Microsoft_Singularity_Directory_DirectoryServiceContract_NakCreateDirectoryReparse@@SI_NPAU1@PAUClass_System_Object@@@Z 02062824 f   Shell.obj
 0001:0006188c       ?m_Equals@Struct_Microsoft_Singularity_Directory_DirectoryServiceContract_NakCreateDirectoryReparse@@SI_NPAUClass_Microsoft_Singularity_Directory_DirectoryServiceContract_NakCreateDirectoryReparse@@PAUClass_System_Object@@@Z 0206288c f   Shell.obj
 0001:000618b8       ?m_StringValue@Class_Microsoft_Singularity_Applications_ScriptEngine_StringInterpolation@@SIPAUClass_System_String@@PAU1@PAUClass_Microsoft_Singularity_Applications_ScriptEngine_Interpretation@@@Z 020628b8 f   Shell.obj
 0001:00061a14       ?g_Split@Class_Microsoft_Singularity_Applications_ScriptEngine_StringInterpolation@@SIPAUClassVector_Class_System_String@@PAUClass_System_String@@@Z 02062a14 f   Shell.obj
 0001:00061bc4       ?m__ctor@Class_Microsoft_Singularity_Applications_ScriptEngine_StringInterpolation@@SIXPAU1@PAUClass_System_String@@@Z 02062bc4 f   Shell.obj
 0001:00061fd4       ?g__cctor@Class_Microsoft_Singularity_Applications_ScriptEngine_StringInterpolation@@SIXXZ 02062fd4 f   Shell.obj
 0001:00062038       ?g_WaitForPendingFinalizers@Class_System_GC@@SIXXZ 02063038 f   Shell.obj
 0001:00062050       ?g_ThreadStartNotification@Class_System_GC@@SIXH@Z 02063050 f   Shell.obj
 0001:0006207c       ?g_ThreadDormantGCNotification@Class_System_GC@@SIXH@Z 0206307c f   Shell.obj
 0001:000620a8       ?g_SuppressFinalize@Class_System_GC@@SIXPAUClass_System_Object@@@Z 020630a8 f   Shell.obj
 0001:00062110       ?g_Shutdown@Class_System_GC@@SIXXZ 02063110 f   Shell.obj
 0001:00062138       ?g_SetProfiler@Class_System_GC@@SIXPAUClass_System_GCs_GCProfiler@@@Z 02063138 f   Shell.obj
 0001:0006216c       ?g_NewThreadNotification@Class_System_GC@@SIXPAUClass_System_Threading_Thread@@_N@Z 0206316c f   Shell.obj
 0001:000621a8       ?g_nativeSuppressFinalize@Class_System_GC@@SIXPAUClass_System_Object@@@Z 020631a8 f   Shell.obj
 0001:000621cc       ?g_KeepAlive@Class_System_GC@@SIXPAUClass_System_Object@@@Z 020631cc f   Shell.obj
 0001:000621f8       ?g_InvokeCollection@Class_System_GC@@SIXPAUClass_System_Threading_Thread@@@Z 020631f8 f   Shell.obj
 0001:00062224       ?g_Initialize@Class_System_GC@@SIXXZ 02063224 f   Shell.obj
 0001:0006225c       ?g_GetTotalMemory@Class_System_GC@@SI_J_N@Z 0206325c f   Shell.obj
 0001:000623cc       ?g_get$_MaxGeneration@Class_System_GC@@SIHXZ 020633cc f   Shell.obj
 0001:000623f0       ?g_get$_IsProfiling@Class_System_GC@@SI_NXZ 020633f0 f   Shell.obj
 0001:00062408       ?g_FinishInitializeThread@Class_System_GC@@SIXXZ 02063408 f   Shell.obj
 0001:00062420       ?g_EnableHeap@Class_System_GC@@SIXXZ 02063420 f   Shell.obj
 0001:00062468       ?g_DestructHeap@Class_System_GC@@SIXXZ 02063468 f   Shell.obj
 0001:00062490       ?g_DeadThreadNotification@Class_System_GC@@SIXPAUClass_System_Threading_Thread@@@Z 02063490 f   Shell.obj
 0001:000624bc       ?g_ConstructHeap@Class_System_GC@@SIXXZ 020634bc f   Shell.obj
 0001:0006255c       ?g_CollectTransition@Class_System_GC@@SIXPAUClass_System_Threading_Thread@@H@Z 0206355c f   Shell.obj
 0001:00062584       ?g_CollectBody@Class_System_GC@@SIPAUClass_System_Threading_Thread@@PAU2@H@Z 02063584 f   Shell.obj
 0001:000625e8       ?g_Collect@Class_System_GC@@SIXXZ 020635e8 f   Shell.obj
 0001:00062630       ?g_CheckForNeededGCWork@Class_System_GC@@SIXPAUClass_System_Threading_Thread@@@Z 02063630 f   Shell.obj
 0001:00062658       ?g_AllocateVector@Class_System_GC@@SIPAUClass_System_Array@@PAUClass_System_VTable@@H@Z 02063658 f   Shell.obj
 0001:0006275c       ?g_AllocateVector@Class_System_GC@@SIPAUClass_System_Array@@PAUClass_System_VTable@@HPAUClass_System_Threading_Thread@@@Z 0206375c f   Shell.obj
 0001:0006284c       ?g_AllocateString@Class_System_GC@@SIPAUClass_System_String@@H@Z 0206384c f   Shell.obj
 0001:00062940       ?g_AllocateString@Class_System_GC@@SIPAUClass_System_String@@HPAUClass_System_Threading_Thread@@@Z 02063940 f   Shell.obj
 0001:00062a2c       ?g_AllocateObjectNoInline@Class_System_GC@@SIPAUClass_System_Object@@PAUClass_System_VTable@@@Z 02063a2c f   Shell.obj
 0001:00062b30       ?g_AllocateObjectNoInline@Class_System_GC@@SIPAUClass_System_Object@@PAUClass_System_VTable@@PAUClass_System_Threading_Thread@@@Z 02063b30 f   Shell.obj
 0001:00062c28       ?g_AllocateObject@Class_System_GC@@SIPAUClass_System_Object@@PAUClass_System_VTable@@@Z 02063c28 f   Shell.obj
 0001:00062d1c       ?g_AllocateObject@Class_System_GC@@SIPAUClass_System_Object@@PAUClass_System_VTable@@PAUuintPtr@@IPAUClass_System_Threading_Thread@@@Z 02063d1c f   Shell.obj
 0001:00062e0c       ?g_AllocateObject@Class_System_GC@@SIPAUClass_System_Object@@PAUClass_System_VTable@@PAUClass_System_Threading_Thread@@@Z 02063e0c f   Shell.obj
 0001:00062ef8       ?g_AllocateArray@Class_System_GC@@SIPAUClass_System_Array@@PAUClass_System_VTable@@HH@Z 02063ef8 f   Shell.obj
 0001:00063000       ?g_AllocateArray@Class_System_GC@@SIPAUClass_System_Array@@PAUClass_System_VTable@@HHPAUClass_System_Threading_Thread@@@Z 02064000 f   Shell.obj
 0001:000630f0       ?m__ctor@Class_System_GC@@SIXPAU1@@Z 020640f0 f   Shell.obj
 0001:0006310c       ?g__cctor@Class_System_GC@@SIXXZ 0206410c f   Shell.obj
 0001:0006315c       ?g_TransferOwnership@Struct_Microsoft_Singularity_Io_UnicodePipeContract_Exp@@SIXPAUStruct_Microsoft_Singularity_Channels_Endpoint@@PAU1@@Z 0206415c f   Shell.obj
 0001:000631a0       ?m_TransferContentsOwnership@Struct_Microsoft_Singularity_Io_UnicodePipeContract_Exp@@SIXPAU1@PAUStruct_Microsoft_Singularity_Channels_Endpoint@@@Z 020641a0 f   Shell.obj
 0001:000631cc       ?m_StructCopy@Struct_Microsoft_Singularity_Io_UnicodePipeContract_Exp@@SIXPAU1@0@Z 020641cc f   Shell.obj
 0001:000632a8       ?m_StructCopy@Struct_Microsoft_Singularity_Io_UnicodePipeContract_Exp@@SIXPAU1@PAU1@@Z 020642a8 f   Shell.obj
 0001:0006353c       ?m_SendMoved@Struct_Microsoft_Singularity_Io_UnicodePipeContract_Exp@@SIXPAU1@@Z 0206453c f   Shell.obj
 0001:00063630       ?m_SendAckWrite@Struct_Microsoft_Singularity_Io_UnicodePipeContract_Exp@@SIXPAU1@PA_W@Z 02064630 f   Shell.obj
 0001:00063744       ?m_Release@Struct_Microsoft_Singularity_Io_UnicodePipeContract_Exp@@SIXPAU1@@Z 02064744 f   Shell.obj
 0001:00063760       ?m_RecvWrite@Struct_Microsoft_Singularity_Io_UnicodePipeContract_Exp@@SIXPAU1@PAPA_WPAH2@Z 02064760 f   Shell.obj
 0001:00063908       ?m_Peek@Struct_Microsoft_Singularity_Io_UnicodePipeContract_Exp@@SIHPAU1@@Z 02064908 f   Shell.obj
 0001:00063ab0       ?m_MarshallDeliverWrite0@Struct_Microsoft_Singularity_Io_UnicodePipeContract_Exp@@SIXPAU1@PA_WHHPAUStruct_Microsoft_Singularity_Channels_Endpoint@@@Z 02064ab0 f   Shell.obj
 0001:00063b08       ?m_MarshallContent@Struct_Microsoft_Singularity_Io_UnicodePipeContract_Exp@@SIXPAU1@PAEPAUStruct_Microsoft_Singularity_Channels_Endpoint@@1@Z 02064b08 f   Shell.obj
 0001:00063b28       ?m_InState@Struct_Microsoft_Singularity_Io_UnicodePipeContract_Exp@@SI_NPAU1@H@Z 02064b28 f   Shell.obj
 0001:00063bb8       ?m_HeadMatches@Struct_Microsoft_Singularity_Io_UnicodePipeContract_Exp@@SI_NPAU1@HPA_NPAPAUClass_System_Object@@@Z 02064bb8 f   Shell.obj
 0001:00063c78       ?m_HeadMatches@Struct_Microsoft_Singularity_Io_UnicodePipeContract_Exp@@SI_NPAUClass_Microsoft_Singularity_Io_UnicodePipeContract_Exp@@HPA_NPAPAUClass_System_Object@@@Z 02064c78 f   Shell.obj
 0001:00063cb0       ?m_Equals@Struct_Microsoft_Singularity_Io_UnicodePipeContract_Exp@@SI_NPAU1@PAUClass_System_Object@@@Z 02064cb0 f   Shell.obj
 0001:00063fb4       ?m_Equals@Struct_Microsoft_Singularity_Io_UnicodePipeContract_Exp@@SI_NPAUClass_Microsoft_Singularity_Io_UnicodePipeContract_Exp@@PAUClass_System_Object@@@Z 02064fb4 f   Shell.obj
 0001:00063fe0       ?m_Dispose@Struct_Microsoft_Singularity_Io_UnicodePipeContract_Exp@@SIXPAU1@@Z 02064fe0 f   Shell.obj
 0001:00064004       ?m_Dispose@Struct_Microsoft_Singularity_Io_UnicodePipeContract_Exp@@SIXPAUClass_Microsoft_Singularity_Io_UnicodePipeContract_Exp@@@Z 02065004 f   Shell.obj
 0001:0006402c       ?m_DeliverWrite0@Struct_Microsoft_Singularity_Io_UnicodePipeContract_Exp@@SIXPAU1@PA_WHH@Z 0206502c f   Shell.obj
 0001:00064080       ?m_CurrentState@Struct_Microsoft_Singularity_Io_UnicodePipeContract_Exp@@SIPAUClass_System_String@@PAU1@@Z 02065080 f   Shell.obj
 0001:0006410c       ?m_Acquire@Struct_Microsoft_Singularity_Io_UnicodePipeContract_Exp@@SIXPAU1@@Z 0206510c f   Shell.obj
 0001:00064128       ?m__ctor@Struct_Microsoft_Singularity_Io_UnicodePipeContract_Exp@@SIXPAU1@H@Z 02065128 f   Shell.obj
 0001:00064154       ?m_StructCopy@Struct_Microsoft_Singularity_Directory_DirectoryServiceContract_AckGetLinkValue@@SIXPAU1@0@Z 02065154 f   Shell.obj
 0001:0006417c       ?m_StructCopy@Struct_Microsoft_Singularity_Directory_DirectoryServiceContract_AckGetLinkValue@@SIXPAU1@PAU1@@Z 0206517c f   Shell.obj
 0001:000641f4       ?m_Equals@Struct_Microsoft_Singularity_Directory_DirectoryServiceContract_AckGetLinkValue@@SI_NPAU1@PAUClass_System_Object@@@Z 020651f4 f   Shell.obj
 0001:0006423c       ?m_Equals@Struct_Microsoft_Singularity_Directory_DirectoryServiceContract_AckGetLinkValue@@SI_NPAUClass_Microsoft_Singularity_Directory_DirectoryServiceContract_AckGetLinkValue@@PAUClass_System_Object@@@Z 0206523c f   Shell.obj
 0001:00064268       ?g_wcslen@Class_System_Number@@SIHPAUClassVector_bartok_char@@H@Z 02065268 f   Shell.obj
 0001:000642dc       ?g_UInt64ToDecString@Class_System_Number@@SIPAUClass_System_String@@_KH@Z 020652dc f   Shell.obj
 0001:000643dc       ?g_UInt32ToDecString@Class_System_Number@@SIPAUClass_System_String@@IH@Z 020653dc f   Shell.obj
 0001:00064470       ?m_ToStringFormat@Class_System_Number@@SIPAUClass_System_String@@PAU1@PAU2@@Z 02065470 f   Shell.obj
 0001:00065b54       ?m_ToString@Class_System_Number@@SIPAUClass_System_String@@PAU1@_WH@Z 02066b54 f   Shell.obj
 0001:00066494       ?m_RoundNumber@Class_System_Number@@SIXPAU1@H@Z 02067494 f   Shell.obj
 0001:000666a0       ?m_ParseNumber@Class_System_Number@@SI_NPAU1@PAUClass_System_String@@UStruct_System_Globalization_NumberStyles@@@Z 020676a0 f   Shell.obj
 0001:00066f70       ?g_ParseInt64@Class_System_Number@@SI_JPAUClass_System_String@@UStruct_System_Globalization_NumberStyles@@@Z 02067f70 f   Shell.obj
 0001:00067064       ?g_ParseInt32@Class_System_Number@@SIHPAUClass_System_String@@UStruct_System_Globalization_NumberStyles@@@Z 02068064 f   Shell.obj
 0001:0006713c       ?g_ParseFormatSpecifier@Class_System_Number@@SI_WPAUClass_System_String@@PAH@Z 0206813c f   Shell.obj
 0001:000672e0       ?g_NumberToInt64@Class_System_Number@@SI_NPAU1@PA_J@Z 020682e0 f   Shell.obj
 0001:000674b0       ?g_NumberToInt32@Class_System_Number@@SI_NPAU1@PAH@Z 020684b0 f   Shell.obj
 0001:000675f4       ?g_NumberToDouble@Class_System_Number@@SIXPAU1@PAN@Z 020685f4 f   Shell.obj
 0001:000678a8       ?g_MatchChars@Class_System_Number@@SIHPAUClass_System_String@@H0@Z 020688a8 f   Shell.obj
 0001:00067998       ?g_LO32@Class_System_Number@@SII_K@Z 02068998 f   Shell.obj
 0001:000679b0       ?m_ISWHITE@Class_System_Number@@SI_NPAU1@_W@Z 020689b0 f   Shell.obj
 0001:000679fc       ?g_Int64ToHexString@Class_System_Number@@SIPAUClass_System_String@@_K_WH@Z 020689fc f   Shell.obj
 0001:00067a8c       ?g_Int64ToHexChars@Class_System_Number@@SIHPAUClassVector_bartok_char@@H_K_WH@Z 02068a8c f   Shell.obj
 0001:00067b50       ?g_Int64ToDecString@Class_System_Number@@SIPAUClass_System_String@@_JHPAU2@@Z 02068b50 f   Shell.obj
 0001:00067d40       ?g_Int64ToDecChars@Class_System_Number@@SIXPAUClassVector_bartok_char@@PAH_KH@Z 02068d40 f   Shell.obj
 0001:00067df0       ?g_Int64DivMod1E9@Class_System_Number@@SI_K_KPAI@Z 02068df0 f   Shell.obj
 0001:00067e4c       ?g_Int32ToHexString@Class_System_Number@@SIPAUClass_System_String@@I_WH@Z 02068e4c f   Shell.obj
 0001:00067ed8       ?g_Int32ToHexChars@Class_System_Number@@SIHPAUClassVector_bartok_char@@HI_WH@Z 02068ed8 f   Shell.obj
 0001:00067f78       ?g_Int32ToDecString@Class_System_Number@@SIPAUClass_System_String@@HHPAU2@@Z 02068f78 f   Shell.obj
 0001:000680d4       ?g_Int32ToDecChars@Class_System_Number@@SIXPAUClassVector_bartok_char@@PAHIH@Z 020690d4 f   Shell.obj
 0001:00068168       ?g_HI32@Class_System_Number@@SII_K@Z 02069168 f   Shell.obj
 0001:0006818c       ?g_HexNumberToUInt64@Class_System_Number@@SI_NPAU1@PA_K@Z 0206918c f   Shell.obj
 0001:00068420       ?g_HexNumberToUInt32@Class_System_Number@@SI_NPAU1@PAI@Z 02069420 f   Shell.obj
 0001:00068664       ?g_Get@Class_System_Number@@SI_WPAUClass_System_String@@H@Z 02069664 f   Shell.obj
 0001:000686ac       ?g_FPNumberToString@Class_System_Number@@SIPAUClass_System_String@@PAU1@PAU2@@Z 020696ac f   Shell.obj
 0001:0006879c       ?g_FormatUInt64@Class_System_Number@@SIPAUClass_System_String@@_KPAU2@@Z 0206979c f   Shell.obj
 0001:000688b0       ?g_FormatUInt32@Class_System_Number@@SIPAUClass_System_String@@IPAU2@@Z 020698b0 f   Shell.obj
 0001:000689b4       ?g_FormatSingle@Class_System_Number@@SIPAUClass_System_String@@MPAU2@@Z 020699b4 f   Shell.obj
 0001:00068c40       ?m_FormatScientific@Class_System_Number@@SIHPAU1@PAUClassVector_bartok_char@@HH_W@Z 02069c40 f   Shell.obj
 0001:00068e08       ?m_FormatPercent@Class_System_Number@@SIHPAU1@PAUClassVector_bartok_char@@HH@Z 02069e08 f   Shell.obj
 0001:00068fd4       ?m_FormatNumber@Class_System_Number@@SIHPAU1@PAUClassVector_bartok_char@@HH@Z 02069fd4 f   Shell.obj
 0001:00069168       ?g_FormatInt64@Class_System_Number@@SIPAUClass_System_String@@_JPAU2@@Z 0206a168 f   Shell.obj
 0001:000692a0       ?g_FormatInt32@Class_System_Number@@SIPAUClass_System_String@@HPAU2@@Z 0206a2a0 f   Shell.obj
 0001:000693c8       ?m_FormatGeneral@Class_System_Number@@SIHPAU1@PAUClassVector_bartok_char@@HH_W@Z 0206a3c8 f   Shell.obj
 0001:00069670       ?m_FormatFixed@Class_System_Number@@SIHPAU1@PAUClassVector_bartok_char@@HHPAUClassVector_int32@@PAUClass_System_String@@3@Z 0206a670 f   Shell.obj
 0001:00069bf0       ?m_FormatExponent@Class_System_Number@@SIHPAU1@PAUClassVector_bartok_char@@HH_WPAUClass_System_String@@3H@Z 0206abf0 f   Shell.obj
 0001:00069d48       ?g_FormatDouble@Class_System_Number@@SIPAUClass_System_String@@NPAU2@@Z 0206ad48 f   Shell.obj
 0001:00069f84       ?g_FormatDecimal@Class_System_Number@@SIPAUClass_System_String@@UStruct_System_Decimal@@PAU2@@Z 0206af84 f   Shell.obj
 0001:0006a01c       ?g_FindSection@Class_System_Number@@SIHPAUClass_System_String@@H@Z 0206b01c f   Shell.obj
 0001:0006a170       ?g_EndString@Class_System_Number@@SI_NPAUClass_System_String@@H@Z 0206b170 f   Shell.obj
 0001:0006a1c0       ?m_DecDivMod1E9@Class_System_Number@@SIIPAU1@PAUStruct_System_Decimal@@@Z 0206b1c0 f   Shell.obj
 0001:0006a298       ?m_D32DivMod1E9@Class_System_Number@@SIIPAU1@IIPAI@Z 0206b298 f   Shell.obj
 0001:0006a314       ?g_AddStringRef@Class_System_Number@@SIHPAUClassVector_bartok_char@@HPAUClass_System_String@@@Z 0206b314 f   Shell.obj
 0001:0006a3ac       ?m__ctor@Class_System_Number@@SIXPAU1@@Z 0206b3ac f   Shell.obj
 0001:0006a3dc       ?m__ctor@Class_System_Number@@SIXPAU1@_K@Z 0206b3dc f   Shell.obj
 0001:0006a4ec       ?m__ctor@Class_System_Number@@SIXPAU1@I@Z 0206b4ec f   Shell.obj
 0001:0006a5f8       ?m__ctor@Class_System_Number@@SIXPAU1@PAUStruct_System_Decimal@@@Z 0206b5f8 f   Shell.obj
 0001:0006a788       ?m__ctor@Class_System_Number@@SIXPAU1@_J@Z 0206b788 f   Shell.obj
 0001:0006a8e8       ?m__ctor@Class_System_Number@@SIXPAU1@H@Z 0206b8e8 f   Shell.obj
 0001:0006aa14       ?m__ctor@Class_System_Number@@SIXPAU1@NH@Z 0206ba14 f   Shell.obj
 0001:0006aa78       ?m__ctor@Class_System_Number@@SIXPAU1@PAUClass_System_String@@UStruct_System_Globalization_NumberStyles@@@Z 0206ba78 f   Shell.obj
 0001:0006ab44       ?g__cctor@Class_System_Number@@SIXXZ 0206bb44 f   Shell.obj
 0001:0006ac80       ?m_ToString@int64@@SIPAUClass_System_String@@PA_J@Z 0206bc80 f   Shell.obj
 0001:0006aca8       ?m_ToString@int64@@SIPAUClass_System_String@@PA_JPAU2@@Z 0206bca8 f   Shell.obj
 0001:0006acfc       ?m_ToString@int64@@SIPAUClass_System_String@@PAUClass_System_Int64@@@Z 0206bcfc f   Shell.obj
 0001:0006ad24       ?m_ToString@int64@@SIPAUClass_System_String@@PAUClass_System_Int64@@PAU2@@Z 0206bd24 f   Shell.obj
 0001:0006ad50       ?g_Parse@int64@@SI_JPAUClass_System_String@@@Z 0206bd50 f   Shell.obj
 0001:0006ad78       ?g_Parse@int64@@SI_JPAUClass_System_String@@UStruct_System_Globalization_NumberStyles@@@Z 0206bd78 f   Shell.obj
 0001:0006add4       ?m_GetHashCode@int64@@SIHPA_J@Z 0206bdd4 f   Shell.obj
 0001:0006ae08       ?m_GetHashCode@int64@@SIHPAUClass_System_Int64@@@Z 0206be08 f   Shell.obj
 0001:0006ae30       ?m_Equals@int64@@SI_NPA_JPAUClass_System_Object@@@Z 0206be30 f   Shell.obj
 0001:0006aea0       ?m_Equals@int64@@SI_NPAUClass_System_Int64@@PAUClass_System_Object@@@Z 0206bea0 f   Shell.obj
 0001:0006aecc       ?m_CompareTo@int64@@SIHPA_JPAUClass_System_Object@@@Z 0206becc f   Shell.obj
 0001:0006afc0       ?m_CompareTo@int64@@SIHPAUClass_System_Int64@@PAUClass_System_Object@@@Z 0206bfc0 f   Shell.obj
 0001:0006afec       ?m_StructCopy@Struct_Microsoft_Singularity_Isal_IX_CR4@@SIXPAU1@0@Z 0206bfec f   Shell.obj
 0001:0006b008       ?m_StructCopy@Struct_Microsoft_Singularity_Isal_IX_CR4@@SIXPAU1@PAU1@@Z 0206c008 f   Shell.obj
 0001:0006b05c       ?m_Equals@Struct_Microsoft_Singularity_Isal_IX_CR4@@SI_NPAU1@PAUClass_System_Object@@@Z 0206c05c f   Shell.obj
 0001:0006b094       ?m_Equals@Struct_Microsoft_Singularity_Isal_IX_CR4@@SI_NPAUClass_Microsoft_Singularity_Isal_IX_CR4@@PAUClass_System_Object@@@Z 0206c094 f   Shell.obj
 0001:0006b0c0       ?m_StructCopy@Struct_Microsoft_Singularity_Directory_DirectoryServiceContract_AckNotify@@SIXPAU1@0@Z 0206c0c0 f   Shell.obj
 0001:0006b0dc       ?m_StructCopy@Struct_Microsoft_Singularity_Directory_DirectoryServiceContract_AckNotify@@SIXPAU1@PAU1@@Z 0206c0dc f   Shell.obj
 0001:0006b130       ?m_Equals@Struct_Microsoft_Singularity_Directory_DirectoryServiceContract_AckNotify@@SI_NPAU1@PAUClass_System_Object@@@Z 0206c130 f   Shell.obj
 0001:0006b168       ?m_Equals@Struct_Microsoft_Singularity_Directory_DirectoryServiceContract_AckNotify@@SI_NPAUClass_Microsoft_Singularity_Directory_DirectoryServiceContract_AckNotify@@PAUClass_System_Object@@@Z 0206c168 f   Shell.obj
 0001:0006b194       ?m_Uncapture@Class_System_Text_RegularExpressions_RegexRunner@@SIXPAU1@@Z 0206c194 f   Shell.obj
 0001:0006b1d0       ?m_TransferCapture@Class_System_Text_RegularExpressions_RegexRunner@@SIXPAU1@HHHH@Z 0206c1d0 f   Shell.obj
 0001:0006b2f0       ?m_TidyMatch@Class_System_Text_RegularExpressions_RegexRunner@@SIPAUClass_System_Text_RegularExpressions_Match@@PAU1@_N@Z 0206c2f0 f   Shell.obj
 0001:0006b350       ?m_Scan@Class_System_Text_RegularExpressions_RegexRunner@@SIPAUClass_System_Text_RegularExpressions_Match@@PAU1@PAUClass_System_Text_RegularExpressions_Regex@@PAUClass_System_String@@HHHH_N@Z 0206c350 f   Shell.obj
 0001:0006b538       ?m_Popcrawl@Class_System_Text_RegularExpressions_RegexRunner@@SIHPAU1@@Z 0206c538 f   Shell.obj
 0001:0006b580       ?m_MatchLength@Class_System_Text_RegularExpressions_RegexRunner@@SIHPAU1@H@Z 0206c580 f   Shell.obj
 0001:0006b5ac       ?m_MatchIndex@Class_System_Text_RegularExpressions_RegexRunner@@SIHPAU1@H@Z 0206c5ac f   Shell.obj
 0001:0006b5d8       ?m_IsMatched@Class_System_Text_RegularExpressions_RegexRunner@@SI_NPAU1@H@Z 0206c5d8 f   Shell.obj
 0001:0006b604       ?m_IsECMABoundary@Class_System_Text_RegularExpressions_RegexRunner@@SI_NPAU1@HHH@Z 0206c604 f   Shell.obj
 0001:0006b6c8       ?m_IsBoundary@Class_System_Text_RegularExpressions_RegexRunner@@SI_NPAU1@HHH@Z 0206c6c8 f   Shell.obj
 0001:0006b78c       ?m_InitMatch@Class_System_Text_RegularExpressions_RegexRunner@@SIXPAU1@@Z 0206c78c f   Shell.obj
 0001:0006b9f4       ?m_EnsureStorage@Class_System_Text_RegularExpressions_RegexRunner@@SIXPAU1@@Z 0206c9f4 f   Shell.obj
 0001:0006ba48       ?m_DoubleTrack@Class_System_Text_RegularExpressions_RegexRunner@@SIXPAU1@@Z 0206ca48 f   Shell.obj
 0001:0006babc       ?m_DoubleStack@Class_System_Text_RegularExpressions_RegexRunner@@SIXPAU1@@Z 0206cabc f   Shell.obj
 0001:0006bb30       ?m_DoubleCrawl@Class_System_Text_RegularExpressions_RegexRunner@@SIXPAU1@@Z 0206cb30 f   Shell.obj
 0001:0006bba4       ?m_Crawlpos@Class_System_Text_RegularExpressions_RegexRunner@@SIHPAU1@@Z 0206cba4 f   Shell.obj
 0001:0006bbd0       ?m_Crawl@Class_System_Text_RegularExpressions_RegexRunner@@SIXPAU1@H@Z 0206cbd0 f   Shell.obj
 0001:0006bc28       ?m_Capture@Class_System_Text_RegularExpressions_RegexRunner@@SIXPAU1@HHH@Z 0206cc28 f   Shell.obj
 0001:0006bc94       ?m__ctor@Class_System_Text_RegularExpressions_RegexRunner@@SIXPAU1@@Z 0206cc94 f   Shell.obj
 0001:0006bcb0       ?m_Visit@Class_System_GCs_Verifier_GenericReferenceVisitor@@SIXPAU1@PAPAUuintPtr@@@Z 0206ccb0 f   Shell.obj
 0001:0006bfb4       ?m__ctor@Class_System_GCs_Verifier_GenericReferenceVisitor@@SIXPAU1@@Z 0206cfb4 f   Shell.obj
 0001:0006bfd8       ?g_Tokenize@Class_Microsoft_Singularity_Applications_ParameterProcessor@@SIPAUClass_System_Collections_ArrayList@@PAUClass_System_String@@HPAUClassVector_bartok_char@@@Z 0206cfd8 f   Shell.obj
 0001:0006c2b0       ?m_StringToLong@Class_Microsoft_Singularity_Applications_ParameterProcessor@@SI_NPAU1@PAUClass_System_String@@PA_J@Z 0206d2b0 f   Shell.obj
 0001:0006c458       ?m_StringToBool@Class_Microsoft_Singularity_Applications_ParameterProcessor@@SI_NPAU1@PAUClass_System_String@@PA_N@Z 0206d458 f   Shell.obj
 0001:0006c55c       ?m_ShowVerboseCommandHelpAll@Class_Microsoft_Singularity_Applications_ParameterProcessor@@SIXPAU1@PAUClass_Microsoft_Singularity_Applications_Manifest@@@Z 0206d55c f   Shell.obj
 0001:0006c650       ?m_ShowVerboseCommandHelp@Class_Microsoft_Singularity_Applications_ParameterProcessor@@SIXPAU1@PAUClass_Microsoft_Singularity_Applications_Manifest@@PAUClass_System_String@@@Z 0206d650 f   Shell.obj
 0001:0006cba4       ?m_ShowCommandsSummaryWithArgs@Class_Microsoft_Singularity_Applications_ParameterProcessor@@SIXPAU1@PAUClass_Microsoft_Singularity_Applications_Manifest@@@Z 0206dba4 f   Shell.obj
 0001:0006cd98       ?m_SetPosition@Class_Microsoft_Singularity_Applications_ParameterProcessor@@SIXPAU1@PAUClass_Microsoft_Singularity_Applications_ParameterProcessor_Parameter@@@Z 0206dd98 f   Shell.obj
 0001:0006ce64       ?m_ProcessParameters@Class_Microsoft_Singularity_Applications_ParameterProcessor@@SI_NPAU1@PAUClassVector_Class_System_String@@PAUClass_Microsoft_Singularity_Applications_Manifest@@PAPAUClass_System_Process@@PAPAUClass_System_String@@@Z 0206de64 f   Shell.obj
 0001:0006d214       ?m_ParseAndSetParameter@Class_Microsoft_Singularity_Applications_ParameterProcessor@@SI_NPAU1@PAUClass_Microsoft_Singularity_Applications_ParameterProcessor_Parameter@@PAUClass_System_String@@@Z 0206e214 f   Shell.obj
 0001:0006d390       ?m_Parse@Class_Microsoft_Singularity_Applications_ParameterProcessor@@SI_NPAU1@PAUClassVector_Class_System_String@@PAUClass_Microsoft_Singularity_Applications_Manifest@@PAPAUClass_System_String@@3PAPAUClassVector_Class_Microsoft_Singularity_Applications_ParameterProcessor_Parameter@@@Z 0206e390 f   Shell.obj
 0001:0006deb4       ?m_KindToString@Class_Microsoft_Singularity_Applications_ParameterProcessor@@SIPAUClass_System_String@@PAU1@UStruct_Microsoft_Singularity_Applications_ParameterProcessor_pType@@@Z 0206eeb4 f   Shell.obj
 0001:0006df48       ?g_InSeparators@Class_Microsoft_Singularity_Applications_ParameterProcessor@@SI_N_WPAUClassVector_bartok_char@@@Z 0206ef48 f   Shell.obj
 0001:0006dfe0       ?m_InitializeParameters@Class_Microsoft_Singularity_Applications_ParameterProcessor@@SIXPAU1@PAUClass_System_String@@PAUClass_Microsoft_Singularity_Applications_Manifest@@@Z 0206efe0 f   Shell.obj
 0001:0006eb44       ?m_GetXmlAttributes@Class_Microsoft_Singularity_Applications_ParameterProcessor@@SIPAUClass_Microsoft_Singularity_Applications_ParameterProcessor_Parameter@@PAU1@PAUClass_Microsoft_Singularity_Xml_XmlNode@@UStruct_Microsoft_Singularity_Applications_ParameterProcessor_pType@@@Z 0206fb44 f   Shell.obj
 0001:0006ec4c       ?m_GetParameterSyntaxSummary@Class_Microsoft_Singularity_Applications_ParameterProcessor@@SIPAUClass_System_String@@PAU1@PAUClass_Microsoft_Singularity_Applications_Manifest@@PAU2@@Z 0206fc4c f   Shell.obj
 0001:0006f010       ?m_GetAllActions@Class_Microsoft_Singularity_Applications_ParameterProcessor@@SIPAUClassVector_Class_System_String@@PAU1@PAUClass_Microsoft_Singularity_Applications_Manifest@@@Z 02070010 f   Shell.obj
 0001:0006f1ec       ?m_FindParameter@Class_Microsoft_Singularity_Applications_ParameterProcessor@@SIPAUClass_Microsoft_Singularity_Applications_ParameterProcessor_Parameter@@PAU1@PAUClass_System_String@@@Z 020701ec f   Shell.obj
 0001:0006f2f8       ?m_CodeToString@Class_Microsoft_Singularity_Applications_ParameterProcessor@@SIPAUClass_System_String@@PAU1@UStruct_Microsoft_Singularity_V1_Services_ParameterCode@@@Z 020702f8 f   Shell.obj
 0001:0006f3a0       ?m_BreakLineAtWords@Class_Microsoft_Singularity_Applications_ParameterProcessor@@SIPAUClassVector_Class_System_String@@PAU1@PAUClass_System_String@@H@Z 020703a0 f   Shell.obj
 0001:0006f640       ?m__ctor@Class_Microsoft_Singularity_Applications_ParameterProcessor@@SIXPAU1@@Z 02070640 f   Shell.obj
 0001:0006f65c       ?m_StructCopy@Struct_Microsoft_Singularity_Directory_FileContract_Write@@SIXPAU1@0@Z 0207065c f   Shell.obj
 0001:0006f6cc       ?m_StructCopy@Struct_Microsoft_Singularity_Directory_FileContract_Write@@SIXPAU1@PAU1@@Z 020706cc f   Shell.obj
 0001:0006f81c       ?m_Equals@Struct_Microsoft_Singularity_Directory_FileContract_Write@@SI_NPAU1@PAUClass_System_Object@@@Z 0207081c f   Shell.obj
 0001:0006f8e0       ?m_Equals@Struct_Microsoft_Singularity_Directory_FileContract_Write@@SI_NPAUClass_Microsoft_Singularity_Directory_FileContract_Write@@PAUClass_System_Object@@@Z 020708e0 f   Shell.obj
 0001:0006f90c       ?g_WaitForSimple@Class_Microsoft_Singularity_Applications_Shell@@SIHPAUClass_Microsoft_Singularity_Applications_Job@@@Z 0207090c f   Shell.obj
 0001:0006fb64       ?g_WaitForJob@Class_Microsoft_Singularity_Applications_Shell@@SIHPAUClass_Microsoft_Singularity_Applications_Job@@@Z 02070b64 f   Shell.obj
 0001:0006fc20       ?g_WaitForIOJob@Class_Microsoft_Singularity_Applications_Shell@@SIHPAUClass_Microsoft_Singularity_Applications_Job@@PAUClass_Microsoft_Singularity_Io_PipeLookAhead@@@Z 02070c20 f   Shell.obj
 0001:000702fc       ?g_TryParseInt@Class_Microsoft_Singularity_Applications_Shell@@SI_NPAUClass_System_String@@PAH@Z 020712fc f   Shell.obj
 0001:00070378       ?g_Tokenize@Class_Microsoft_Singularity_Applications_Shell@@SIPAUClass_System_Collections_ArrayList@@PAUClass_System_String@@HPAUClassVector_bartok_char@@@Z 02071378 f   Shell.obj
 0001:00070680       ?g_StringToCharArrayList@Class_Microsoft_Singularity_Applications_Shell@@SIPAUClass_System_Collections_ArrayList@@PAUClass_System_String@@@Z 02071680 f   Shell.obj
 0001:00070768       ?g_StartOutputPipeThread@Class_Microsoft_Singularity_Applications_Shell@@SIPAUClass_Microsoft_Singularity_Applications_ShellControl@@XZ 02071768 f   Shell.obj
 0001:00070874       ?g_SingleMain@Class_Microsoft_Singularity_Applications_Shell@@SIHPAUClass_Microsoft_Singularity_Applications_SingleParameters@@@Z 02071874 f   Shell.obj
 0001:00070a7c       ?g_RunPipe@Class_Microsoft_Singularity_Applications_Shell@@SIHPAUClass_Microsoft_Singularity_Applications_ShellControl@@PAUClass_System_String@@@Z 02071a7c f   Shell.obj
 0001:000714d0       ?g_RunCommand@Class_Microsoft_Singularity_Applications_Shell@@SIHPAUClass_Microsoft_Singularity_Applications_ShellControl@@PAUClassVector_Class_System_String@@_N@Z 020724d0 f   Shell.obj
 0001:00071520       ?g_RunCommand@Class_Microsoft_Singularity_Applications_Shell@@SIHPAUClass_Microsoft_Singularity_Applications_ShellControl@@PAUClassVector_Class_System_String@@_NPAUClass_Microsoft_Singularity_Applications_Shell_SchedulerOptions@@@Z 02072520 f   Shell.obj
 0001:00071a9c       ?g_ReplaceOldCommandString@Class_Microsoft_Singularity_Applications_Shell@@SIXPAUClass_System_String@@H@Z 02072a9c f   Shell.obj
 0001:00071b34       ?g_IsScript@Class_Microsoft_Singularity_Applications_Shell@@SI_NPAUClass_System_String@@PAPAU2@@Z 02072b34 f   Shell.obj
 0001:00071c60       ?g_InSeparators@Class_Microsoft_Singularity_Applications_Shell@@SI_N_WPAUClassVector_bartok_char@@@Z 02072c60 f   Shell.obj
 0001:00071cf8       ?g_IncrementCurpos@Class_Microsoft_Singularity_Applications_Shell@@SI_NXZ 02072cf8 f   Shell.obj
 0001:00071d5c       ?g_HasPipes@Class_Microsoft_Singularity_Applications_Shell@@SI_NPAUClass_System_String@@@Z 02072d5c f   Shell.obj
 0001:00071da0       ?g_GetProcessNameFromID@Class_Microsoft_Singularity_Applications_Shell@@SIPAUClass_System_String@@H@Z 02072da0 f   Shell.obj
 0001:00071fa8       ?g_GetCommand@Class_Microsoft_Singularity_Applications_Shell@@SIPAUClass_System_String@@PAU2@PAUClass_System_Collections_ArrayList@@@Z 02072fa8 f   Shell.obj
 0001:00072b70       ?g_GcStressVariableSizeObjects@Class_Microsoft_Singularity_Applications_Shell@@SIXXZ 02073b70 f   Shell.obj
 0001:00073018       ?g_GcStressFixedSizeObjects@Class_Microsoft_Singularity_Applications_Shell@@SIXXZ 02074018 f   Shell.obj
 0001:0007347c       ?g_FindCommand@Class_Microsoft_Singularity_Applications_Shell@@SIPAUClass_Microsoft_Singularity_Applications_Shell_ShellCommand@@PAUClass_System_String@@@Z 0207447c f   Shell.obj
 0001:00073560       ?g_DoWarmBoot@Class_Microsoft_Singularity_Applications_Shell@@SIHPAUClass_Microsoft_Singularity_Applications_ShellControl@@PAUClassVector_Class_System_String@@@Z 02074560 f   Shell.obj
 0001:000735b4       ?g_DoWaitFor@Class_Microsoft_Singularity_Applications_Shell@@SIHPAUClass_Microsoft_Singularity_Applications_ShellControl@@PAUClassVector_Class_System_String@@@Z 020745b4 f   Shell.obj
 0001:000737bc       ?g_DoTestScript@Class_Microsoft_Singularity_Applications_Shell@@SIHPAUClass_Microsoft_Singularity_Applications_ShellControl@@PAUClassVector_Class_System_String@@@Z 020747bc f   Shell.obj
 0001:000738ac       ?g_DoStart@Class_Microsoft_Singularity_Applications_Shell@@SIHPAUClass_Microsoft_Singularity_Applications_ShellControl@@PAUClassVector_Class_System_String@@@Z 020748ac f   Shell.obj
 0001:00073d0c       ?g_DoShutdown@Class_Microsoft_Singularity_Applications_Shell@@SIHPAUClass_Microsoft_Singularity_Applications_ShellControl@@PAUClassVector_Class_System_String@@@Z 02074d0c f   Shell.obj
 0001:00073d60       ?g_DoScript@Class_Microsoft_Singularity_Applications_Shell@@SIHPAUClass_Microsoft_Singularity_Applications_ShellControl@@PAUClassVector_Class_System_String@@@Z 02074d60 f   Shell.obj
 0001:000741e4       ?g_DoReboot@Class_Microsoft_Singularity_Applications_Shell@@SIHPAUClass_Microsoft_Singularity_Applications_ShellControl@@PAUClassVector_Class_System_String@@@Z 020751e4 f   Shell.obj
 0001:00074238       ?g_DoKill@Class_Microsoft_Singularity_Applications_Shell@@SIHPAUClass_Microsoft_Singularity_Applications_ShellControl@@PAUClassVector_Class_System_String@@@Z 02075238 f   Shell.obj
 0001:000744bc       ?g_DoJobs@Class_Microsoft_Singularity_Applications_Shell@@SIHPAUClass_Microsoft_Singularity_Applications_ShellControl@@PAUClassVector_Class_System_String@@@Z 020754bc f   Shell.obj
 0001:00074664       ?g_DoHelp@Class_Microsoft_Singularity_Applications_Shell@@SIHPAUClass_Microsoft_Singularity_Applications_ShellControl@@PAUClassVector_Class_System_String@@@Z 02075664 f   Shell.obj
 0001:00074898       ?g_DoGcStress@Class_Microsoft_Singularity_Applications_Shell@@SIHPAUClass_Microsoft_Singularity_Applications_ShellControl@@PAUClassVector_Class_System_String@@@Z 02075898 f   Shell.obj
 0001:000748e4       ?g_DoFg@Class_Microsoft_Singularity_Applications_Shell@@SIHPAUClass_Microsoft_Singularity_Applications_ShellControl@@PAUClassVector_Class_System_String@@@Z 020758e4 f   Shell.obj
 0001:00074a00       ?g_DoEcho@Class_Microsoft_Singularity_Applications_Shell@@SIHPAUClass_Microsoft_Singularity_Applications_ShellControl@@PAUClassVector_Class_System_String@@@Z 02075a00 f   Shell.obj
 0001:00074a58       ?g_DoDir@Class_Microsoft_Singularity_Applications_Shell@@SIHPAUClass_Microsoft_Singularity_Applications_ShellControl@@PAUClassVector_Class_System_String@@@Z 02075a58 f   Shell.obj
 0001:00074d24       ?g_DoDecho@Class_Microsoft_Singularity_Applications_Shell@@SIHPAUClass_Microsoft_Singularity_Applications_ShellControl@@PAUClassVector_Class_System_String@@@Z 02075d24 f   Shell.obj
 0001:00074dd8       ?g_DoDate@Class_Microsoft_Singularity_Applications_Shell@@SIHPAUClass_Microsoft_Singularity_Applications_ShellControl@@PAUClassVector_Class_System_String@@@Z 02075dd8 f   Shell.obj
 0001:00074e90       ?g_DoClear@Class_Microsoft_Singularity_Applications_Shell@@SIHPAUClass_Microsoft_Singularity_Applications_ShellControl@@PAUClassVector_Class_System_String@@@Z 02075e90 f   Shell.obj
 0001:00074ee4       ?g_DoBreak@Class_Microsoft_Singularity_Applications_Shell@@SIHPAUClass_Microsoft_Singularity_Applications_ShellControl@@PAUClassVector_Class_System_String@@@Z 02075ee4 f   Shell.obj
 0001:00075030       ?g_DoBg@Class_Microsoft_Singularity_Applications_Shell@@SIHPAUClass_Microsoft_Singularity_Applications_ShellControl@@PAUClassVector_Class_System_String@@@Z 02076030 f   Shell.obj
 0001:0007513c       ?g_DecrementTotalChars@Class_Microsoft_Singularity_Applications_Shell@@SIXXZ 0207613c f   Shell.obj
 0001:00075180       ?g_DecrementCurpos@Class_Microsoft_Singularity_Applications_Shell@@SI_NXZ 02076180 f   Shell.obj
 0001:000751e4       ?g_ConsoleWriteDateTime@Class_Microsoft_Singularity_Applications_Shell@@SIXPAUClass_System_String@@UStruct_System_TimeSpan@@@Z 020761e4 f   Shell.obj
 0001:0007522c       ?g_ConsoleWriteDateTime@Class_Microsoft_Singularity_Applications_Shell@@SIXPAUClass_System_String@@UStruct_System_DateTime@@@Z 0207622c f   Shell.obj
 0001:00075410       ?g_Concat@Class_Microsoft_Singularity_Applications_Shell@@SIPAUClass_System_String@@PAUClassVector_Class_System_String@@H@Z 02076410 f   Shell.obj
 0001:00075504       ?g_Compare@Class_Microsoft_Singularity_Applications_Shell@@SI_NPAUClass_System_Collections_ArrayList@@PAUClass_System_String@@@Z 02076504 f   Shell.obj
 0001:000755fc       ?g_CommandLineSyntaxCheck@Class_Microsoft_Singularity_Applications_Shell@@SI_NPAUClass_System_String@@@Z 020765fc f   Shell.obj
 0001:000756d0       ?g_CleanBackgroundProcesses@Class_Microsoft_Singularity_Applications_Shell@@SIXXZ 020766d0 f   Shell.obj
 0001:00075880       ?g_CharArrayToString@Class_Microsoft_Singularity_Applications_Shell@@SIPAUClass_System_String@@PAUClass_System_Collections_ArrayList@@@Z 02076880 f   Shell.obj
 0001:000758e4       ?g_CharArrayToString@Class_Microsoft_Singularity_Applications_Shell@@SIPAUClass_System_String@@PAUClass_System_Collections_ArrayList@@HH@Z 020768e4 f   Shell.obj
 0001:00075a9c       ?g_BreakCommandLine@Class_Microsoft_Singularity_Applications_Shell@@SIXPAUClass_System_String@@PAUClassVector_bartok_char@@PAPAU2@PAPAUClassVector_Class_System_String@@PA_N@Z 02076a9c f   Shell.obj
 0001:00075cd8       ?g_BindToProcessContract@Class_Microsoft_Singularity_Applications_Shell@@SIPAUStruct_Microsoft_Singularity_Diagnostics_Contracts_ProcessContract_Imp@@XZ 02076cd8 f   Shell.obj
 0001:00075f48       ?g_AppMain@Class_Microsoft_Singularity_Applications_Shell@@SIHPAUClass_Microsoft_Singularity_Applications_Parameters@@@Z 02076f48 f   Shell.obj
 0001:00076434       ?m__ctor@Class_Microsoft_Singularity_Applications_Shell@@SIXPAU1@@Z 02077434 f   Shell.obj
 0001:0007644c       ?g__cctor@Class_Microsoft_Singularity_Applications_Shell@@SIXXZ 0207744c f   Shell.obj
 0001:00076d60       ?m_ScanRoots@Class_System_GCs_GCProfiler@@SIXPAU1@@Z 02077d60 f   Shell.obj
 0001:00076d8c       ?m_ScanObjects@Class_System_GCs_GCProfiler@@SIXPAU1@@Z 02077d8c f   Shell.obj
 0001:00076db8       ?m_NotifyShutdown@Class_System_GCs_GCProfiler@@SIXPAU1@@Z 02077db8 f   Shell.obj
 0001:00076ddc       ?m_NotifyPreGC@Class_System_GCs_GCProfiler@@SIXPAU1@H@Z 02077ddc f   Shell.obj
 0001:00076e08       ?m_NotifyPostGC@Class_System_GCs_GCProfiler@@SIXPAU1@PAUClass_System_GCs_ProfileRootsDelegate@@PAUClass_System_GCs_ProfileObjectsDelegate@@@Z 02077e08 f   Shell.obj
 0001:00076e44       ?m_NotifyAllocation@Class_System_GCs_GCProfiler@@SIXPAU1@PAUuintPtr@@PAUClass_System_Type@@1@Z 02077e44 f   Shell.obj
 0001:00076e78       ?m__ctor@Class_System_GCs_GCProfiler@@SIXPAU1@@Z 02077e78 f   Shell.obj
 0001:00076ee8       ?g_UIntPtrPad@Class_System_GCs_Util@@SIPAUuintPtr@@PAU2@@Z 02077ee8 f   Shell.obj
 0001:00076f18       ?g_PrintPageContents@Class_System_GCs_Util@@SIXPAUuintPtr@@@Z 02077f18 f   Shell.obj
 0001:00076fa4       ?g_PrintMemoryContents@Class_System_GCs_Util@@SIXPAUuintPtr@@0@Z 02077fa4 f   Shell.obj
 0001:00077390       ?g_Pad@Class_System_GCs_Util@@SIPAUuintPtr@@PAU2@0@Z 02078390 f   Shell.obj
 0001:000773c0       ?g_MemCopy@Class_System_GCs_Util@@SIXPAUuintPtr@@00@Z 020783c0 f   Shell.obj
 0001:000773f0       ?g_MemClear@Class_System_GCs_Util@@SIXPAUuintPtr@@0@Z 020783f0 f   Shell.obj
 0001:0007741c       ?g_IsAligned@Class_System_GCs_Util@@SI_NII@Z 0207841c f   Shell.obj
 0001:0007744c       ?g_Align@Class_System_GCs_Util@@SIPAUuintPtr@@PAU2@0@Z 0207844c f   Shell.obj
 0001:00077478       ?m__ctor@Class_System_GCs_Util@@SIXPAU1@@Z 02078478 f   Shell.obj
 0001:00077490       ?m_Microsoft_SingSharp_ITracked_Release@Class_Microsoft_Singularity_Channels_ESet$_2$LMicrosoft_Singularity_Io_UnicodePipeContract_Imp_Microsoft_Singularity_Io_UnicodePipeContract_ACK$G@@SIXPAU1@@Z 02078490 f   Shell.obj
 0001:00077524       ?m_Microsoft_SingSharp_ITracked_Acquire@Class_Microsoft_Singularity_Channels_ESet$_2$LMicrosoft_Singularity_Io_UnicodePipeContract_Imp_Microsoft_Singularity_Io_UnicodePipeContract_ACK$G@@SIXPAU1@@Z 02078524 f   Shell.obj
 0001:000775b8       ?m_HeadMatches@Class_Microsoft_Singularity_Channels_ESet$_2$LMicrosoft_Singularity_Io_UnicodePipeContract_Imp_Microsoft_Singularity_Io_UnicodePipeContract_ACK$G@@SI_NPAU1@HPA_NPAPAUClass_System_Object@@@Z 020785b8 f   Shell.obj
 0001:00077730       ?m_GetWaitHandle@Class_Microsoft_Singularity_Channels_ESet$_2$LMicrosoft_Singularity_Io_UnicodePipeContract_Imp_Microsoft_Singularity_Io_UnicodePipeContract_ACK$G@@SI?AUStruct_Microsoft_Singularity_V1_Threads_SyncHandle@@PAU1@@Z 02078730 f   Shell.obj
 0001:0007779c       ?m_GetFreshNode@Class_Microsoft_Singularity_Channels_ESet$_2$LMicrosoft_Singularity_Io_UnicodePipeContract_Imp_Microsoft_Singularity_Io_UnicodePipeContract_ACK$G@@SIPAUClass_Microsoft_Singularity_Channels_ESet$_2$LMicrosoft_Singularity_Io_UnicodePipeContract_Imp_Microsoft_Singularity_Io_UnicodePipeContract_ACK$G_Node@@PAU1@PAUStruct_Microsoft_Singularity_Io_UnicodePipeContract_Imp@@0@Z 0207879c f   Shell.obj
 0001:00077840       ?m_get$_NextScanStart@Class_Microsoft_Singularity_Channels_ESet$_2$LMicrosoft_Singularity_Io_UnicodePipeContract_Imp_Microsoft_Singularity_Io_UnicodePipeContract_ACK$G@@SIPAUClass_Microsoft_Singularity_Channels_ESet$_2$LMicrosoft_Singularity_Io_UnicodePipeContract_Imp_Microsoft_Singularity_Io_UnicodePipeContract_ACK$G_Node@@PAU1@@Z 02078840 f   Shell.obj
 0001:000778a8       ?m_Extract@Class_Microsoft_Singularity_Channels_ESet$_2$LMicrosoft_Singularity_Io_UnicodePipeContract_Imp_Microsoft_Singularity_Io_UnicodePipeContract_ACK$G@@SIPAUStruct_Microsoft_Singularity_Io_UnicodePipeContract_Imp@@PAU1@PAUClass_System_Object@@@Z 020788a8 f   Shell.obj
 0001:00077960       ?m_Dispose@Class_Microsoft_Singularity_Channels_ESet$_2$LMicrosoft_Singularity_Io_UnicodePipeContract_Imp_Microsoft_Singularity_Io_UnicodePipeContract_ACK$G@@SIXPAU1@@Z 02078960 f   Shell.obj
 0001:00077a4c       ?m_Add@Class_Microsoft_Singularity_Channels_ESet$_2$LMicrosoft_Singularity_Io_UnicodePipeContract_Imp_Microsoft_Singularity_Io_UnicodePipeContract_ACK$G@@SIXPAU1@PAUStruct_Microsoft_Singularity_Io_UnicodePipeContract_Imp@@@Z 02078a4c f   Shell.obj
 0001:00077a7c       ?m__ctor@Class_Microsoft_Singularity_Channels_ESet$_2$LMicrosoft_Singularity_Io_UnicodePipeContract_Imp_Microsoft_Singularity_Io_UnicodePipeContract_ACK$G@@SIXPAU1@@Z 02078a7c f   Shell.obj
 0001:00077b08       ?m_StringValue@Class_Microsoft_Singularity_Applications_ScriptEngine_Concat@@SIPAUClass_System_String@@PAU1@PAUClass_Microsoft_Singularity_Applications_ScriptEngine_Interpretation@@@Z 02078b08 f   Shell.obj
 0001:00077b70       ?m__ctor@Class_Microsoft_Singularity_Applications_ScriptEngine_Concat@@SIXPAU1@PAUClass_Microsoft_Singularity_Applications_ScriptEngine_Expression@@1@Z 02078b70 f   Shell.obj
 0001:00077ba8       ?m_IntValue@Class_Microsoft_Singularity_Applications_ScriptEngine_StringExpression@@SIHPAU1@PAUClass_Microsoft_Singularity_Applications_ScriptEngine_Interpretation@@@Z 02078ba8 f   Shell.obj
 0001:00077c38       ?m_GetValue@Class_Microsoft_Singularity_Applications_ScriptEngine_StringExpression@@SIPAUClass_System_Object@@PAU1@PAUClass_Microsoft_Singularity_Applications_ScriptEngine_Interpretation@@@Z 02078c38 f   Shell.obj
 0001:00077c80       ?m_BoolValue@Class_Microsoft_Singularity_Applications_ScriptEngine_StringExpression@@SI_NPAU1@PAUClass_Microsoft_Singularity_Applications_ScriptEngine_Interpretation@@@Z 02078c80 f   Shell.obj
 0001:00077d20       ?m__ctor@Class_Microsoft_Singularity_Applications_ScriptEngine_StringExpression@@SIXPAU1@@Z 02078d20 f   Shell.obj
 0001:00077d44       ?m_ToArray@Class_System_Collections_ArrayList@@SIPAUClass_System_Array@@PAU1@PAUClass_System_Type@@@Z 02078d44 f   Shell.obj
 0001:00077de0       ?m_Sort@Class_System_Collections_ArrayList@@SIXPAU1@HHPAUClass_System_Collections_IComparer@@@Z 02078de0 f   Shell.obj
 0001:00077eb8       ?m_set$_Item@Class_System_Collections_ArrayList@@SIXPAU1@HPAUClass_System_Object@@@Z 02078eb8 f   Shell.obj
 0001:00077f5c       ?m_set$_Capacity@Class_System_Collections_ArrayList@@SIXPAU1@H@Z 02078f5c f   Shell.obj
 0001:00078024       ?m_Reverse@Class_System_Collections_ArrayList@@SIXPAU1@@Z 02079024 f   Shell.obj
 0001:00078068       ?m_Reverse@Class_System_Collections_ArrayList@@SIXPAU1@HH@Z 02079068 f   Shell.obj
 0001:0007813c       ?m_RemoveRange@Class_System_Collections_ArrayList@@SIXPAU1@HH@Z 0207913c f   Shell.obj
 0001:000782a0       ?m_RemoveAt@Class_System_Collections_ArrayList@@SIXPAU1@H@Z 020792a0 f   Shell.obj
 0001:00078374       ?m_InsertRange@Class_System_Collections_ArrayList@@SIXPAU1@HPAUClass_System_Collections_ICollection@@@Z 02079374 f   Shell.obj
 0001:00078544       ?m_Insert@Class_System_Collections_ArrayList@@SIXPAU1@HPAUClass_System_Object@@@Z 02079544 f   Shell.obj
 0001:00078658       ?m_GetEnumerator@Class_System_Collections_ArrayList@@SIPAUClass_System_Collections_IEnumerator@@PAU1@@Z 02079658 f   Shell.obj
 0001:0007869c       ?m_get$_SyncRoot@Class_System_Collections_ArrayList@@SIPAUClass_System_Object@@PAU1@@Z 0207969c f   Shell.obj
 0001:000786bc       ?m_get$_Item@Class_System_Collections_ArrayList@@SIPAUClass_System_Object@@PAU1@H@Z 020796bc f   Shell.obj
 0001:00078744       ?m_get$_Count@Class_System_Collections_ArrayList@@SIHPAU1@@Z 02079744 f   Shell.obj
 0001:00078764       ?m_EnsureCapacity@Class_System_Collections_ArrayList@@SIXPAU1@H@Z 02079764 f   Shell.obj
 0001:000787d0       ?m_CopyTo@Class_System_Collections_ArrayList@@SIXPAU1@HPAUClass_System_Array@@HH@Z 020797d0 f   Shell.obj
 0001:0007888c       ?m_CopyTo@Class_System_Collections_ArrayList@@SIXPAU1@PAUClass_System_Array@@@Z 0207988c f   Shell.obj
 0001:000788b8       ?m_CopyTo@Class_System_Collections_ArrayList@@SIXPAU1@PAUClass_System_Array@@H@Z 020798b8 f   Shell.obj
 0001:00078948       ?m_AddRange@Class_System_Collections_ArrayList@@SIXPAU1@PAUClass_System_Collections_ICollection@@@Z 02079948 f   Shell.obj
 0001:00078984       ?m_Add@Class_System_Collections_ArrayList@@SIHPAU1@PAUClass_System_Object@@@Z 02079984 f   Shell.obj
 0001:00078a14       ?m__ctor@Class_System_Collections_ArrayList@@SIXPAU1@@Z 02079a14 f   Shell.obj
 0001:00078a44       ?m__ctor@Class_System_Collections_ArrayList@@SIXPAU1@PAUClass_System_Collections_ICollection@@@Z 02079a44 f   Shell.obj
 0001:00078ae8       ?m__ctor@Class_System_Collections_ArrayList@@SIXPAU1@H@Z 02079ae8 f   Shell.obj
 0001:00078b4c       ?m_StructCopy@Struct_Microsoft_Singularity_Directory_DirectoryServiceContract_DeleteDirectory@@SIXPAU1@0@Z 02079b4c f   Shell.obj
 0001:00078b74       ?m_StructCopy@Struct_Microsoft_Singularity_Directory_DirectoryServiceContract_DeleteDirectory@@SIXPAU1@PAU1@@Z 02079b74 f   Shell.obj
 0001:00078bec       ?m_Equals@Struct_Microsoft_Singularity_Directory_DirectoryServiceContract_DeleteDirectory@@SI_NPAU1@PAUClass_System_Object@@@Z 02079bec f   Shell.obj
 0001:00078c34       ?m_Equals@Struct_Microsoft_Singularity_Directory_DirectoryServiceContract_DeleteDirectory@@SI_NPAUClass_Microsoft_Singularity_Directory_DirectoryServiceContract_DeleteDirectory@@PAUClass_System_Object@@@Z 02079c34 f   Shell.obj
 0001:00078c60       ?m_StructCopy@Struct_Microsoft_Singularity_Directory_DirectoryServiceContract_AckCreateAndBindFile@@SIXPAU1@0@Z 02079c60 f   Shell.obj
 0001:00078c7c       ?m_StructCopy@Struct_Microsoft_Singularity_Directory_DirectoryServiceContract_AckCreateAndBindFile@@SIXPAU1@PAU1@@Z 02079c7c f   Shell.obj
 0001:00078cd0       ?m_Equals@Struct_Microsoft_Singularity_Directory_DirectoryServiceContract_AckCreateAndBindFile@@SI_NPAU1@PAUClass_System_Object@@@Z 02079cd0 f   Shell.obj
 0001:00078d08       ?m_Equals@Struct_Microsoft_Singularity_Directory_DirectoryServiceContract_AckCreateAndBindFile@@SI_NPAUClass_Microsoft_Singularity_Directory_DirectoryServiceContract_AckCreateAndBindFile@@PAUClass_System_Object@@@Z 02079d08 f   Shell.obj
 0001:00078d34       ?m_StructCopy@Struct_Microsoft_Singularity_V1_Services_SharedHeapService_Allocation@@SIXPAU1@0@Z 02079d34 f   Shell.obj
 0001:00078d98       ?m_StructCopy@Struct_Microsoft_Singularity_V1_Services_SharedHeapService_Allocation@@SIXPAU1@PAU1@@Z 02079d98 f   Shell.obj
 0001:00078ec4       ?m_Equals@Struct_Microsoft_Singularity_V1_Services_SharedHeapService_Allocation@@SI_NPAU1@PAUClass_System_Object@@@Z 02079ec4 f   Shell.obj
 0001:00078f54       ?m_Equals@Struct_Microsoft_Singularity_V1_Services_SharedHeapService_Allocation@@SI_NPAUClass_Microsoft_Singularity_V1_Services_SharedHeapService_Allocation@@PAUClass_System_Object@@@Z 02079f54 f   Shell.obj
 0001:00078f80       ?m_StructCopy@Struct_Microsoft_Singularity_Diagnostics_Contracts_ProcessContract_GetProcessName@@SIXPAU1@0@Z 02079f80 f   Shell.obj
 0001:00078fa8       ?m_StructCopy@Struct_Microsoft_Singularity_Diagnostics_Contracts_ProcessContract_GetProcessName@@SIXPAU1@PAU1@@Z 02079fa8 f   Shell.obj
 0001:00079020       ?m_MarshallContent@Struct_Microsoft_Singularity_Diagnostics_Contracts_ProcessContract_GetProcessName@@SIXPAU1@PAEPAUStruct_Microsoft_Singularity_Channels_Endpoint@@1PAH@Z 0207a020 f   Shell.obj
 0001:00079040       ?m_MarshallAll@Struct_Microsoft_Singularity_Diagnostics_Contracts_ProcessContract_GetProcessName@@SIXPAU1@PAEPAUStruct_Microsoft_Singularity_Channels_Endpoint@@PAH@Z 0207a040 f   Shell.obj
 0001:00079098       ?m_Equals@Struct_Microsoft_Singularity_Diagnostics_Contracts_ProcessContract_GetProcessName@@SI_NPAU1@PAUClass_System_Object@@@Z 0207a098 f   Shell.obj
 0001:000790e0       ?m_Equals@Struct_Microsoft_Singularity_Diagnostics_Contracts_ProcessContract_GetProcessName@@SI_NPAUClass_Microsoft_Singularity_Diagnostics_Contracts_ProcessContract_GetProcessName@@PAUClass_System_Object@@@Z 0207a0e0 f   Shell.obj
 0001:0007910c       ?m_RecvHead@Class_Microsoft_Singularity_Channels_ESet$_2$LMicrosoft_Singularity_Io_UnicodePipeContract_Imp_Microsoft_Singularity_Io_UnicodePipeContract_READY$G@@SIXPAU1@PAPAUStruct_Microsoft_Singularity_Io_UnicodePipeContract_Imp@@@Z 0207a10c f   Shell.obj
 0001:000791a8       ?m_Microsoft_SingSharp_ITracked_Release@Class_Microsoft_Singularity_Channels_ESet$_2$LMicrosoft_Singularity_Io_UnicodePipeContract_Imp_Microsoft_Singularity_Io_UnicodePipeContract_READY$G@@SIXPAU1@@Z 0207a1a8 f   Shell.obj
 0001:0007923c       ?m_Microsoft_SingSharp_ITracked_Acquire@Class_Microsoft_Singularity_Channels_ESet$_2$LMicrosoft_Singularity_Io_UnicodePipeContract_Imp_Microsoft_Singularity_Io_UnicodePipeContract_READY$G@@SIXPAU1@@Z 0207a23c f   Shell.obj
 0001:000792d0       ?m_HeadMatches@Class_Microsoft_Singularity_Channels_ESet$_2$LMicrosoft_Singularity_Io_UnicodePipeContract_Imp_Microsoft_Singularity_Io_UnicodePipeContract_READY$G@@SI_NPAU1@HPA_NPAPAUClass_System_Object@@@Z 0207a2d0 f   Shell.obj
 0001:00079448       ?m_GetWaitHandle@Class_Microsoft_Singularity_Channels_ESet$_2$LMicrosoft_Singularity_Io_UnicodePipeContract_Imp_Microsoft_Singularity_Io_UnicodePipeContract_READY$G@@SI?AUStruct_Microsoft_Singularity_V1_Threads_SyncHandle@@PAU1@@Z 0207a448 f   Shell.obj
 0001:000794b4       ?m_GetFreshNode@Class_Microsoft_Singularity_Channels_ESet$_2$LMicrosoft_Singularity_Io_UnicodePipeContract_Imp_Microsoft_Singularity_Io_UnicodePipeContract_READY$G@@SIPAUClass_Microsoft_Singularity_Channels_ESet$_2$LMicrosoft_Singularity_Io_UnicodePipeContract_Imp_Microsoft_Singularity_Io_UnicodePipeContract_READY$G_Node@@PAU1@PAUStruct_Microsoft_Singularity_Io_UnicodePipeContract_Imp@@0@Z 0207a4b4 f   Shell.obj
 0001:00079558       ?m_get$_NextScanStart@Class_Microsoft_Singularity_Channels_ESet$_2$LMicrosoft_Singularity_Io_UnicodePipeContract_Imp_Microsoft_Singularity_Io_UnicodePipeContract_READY$G@@SIPAUClass_Microsoft_Singularity_Channels_ESet$_2$LMicrosoft_Singularity_Io_UnicodePipeContract_Imp_Microsoft_Singularity_Io_UnicodePipeContract_READY$G_Node@@PAU1@@Z 0207a558 f   Shell.obj
 0001:000795c0       ?m_Dispose@Class_Microsoft_Singularity_Channels_ESet$_2$LMicrosoft_Singularity_Io_UnicodePipeContract_Imp_Microsoft_Singularity_Io_UnicodePipeContract_READY$G@@SIXPAU1@@Z 0207a5c0 f   Shell.obj
 0001:000796ac       ?m_Add@Class_Microsoft_Singularity_Channels_ESet$_2$LMicrosoft_Singularity_Io_UnicodePipeContract_Imp_Microsoft_Singularity_Io_UnicodePipeContract_READY$G@@SIXPAU1@PAUStruct_Microsoft_Singularity_Io_UnicodePipeContract_Imp@@@Z 0207a6ac f   Shell.obj
 0001:000796dc       ?m__ctor@Class_Microsoft_Singularity_Channels_ESet$_2$LMicrosoft_Singularity_Io_UnicodePipeContract_Imp_Microsoft_Singularity_Io_UnicodePipeContract_READY$G@@SIXPAU1@@Z 0207a6dc f   Shell.obj
 0001:00079768       ?m_TryEnter@Class_System_Threading_Monitor@@SI_NPAU1@@Z 0207a768 f   Shell.obj
 0001:000797d8       ?m_TryEnter@Class_System_Threading_Monitor@@SI_NPAU1@UStruct_System_SchedulerTime@@@Z 0207a7d8 f   Shell.obj
 0001:00079854       ?g_TryEnter@Class_System_Threading_Monitor@@SI_NPAUClass_System_Object@@@Z 0207a854 f   Shell.obj
 0001:00079890       ?m_IsInUse@Class_System_Threading_Monitor@@SI_NPAU1@@Z 0207a890 f   Shell.obj
 0001:000798ac       ?g_GetMonitorFromObject@Class_System_Threading_Monitor@@SIPAU1@PAUClass_System_Object@@@Z 0207a8ac f   Shell.obj
 0001:00079928       ?g_FromAddress@Class_System_Threading_Monitor@@SIPAU1@PAUuintPtr@@@Z 0207a928 f   Shell.obj
 0001:00079944       ?g_ExitImpl@Class_System_Threading_Monitor@@SIXPAUClass_System_Object@@@Z 0207a944 f   Shell.obj
 0001:00079980       ?m_Exit@Class_System_Threading_Monitor@@SIXPAU1@@Z 0207a980 f   Shell.obj
 0001:000799f8       ?g_EnterImpl@Class_System_Threading_Monitor@@SIXPAUClass_System_Object@@@Z 0207a9f8 f   Shell.obj
 0001:00079a34       ?m_Enter@Class_System_Threading_Monitor@@SIXPAU1@@Z 0207aa34 f   Shell.obj
 0001:00079a94       ?m__ctor@Class_System_Threading_Monitor@@SIXPAU1@@Z 0207aa94 f   Shell.obj
 0001:00079ae8       ?m_StructCopy@Struct_Microsoft_Singularity_V1_Threads_MutexHandle@@SIXPAU1@0@Z 0207aae8 f   Shell.obj
 0001:00079b10       ?m_StructCopy@Struct_Microsoft_Singularity_V1_Threads_MutexHandle@@SIXPAU1@PAU1@@Z 0207ab10 f   Shell.obj
 0001:00079b88       ?m_Equals@Struct_Microsoft_Singularity_V1_Threads_MutexHandle@@SI_NPAU1@PAUClass_System_Object@@@Z 0207ab88 f   Shell.obj
 0001:00079bd0       ?m_Equals@Struct_Microsoft_Singularity_V1_Threads_MutexHandle@@SI_NPAUClass_Microsoft_Singularity_V1_Threads_MutexHandle@@PAUClass_System_Object@@@Z 0207abd0 f   Shell.obj
 0001:00079bfc       ?g_Create@Struct_Microsoft_Singularity_V1_Threads_MutexHandle@@SI_N_NPAU1@@Z 0207abfc f   Shell.obj
 0001:00079c48       ?g_UnExpose@Class_Microsoft_SingSharp_CustomVector@@SIXPAUvoid@@H@Z 0207ac48 f   Shell.obj
 0001:00079c64       ?g_Expose@Class_Microsoft_SingSharp_CustomVector@@SIXPAUvoid@@H@Z 0207ac64 f   Shell.obj
 0001:00079c80       ?m__ctor@Class_Microsoft_SingSharp_CustomVector@@SIXPAU1@@Z 0207ac80 f   Shell.obj
 0001:00079c98       ?m_ToString@float64@@SIPAUClass_System_String@@PAN@Z 0207ac98 f   Shell.obj
 0001:00079cc0       ?m_ToString@float64@@SIPAUClass_System_String@@PANPAU2@@Z 0207acc0 f   Shell.obj
 0001:00079d0c       ?m_ToString@float64@@SIPAUClass_System_String@@PAUClass_System_Double@@@Z 0207ad0c f   Shell.obj
 0001:00079d34       ?m_ToString@float64@@SIPAUClass_System_String@@PAUClass_System_Double@@PAU2@@Z 0207ad34 f   Shell.obj
 0001:00079d60       ?g_IsNaN@float64@@SI_NN@Z  0207ad60 f   Shell.obj
 0001:00079e10       ?m_GetHashCode@float64@@SIHPAN@Z 0207ae10 f   Shell.obj
 0001:00079e7c       ?m_GetHashCode@float64@@SIHPAUClass_System_Double@@@Z 0207ae7c f   Shell.obj
 0001:00079ea4       ?m_Equals@float64@@SI_NPANPAUClass_System_Object@@@Z 0207aea4 f   Shell.obj
 0001:00079f4c       ?m_Equals@float64@@SI_NPAUClass_System_Double@@PAUClass_System_Object@@@Z 0207af4c f   Shell.obj
 0001:00079f78       ?m_CompareTo@float64@@SIHPANPAUClass_System_Object@@@Z 0207af78 f   Shell.obj
 0001:0007a0bc       ?m_CompareTo@float64@@SIHPAUClass_System_Double@@PAUClass_System_Object@@@Z 0207b0bc f   Shell.obj
 0001:0007a0e8       ?m_ToString@Class_Microsoft_Singularity_Applications_Parser_Action@@SIPAUClass_System_String@@PAU1@@Z 0207b0e8 f   Shell.obj
 0001:0007a188       ?m_System_Object_Object_ToString@Class_Microsoft_Singularity_Applications_Parser_Action@@SIPAUClass_System_String@@PAU1@@Z 0207b188 f   Shell.obj
 0001:0007a1c8       ?m_GetHashCode@Class_Microsoft_Singularity_Applications_Parser_Action@@SIHPAU1@@Z 0207b1c8 f   Shell.obj
 0001:0007a248       ?m_Equals@Class_Microsoft_Singularity_Applications_Parser_Action@@SI_NPAU1@PAUClass_System_Object@@@Z 0207b248 f   Shell.obj
 0001:0007a2d0       ?m__ctor@Class_Microsoft_Singularity_Applications_Parser_Action@@SIXPAU1@UStruct_Microsoft_Singularity_Applications_Parser_ActionType@@H@Z 0207b2d0 f   Shell.obj
 0001:0007a300       ?m_StructCopy@Struct_Microsoft_Singularity_Isal_ThreadRecord@@SIXPAU1@0@Z 0207b300 f   Shell.obj
 0001:0007a340       ?m_StructCopy@Struct_Microsoft_Singularity_Isal_ThreadRecord@@SIXPAU1@PAU1@@Z 0207b340 f   Shell.obj
 0001:0007a400       ?m_Equals@Struct_Microsoft_Singularity_Isal_ThreadRecord@@SI_NPAU1@PAUClass_System_Object@@@Z 0207b400 f   Shell.obj
 0001:0007a4d0       ?m_Equals@Struct_Microsoft_Singularity_Isal_ThreadRecord@@SI_NPAUClass_Microsoft_Singularity_Isal_ThreadRecord@@PAUClass_System_Object@@@Z 0207b4d0 f   Shell.obj
 0001:0007a4fc       ?m_StructCopy@Struct_Microsoft_Singularity_V1_Services_StackService@@SIXPAU1@0@Z 0207b4fc f   Shell.obj
 0001:0007a518       ?m_StructCopy@Struct_Microsoft_Singularity_V1_Services_StackService@@SIXPAU1@PAU1@@Z 0207b518 f   Shell.obj
 0001:0007a56c       ?g_FreeStackSegment@Struct_Microsoft_Singularity_V1_Services_StackService@@SIXXZ 0207b56c f   Shell.obj
 0001:0007a57c       ?m_Equals@Struct_Microsoft_Singularity_V1_Services_StackService@@SI_NPAU1@PAUClass_System_Object@@@Z 0207b57c f   Shell.obj
 0001:0007a5b4       ?m_Equals@Struct_Microsoft_Singularity_V1_Services_StackService@@SI_NPAUClass_Microsoft_Singularity_V1_Services_StackService@@PAUClass_System_Object@@@Z 0207b5b4 f   Shell.obj
 0001:0007a5e0       ?g_AllocateStackSegment@Struct_Microsoft_Singularity_V1_Services_StackService@@SIPAUuintPtr@@PAU2@@Z 0207b5e0 f   Shell.obj
 0001:0007a628       ?m_StructCopy@Struct_Microsoft_Singularity_Directory_DirectoryServiceContract_NakGetAttributesReparse@@SIXPAU1@0@Z 0207b628 f   Shell.obj
 0001:0007a668       ?m_StructCopy@Struct_Microsoft_Singularity_Directory_DirectoryServiceContract_NakGetAttributesReparse@@SIXPAU1@PAU1@@Z 0207b668 f   Shell.obj
 0001:0007a728       ?m_Equals@Struct_Microsoft_Singularity_Directory_DirectoryServiceContract_NakGetAttributesReparse@@SI_NPAU1@PAUClass_System_Object@@@Z 0207b728 f   Shell.obj
 0001:0007a790       ?m_Equals@Struct_Microsoft_Singularity_Directory_DirectoryServiceContract_NakGetAttributesReparse@@SI_NPAUClass_Microsoft_Singularity_Directory_DirectoryServiceContract_NakGetAttributesReparse@@PAUClass_System_Object@@@Z 0207b790 f   Shell.obj
 0001:0007a7bc       ?m_Visit@Struct_System_STMWord@@SIXPAU1@PAUClass_System_GCs_DirectReferenceVisitor@@@Z 0207b7bc f   Shell.obj
 0001:0007a854       ?m_ToString@Struct_System_STMWord@@SIPAUClass_System_String@@PAU1@@Z 0207b854 f   Shell.obj
 0001:0007a958       ?m_ToString@Struct_System_STMWord@@SIPAUClass_System_String@@PAUClass_System_STMWord@@@Z 0207b958 f   Shell.obj
 0001:0007a980       ?m_StructCopy@Struct_System_STMWord@@SIXPAU1@0@Z 0207b980 f   Shell.obj
 0001:0007a9a8       ?m_StructCopy@Struct_System_STMWord@@SIXPAU1@PAU1@@Z 0207b9a8 f   Shell.obj
 0001:0007aa20       ?m_IsQuiescent@Struct_System_STMWord@@SI_NPAU1@@Z 0207ba20 f   Shell.obj
 0001:0007aa48       ?m_IsOwned@Struct_System_STMWord@@SI_NPAU1@@Z 0207ba48 f   Shell.obj
 0001:0007aa70       ?m_GetPayload@Struct_System_STMWord@@SIPAUuintPtr@@PAU1@@Z 0207ba70 f   Shell.obj
 0001:0007aa94       ?m_GetOwnersVersion@Struct_System_STMWord@@SI?AU1@PAU1@@Z 0207ba94 f   Shell.obj
 0001:0007aaf8       ?m_GetOwner@Struct_System_STMWord@@SIPAUClass_System_TryAllManager@@PAU1@@Z 0207baf8 f   Shell.obj
 0001:0007ab5c       ?m_Equals@Struct_System_STMWord@@SI_NPAU1@PAUClass_System_Object@@@Z 0207bb5c f   Shell.obj
 0001:0007aba4       ?m_Equals@Struct_System_STMWord@@SI_NPAUClass_System_STMWord@@PAUClass_System_Object@@@Z 0207bba4 f   Shell.obj
 0001:0007abd0       ?m_Eq@Struct_System_STMWord@@SI_NPAU1@U1@@Z 0207bbd0 f   Shell.obj
 0001:0007abfc       ?m_Eq@Struct_System_STMWord@@SI_NPAU1@UStruct_System_MultiUseWord_STMSnapshot@@@Z 0207bbfc f   Shell.obj
 0001:0007acf0       ?m__ctor@Struct_System_STMWord@@SIXPAU1@PAUuintPtr@@@Z 0207bcf0 f   Shell.obj
 0001:0007ad14       ?m__ctor@Struct_System_STMWord@@SIXPAU1@PAUuintPtr@@_N@Z 0207bd14 f   Shell.obj
 0001:0007ad68       ?m_Microsoft_SingSharp_ITracked_Release@Class_SurrogateMicrosoft_Singularity_Io_UnicodePipeContract_Imp@@SIXPAU1@@Z 0207bd68 f   Shell.obj
 0001:0007ad8c       ?m_Microsoft_SingSharp_ITracked_Acquire@Class_SurrogateMicrosoft_Singularity_Io_UnicodePipeContract_Imp@@SIXPAU1@@Z 0207bd8c f   Shell.obj
 0001:0007adb0       ?m_HeadMatches@Class_SurrogateMicrosoft_Singularity_Io_UnicodePipeContract_Imp@@SI_NPAU1@HPA_NPAPAUClass_System_Object@@@Z 0207bdb0 f   Shell.obj
 0001:0007ade4       ?m_GetWaitHandle@Class_SurrogateMicrosoft_Singularity_Io_UnicodePipeContract_Imp@@SI?AUStruct_Microsoft_Singularity_V1_Threads_SyncHandle@@PAU1@@Z 0207bde4 f   Shell.obj
 0001:0007ae08       ?m_Dispose@Class_SurrogateMicrosoft_Singularity_Io_UnicodePipeContract_Imp@@SIXPAU1@@Z 0207be08 f   Shell.obj
 0001:0007ae2c       ?g__ctor@Class_SurrogateMicrosoft_Singularity_Io_UnicodePipeContract_Imp@@SIXPAU1@PAUStruct_Microsoft_Singularity_Io_UnicodePipeContract_Imp@@@Z 0207be2c f   Shell.obj
 0001:0007ae54       ?m_get$_Prefix@Class_System_Text_RegularExpressions_RegexPrefix@@SIPAUClass_System_String@@PAU1@@Z 0207be54 f   Shell.obj
 0001:0007ae74       ?g_get$_Empty@Class_System_Text_RegularExpressions_RegexPrefix@@SIPAU1@XZ 0207be74 f   Shell.obj
 0001:0007ae8c       ?m_get$_CaseInsensitive@Class_System_Text_RegularExpressions_RegexPrefix@@SI_NPAU1@@Z 0207be8c f   Shell.obj
 0001:0007aeac       ?m__ctor@Class_System_Text_RegularExpressions_RegexPrefix@@SIXPAU1@PAUClass_System_String@@_N@Z 0207beac f   Shell.obj
 0001:0007aedc       ?g__cctor@Class_System_Text_RegularExpressions_RegexPrefix@@SIXXZ 0207bedc f   Shell.obj
 0001:0007af2c       ?m__ctor@Class_System_Runtime_CompilerServices_NoStackOverflowCheckAttribute@@SIXPAU1@@Z 0207bf2c f   Shell.obj
 0001:0007af50       ?m__ctor@Class_Microsoft_Singularity_Eventing_DataType@@SIXPAU1@@Z 0207bf50 f   Shell.obj
 0001:0007af6c       ?m_StructCopy@Struct_Microsoft_Singularity_Directory_DirectoryServiceContract_NakCreateLinkReparse@@SIXPAU1@0@Z 0207bf6c f   Shell.obj
 0001:0007afac       ?m_StructCopy@Struct_Microsoft_Singularity_Directory_DirectoryServiceContract_NakCreateLinkReparse@@SIXPAU1@PAU1@@Z 0207bfac f   Shell.obj
 0001:0007b06c       ?m_Equals@Struct_Microsoft_Singularity_Directory_DirectoryServiceContract_NakCreateLinkReparse@@SI_NPAU1@PAUClass_System_Object@@@Z 0207c06c f   Shell.obj
 0001:0007b0d4       ?m_Equals@Struct_Microsoft_Singularity_Directory_DirectoryServiceContract_NakCreateLinkReparse@@SI_NPAUClass_Microsoft_Singularity_Directory_DirectoryServiceContract_NakCreateLinkReparse@@PAUClass_System_Object@@@Z 0207c0d4 f   Shell.obj
 0001:0007b100       ?g_Summary@Class_System_GCs_CollectorStatistics@@SIXXZ 0207c100 f   Shell.obj
 0001:0007b114       ?g_Initialize@Class_System_GCs_CollectorStatistics@@SIXXZ 0207c114 f   Shell.obj
 0001:0007b128       ?g_Event@Class_System_GCs_CollectorStatistics@@SIXUStruct_System_GCs_GCEvent@@@Z 0207c128 f   Shell.obj
 0001:0007b144       ?g_Event@Class_System_GCs_CollectorStatistics@@SIXUStruct_System_GCs_GCEvent@@_J@Z 0207c144 f   Shell.obj
 0001:0007b160       ?m__ctor@Class_System_GCs_CollectorStatistics@@SIXPAU1@@Z 0207c160 f   Shell.obj
 0001:0007b178       ?m_StructCopy@Struct_System_UpdateLog_Entry@@SIXPAU1@0@Z 0207c178 f   Shell.obj
 0001:0007b1c4       ?m_StructCopy@Struct_System_UpdateLog_Entry@@SIXPAU1@PAU1@@Z 0207c1c4 f   Shell.obj
 0001:0007b2a8       ?m_Equals@Struct_System_UpdateLog_Entry@@SI_NPAU1@PAUClass_System_Object@@@Z 0207c2a8 f   Shell.obj
 0001:0007b37c       ?m_Equals@Struct_System_UpdateLog_Entry@@SI_NPAUClass_System_UpdateLog_Entry@@PAUClass_System_Object@@@Z 0207c37c f   Shell.obj
 0001:0007b3a8       ?m__ctor@Class_System_UpdateLog_LogChunk@@SIXPAU1@PAUClassVector_Struct_System_UpdateLog_Entry@@0@Z 0207c3a8 f   Shell.obj
 0001:0007b3f0       ?g_SetPageTableEntryImpl@Class_System_GCs_CentralPT@@SIXPAUuintPtr@@I@Z 0207c3f0 f   Shell.obj
 0001:0007b420       ?g_PageTableEntryImpl@Class_System_GCs_CentralPT@@SIIPAUuintPtr@@@Z 0207c420 f   Shell.obj
 0001:0007b44c       ?m__ctor@Class_System_GCs_CentralPT@@SIXPAU1@@Z 0207c44c f   Shell.obj
 0001:0007b464       ?m_StructCopy@Struct_System_GCs_SegregatedFreeList_PageSeparation@@SIXPAU1@0@Z 0207c464 f   Shell.obj
 0001:0007b4b4       ?m_StructCopy@Struct_System_GCs_SegregatedFreeList_PageSeparation@@SIXPAU1@PAU1@@Z 0207c4b4 f   Shell.obj
 0001:0007b5a4       ?m_Equals@Struct_System_GCs_SegregatedFreeList_PageSeparation@@SI_NPAU1@PAUClass_System_Object@@@Z 0207c5a4 f   Shell.obj
 0001:0007b764       ?m_Equals@Struct_System_GCs_SegregatedFreeList_PageSeparation@@SI_NPAUClass_System_GCs_SegregatedFreeList_PageSeparation@@PAUClass_System_Object@@@Z 0207c764 f   Shell.obj
 0001:0007b790       ?m_StructCopy@Struct_Microsoft_Singularity_Directory_DirectoryServiceContract_NakStoreACL@@SIXPAU1@0@Z 0207c790 f   Shell.obj
 0001:0007b7b8       ?m_StructCopy@Struct_Microsoft_Singularity_Directory_DirectoryServiceContract_NakStoreACL@@SIXPAU1@PAU1@@Z 0207c7b8 f   Shell.obj
 0001:0007b830       ?m_Equals@Struct_Microsoft_Singularity_Directory_DirectoryServiceContract_NakStoreACL@@SI_NPAU1@PAUClass_System_Object@@@Z 0207c830 f   Shell.obj
 0001:0007b8d0       ?m_Equals@Struct_Microsoft_Singularity_Directory_DirectoryServiceContract_NakStoreACL@@SI_NPAUClass_Microsoft_Singularity_Directory_DirectoryServiceContract_NakStoreACL@@PAUClass_System_Object@@@Z 0207c8d0 f   Shell.obj
 0001:0007b8fc       ?m_StructCopy@Struct_Microsoft_Singularity_Diagnostics_Contracts_ProcessContract_ProcessIDs@@SIXPAU1@0@Z 0207c8fc f   Shell.obj
 0001:0007b924       ?m_StructCopy@Struct_Microsoft_Singularity_Diagnostics_Contracts_ProcessContract_ProcessIDs@@SIXPAU1@PAU1@@Z 0207c924 f   Shell.obj
 0001:0007b99c       ?m_Equals@Struct_Microsoft_Singularity_Diagnostics_Contracts_ProcessContract_ProcessIDs@@SI_NPAU1@PAUClass_System_Object@@@Z 0207c99c f   Shell.obj
 0001:0007b9e4       ?m_Equals@Struct_Microsoft_Singularity_Diagnostics_Contracts_ProcessContract_ProcessIDs@@SI_NPAUClass_Microsoft_Singularity_Diagnostics_Contracts_ProcessContract_ProcessIDs@@PAUClass_System_Object@@@Z 0207c9e4 f   Shell.obj
 0001:0007ba10       ?m_StructCopy@Struct_Microsoft_Singularity_Directory_DirectoryServiceContract_AckCreateFile@@SIXPAU1@0@Z 0207ca10 f   Shell.obj
 0001:0007ba2c       ?m_StructCopy@Struct_Microsoft_Singularity_Directory_DirectoryServiceContract_AckCreateFile@@SIXPAU1@PAU1@@Z 0207ca2c f   Shell.obj
 0001:0007ba80       ?m_Equals@Struct_Microsoft_Singularity_Directory_DirectoryServiceContract_AckCreateFile@@SI_NPAU1@PAUClass_System_Object@@@Z 0207ca80 f   Shell.obj
 0001:0007bab8       ?m_Equals@Struct_Microsoft_Singularity_Directory_DirectoryServiceContract_AckCreateFile@@SI_NPAUClass_Microsoft_Singularity_Directory_DirectoryServiceContract_AckCreateFile@@PAUClass_System_Object@@@Z 0207cab8 f   Shell.obj
 0001:0007bae4       ?g_StableState@Class_Microsoft_Singularity_Directory_DirectoryServiceContract@@SIHPAUStruct_Microsoft_Singularity_Channels_StateStack@@@Z 0207cae4 f   Shell.obj
 0001:0007bd88       ?g_NewChannel@Class_Microsoft_Singularity_Directory_DirectoryServiceContract@@SIXPAPAUStruct_Microsoft_Singularity_Directory_DirectoryServiceContract_Imp@@PAPAUStruct_Microsoft_Singularity_Directory_DirectoryServiceContract_Exp@@@Z 0207cd88 f   Shell.obj
 0001:0007be24       ?g_CanonicalState@Class_Microsoft_Singularity_Directory_DirectoryServiceContract@@SIHH@Z 0207ce24 f   Shell.obj
 0001:0007bfac       ?m__ctor@Class_Microsoft_Singularity_Directory_DirectoryServiceContract@@SIXPAU1@@Z 0207cfac f   Shell.obj
 0001:0007bfc4       ?m_Read@Class_System_IO_MemoryStream@@SIHPAU1@PAUClassVector_uint8@@HH@Z 0207cfc4 f   Shell.obj
 0001:0007c23c       ?m_get$_CanRead@Class_System_IO_MemoryStream@@SI_NPAU1@@Z 0207d23c f   Shell.obj
 0001:0007c270       ?m_Close@Class_System_IO_MemoryStream@@SIXPAU1@@Z 0207d270 f   Shell.obj
 0001:0007c2a0       ?m__ctor@Class_System_IO_MemoryStream@@SIXPAU1@@Z 0207d2a0 f   Shell.obj
 0001:0007c2c8       ?m__ctor@Class_System_IO_MemoryStream@@SIXPAU1@PAUClassVector_uint8@@@Z 0207d2c8 f   Shell.obj
 0001:0007c2f4       ?m__ctor@Class_System_IO_MemoryStream@@SIXPAU1@PAUClassVector_uint8@@_N@Z 0207d2f4 f   Shell.obj
 0001:0007c3b0       ?m__ctor@Class_System_IO_MemoryStream@@SIXPAU1@H@Z 0207d3b0 f   Shell.obj
 0001:0007c444       ?m_StructCopy@Struct_System_GCs_FrameDescriptor@@SIXPAU1@0@Z 0207d444 f   Shell.obj
 0001:0007c4e4       ?m_StructCopy@Struct_System_GCs_FrameDescriptor@@SIXPAU1@PAU1@@Z 0207d4e4 f   Shell.obj
 0001:0007c6c4       ?m_Equals@Struct_System_GCs_FrameDescriptor@@SI_NPAU1@PAUClass_System_Object@@@Z 0207d6c4 f   Shell.obj
 0001:0007c79c       ?m_Equals@Struct_System_GCs_FrameDescriptor@@SI_NPAUClass_System_GCs_FrameDescriptor@@PAUClass_System_Object@@@Z 0207d79c f   Shell.obj
 0001:0007c7c8       ?m__ctor@Struct_System_GCs_FrameDescriptor@@SIXPAU1@UStruct_System_GCs_CompressedFrameDescriptor@@@Z 0207d7c8 f   Shell.obj
 0001:0007ca28       ?m_StructCopy@Struct_System_LogEntryUndoAction@@SIXPAU1@0@Z 0207da28 f   Shell.obj
 0001:0007ca60       ?m_StructCopy@Struct_System_LogEntryUndoAction@@SIXPAU1@PAU1@@Z 0207da60 f   Shell.obj
 0001:0007cb08       ?m_Equals@Struct_System_LogEntryUndoAction@@SI_NPAU1@PAUClass_System_Object@@@Z 0207db08 f   Shell.obj
 0001:0007cc04       ?m_Equals@Struct_System_LogEntryUndoAction@@SI_NPAUClass_System_LogEntryUndoAction@@PAUClass_System_Object@@@Z 0207dc04 f   Shell.obj
 0001:0007cc30       ?m__ctor@Class_System_Threading_HandleCreateException@@SIXPAU1@@Z 0207dc30 f   Shell.obj
 0001:0007cc58       ?m_Release@Class_System_Text_RegularExpressions_ExclusiveReference@@SIXPAU1@PAUClass_System_Object@@@Z 0207dc58 f   Shell.obj
 0001:0007cd28       ?m_Get@Class_System_Text_RegularExpressions_ExclusiveReference@@SIPAUClass_System_Object@@PAU1@@Z 0207dd28 f   Shell.obj
 0001:0007cd9c       ?m__ctor@Class_System_Text_RegularExpressions_ExclusiveReference@@SIXPAU1@@Z 0207dd9c f   Shell.obj
 0001:0007cde4       ?g_WriteAlignment@Class_System_GCs_Allocator@@SIXPAUuintPtr@@@Z 0207dde4 f   Shell.obj
 0001:0007ce18       ?g_SkipAlignment@Class_System_GCs_Allocator@@SIPAUuintPtr@@PAU2@@Z 0207de18 f   Shell.obj
 0001:0007cea4       ?g_IsAlignmentMarkerAddr@Class_System_GCs_Allocator@@SI_NPAUuintPtr@@@Z 0207dea4 f   Shell.obj
 0001:0007ced8       ?g_IsAlignment@Class_System_GCs_Allocator@@SI_NPAUuintPtr@@@Z 0207ded8 f   Shell.obj
 0001:0007cf10       ?g_get$_ALIGNMENT$_TOKEN@Class_System_GCs_Allocator@@SIPAUuintPtr@@XZ 0207df10 f   Shell.obj
 0001:0007cf28       ?g_AlignedObjectPtr@Class_System_GCs_Allocator@@SIPAUuintPtr@@PAU2@I@Z 0207df28 f   Shell.obj
 0001:0007cfe0       ?g_AlignedAllocationPtr@Class_System_GCs_Allocator@@SIPAUuintPtr@@PAU2@0I@Z 0207dfe0 f   Shell.obj
 0001:0007d09c       ?m__ctor@Class_System_GCs_Allocator@@SIXPAU1@@Z 0207e09c f   Shell.obj
 0001:0007d0b4       ?m_AppMain@Class_Microsoft_Singularity_Applications_SingleParameters@@SIHPAU1@@Z 0207e0b4 f   Shell.obj
 0001:0007d108       ?m__ctor@Class_Microsoft_Singularity_Applications_SingleParameters@@SIXPAU1@@Z 0207e108 f   Shell.obj
 0001:0007d24c       ?m_ToString@int8@@SIPAUClass_System_String@@PAC@Z 0207e24c f   Shell.obj
 0001:0007d274       ?m_ToString@int8@@SIPAUClass_System_String@@PACPAU2@@Z 0207e274 f   Shell.obj
 0001:0007d36c       ?m_ToString@int8@@SIPAUClass_System_String@@PAUClass_System_SByte@@@Z 0207e36c f   Shell.obj
 0001:0007d394       ?m_ToString@int8@@SIPAUClass_System_String@@PAUClass_System_SByte@@PAU2@@Z 0207e394 f   Shell.obj
 0001:0007d3c0       ?m_GetHashCode@int8@@SIHPAC@Z 0207e3c0 f   Shell.obj
 0001:0007d3f0       ?m_GetHashCode@int8@@SIHPAUClass_System_SByte@@@Z 0207e3f0 f   Shell.obj
 0001:0007d418       ?m_Equals@int8@@SI_NPACPAUClass_System_Object@@@Z 0207e418 f   Shell.obj
 0001:0007d478       ?m_Equals@int8@@SI_NPAUClass_System_SByte@@PAUClass_System_Object@@@Z 0207e478 f   Shell.obj
 0001:0007d4a4       ?m_CompareTo@int8@@SIHPACPAUClass_System_Object@@@Z 0207e4a4 f   Shell.obj
 0001:0007d530       ?m_CompareTo@int8@@SIHPAUClass_System_SByte@@PAUClass_System_Object@@@Z 0207e530 f   Shell.obj
 0001:0007d55c       ?m_Visit@Class_System_GCs_Verifier_GenericObjectVisitor@@SIPAUuintPtr@@PAU1@PAUClass_System_Object@@@Z 0207e55c f   Shell.obj
 0001:0007d588       ?m__ctor@Class_System_GCs_Verifier_GenericObjectVisitor@@SIXPAU1@PAUClass_System_GCs_NonNullReferenceVisitor@@@Z 0207e588 f   Shell.obj
 0001:0007d5b8       ?m_StructCopy@Struct_Microsoft_Singularity_Diagnostics_Contracts_ProcessContract_ProcessName@@SIXPAU1@0@Z 0207e5b8 f   Shell.obj
 0001:0007d5e0       ?m_StructCopy@Struct_Microsoft_Singularity_Diagnostics_Contracts_ProcessContract_ProcessName@@SIXPAU1@PAU1@@Z 0207e5e0 f   Shell.obj
 0001:0007d658       ?m_Equals@Struct_Microsoft_Singularity_Diagnostics_Contracts_ProcessContract_ProcessName@@SI_NPAU1@PAUClass_System_Object@@@Z 0207e658 f   Shell.obj
 0001:0007d6a0       ?m_Equals@Struct_Microsoft_Singularity_Diagnostics_Contracts_ProcessContract_ProcessName@@SI_NPAUClass_Microsoft_Singularity_Diagnostics_Contracts_ProcessContract_ProcessName@@PAUClass_System_Object@@@Z 0207e6a0 f   Shell.obj
 0001:0007d6cc       ?m_set$_Target@Class_System_EMU@@SIXPAU1@PAUClass_System_Object@@@Z 0207e6cc f   Shell.obj
 0001:0007d710       ?m_set$_NextShadow@Class_System_EMU@@SIXPAU1@0@Z 0207e710 f   Shell.obj
 0001:0007d738       ?m_set$_Monitor@Class_System_EMU@@SIXPAU1@PAUClass_System_Threading_Monitor@@@Z 0207e738 f   Shell.obj
 0001:0007d760       ?m_set$_HashCode@Class_System_EMU@@SIXPAU1@H@Z 0207e760 f   Shell.obj
 0001:0007d788       ?m_Register@Class_System_EMU@@SIXPAU1@@Z 0207e788 f   Shell.obj
 0001:0007d810       ?m_IsMonitor@Class_System_EMU@@SI_NPAU1@@Z 0207e810 f   Shell.obj
 0001:0007d838       ?m_get$_Target@Class_System_EMU@@SIPAUClass_System_Object@@PAU1@@Z 0207e838 f   Shell.obj
 0001:0007d87c       ?m_get$_NextShadow@Class_System_EMU@@SIPAU1@PAU1@@Z 0207e87c f   Shell.obj
 0001:0007d8a0       ?m_get$_Next@Class_System_EMU@@SIPAU1@PAU1@@Z 0207e8a0 f   Shell.obj
 0001:0007d8c4       ?m_get$_Monitor@Class_System_EMU@@SIPAUClass_System_Threading_Monitor@@PAU1@@Z 0207e8c4 f   Shell.obj
 0001:0007d8fc       ?m_get$_HashCode@Class_System_EMU@@SIHPAU1@@Z 0207e8fc f   Shell.obj
 0001:0007d91c       ?g_FromAddress@Class_System_EMU@@SIPAU1@PAUuintPtr@@@Z 0207e91c f   Shell.obj
 0001:0007d938       ?m__ctor@Class_System_EMU@@SIXPAU1@@Z 0207e938 f   Shell.obj
 0001:0007d954       ?m_StructCopy@Struct_Microsoft_Singularity_Diagnostics_Contracts_ProcessContract_GetProcessIDs@@SIXPAU1@0@Z 0207e954 f   Shell.obj
 0001:0007d970       ?m_StructCopy@Struct_Microsoft_Singularity_Diagnostics_Contracts_ProcessContract_GetProcessIDs@@SIXPAU1@PAU1@@Z 0207e970 f   Shell.obj
 0001:0007d9c4       ?m_Equals@Struct_Microsoft_Singularity_Diagnostics_Contracts_ProcessContract_GetProcessIDs@@SI_NPAU1@PAUClass_System_Object@@@Z 0207e9c4 f   Shell.obj
 0001:0007d9fc       ?m_Equals@Struct_Microsoft_Singularity_Diagnostics_Contracts_ProcessContract_GetProcessIDs@@SI_NPAUClass_Microsoft_Singularity_Diagnostics_Contracts_ProcessContract_GetProcessIDs@@PAUClass_System_Object@@@Z 0207e9fc f   Shell.obj
 0001:0007da28       ?m_StructCopy@Struct_Microsoft_Singularity_Io_PipeMultiplexControl_Exp@@SIXPAU1@0@Z 0207ea28 f   Shell.obj
 0001:0007db04       ?m_StructCopy@Struct_Microsoft_Singularity_Io_PipeMultiplexControl_Exp@@SIXPAU1@PAU1@@Z 0207eb04 f   Shell.obj
 0001:0007dd98       ?m_SendAck@Struct_Microsoft_Singularity_Io_PipeMultiplexControl_Exp@@SIXPAU1@@Z 0207ed98 f   Shell.obj
 0001:0007de8c       ?m_Release@Struct_Microsoft_Singularity_Io_PipeMultiplexControl_Exp@@SIXPAU1@@Z 0207ee8c f   Shell.obj
 0001:0007dea8       ?m_RecvNewInput@Struct_Microsoft_Singularity_Io_PipeMultiplexControl_Exp@@SIXPAU1@PAPAUStruct_Microsoft_Singularity_Io_UnicodePipeContract_Exp@@@Z 0207eea8 f   Shell.obj
 0001:0007e030       ?m_Peek@Struct_Microsoft_Singularity_Io_PipeMultiplexControl_Exp@@SIHPAU1@@Z 0207f030 f   Shell.obj
 0001:0007e164       ?m_MarshallDeliverNewInput0@Struct_Microsoft_Singularity_Io_PipeMultiplexControl_Exp@@SIXPAU1@PAUStruct_Microsoft_Singularity_Io_UnicodePipeContract_Exp@@PAUStruct_Microsoft_Singularity_Channels_Endpoint@@@Z 0207f164 f   Shell.obj
 0001:0007e1b4       ?m_HeadMatches@Struct_Microsoft_Singularity_Io_PipeMultiplexControl_Exp@@SI_NPAU1@HPA_NPAPAUClass_System_Object@@@Z 0207f1b4 f   Shell.obj
 0001:0007e274       ?m_HeadMatches@Struct_Microsoft_Singularity_Io_PipeMultiplexControl_Exp@@SI_NPAUClass_Microsoft_Singularity_Io_PipeMultiplexControl_Exp@@HPA_NPAPAUClass_System_Object@@@Z 0207f274 f   Shell.obj
 0001:0007e2ac       ?m_Equals@Struct_Microsoft_Singularity_Io_PipeMultiplexControl_Exp@@SI_NPAU1@PAUClass_System_Object@@@Z 0207f2ac f   Shell.obj
 0001:0007e588       ?m_Equals@Struct_Microsoft_Singularity_Io_PipeMultiplexControl_Exp@@SI_NPAUClass_Microsoft_Singularity_Io_PipeMultiplexControl_Exp@@PAUClass_System_Object@@@Z 0207f588 f   Shell.obj
 0001:0007e5b4       ?m_Dispose@Struct_Microsoft_Singularity_Io_PipeMultiplexControl_Exp@@SIXPAU1@@Z 0207f5b4 f   Shell.obj
 0001:0007e5d8       ?m_Dispose@Struct_Microsoft_Singularity_Io_PipeMultiplexControl_Exp@@SIXPAUClass_Microsoft_Singularity_Io_PipeMultiplexControl_Exp@@@Z 0207f5d8 f   Shell.obj
 0001:0007e600       ?m_DeliverNewInput0@Struct_Microsoft_Singularity_Io_PipeMultiplexControl_Exp@@SIXPAU1@PAUStruct_Microsoft_Singularity_Io_UnicodePipeContract_Exp@@@Z 0207f600 f   Shell.obj
 0001:0007e648       ?m_CurrentState@Struct_Microsoft_Singularity_Io_PipeMultiplexControl_Exp@@SIPAUClass_System_String@@PAU1@@Z 0207f648 f   Shell.obj
 0001:0007e6c4       ?m_Acquire@Struct_Microsoft_Singularity_Io_PipeMultiplexControl_Exp@@SIXPAU1@@Z 0207f6c4 f   Shell.obj
 0001:0007e6e0       ?m__ctor@Struct_Microsoft_Singularity_Io_PipeMultiplexControl_Exp@@SIXPAU1@H@Z 0207f6e0 f   Shell.obj
 0001:0007e70c       ?m_StructCopy@Struct_System_Collections_DictionaryEntry@@SIXPAU1@0@Z 0207f70c f   Shell.obj
 0001:0007e740       ?m_StructCopy@Struct_System_Collections_DictionaryEntry@@SIXPAU1@PAU1@@Z 0207f740 f   Shell.obj
 0001:0007e7dc       ?m_get$_Value@Struct_System_Collections_DictionaryEntry@@SIPAUClass_System_Object@@PAU1@@Z 0207f7dc f   Shell.obj
 0001:0007e7fc       ?m_get$_Key@Struct_System_Collections_DictionaryEntry@@SIPAUClass_System_Object@@PAU1@@Z 0207f7fc f   Shell.obj
 0001:0007e81c       ?m_Equals@Struct_System_Collections_DictionaryEntry@@SI_NPAU1@PAUClass_System_Object@@@Z 0207f81c f   Shell.obj
 0001:0007e884       ?m_Equals@Struct_System_Collections_DictionaryEntry@@SI_NPAUClass_System_Collections_DictionaryEntry@@PAUClass_System_Object@@@Z 0207f884 f   Shell.obj
 0001:0007e8b0       ?m__ctor@Struct_System_Collections_DictionaryEntry@@SIXPAU1@PAUClass_System_Object@@1@Z 0207f8b0 f   Shell.obj
 0001:0007e924       ?m_StructCopy@Struct_Microsoft_Singularity_Isal_IX_uint128@@SIXPAU1@0@Z 0207f924 f   Shell.obj
 0001:0007e970       ?m_StructCopy@Struct_Microsoft_Singularity_Isal_IX_uint128@@SIXPAU1@PAU1@@Z 0207f970 f   Shell.obj
 0001:0007ea54       ?m_Equals@Struct_Microsoft_Singularity_Isal_IX_uint128@@SI_NPAU1@PAUClass_System_Object@@@Z 0207fa54 f   Shell.obj
 0001:0007eaec       ?m_Equals@Struct_Microsoft_Singularity_Isal_IX_uint128@@SI_NPAUClass_Microsoft_Singularity_Isal_IX_uint128@@PAUClass_System_Object@@@Z 0207faec f   Shell.obj
 0001:0007eb18       ?m__ctor@Class_Microsoft_Singularity_Applications_Parser_ParseException@@SIXPAU1@PAUClass_Microsoft_Singularity_Applications_Parser_Token@@PAUClass_System_String@@@Z 0207fb18 f   Shell.obj
 0001:0007ebcc       ?m_StructCopy@Struct_System_RuntimeFieldHandle@@SIXPAU1@0@Z 0207fbcc f   Shell.obj
 0001:0007ebf4       ?m_StructCopy@Struct_System_RuntimeFieldHandle@@SIXPAU1@PAU1@@Z 0207fbf4 f   Shell.obj
 0001:0007ec6c       ?m_Equals@Struct_System_RuntimeFieldHandle@@SI_NPAU1@PAUClass_System_Object@@@Z 0207fc6c f   Shell.obj
 0001:0007ecb4       ?m_Equals@Struct_System_RuntimeFieldHandle@@SI_NPAUClass_System_RuntimeFieldHandle@@PAUClass_System_Object@@@Z 0207fcb4 f   Shell.obj
 0001:0007ece0       ?m__ctor@Class_System_NullReferenceException@@SIXPAU1@@Z 0207fce0 f   Shell.obj
 0001:0007ed08       ?m__ctor@Class_System_NullReferenceException@@SIXPAU1@PAUClass_System_String@@@Z 0207fd08 f   Shell.obj
 0001:0007ed30       ?m__ctor@Class_System_NullReferenceException@@SIXPAU1@PAUClass_System_String@@PAUClass_System_Exception@@@Z 0207fd30 f   Shell.obj
 0001:0007ed60       ?m_UseOptionX@Class_System_Text_RegularExpressions_RegexParser@@SI_NPAU1@@Z 0207fd60 f   Shell.obj
 0001:0007ed88       ?m_UseOptionS@Class_System_Text_RegularExpressions_RegexParser@@SI_NPAU1@@Z 0207fd88 f   Shell.obj
 0001:0007edb0       ?m_UseOptionN@Class_System_Text_RegularExpressions_RegexParser@@SI_NPAU1@@Z 0207fdb0 f   Shell.obj
 0001:0007edd8       ?m_UseOptionM@Class_System_Text_RegularExpressions_RegexParser@@SI_NPAU1@@Z 0207fdd8 f   Shell.obj
 0001:0007ee00       ?m_UseOptionI@Class_System_Text_RegularExpressions_RegexParser@@SI_NPAU1@@Z 0207fe00 f   Shell.obj
 0001:0007ee28       ?m_UseOptionE@Class_System_Text_RegularExpressions_RegexParser@@SI_NPAU1@@Z 0207fe28 f   Shell.obj
 0001:0007ee54       ?m_Unit@Class_System_Text_RegularExpressions_RegexParser@@SIPAUClass_System_Text_RegularExpressions_RegexNode@@PAU1@@Z 0207fe54 f   Shell.obj
 0001:0007ee74       ?m_TypeFromCode@Class_System_Text_RegularExpressions_RegexParser@@SIHPAU1@_W@Z 0207fe74 f   Shell.obj
 0001:0007ef44       ?m_Textto@Class_System_Text_RegularExpressions_RegexParser@@SIXPAU1@H@Z 0207ff44 f   Shell.obj
 0001:0007ef6c       ?m_Textpos@Class_System_Text_RegularExpressions_RegexParser@@SIHPAU1@@Z 0207ff6c f   Shell.obj
 0001:0007ef8c       ?m_StartGroup@Class_System_Text_RegularExpressions_RegexParser@@SIXPAU1@PAUClass_System_Text_RegularExpressions_RegexNode@@@Z 0207ff8c f   Shell.obj
 0001:0007f020       ?m_SetPattern@Class_System_Text_RegularExpressions_RegexParser@@SIXPAU1@PAUClass_System_String@@@Z 02080020 f   Shell.obj
 0001:0007f064       ?m_ScanReplacement@Class_System_Text_RegularExpressions_RegexParser@@SIPAUClass_System_Text_RegularExpressions_RegexNode@@PAU1@@Z 02080064 f   Shell.obj
 0001:0007f184       ?m_ScanRegex@Class_System_Text_RegularExpressions_RegexParser@@SIPAUClass_System_Text_RegularExpressions_RegexNode@@PAU1@@Z 02080184 f   Shell.obj
 0001:0007f968       ?m_ScanOptions@Class_System_Text_RegularExpressions_RegexParser@@SIXPAU1@@Z 02080968 f   Shell.obj
 0001:0007fa58       ?m_ScanOctal@Class_System_Text_RegularExpressions_RegexParser@@SI_WPAU1@@Z 02080a58 f   Shell.obj
 0001:0007fb44       ?m_ScanHex@Class_System_Text_RegularExpressions_RegexParser@@SI_WPAU1@H@Z 02080b44 f   Shell.obj
 0001:0007fbf8       ?m_ScanGroupOpen@Class_System_Text_RegularExpressions_RegexParser@@SIPAUClass_System_Text_RegularExpressions_RegexNode@@PAU1@@Z 02080bf8 f   Shell.obj
 0001:00080688       ?m_ScanDollar@Class_System_Text_RegularExpressions_RegexParser@@SIPAUClass_System_Text_RegularExpressions_RegexNode@@PAU1@@Z 02081688 f   Shell.obj
 0001:00080b98       ?m_ScanDecimal@Class_System_Text_RegularExpressions_RegexParser@@SIHPAU1@@Z 02081b98 f   Shell.obj
 0001:00080c60       ?m_ScanControl@Class_System_Text_RegularExpressions_RegexParser@@SI_WPAU1@@Z 02081c60 f   Shell.obj
 0001:00080d04       ?m_ScanCharEscape@Class_System_Text_RegularExpressions_RegexParser@@SI_WPAU1@@Z 02081d04 f   Shell.obj
 0001:00080e4c       ?m_ScanCharClass@Class_System_Text_RegularExpressions_RegexParser@@SIPAUClass_System_Text_RegularExpressions_RegexCharClass@@PAU1@_N@Z 02081e4c f   Shell.obj
 0001:00080e78       ?m_ScanCharClass@Class_System_Text_RegularExpressions_RegexParser@@SIPAUClass_System_Text_RegularExpressions_RegexCharClass@@PAU1@_N1@Z 02081e78 f   Shell.obj
 0001:0008159c       ?m_ScanCapname@Class_System_Text_RegularExpressions_RegexParser@@SIPAUClass_System_String@@PAU1@@Z 0208259c f   Shell.obj
 0001:00081634       ?m_ScanBlank@Class_System_Text_RegularExpressions_RegexParser@@SIXPAU1@@Z 02082634 f   Shell.obj
 0001:00081878       ?m_ScanBasicBackslash@Class_System_Text_RegularExpressions_RegexParser@@SIPAUClass_System_Text_RegularExpressions_RegexNode@@PAU1@@Z 02082878 f   Shell.obj
 0001:00081ec8       ?m_ScanBackslash@Class_System_Text_RegularExpressions_RegexParser@@SIPAUClass_System_Text_RegularExpressions_RegexNode@@PAU1@@Z 02082ec8 f   Shell.obj
 0001:00082538       ?m_RightNext@Class_System_Text_RegularExpressions_RegexParser@@SI_WPAU1@@Z 02083538 f   Shell.obj
 0001:00082578       ?m_RightCharNext@Class_System_Text_RegularExpressions_RegexParser@@SI_WPAU1@@Z 02083578 f   Shell.obj
 0001:000825b8       ?m_RightChar@Class_System_Text_RegularExpressions_RegexParser@@SI_WPAU1@@Z 020835b8 f   Shell.obj
 0001:000825e8       ?m_RightChar@Class_System_Text_RegularExpressions_RegexParser@@SI_WPAU1@H@Z 020835e8 f   Shell.obj
 0001:00082620       ?m_Reset@Class_System_Text_RegularExpressions_RegexParser@@SIXPAU1@UStruct_System_Text_RegularExpressions_RegexOptions@@@Z 02083620 f   Shell.obj
 0001:000826b0       ?m_PushOptions@Class_System_Text_RegularExpressions_RegexParser@@SIXPAU1@@Z 020836b0 f   Shell.obj
 0001:00082708       ?m_PushGroup@Class_System_Text_RegularExpressions_RegexParser@@SIXPAU1@@Z 02083708 f   Shell.obj
 0001:0008275c       ?m_PopOptions@Class_System_Text_RegularExpressions_RegexParser@@SIXPAU1@@Z 0208375c f   Shell.obj
 0001:000827dc       ?m_PopKeepOptions@Class_System_Text_RegularExpressions_RegexParser@@SIXPAU1@@Z 020837dc f   Shell.obj
 0001:00082820       ?m_PopGroup@Class_System_Text_RegularExpressions_RegexParser@@SIXPAU1@@Z 02083820 f   Shell.obj
 0001:000828d0       ?g_ParseReplacement@Class_System_Text_RegularExpressions_RegexParser@@SIPAUClass_System_Text_RegularExpressions_RegexReplacement@@PAUClass_System_String@@PAUClass_System_Collections_Hashtable@@H1UStruct_System_Text_RegularExpressions_RegexOptions@@@Z 020838d0 f   Shell.obj
 0001:000829e4       ?m_ParseProperty@Class_System_Text_RegularExpressions_RegexParser@@SIPAUClass_System_String@@PAU1@@Z 020839e4 f   Shell.obj
 0001:00082aac       ?g_Parse@Class_System_Text_RegularExpressions_RegexParser@@SIPAUClass_System_Text_RegularExpressions_RegexTree@@PAUClass_System_String@@UStruct_System_Text_RegularExpressions_RegexOptions@@@Z 02083aac f   Shell.obj
 0001:00082c1c       ?g_OptionFromCode@Class_System_Text_RegularExpressions_RegexParser@@SI?AUStruct_System_Text_RegularExpressions_RegexOptions@@_W@Z 02083c1c f   Shell.obj
 0001:00082ce8       ?m_NoteCaptureSlot@Class_System_Text_RegularExpressions_RegexParser@@SIXPAU1@HH@Z 02083ce8 f   Shell.obj
 0001:00082dc4       ?m_NoteCaptures@Class_System_Text_RegularExpressions_RegexParser@@SIXPAU1@PAUClass_System_Collections_Hashtable@@H1@Z 02083dc4 f   Shell.obj
 0001:00082e00       ?m_NoteCaptureName@Class_System_Text_RegularExpressions_RegexParser@@SIXPAU1@PAUClass_System_String@@H@Z 02083e00 f   Shell.obj
 0001:00082ed8       ?m_MakeException@Class_System_Text_RegularExpressions_RegexParser@@SIPAUClass_System_ArgumentException@@PAU1@PAUClass_System_String@@@Z 02083ed8 f   Shell.obj
 0001:00082f20       ?m_LeftNext@Class_System_Text_RegularExpressions_RegexParser@@SIXPAU1@@Z 02083f20 f   Shell.obj
 0001:00082f48       ?m_IsTrueQuantifier@Class_System_Text_RegularExpressions_RegexParser@@SI_NPAU1@@Z 02083f48 f   Shell.obj
 0001:0008310c       ?g_IsStopperX@Class_System_Text_RegularExpressions_RegexParser@@SI_N_W@Z 0208410c f   Shell.obj
 0001:0008315c       ?g_IsSpecial@Class_System_Text_RegularExpressions_RegexParser@@SI_N_W@Z 0208415c f   Shell.obj
 0001:000831ac       ?g_IsSpace@Class_System_Text_RegularExpressions_RegexParser@@SI_N_W@Z 020841ac f   Shell.obj
 0001:000831f8       ?g_IsQuantifier@Class_System_Text_RegularExpressions_RegexParser@@SI_N_W@Z 020841f8 f   Shell.obj
 0001:00083248       ?m_IsOnlyTopOption@Class_System_Text_RegularExpressions_RegexParser@@SI_NPAU1@UStruct_System_Text_RegularExpressions_RegexOptions@@@Z 02084248 f   Shell.obj
 0001:00083294       ?m_IsCaptureSlot@Class_System_Text_RegularExpressions_RegexParser@@SI_NPAU1@H@Z 02084294 f   Shell.obj
 0001:0008331c       ?m_IsCaptureName@Class_System_Text_RegularExpressions_RegexParser@@SI_NPAU1@PAUClass_System_String@@@Z 0208431c f   Shell.obj
 0001:00083354       ?g_HexDigit@Class_System_Text_RegularExpressions_RegexParser@@SIH_W@Z 02084354 f   Shell.obj
 0001:000833cc       ?m_EmptyStack@Class_System_Text_RegularExpressions_RegexParser@@SI_NPAU1@@Z 020843cc f   Shell.obj
 0001:000833f4       ?m_EmptyOptionsStack@Class_System_Text_RegularExpressions_RegexParser@@SI_NPAU1@@Z 020843f4 f   Shell.obj
 0001:00083424       ?m_CountCaptures@Class_System_Text_RegularExpressions_RegexParser@@SIXPAU1@@Z 02084424 f   Shell.obj
 0001:00083778       ?m_CharsRight@Class_System_Text_RegularExpressions_RegexParser@@SIHPAU1@@Z 02084778 f   Shell.obj
 0001:000837a8       ?m_CharAt@Class_System_Text_RegularExpressions_RegexParser@@SI_WPAU1@H@Z 020847a8 f   Shell.obj
 0001:000837d8       ?m_CaptureSlotFromName@Class_System_Text_RegularExpressions_RegexParser@@SIHPAU1@PAUClass_System_String@@@Z 020847d8 f   Shell.obj
 0001:00083820       ?m_AssignNameSlots@Class_System_Text_RegularExpressions_RegexParser@@SIXPAU1@@Z 02084820 f   Shell.obj
 0001:00083d10       ?m_AddUnitType@Class_System_Text_RegularExpressions_RegexParser@@SIXPAU1@H@Z 02084d10 f   Shell.obj
 0001:00083d68       ?m_AddUnitSet@Class_System_Text_RegularExpressions_RegexParser@@SIXPAU1@PAUClass_System_Text_RegularExpressions_RegexCharClass@@@Z 02084d68 f   Shell.obj
 0001:00083df8       ?m_AddUnitOne@Class_System_Text_RegularExpressions_RegexParser@@SIXPAU1@_W@Z 02084df8 f   Shell.obj
 0001:00083e74       ?m_AddUnitNotone@Class_System_Text_RegularExpressions_RegexParser@@SIXPAU1@_W@Z 02084e74 f   Shell.obj
 0001:00083ef0       ?m_AddUnitNode@Class_System_Text_RegularExpressions_RegexParser@@SIXPAU1@PAUClass_System_Text_RegularExpressions_RegexNode@@@Z 02084ef0 f   Shell.obj
 0001:00083f18       ?m_AddGroup@Class_System_Text_RegularExpressions_RegexParser@@SIXPAU1@@Z 02084f18 f   Shell.obj
 0001:0008401c       ?m_AddConcatenate@Class_System_Text_RegularExpressions_RegexParser@@SIXPAU1@@Z 0208501c f   Shell.obj
 0001:00084054       ?m_AddConcatenate@Class_System_Text_RegularExpressions_RegexParser@@SIXPAU1@HH_N@Z 02085054 f   Shell.obj
 0001:000841d8       ?m_AddConcatenate@Class_System_Text_RegularExpressions_RegexParser@@SIXPAU1@_NHH@Z 020851d8 f   Shell.obj
 0001:00084234       ?m_AddAlternate@Class_System_Text_RegularExpressions_RegexParser@@SIXPAU1@@Z 02085234 f   Shell.obj
 0001:000842f4       ?m__ctor@Class_System_Text_RegularExpressions_RegexParser@@SIXPAU1@PAUClass_System_Globalization_CultureInfo@@@Z 020852f4 f   Shell.obj
 0001:00084378       ?g__cctor@Class_System_Text_RegularExpressions_RegexParser@@SIXXZ 02085378 f   Shell.obj
 0001:0008438c       ?m_StructCopy@Struct_Microsoft_Singularity_Diagnostics_Contracts_ProcessContract_GetProcessTimes@@SIXPAU1@0@Z 0208538c f   Shell.obj
 0001:000843b4       ?m_StructCopy@Struct_Microsoft_Singularity_Diagnostics_Contracts_ProcessContract_GetProcessTimes@@SIXPAU1@PAU1@@Z 020853b4 f   Shell.obj
 0001:0008442c       ?m_Equals@Struct_Microsoft_Singularity_Diagnostics_Contracts_ProcessContract_GetProcessTimes@@SI_NPAU1@PAUClass_System_Object@@@Z 0208542c f   Shell.obj
 0001:00084474       ?m_Equals@Struct_Microsoft_Singularity_Diagnostics_Contracts_ProcessContract_GetProcessTimes@@SI_NPAUClass_Microsoft_Singularity_Diagnostics_Contracts_ProcessContract_GetProcessTimes@@PAUClass_System_Object@@@Z 02085474 f   Shell.obj
 0001:000844a0       ?m_ToString@Class_System_Text_StringBuilder@@SIPAUClass_System_String@@PAU1@@Z 020854a0 f   Shell.obj
 0001:0008454c       ?m_set$_Length@Class_System_Text_StringBuilder@@SIXPAU1@H@Z 0208554c f   Shell.obj
 0001:00084750       ?m_ReplaceString@Class_System_Text_StringBuilder@@SIXPAU1@HPAUClass_System_String@@@Z 02085750 f   Shell.obj
 0001:00084794       ?m_NeedsAllocation@Class_System_Text_StringBuilder@@SI_NPAU1@PAUClass_System_String@@H@Z 02085794 f   Shell.obj
 0001:000847c8       ?g_InternalGetCurrentThread@Class_System_Text_StringBuilder@@SIHXZ 020857c8 f   Shell.obj
 0001:000847ec       ?m_GetThreadSafeString@Class_System_Text_StringBuilder@@SIPAUClass_System_String@@PAU1@PAH@Z 020857ec f   Shell.obj
 0001:00084850       ?m_GetNewString@Class_System_Text_StringBuilder@@SIPAUClass_System_String@@PAU1@PAU2@H@Z 02085850 f   Shell.obj
 0001:00084944       ?m_get$_MaxCapacity@Class_System_Text_StringBuilder@@SIHPAU1@@Z 02085944 f   Shell.obj
 0001:00084964       ?m_get$_Length@Class_System_Text_StringBuilder@@SIHPAU1@@Z 02085964 f   Shell.obj
 0001:0008498c       ?g_FormatError@Class_System_Text_StringBuilder@@SIXXZ 0208598c f   Shell.obj
 0001:000849c8       ?m_AppendFormat@Class_System_Text_StringBuilder@@SIPAU1@PAU1@PAUClass_System_String@@PAUClassVector_Class_System_Object@@@Z 020859c8 f   Shell.obj
 0001:00085260       ?m_AppendFormat@Class_System_Text_StringBuilder@@SIPAU1@PAU1@PAUClass_System_String@@PAUClass_System_Object@@2@Z 02086260 f   Shell.obj
 0001:000852c4       ?m_Append@Class_System_Text_StringBuilder@@SIPAU1@PAU1@PAUClassVector_bartok_char@@HH@Z 020862c4 f   Shell.obj
 0001:000854ec       ?m_Append@Class_System_Text_StringBuilder@@SIPAU1@PAU1@H@Z 020864ec f   Shell.obj
 0001:0008551c       ?m_Append@Class_System_Text_StringBuilder@@SIPAU1@PAU1@PAUClass_System_String@@@Z 0208651c f   Shell.obj
 0001:0008564c       ?m_Append@Class_System_Text_StringBuilder@@SIPAU1@PAU1@PAUClass_System_String@@HH@Z 0208664c f   Shell.obj
 0001:00085864       ?m_Append@Class_System_Text_StringBuilder@@SIPAU1@PAU1@_W@Z 02086864 f   Shell.obj
 0001:00085968       ?m_Append@Class_System_Text_StringBuilder@@SIPAU1@PAU1@_WH@Z 02086968 f   Shell.obj
 0001:00085acc       ?m__ctor@Class_System_Text_StringBuilder@@SIXPAU1@@Z 02086acc f   Shell.obj
 0001:00085af4       ?m__ctor@Class_System_Text_StringBuilder@@SIXPAU1@H@Z 02086af4 f   Shell.obj
 0001:00085b94       ?g_IsInst@Class_Microsoft_Singularity_Channels_ExHeap@@SI_NPAUvoid@@PAUClass_System_Type@@@Z 02086b94 f   Shell.obj
 0001:00085c1c       ?g_IndirectToData@Class_Microsoft_Singularity_Channels_ExHeap@@SIPAUvoid@@PAU2@@Z 02086c1c f   Shell.obj
 0001:00085cd8       ?g_GetSize@Class_Microsoft_Singularity_Channels_ExHeap@@SIPAUuintPtr@@PAUvoid@@@Z 02086cd8 f   Shell.obj
 0001:00085d4c       ?g_Free@Class_Microsoft_Singularity_Channels_ExHeap@@SIXPAUvoid@@@Z 02086d4c f   Shell.obj
 0001:00085e08       ?g_AllocateVector@Class_Microsoft_Singularity_Channels_ExHeap@@SIPAUvoid@@PAUClass_System_Type@@H@Z 02086e08 f   Shell.obj
 0001:00085f48       ?m__ctor@Class_Microsoft_Singularity_Channels_ExHeap@@SIXPAU1@@Z 02086f48 f   Shell.obj
 0001:00085f60       ?m_StructCopy@Struct_System_GCs_CalleeSaveLocations@@SIXPAU1@0@Z 02086f60 f   Shell.obj
 0001:00085fd0       ?m_StructCopy@Struct_System_GCs_CalleeSaveLocations@@SIXPAU1@PAU1@@Z 02086fd0 f   Shell.obj
 0001:00086120       ?m_SetCalleeSaves@Struct_System_GCs_CalleeSaveLocations@@SIXPAU1@PAUStruct_System_GCs_CalleeSaveRegisters@@@Z 02087120 f   Shell.obj
 0001:000861bc       ?m_ScanLiveRegs@Struct_System_GCs_CalleeSaveLocations@@SIXPAU1@PAUuintPtr@@PAUClass_System_GCs_NonNullReferenceVisitor@@@Z 020871bc f   Shell.obj
 0001:00086248       ?m_PopFrame@Struct_System_GCs_CalleeSaveLocations@@SIXPAU1@PAPAUuintPtr@@PAU2@_N3@Z 02087248 f   Shell.obj
 0001:00086370       ?m_GetFramePointer@Struct_System_GCs_CalleeSaveLocations@@SIPAUuintPtr@@PAU1@@Z 02087370 f   Shell.obj
 0001:00086398       ?m_Equals@Struct_System_GCs_CalleeSaveLocations@@SI_NPAU1@PAUClass_System_Object@@@Z 02087398 f   Shell.obj
 0001:000866c8       ?m_Equals@Struct_System_GCs_CalleeSaveLocations@@SI_NPAUClass_System_GCs_CalleeSaveLocations@@PAUClass_System_Object@@@Z 020876c8 f   Shell.obj
 0001:000866f4       ?m_ClearFrame@Struct_System_GCs_CalleeSaveLocations@@SIXPAU1@PAUuintPtr@@_N@Z 020876f4 f   Shell.obj
 0001:000867b8       ?m_ClearCalleeSaves@Struct_System_GCs_CalleeSaveLocations@@SIXPAU1@@Z 020877b8 f   Shell.obj
 0001:00086804       ?m__ctor@Class_System_RankException@@SIXPAU1@@Z 02087804 f   Shell.obj
 0001:0008682c       ?m__ctor@Class_System_RankException@@SIXPAU1@PAUClass_System_String@@@Z 0208782c f   Shell.obj
 0001:00086854       ?m_WriteImpl@Class_System_GCs_EmptyWriteBarrier@@SIXPAU1@PAPAUuintPtr@@PAUClass_System_Object@@H@Z 02087854 f   Shell.obj
 0001:0008687c       ?g_Initialize@Class_System_GCs_EmptyWriteBarrier@@SIXXZ 0208787c f   Shell.obj
 0001:000868f4       ?m_CopyStructImpl@Class_System_GCs_EmptyWriteBarrier@@SIXPAU1@PAUClass_System_Object@@1PAUClass_System_VTable@@PAUuintPtr@@3@Z 020878f4 f   Shell.obj
 0001:00086958       ?m_ArrayCopyImpl@Class_System_GCs_EmptyWriteBarrier@@SIXPAU1@PAUClass_System_Array@@H1HH@Z 02087958 f   Shell.obj
 0001:00086a60       ?m__ctor@Class_System_GCs_EmptyWriteBarrier@@SIXPAU1@@Z 02087a60 f   Shell.obj
 0001:00086a84       ?m_Unlink@Class_Microsoft_Singularity_Channels_ESet$_2$LMicrosoft_Singularity_Io_UnicodePipeContract_Imp_Microsoft_Singularity_Io_UnicodePipeContract_READY$G_Node@@SIPAUStruct_Microsoft_Singularity_Io_UnicodePipeContract_Imp@@PAU1@PAUClass_Microsoft_Singularity_Channels_ESet$_2$LMicrosoft_Singularity_Io_UnicodePipeContract_Imp_Microsoft_Singularity_Io_UnicodePipeContract_READY$G@@@Z 02087a84 f   Shell.obj
 0001:00086b98       ?m_LinkAsNext@Class_Microsoft_Singularity_Channels_ESet$_2$LMicrosoft_Singularity_Io_UnicodePipeContract_Imp_Microsoft_Singularity_Io_UnicodePipeContract_READY$G_Node@@SIXPAU1@PAUStruct_Microsoft_Singularity_Io_UnicodePipeContract_Imp@@PAUClass_Microsoft_Singularity_Channels_ESet$_2$LMicrosoft_Singularity_Io_UnicodePipeContract_Imp_Microsoft_Singularity_Io_UnicodePipeContract_READY$G@@@Z 02087b98 f   Shell.obj
 0001:00086c14       ?m_Init@Class_Microsoft_Singularity_Channels_ESet$_2$LMicrosoft_Singularity_Io_UnicodePipeContract_Imp_Microsoft_Singularity_Io_UnicodePipeContract_READY$G_Node@@SIXPAU1@PAUStruct_Microsoft_Singularity_Io_UnicodePipeContract_Imp@@PAUClass_Microsoft_Singularity_Channels_ESet$_2$LMicrosoft_Singularity_Io_UnicodePipeContract_Imp_Microsoft_Singularity_Io_UnicodePipeContract_READY$G@@@Z 02087c14 f   Shell.obj
 0001:00086c44       ?m__ctor@Class_Microsoft_Singularity_Channels_ESet$_2$LMicrosoft_Singularity_Io_UnicodePipeContract_Imp_Microsoft_Singularity_Io_UnicodePipeContract_READY$G_Node@@SIXPAU1@PAUStruct_Microsoft_Singularity_Io_UnicodePipeContract_Imp@@PAUClass_Microsoft_Singularity_Channels_ESet$_2$LMicrosoft_Singularity_Io_UnicodePipeContract_Imp_Microsoft_Singularity_Io_UnicodePipeContract_READY$G@@@Z 02087c44 f   Shell.obj
 0001:00086c88       ?m__ctor@Class_Microsoft_Singularity_Channels_ESet$_2$LMicrosoft_Singularity_Io_UnicodePipeContract_Imp_Microsoft_Singularity_Io_UnicodePipeContract_READY$G_Node@@SIXPAU1@PAUClass_Microsoft_Singularity_Channels_ESet$_2$LMicrosoft_Singularity_Io_UnicodePipeContract_Imp_Microsoft_Singularity_Io_UnicodePipeContract_READY$G@@@Z 02087c88 f   Shell.obj
 0001:00086cbc       ?m_get$_ObjectName@Class_System_ObjectDisposedException@@SIPAUClass_System_String@@PAU1@@Z 02087cbc f   Shell.obj
 0001:00086ce8       ?m_get$_Message@Class_System_ObjectDisposedException@@SIPAUClass_System_String@@PAU1@@Z 02087ce8 f   Shell.obj
 0001:00086d7c       ?m__ctor@Class_System_ObjectDisposedException@@SIXPAU1@PAUClass_System_String@@1@Z 02087d7c f   Shell.obj
 0001:00086db0       ?m__ctor@Class_System_InvalidOperationException@@SIXPAU1@@Z 02087db0 f   Shell.obj
 0001:00086dd8       ?m__ctor@Class_System_InvalidOperationException@@SIXPAU1@PAUClass_System_String@@@Z 02087dd8 f   Shell.obj
 0001:00086e00       ?m__ctor@Class_System_InvalidOperationException@@SIXPAU1@PAUClass_System_String@@PAUClass_System_Exception@@@Z 02087e00 f   Shell.obj
 0001:00086e30       ?m_StructCopy@Struct_Microsoft_Singularity_Directory_DirectoryServiceContract_NakDeleteLink@@SIXPAU1@0@Z 02087e30 f   Shell.obj
 0001:00086e58       ?m_StructCopy@Struct_Microsoft_Singularity_Directory_DirectoryServiceContract_NakDeleteLink@@SIXPAU1@PAU1@@Z 02087e58 f   Shell.obj
 0001:00086ed0       ?m_Equals@Struct_Microsoft_Singularity_Directory_DirectoryServiceContract_NakDeleteLink@@SI_NPAU1@PAUClass_System_Object@@@Z 02087ed0 f   Shell.obj
 0001:00086f70       ?m_Equals@Struct_Microsoft_Singularity_Directory_DirectoryServiceContract_NakDeleteLink@@SI_NPAUClass_Microsoft_Singularity_Directory_DirectoryServiceContract_NakDeleteLink@@PAUClass_System_Object@@@Z 02087f70 f   Shell.obj
 0001:00086f9c       ?m__ctor@Class_Microsoft_Singularity_Memory_Stacks@@SIXPAU1@@Z 02087f9c f   Shell.obj
 0001:00086fb8       ?g_Type@Class_System_GCs_PageTable@@SI?AUStruct_System_GCs_PageType@@PAUuintPtr@@@Z 02087fb8 f   Shell.obj
 0001:00087028       ?g_SetType@Class_System_GCs_PageTable@@SIXPAUuintPtr@@0UStruct_System_GCs_PageType@@@Z 02088028 f   Shell.obj
 0001:00087100       ?g_SetType@Class_System_GCs_PageTable@@SIXPAUuintPtr@@UStruct_System_GCs_PageType@@@Z 02088100 f   Shell.obj
 0001:0008719c       ?g_SetProcessTag@Class_System_GCs_PageTable@@SIXPAUuintPtr@@0I@Z 0208819c f   Shell.obj
 0001:00087270       ?g_SetProcessTag@Class_System_GCs_PageTable@@SIXPAUuintPtr@@I@Z 02088270 f   Shell.obj
 0001:00087318       ?g_SetProcess@Class_System_GCs_PageTable@@SIXPAUuintPtr@@0@Z 02088318 f   Shell.obj
 0001:0008741c       ?g_SetPageTableEntry@Class_System_GCs_PageTable@@SIXPAUuintPtr@@I@Z 0208841c f   Shell.obj
 0001:0008744c       ?g_SetExtra@Class_System_GCs_PageTable@@SIXPAUuintPtr@@I@Z 0208844c f   Shell.obj
 0001:000874fc       ?g_RegionSize@Class_System_GCs_PageTable@@SIPAUuintPtr@@PAU2@@Z 020884fc f   Shell.obj
 0001:00087528       ?g_ProcessTag@Class_System_GCs_PageTable@@SIIPAUuintPtr@@@Z 02088528 f   Shell.obj
 0001:00087598       ?g_Process@Class_System_GCs_PageTable@@SIGPAUuintPtr@@@Z 02088598 f   Shell.obj
 0001:00087608       ?g_PageTableEntry@Class_System_GCs_PageTable@@SIIPAUuintPtr@@@Z 02088608 f   Shell.obj
 0001:00087640       ?g_PagePad@Class_System_GCs_PageTable@@SIPAUuintPtr@@PAU2@@Z 02088640 f   Shell.obj
 0001:000876bc       ?g_PageCount@Class_System_GCs_PageTable@@SIPAUuintPtr@@PAU2@@Z 020886bc f   Shell.obj
 0001:0008771c       ?g_PageAligned@Class_System_GCs_PageTable@@SI_NPAUuintPtr@@@Z 0208871c f   Shell.obj
 0001:00087770       ?g_PageAlign@Class_System_GCs_PageTable@@SIPAUuintPtr@@PAU2@@Z 02088770 f   Shell.obj
 0001:000877cc       ?g_PageAddr@Class_System_GCs_PageTable@@SIPAUuintPtr@@PAU2@@Z 020887cc f   Shell.obj
 0001:00087800       ?g_Page@Class_System_GCs_PageTable@@SIPAUuintPtr@@PAU2@@Z 02088800 f   Shell.obj
 0001:00087860       ?g_MyType@Class_System_GCs_PageTable@@SI?AUStruct_System_GCs_PageType@@PAUuintPtr@@@Z 02088860 f   Shell.obj
 0001:000878f0       ?g_IsUnusedPageType@Class_System_GCs_PageTable@@SI_NUStruct_System_GCs_PageType@@@Z 020888f0 f   Shell.obj
 0001:00087924       ?g_IsUnusedPage@Class_System_GCs_PageTable@@SI_NPAUuintPtr@@@Z 02088924 f   Shell.obj
 0001:000879c0       ?g_IsStackPage@Class_System_GCs_PageTable@@SI_NUStruct_System_GCs_PageType@@@Z 020889c0 f   Shell.obj
 0001:000879e4       ?g_IsSharedPage@Class_System_GCs_PageTable@@SI_NUStruct_System_GCs_PageType@@@Z 020889e4 f   Shell.obj
 0001:00087a08       ?g_IsNonGcPage@Class_System_GCs_PageTable@@SI_NUStruct_System_GCs_PageType@@@Z 02088a08 f   Shell.obj
 0001:00087a2c       ?g_IsMyPage@Class_System_GCs_PageTable@@SI_NPAUuintPtr@@@Z 02088a2c f   Shell.obj
 0001:00087ab0       ?g_IsMyGcPage@Class_System_GCs_PageTable@@SI_NPAUuintPtr@@@Z 02088ab0 f   Shell.obj
 0001:00087bcc       ?g_IsKernelPage@Class_System_GCs_PageTable@@SI_NPAUuintPtr@@@Z 02088bcc f   Shell.obj
 0001:00087c50       ?g_IsGcPage@Class_System_GCs_PageTable@@SI_NPAUuintPtr@@@Z 02088c50 f   Shell.obj
 0001:00087ce0       ?g_IsGcPage@Class_System_GCs_PageTable@@SI_NUStruct_System_GCs_PageType@@@Z 02088ce0 f   Shell.obj
 0001:00087d08       ?g_IsForeignAddr@Class_System_GCs_PageTable@@SI_NPAUuintPtr@@@Z 02088d08 f   Shell.obj
 0001:00087d48       ?g_IsAddrOnPage@Class_System_GCs_PageTable@@SI_NPAUuintPtr@@0@Z 02088d48 f   Shell.obj
 0001:00087d88       ?g_Initialize@Class_System_GCs_PageTable@@SIXXZ 02088d88 f   Shell.obj
 0001:00087e18       ?g_get$_PageSize@Class_System_GCs_PageTable@@SIPAUuintPtr@@XZ 02088e18 f   Shell.obj
 0001:00087e40       ?g_get$_PageMask@Class_System_GCs_PageTable@@SIPAUuintPtr@@XZ 02088e40 f   Shell.obj
 0001:00087e78       ?g_get$_PageBits@Class_System_GCs_PageTable@@SIEXZ 02088e78 f   Shell.obj
 0001:00087e90       ?g_get$_PageAlignMask@Class_System_GCs_PageTable@@SIPAUuintPtr@@XZ 02088e90 f   Shell.obj
 0001:00087ed8       ?g_Extra@Class_System_GCs_PageTable@@SIIPAUuintPtr@@@Z 02088ed8 f   Shell.obj
 0001:00087f74       ?g_Dump@Class_System_GCs_PageTable@@SI_NG@Z 02088f74 f   Shell.obj
 0001:00088390       ?g_Dump@Class_System_GCs_PageTable@@SIXPAUClass_System_String@@@Z 02089390 f   Shell.obj
 0001:00088a10       ?m__ctor@Class_System_GCs_PageTable@@SIXPAU1@@Z 02089a10 f   Shell.obj
 0001:00088a2c       ?m_StructCopy@Struct_Microsoft_Singularity_Directory_FileContract_AckRead@@SIXPAU1@0@Z 02089a2c f   Shell.obj
 0001:00088a78       ?m_StructCopy@Struct_Microsoft_Singularity_Directory_FileContract_AckRead@@SIXPAU1@PAU1@@Z 02089a78 f   Shell.obj
 0001:00088b5c       ?m_Equals@Struct_Microsoft_Singularity_Directory_FileContract_AckRead@@SI_NPAU1@PAUClass_System_Object@@@Z 02089b5c f   Shell.obj
 0001:00088be4       ?m_Equals@Struct_Microsoft_Singularity_Directory_FileContract_AckRead@@SI_NPAUClass_Microsoft_Singularity_Directory_FileContract_AckRead@@PAUClass_System_Object@@@Z 02089be4 f   Shell.obj
 0001:00088c10       ?g_StreamIsClosed@Class_System_IO_$_$_Error@@SIXXZ 02089c10 f   Shell.obj
 0001:00088c50       ?g_ReaderClosed@Class_System_IO_$_$_Error@@SIXXZ 02089c50 f   Shell.obj
 0001:00088c90       ?m__ctor@Class_System_IO_$_$_Error@@SIXPAU1@@Z 02089c90 f   Shell.obj
 0001:00088ca8       ?m__ctor@Class_System_OverflowException@@SIXPAU1@@Z 02089ca8 f   Shell.obj
 0001:00088cd0       ?m__ctor@Class_System_OverflowException@@SIXPAU1@PAUClass_System_String@@@Z 02089cd0 f   Shell.obj
 0001:00088cf8       ?m__ctor@Class_System_OverflowException@@SIXPAU1@PAUClass_System_String@@PAUClass_System_Exception@@@Z 02089cf8 f   Shell.obj
 0001:00088d28       ?g_Start@Class_Microsoft_Singularity_Io_PipeMultiplexer@@SIPAU1@PAUStruct_Microsoft_Singularity_Io_UnicodePipeContract_Imp@@PAUStruct_Microsoft_Singularity_Io_UnicodePipeContract_Exp@@@Z 02089d28 f   Shell.obj
 0001:00088e5c       ?m_Microsoft_SingSharp_ITracked_UnExpose@Class_Microsoft_Singularity_Io_PipeMultiplexer@@SIXPAU1@@Z 02089e5c f   Shell.obj
 0001:00088e78       ?m_Microsoft_SingSharp_ITracked_Release@Class_Microsoft_Singularity_Io_PipeMultiplexer@@SIXPAU1@@Z 02089e78 f   Shell.obj
 0001:00088e94       ?m_Microsoft_SingSharp_ITracked_Expose@Class_Microsoft_Singularity_Io_PipeMultiplexer@@SIXPAU1@@Z 02089e94 f   Shell.obj
 0001:00088eb0       ?m_Microsoft_SingSharp_ITracked_Acquire@Class_Microsoft_Singularity_Io_PipeMultiplexer@@SIXPAU1@@Z 02089eb0 f   Shell.obj
 0001:00088ecc       ?m_FreshClient@Class_Microsoft_Singularity_Io_PipeMultiplexer@@SIPAUStruct_Microsoft_Singularity_Io_UnicodePipeContract_Imp@@PAU1@@Z 02089ecc f   Shell.obj
 0001:000891f0       ?m_Dispose@Class_Microsoft_Singularity_Io_PipeMultiplexer@@SIXPAU1@@Z 0208a1f0 f   Shell.obj
 0001:0008923c       ?m__ctor@Class_Microsoft_Singularity_Io_PipeMultiplexer@@SIXPAU1@PAUStruct_Microsoft_Singularity_Io_PipeMultiplexControl_Imp@@@Z 0208a23c f   Shell.obj
 0001:00089264       ?g__cctor@Class_Microsoft_Singularity_Io_PipeMultiplexer@@SIXXZ 0208a264 f   Shell.obj
 0001:00089324       ?m__ctor@Class_Microsoft_Contracts_ContractMarkerException@@SIXPAU1@@Z 0208a324 f   Shell.obj
 0001:00089348       ?m_StructCopy@Struct_Microsoft_Singularity_Directory_DirectoryServiceContract_Bind@@SIXPAU1@0@Z 0208a348 f   Shell.obj
 0001:0008937c       ?m_StructCopy@Struct_Microsoft_Singularity_Directory_DirectoryServiceContract_Bind@@SIXPAU1@PAU1@@Z 0208a37c f   Shell.obj
 0001:00089418       ?m_MarshallContent@Struct_Microsoft_Singularity_Directory_DirectoryServiceContract_Bind@@SIXPAU1@PAEPAUStruct_Microsoft_Singularity_Channels_Endpoint@@1PAH@Z 0208a418 f   Shell.obj
 0001:00089540       ?m_MarshallAll@Struct_Microsoft_Singularity_Directory_DirectoryServiceContract_Bind@@SIXPAU1@PAEPAUStruct_Microsoft_Singularity_Channels_Endpoint@@PAH@Z 0208a540 f   Shell.obj
 0001:00089598       ?m_Equals@Struct_Microsoft_Singularity_Directory_DirectoryServiceContract_Bind@@SI_NPAU1@PAUClass_System_Object@@@Z 0208a598 f   Shell.obj
 0001:000895f4       ?m_Equals@Struct_Microsoft_Singularity_Directory_DirectoryServiceContract_Bind@@SI_NPAUClass_Microsoft_Singularity_Directory_DirectoryServiceContract_Bind@@PAUClass_System_Object@@@Z 0208a5f4 f   Shell.obj
 0001:00089620       ?m_InvokeStaticStub@Class_System_Threading_Thread_StopServiceNotice@@SIXPAU1@@Z 0208a620 f   Shell.obj
 0001:00089648       ?m_Invoke@Class_System_Threading_Thread_StopServiceNotice@@SIXPAU1@@Z 0208a648 f   Shell.obj
 0001:0008969c       ?m_EndInvoke@Class_System_Threading_Thread_StopServiceNotice@@SIXPAU1@PAUClass_System_IAsyncResult@@@Z 0208a69c f   Shell.obj
 0001:000896b8       ?m_BeginInvoke@Class_System_Threading_Thread_StopServiceNotice@@SIPAUClass_System_IAsyncResult@@PAU1@PAUClass_System_AsyncCallback@@PAUClass_System_Object@@@Z 0208a6b8 f   Shell.obj
 0001:000896d8       ?m__ctor@Class_System_Threading_Thread_StopServiceNotice@@SIXPAU1@PAUClass_System_Object@@PAUintPtr@@@Z 0208a6d8 f   Shell.obj
 0001:0008973c       ?m_ToString@Class_Microsoft_Singularity_Applications_Shell_ShellCommand@@SIPAUClass_System_String@@PAU1@@Z 0208a73c f   Shell.obj
 0001:000897a8       ?m_System_Object_Object_ToString@Class_Microsoft_Singularity_Applications_Shell_ShellCommand@@SIPAUClass_System_String@@PAU1@@Z 0208a7a8 f   Shell.obj
 0001:000897e8       ?m__ctor@Class_Microsoft_Singularity_Applications_Shell_ShellCommand@@SIXPAU1@PAUClass_System_String@@1PAUClass_Microsoft_Singularity_Applications_Shell_CommandStart@@@Z 0208a7e8 f   Shell.obj
 0001:00089824       ?g_DoCallback@Class_Microsoft_Singularity_Isal_Isa_ICallback@@SIPAUuintPtr@@PAU1@PAU2@@Z 0208a824 f   Shell.obj
 0001:0008985c       ?m__ctor@Class_Microsoft_Singularity_Isal_Isa_ICallback@@SIXPAU1@@Z 0208a85c f   Shell.obj
 0001:00089878       ?g_ReleaseInput@Class_Microsoft_Singularity_Io_ConsoleInput@@SIXPAUClass_Microsoft_Singularity_Io_PipeLookAhead@@@Z 0208a878 f   Shell.obj
 0001:000898d8       ?g_ReadChar@Class_Microsoft_Singularity_Io_ConsoleInput@@SIHXZ 0208a8d8 f   Shell.obj
 0001:000899ac       ?g_Initialize@Class_Microsoft_Singularity_Io_ConsoleInput@@SIXXZ 0208a9ac f   Shell.obj
 0001:00089a64       ?g_GetPipe@Class_Microsoft_Singularity_Io_ConsoleInput@@SIPAUStruct_Microsoft_Singularity_Io_UnicodePipeContract_Exp@@XZ 0208aa64 f   Shell.obj
 0001:00089b40       ?g_Finalize@Class_Microsoft_Singularity_Io_ConsoleInput@@SIXXZ 0208ab40 f   Shell.obj
 0001:00089b98       ?g_AcquireInput@Class_Microsoft_Singularity_Io_ConsoleInput@@SIPAUClass_Microsoft_Singularity_Io_PipeLookAhead@@XZ 0208ab98 f   Shell.obj
 0001:00089c34       ?m__ctor@Class_Microsoft_Singularity_Io_ConsoleInput@@SIXPAU1@@Z 0208ac34 f   Shell.obj
 0001:00089c4c       ?g__cctor@Class_Microsoft_Singularity_Io_ConsoleInput@@SIXXZ 0208ac4c f   Shell.obj
 0001:00089c74       ?m_Release@Class_Microsoft_Singularity_Channels_TContainer$_1$LMicrosoft_Singularity_Io_ConsoleOutput$G@@SIXPAU1@PAUClass_Microsoft_Singularity_Io_ConsoleOutput@@@Z 0208ac74 f   Shell.obj
 0001:00089d08       ?m_Finalize@Class_Microsoft_Singularity_Channels_TContainer$_1$LMicrosoft_Singularity_Io_ConsoleOutput$G@@SIXPAU1@@Z 0208ad08 f   Shell.obj
 0001:00089d84       ?m_Acquire@Class_Microsoft_Singularity_Channels_TContainer$_1$LMicrosoft_Singularity_Io_ConsoleOutput$G@@SIPAUClass_Microsoft_Singularity_Io_ConsoleOutput@@PAU1@@Z 0208ad84 f   Shell.obj
 0001:00089e2c       ?m__ctor@Class_Microsoft_Singularity_Channels_TContainer$_1$LMicrosoft_Singularity_Io_ConsoleOutput$G@@SIXPAU1@PAUClass_Microsoft_Singularity_Io_ConsoleOutput@@@Z 0208ae2c f   Shell.obj
 0001:00089ee0       ?m_StructCopy@Struct_Microsoft_Singularity_Io_PipeMultiplexControl_NewInput@@SIXPAU1@0@Z 0208aee0 f   Shell.obj
 0001:00089f08       ?m_StructCopy@Struct_Microsoft_Singularity_Io_PipeMultiplexControl_NewInput@@SIXPAU1@PAU1@@Z 0208af08 f   Shell.obj
 0001:00089f80       ?m_MarshallContent@Struct_Microsoft_Singularity_Io_PipeMultiplexControl_NewInput@@SIXPAU1@PAEPAUStruct_Microsoft_Singularity_Channels_Endpoint@@1PAH@Z 0208af80 f   Shell.obj
 0001:0008a004       ?m_MarshallAll@Struct_Microsoft_Singularity_Io_PipeMultiplexControl_NewInput@@SIXPAU1@PAEPAUStruct_Microsoft_Singularity_Channels_Endpoint@@PAH@Z 0208b004 f   Shell.obj
 0001:0008a05c       ?m_Equals@Struct_Microsoft_Singularity_Io_PipeMultiplexControl_NewInput@@SI_NPAU1@PAUClass_System_Object@@@Z 0208b05c f   Shell.obj
 0001:0008a0a4       ?m_Equals@Struct_Microsoft_Singularity_Io_PipeMultiplexControl_NewInput@@SI_NPAUClass_Microsoft_Singularity_Io_PipeMultiplexControl_NewInput@@PAUClass_System_Object@@@Z 0208b0a4 f   Shell.obj
 0001:0008a0d0       ?m_StructCopy@Struct_Microsoft_Singularity_V1_Processes_ProcessHandle@@SIXPAU1@0@Z 0208b0d0 f   Shell.obj
 0001:0008a0f8       ?m_StructCopy@Struct_Microsoft_Singularity_V1_Processes_ProcessHandle@@SIXPAU1@PAU1@@Z 0208b0f8 f   Shell.obj
 0001:0008a170       ?g_Join@Struct_Microsoft_Singularity_V1_Processes_ProcessHandle@@SIXU1@PA_N@Z 0208b170 f   Shell.obj
 0001:0008a1c4       ?m_Equals@Struct_Microsoft_Singularity_V1_Processes_ProcessHandle@@SI_NPAU1@PAUClass_System_Object@@@Z 0208b1c4 f   Shell.obj
 0001:0008a20c       ?m_Equals@Struct_Microsoft_Singularity_V1_Processes_ProcessHandle@@SI_NPAUClass_Microsoft_Singularity_V1_Processes_ProcessHandle@@PAUClass_System_Object@@@Z 0208b20c f   Shell.obj
 0001:0008a238       ?g_Create@Struct_Microsoft_Singularity_V1_Processes_ProcessHandle@@SI_NPA_WPAHH0HHPAU1@@Z 0208b238 f   Shell.obj
 0001:0008a298       ?g_Create@Struct_Microsoft_Singularity_V1_Processes_ProcessHandle@@SI_NPA_WH0H0HPAU1@@Z 0208b298 f   Shell.obj
 0001:0008a2f8       ?m__ctor@Class_System_Threading_ThreadQueueItem@@SIXPAU1@PAUClass_System_Threading_Thread@@@Z 0208b2f8 f   Shell.obj
 0001:0008a348       ?m_StructCopy@Struct_Microsoft_Singularity_Directory_DirectoryServiceContract_Deregister@@SIXPAU1@0@Z 0208b348 f   Shell.obj
 0001:0008a370       ?m_StructCopy@Struct_Microsoft_Singularity_Directory_DirectoryServiceContract_Deregister@@SIXPAU1@PAU1@@Z 0208b370 f   Shell.obj
 0001:0008a3e8       ?m_Equals@Struct_Microsoft_Singularity_Directory_DirectoryServiceContract_Deregister@@SI_NPAU1@PAUClass_System_Object@@@Z 0208b3e8 f   Shell.obj
 0001:0008a430       ?m_Equals@Struct_Microsoft_Singularity_Directory_DirectoryServiceContract_Deregister@@SI_NPAUClass_Microsoft_Singularity_Directory_DirectoryServiceContract_Deregister@@PAUClass_System_Object@@@Z 0208b430 f   Shell.obj
 0001:0008a45c       ?m__ctor@Class_System_IO_TextReader_NullTextReader@@SIXPAU1@@Z 0208b45c f   Shell.obj
 0001:0008a480       ?g__cctor@Class_System_IO_TextReader_NullTextReader@@SIXXZ 0208b480 f   Shell.obj
 0001:0008a4a8       ?m_StructCopy@Struct_Microsoft_Singularity_Directory_DirectoryServiceContract_ReadEnumeration@@SIXPAU1@0@Z 0208b4a8 f   Shell.obj
 0001:0008a4c4       ?m_StructCopy@Struct_Microsoft_Singularity_Directory_DirectoryServiceContract_ReadEnumeration@@SIXPAU1@PAU1@@Z 0208b4c4 f   Shell.obj
 0001:0008a518       ?m_MarshallContent@Struct_Microsoft_Singularity_Directory_DirectoryServiceContract_ReadEnumeration@@SIXPAU1@PAEPAUStruct_Microsoft_Singularity_Channels_Endpoint@@1PAH@Z 0208b518 f   Shell.obj
 0001:0008a538       ?m_MarshallAll@Struct_Microsoft_Singularity_Directory_DirectoryServiceContract_ReadEnumeration@@SIXPAU1@PAEPAUStruct_Microsoft_Singularity_Channels_Endpoint@@PAH@Z 0208b538 f   Shell.obj
 0001:0008a590       ?m_Equals@Struct_Microsoft_Singularity_Directory_DirectoryServiceContract_ReadEnumeration@@SI_NPAU1@PAUClass_System_Object@@@Z 0208b590 f   Shell.obj
 0001:0008a5c8       ?m_Equals@Struct_Microsoft_Singularity_Directory_DirectoryServiceContract_ReadEnumeration@@SI_NPAUClass_Microsoft_Singularity_Directory_DirectoryServiceContract_ReadEnumeration@@PAUClass_System_Object@@@Z 0208b5c8 f   Shell.obj
 0001:0008a5f4       ?g_ToObject@Class_Microsoft_Singularity_Applications_Breaker@@SIPAUClass_System_Object@@PAUClass_System_Text_StringBuilder@@@Z 0208b5f4 f   Shell.obj
 0001:0008a62c       ?g_Break@Class_Microsoft_Singularity_Applications_Breaker@@SIXH@Z 0208b62c f   Shell.obj
 0001:0008aa68       ?m__ctor@Class_Microsoft_Singularity_Applications_Breaker@@SIXPAU1@@Z 0208ba68 f   Shell.obj
 0001:0008aa80       ?m_StructCopy@Struct_Microsoft_Singularity_Directory_DirectoryServiceContract_NakQueryACLReparse@@SIXPAU1@0@Z 0208ba80 f   Shell.obj
 0001:0008aac0       ?m_StructCopy@Struct_Microsoft_Singularity_Directory_DirectoryServiceContract_NakQueryACLReparse@@SIXPAU1@PAU1@@Z 0208bac0 f   Shell.obj
 0001:0008ab80       ?m_Equals@Struct_Microsoft_Singularity_Directory_DirectoryServiceContract_NakQueryACLReparse@@SI_NPAU1@PAUClass_System_Object@@@Z 0208bb80 f   Shell.obj
 0001:0008abe8       ?m_Equals@Struct_Microsoft_Singularity_Directory_DirectoryServiceContract_NakQueryACLReparse@@SI_NPAUClass_Microsoft_Singularity_Directory_DirectoryServiceContract_NakQueryACLReparse@@PAUClass_System_Object@@@Z 0208bbe8 f   Shell.obj
 0001:0008ac14       ?m_get$_Success@Class_System_Text_RegularExpressions_Group@@SI_NPAU1@@Z 0208bc14 f   Shell.obj
 0001:0008ac3c       ?m__ctor@Class_System_Text_RegularExpressions_Group@@SIXPAU1@PAUClass_System_String@@PAUClassVector_int32@@H@Z 0208bc3c f   Shell.obj
 0001:0008acd8       ?g__cctor@Class_System_Text_RegularExpressions_Group@@SIXXZ 0208bcd8 f   Shell.obj
 0001:0008ad40       ?m_Release@Class__Corlibsg_Microsoft_Singularity_Channels_TRef$_2$LMicrosoft_Singularity_Io_UnicodePipeContract_Imp_Microsoft_Singularity_Io_UnicodePipeContract_READY$G@@SIXPAU1@PAUStruct_Microsoft_Singularity_Io_UnicodePipeContract_Imp@@@Z 0208bd40 f   Shell.obj
 0001:0008adc4       ?m_Finalize@Class__Corlibsg_Microsoft_Singularity_Channels_TRef$_2$LMicrosoft_Singularity_Io_UnicodePipeContract_Imp_Microsoft_Singularity_Io_UnicodePipeContract_READY$G@@SIXPAU1@@Z 0208bdc4 f   Shell.obj
 0001:0008ae50       ?m_Acquire@Class__Corlibsg_Microsoft_Singularity_Channels_TRef$_2$LMicrosoft_Singularity_Io_UnicodePipeContract_Imp_Microsoft_Singularity_Io_UnicodePipeContract_READY$G@@SIPAUStruct_Microsoft_Singularity_Io_UnicodePipeContract_Imp@@PAU1@@Z 0208be50 f   Shell.obj
 0001:0008aeec       ?m__ctor@Class__Corlibsg_Microsoft_Singularity_Channels_TRef$_2$LMicrosoft_Singularity_Io_UnicodePipeContract_Imp_Microsoft_Singularity_Io_UnicodePipeContract_READY$G@@SIXPAU1@PAUStruct_Microsoft_Singularity_Io_UnicodePipeContract_Imp@@@Z 0208beec f   Shell.obj
 0001:0008af90       ?m_StructCopy@Struct_Microsoft_Singularity_Applications_WaitForChildContract_Exp@@SIXPAU1@0@Z 0208bf90 f   Shell.obj
 0001:0008b05c       ?m_StructCopy@Struct_Microsoft_Singularity_Applications_WaitForChildContract_Exp@@SIXPAU1@PAU1@@Z 0208c05c f   Shell.obj
 0001:0008b2c0       ?m_SendFinish@Struct_Microsoft_Singularity_Applications_WaitForChildContract_Exp@@SIXPAU1@@Z 0208c2c0 f   Shell.obj
 0001:0008b3b4       ?m_Release@Struct_Microsoft_Singularity_Applications_WaitForChildContract_Exp@@SIXPAU1@@Z 0208c3b4 f   Shell.obj
 0001:0008b3d0       ?m_Peek@Struct_Microsoft_Singularity_Applications_WaitForChildContract_Exp@@SIHPAU1@@Z 0208c3d0 f   Shell.obj
 0001:0008b498       ?m_HeadMatches@Struct_Microsoft_Singularity_Applications_WaitForChildContract_Exp@@SI_NPAU1@HPA_NPAPAUClass_System_Object@@@Z 0208c498 f   Shell.obj
 0001:0008b558       ?m_HeadMatches@Struct_Microsoft_Singularity_Applications_WaitForChildContract_Exp@@SI_NPAUClass_Microsoft_Singularity_Applications_WaitForChildContract_Exp@@HPA_NPAPAUClass_System_Object@@@Z 0208c558 f   Shell.obj
 0001:0008b590       ?m_Equals@Struct_Microsoft_Singularity_Applications_WaitForChildContract_Exp@@SI_NPAU1@PAUClass_System_Object@@@Z 0208c590 f   Shell.obj
 0001:0008b808       ?m_Equals@Struct_Microsoft_Singularity_Applications_WaitForChildContract_Exp@@SI_NPAUClass_Microsoft_Singularity_Applications_WaitForChildContract_Exp@@PAUClass_System_Object@@@Z 0208c808 f   Shell.obj
 0001:0008b834       ?m_Dispose@Struct_Microsoft_Singularity_Applications_WaitForChildContract_Exp@@SIXPAU1@@Z 0208c834 f   Shell.obj
 0001:0008b858       ?m_Dispose@Struct_Microsoft_Singularity_Applications_WaitForChildContract_Exp@@SIXPAUClass_Microsoft_Singularity_Applications_WaitForChildContract_Exp@@@Z 0208c858 f   Shell.obj
 0001:0008b880       ?m_CurrentState@Struct_Microsoft_Singularity_Applications_WaitForChildContract_Exp@@SIPAUClass_System_String@@PAU1@@Z 0208c880 f   Shell.obj
 0001:0008b8fc       ?m_Acquire@Struct_Microsoft_Singularity_Applications_WaitForChildContract_Exp@@SIXPAU1@@Z 0208c8fc f   Shell.obj
 0001:0008b918       ?m__ctor@Struct_Microsoft_Singularity_Applications_WaitForChildContract_Exp@@SIXPAU1@H@Z 0208c918 f   Shell.obj
 0001:0008b944       ?m__ctor@Class_Microsoft_Singularity_Applications_Parser_TokenType@@SIXPAU1@HPAUClass_System_Text_RegularExpressions_Regex@@PAUClass_Microsoft_Singularity_Applications_Parser_Lexer@@@Z 0208c944 f   Shell.obj
 0001:0008b994       ?m_GetEnumerator@Class_System_Collections_Hashtable_KeyCollection@@SIPAUClass_System_Collections_IEnumerator@@PAU1@@Z 0208c994 f   Shell.obj
 0001:0008b9e4       ?m_get$_SyncRoot@Class_System_Collections_Hashtable_KeyCollection@@SIPAUClass_System_Object@@PAU1@@Z 0208c9e4 f   Shell.obj
 0001:0008ba0c       ?m_get$_Count@Class_System_Collections_Hashtable_KeyCollection@@SIHPAU1@@Z 0208ca0c f   Shell.obj
 0001:0008ba30       ?m_CopyTo@Class_System_Collections_Hashtable_KeyCollection@@SIXPAU1@PAUClass_System_Array@@H@Z 0208ca30 f   Shell.obj
 0001:0008bb48       ?m__ctor@Class_System_Collections_Hashtable_KeyCollection@@SIXPAU1@PAUClass_System_Collections_Hashtable@@@Z 0208cb48 f   Shell.obj
 0001:0008bb70       ?m_Finalize@Class__Corlibsg_Microsoft_Singularity_Channels_TRef$_2$LMicrosoft_Singularity_Io_UnicodePipeContract_Exp_Microsoft_Singularity_Io_UnicodePipeContract_READY$G@@SIXPAU1@@Z 0208cb70 f   Shell.obj
 0001:0008bbfc       ?m_Acquire@Class__Corlibsg_Microsoft_Singularity_Channels_TRef$_2$LMicrosoft_Singularity_Io_UnicodePipeContract_Exp_Microsoft_Singularity_Io_UnicodePipeContract_READY$G@@SIPAUStruct_Microsoft_Singularity_Io_UnicodePipeContract_Exp@@PAU1@@Z 0208cbfc f   Shell.obj
 0001:0008bc98       ?m__ctor@Class__Corlibsg_Microsoft_Singularity_Channels_TRef$_2$LMicrosoft_Singularity_Io_UnicodePipeContract_Exp_Microsoft_Singularity_Io_UnicodePipeContract_READY$G@@SIXPAU1@PAUStruct_Microsoft_Singularity_Io_UnicodePipeContract_Exp@@@Z 0208cc98 f   Shell.obj
 0001:0008bd3c       ?m_StructCopy@Struct_Microsoft_Singularity_Directory_DirectoryServiceContract_CreateDirectory@@SIXPAU1@0@Z 0208cd3c f   Shell.obj
 0001:0008bd64       ?m_StructCopy@Struct_Microsoft_Singularity_Directory_DirectoryServiceContract_CreateDirectory@@SIXPAU1@PAU1@@Z 0208cd64 f   Shell.obj
 0001:0008bddc       ?m_Equals@Struct_Microsoft_Singularity_Directory_DirectoryServiceContract_CreateDirectory@@SI_NPAU1@PAUClass_System_Object@@@Z 0208cddc f   Shell.obj
 0001:0008be24       ?m_Equals@Struct_Microsoft_Singularity_Directory_DirectoryServiceContract_CreateDirectory@@SI_NPAUClass_Microsoft_Singularity_Directory_DirectoryServiceContract_CreateDirectory@@PAUClass_System_Object@@@Z 0208ce24 f   Shell.obj
 0001:0008be50       ?m_StructCopy@Struct_Microsoft_Singularity_Io_PipeMultiplexControl_Imp@@SIXPAU1@0@Z 0208ce50 f   Shell.obj
 0001:0008bf2c       ?m_StructCopy@Struct_Microsoft_Singularity_Io_PipeMultiplexControl_Imp@@SIXPAU1@PAU1@@Z 0208cf2c f   Shell.obj
 0001:0008c1c0       ?m_SendNewInput@Struct_Microsoft_Singularity_Io_PipeMultiplexControl_Imp@@SIXPAU1@PAUStruct_Microsoft_Singularity_Io_UnicodePipeContract_Exp@@@Z 0208d1c0 f   Shell.obj
 0001:0008c340       ?m_RecvAck@Struct_Microsoft_Singularity_Io_PipeMultiplexControl_Imp@@SIXPAU1@@Z 0208d340 f   Shell.obj
 0001:0008c4b8       ?m_Peek@Struct_Microsoft_Singularity_Io_PipeMultiplexControl_Imp@@SIHPAU1@@Z 0208d4b8 f   Shell.obj
 0001:0008c5ec       ?m_MarshallDeliverAck0@Struct_Microsoft_Singularity_Io_PipeMultiplexControl_Imp@@SIXPAU1@PAUStruct_Microsoft_Singularity_Channels_Endpoint@@@Z 0208d5ec f   Shell.obj
 0001:0008c638       ?m_HeadMatches@Struct_Microsoft_Singularity_Io_PipeMultiplexControl_Imp@@SI_NPAU1@HPA_NPAPAUClass_System_Object@@@Z 0208d638 f   Shell.obj
 0001:0008c6f8       ?m_HeadMatches@Struct_Microsoft_Singularity_Io_PipeMultiplexControl_Imp@@SI_NPAUClass_Microsoft_Singularity_Io_PipeMultiplexControl_Imp@@HPA_NPAPAUClass_System_Object@@@Z 0208d6f8 f   Shell.obj
 0001:0008c730       ?m_Equals@Struct_Microsoft_Singularity_Io_PipeMultiplexControl_Imp@@SI_NPAU1@PAUClass_System_Object@@@Z 0208d730 f   Shell.obj
 0001:0008ca04       ?m_Equals@Struct_Microsoft_Singularity_Io_PipeMultiplexControl_Imp@@SI_NPAUClass_Microsoft_Singularity_Io_PipeMultiplexControl_Imp@@PAUClass_System_Object@@@Z 0208da04 f   Shell.obj
 0001:0008ca30       ?m_Dispose@Struct_Microsoft_Singularity_Io_PipeMultiplexControl_Imp@@SIXPAU1@@Z 0208da30 f   Shell.obj
 0001:0008ca54       ?m_Dispose@Struct_Microsoft_Singularity_Io_PipeMultiplexControl_Imp@@SIXPAUClass_Microsoft_Singularity_Io_PipeMultiplexControl_Imp@@@Z 0208da54 f   Shell.obj
 0001:0008ca7c       ?m_DeliverAck0@Struct_Microsoft_Singularity_Io_PipeMultiplexControl_Imp@@SIXPAU1@@Z 0208da7c f   Shell.obj
 0001:0008cab0       ?m_CurrentState@Struct_Microsoft_Singularity_Io_PipeMultiplexControl_Imp@@SIPAUClass_System_String@@PAU1@@Z 0208dab0 f   Shell.obj
 0001:0008cb2c       ?m__ctor@Struct_Microsoft_Singularity_Io_PipeMultiplexControl_Imp@@SIXPAU1@H@Z 0208db2c f   Shell.obj
 0001:0008cb58       ?m_StructCopy@Struct_Microsoft_Singularity_Diagnostics_Contracts_ProcessContract_Exp@@SIXPAU1@0@Z 0208db58 f   Shell.obj
 0001:0008cc88       ?m_StructCopy@Struct_Microsoft_Singularity_Diagnostics_Contracts_ProcessContract_Exp@@SIXPAU1@PAU1@@Z 0208dc88 f   Shell.obj
 0001:0008d018       ?m_Peek@Struct_Microsoft_Singularity_Diagnostics_Contracts_ProcessContract_Exp@@SIHPAU1@@Z 0208e018 f   Shell.obj
 0001:0008d408       ?m_MarshallDeliverGetProcessName0@Struct_Microsoft_Singularity_Diagnostics_Contracts_ProcessContract_Exp@@SIXPAU1@HPAUStruct_Microsoft_Singularity_Channels_Endpoint@@@Z 0208e408 f   Shell.obj
 0001:0008d460       ?m_HeadMatches@Struct_Microsoft_Singularity_Diagnostics_Contracts_ProcessContract_Exp@@SI_NPAU1@HPA_NPAPAUClass_System_Object@@@Z 0208e460 f   Shell.obj
 0001:0008d520       ?m_HeadMatches@Struct_Microsoft_Singularity_Diagnostics_Contracts_ProcessContract_Exp@@SI_NPAUClass_Microsoft_Singularity_Diagnostics_Contracts_ProcessContract_Exp@@HPA_NPAPAUClass_System_Object@@@Z 0208e520 f   Shell.obj
 0001:0008d558       ?m_Equals@Struct_Microsoft_Singularity_Diagnostics_Contracts_ProcessContract_Exp@@SI_NPAU1@PAUClass_System_Object@@@Z 0208e558 f   Shell.obj
 0001:0008da30       ?m_Equals@Struct_Microsoft_Singularity_Diagnostics_Contracts_ProcessContract_Exp@@SI_NPAUClass_Microsoft_Singularity_Diagnostics_Contracts_ProcessContract_Exp@@PAUClass_System_Object@@@Z 0208ea30 f   Shell.obj
 0001:0008da5c       ?m_Dispose@Struct_Microsoft_Singularity_Diagnostics_Contracts_ProcessContract_Exp@@SIXPAU1@@Z 0208ea5c f   Shell.obj
 0001:0008da80       ?m_Dispose@Struct_Microsoft_Singularity_Diagnostics_Contracts_ProcessContract_Exp@@SIXPAUClass_Microsoft_Singularity_Diagnostics_Contracts_ProcessContract_Exp@@@Z 0208ea80 f   Shell.obj
 0001:0008daa8       ?m_DeliverGetProcessName0@Struct_Microsoft_Singularity_Diagnostics_Contracts_ProcessContract_Exp@@SIXPAU1@H@Z 0208eaa8 f   Shell.obj
 0001:0008daf0       ?m__ctor@Struct_Microsoft_Singularity_Diagnostics_Contracts_ProcessContract_Exp@@SIXPAU1@H@Z 0208eaf0 f   Shell.obj
 0001:0008db1c       ?g_TransferOwnership@Struct_Microsoft_Singularity_Directory_ServiceContract_Exp@@SIXPAUStruct_Microsoft_Singularity_Channels_Endpoint@@PAU1@@Z 0208eb1c f   Shell.obj
 0001:0008db60       ?m_TransferContentsOwnership@Struct_Microsoft_Singularity_Directory_ServiceContract_Exp@@SIXPAU1@PAUStruct_Microsoft_Singularity_Channels_Endpoint@@@Z 0208eb60 f   Shell.obj
 0001:0008db8c       ?m_StructCopy@Struct_Microsoft_Singularity_Directory_ServiceContract_Exp@@SIXPAU1@0@Z 0208eb8c f   Shell.obj
 0001:0008dc58       ?m_StructCopy@Struct_Microsoft_Singularity_Directory_ServiceContract_Exp@@SIXPAU1@PAU1@@Z 0208ec58 f   Shell.obj
 0001:0008debc       ?m_Peek@Struct_Microsoft_Singularity_Directory_ServiceContract_Exp@@SIHPAU1@@Z 0208eebc f   Shell.obj
 0001:0008df84       ?m_MarshallContent@Struct_Microsoft_Singularity_Directory_ServiceContract_Exp@@SIXPAU1@PAEPAUStruct_Microsoft_Singularity_Channels_Endpoint@@1@Z 0208ef84 f   Shell.obj
 0001:0008dfa4       ?m_InState@Struct_Microsoft_Singularity_Directory_ServiceContract_Exp@@SI_NPAU1@H@Z 0208efa4 f   Shell.obj
 0001:0008e034       ?m_HeadMatches@Struct_Microsoft_Singularity_Directory_ServiceContract_Exp@@SI_NPAU1@HPA_NPAPAUClass_System_Object@@@Z 0208f034 f   Shell.obj
 0001:0008e0f4       ?m_HeadMatches@Struct_Microsoft_Singularity_Directory_ServiceContract_Exp@@SI_NPAUClass_Microsoft_Singularity_Directory_ServiceContract_Exp@@HPA_NPAPAUClass_System_Object@@@Z 0208f0f4 f   Shell.obj
 0001:0008e12c       ?m_Equals@Struct_Microsoft_Singularity_Directory_ServiceContract_Exp@@SI_NPAU1@PAUClass_System_Object@@@Z 0208f12c f   Shell.obj
 0001:0008e3a4       ?m_Equals@Struct_Microsoft_Singularity_Directory_ServiceContract_Exp@@SI_NPAUClass_Microsoft_Singularity_Directory_ServiceContract_Exp@@PAUClass_System_Object@@@Z 0208f3a4 f   Shell.obj
 0001:0008e3d0       ?m_Dispose@Struct_Microsoft_Singularity_Directory_ServiceContract_Exp@@SIXPAU1@@Z 0208f3d0 f   Shell.obj
 0001:0008e3f4       ?m_Dispose@Struct_Microsoft_Singularity_Directory_ServiceContract_Exp@@SIXPAUClass_Microsoft_Singularity_Directory_ServiceContract_Exp@@@Z 0208f3f4 f   Shell.obj
 0001:0008e41c       ?m_CurrentState@Struct_Microsoft_Singularity_Directory_ServiceContract_Exp@@SIPAUClass_System_String@@PAU1@@Z 0208f41c f   Shell.obj
 0001:0008e498       ?m__ctor@Struct_Microsoft_Singularity_Directory_ServiceContract_Exp@@SIXPAU1@H@Z 0208f498 f   Shell.obj
 0001:0008e4c4       ?m_StructCopy@Struct_Microsoft_Bartok_Runtime_PreHeader@@SIXPAU1@0@Z 0208f4c4 f   Shell.obj
 0001:0008e4f0       ?m_StructCopy@Struct_Microsoft_Bartok_Runtime_PreHeader@@SIXPAU1@PAU1@@Z 0208f4f0 f   Shell.obj
 0001:0008e574       ?m_Equals@Struct_Microsoft_Bartok_Runtime_PreHeader@@SI_NPAU1@PAUClass_System_Object@@@Z 0208f574 f   Shell.obj
 0001:0008e620       ?m_Equals@Struct_Microsoft_Bartok_Runtime_PreHeader@@SI_NPAUClass_Microsoft_Bartok_Runtime_PreHeader@@PAUClass_System_Object@@@Z 0208f620 f   Shell.obj
 0001:0008e64c       ?m_IntValue@Class_Microsoft_Singularity_Applications_ScriptEngine_Mod@@SIHPAU1@PAUClass_Microsoft_Singularity_Applications_ScriptEngine_Interpretation@@@Z 0208f64c f   Shell.obj
 0001:0008e6b0       ?m__ctor@Class_Microsoft_Singularity_Applications_ScriptEngine_Mod@@SIXPAU1@PAUClass_Microsoft_Singularity_Applications_ScriptEngine_Expression@@1@Z 0208f6b0 f   Shell.obj
 0001:0008e6e0       ?m_StructCopy@Struct_Microsoft_Singularity_Directory_DirectoryServiceContract_DeleteFile@@SIXPAU1@0@Z 0208f6e0 f   Shell.obj
 0001:0008e708       ?m_StructCopy@Struct_Microsoft_Singularity_Directory_DirectoryServiceContract_DeleteFile@@SIXPAU1@PAU1@@Z 0208f708 f   Shell.obj
 0001:0008e780       ?m_Equals@Struct_Microsoft_Singularity_Directory_DirectoryServiceContract_DeleteFile@@SI_NPAU1@PAUClass_System_Object@@@Z 0208f780 f   Shell.obj
 0001:0008e7c8       ?m_Equals@Struct_Microsoft_Singularity_Directory_DirectoryServiceContract_DeleteFile@@SI_NPAUClass_Microsoft_Singularity_Directory_DirectoryServiceContract_DeleteFile@@PAUClass_System_Object@@@Z 0208f7c8 f   Shell.obj
 0001:0008e7f4       ?g_NewClientEndpoint@Class_Microsoft_Singularity_Directory_DirectoryService@@SIPAUStruct_Microsoft_Singularity_Directory_DirectoryServiceContract_Imp@@XZ 0208f7f4 f   Shell.obj
 0001:0008e868       ?m__ctor@Class_Microsoft_Singularity_Directory_DirectoryService@@SIXPAU1@@Z 0208f868 f   Shell.obj
 0001:0008e880       ?g_StringSize@Class_System_GCs_ObjectLayout@@SIPAUuintPtr@@PAUClass_System_VTable@@I@Z 0208f880 f   Shell.obj
 0001:0008e8f0       ?g_Sizeof@Class_System_GCs_ObjectLayout@@SIPAUuintPtr@@PAUClass_System_Object@@@Z 0208f8f0 f   Shell.obj
 0001:0008e92c       ?g_ObjectSize@Class_System_GCs_ObjectLayout@@SIPAUuintPtr@@PAU2@PAUClass_System_VTable@@@Z 0208f92c f   Shell.obj
 0001:0008e9e8       ?g_ObjectSize@Class_System_GCs_ObjectLayout@@SIPAUuintPtr@@PAUClass_System_VTable@@@Z 0208f9e8 f   Shell.obj
 0001:0008ea54       ?g_ArraySize@Class_System_GCs_ObjectLayout@@SIPAUuintPtr@@PAUClass_System_VTable@@I@Z 0208fa54 f   Shell.obj
 0001:0008eacc       ?m__ctor@Class_System_GCs_ObjectLayout@@SIXPAU1@@Z 0208facc f   Shell.obj
 0001:0008eae4       ?m__ctor@Class_Microsoft_Singularity_Applications_Parser_Nonterminal@@SIXPAU1@HPAUClass_System_Object@@@Z 0208fae4 f   Shell.obj
 0001:0008eb18       ?g_IntToString@Class_System_ParseNumbers@@SIPAUClass_System_String@@HHH_WH@Z 0208fb18 f   Shell.obj
 0001:0008ef24       ?m__ctor@Class_System_ParseNumbers@@SIXPAU1@@Z 0208ff24 f   Shell.obj
 0001:0008ef3c       ?g__cctor@Class_System_ParseNumbers@@SIXXZ 0208ff3c f   Shell.obj
 0001:0008ef64       ?g_OpenFile@Class_FileSystem_Utils_FileUtils@@SIPAUStruct_Microsoft_Singularity_Directory_FileContract_Imp@@PAUClass_System_String@@PAUStruct_Microsoft_Singularity_Directory_DirectoryServiceContract_Imp@@@Z 0208ff64 f   Shell.obj
 0001:0008efb4       ?g_OpenFile@Class_FileSystem_Utils_FileUtils@@SIPAUStruct_Microsoft_Singularity_Directory_FileContract_Imp@@PAUClass_System_String@@PAUStruct_Microsoft_Singularity_Directory_DirectoryServiceContract_Imp@@PAUStruct_Microsoft_Singularity_Directory_ErrorCode@@@Z 0208ffb4 f   Shell.obj
 0001:0008f094       ?g_GetAttributes@Class_FileSystem_Utils_FileUtils@@SI_NPAUClass_System_String@@PAUStruct_Microsoft_Singularity_Directory_DirectoryServiceContract_Imp@@PAUStruct_Microsoft_Singularity_Directory_FileAttributesRecord@@PAUStruct_Microsoft_Singularity_Directory_ErrorCode@@@Z 02090094 f   Shell.obj
 0001:0008f100       ?m__ctor@Class_FileSystem_Utils_FileUtils@@SIXPAU1@@Z 02090100 f   Shell.obj
 0001:0008f118       ?g__cctor@Class_FileSystem_Utils_FileUtils@@SIXXZ 02090118 f   Shell.obj
 0001:0008f2c4       ?m_StructCopy@Struct_Microsoft_Singularity_Diagnostics_Contracts_ProcessContract_NotFound@@SIXPAU1@0@Z 020902c4 f   Shell.obj
 0001:0008f2e0       ?m_StructCopy@Struct_Microsoft_Singularity_Diagnostics_Contracts_ProcessContract_NotFound@@SIXPAU1@PAU1@@Z 020902e0 f   Shell.obj
 0001:0008f334       ?m_Equals@Struct_Microsoft_Singularity_Diagnostics_Contracts_ProcessContract_NotFound@@SI_NPAU1@PAUClass_System_Object@@@Z 02090334 f   Shell.obj
 0001:0008f36c       ?m_Equals@Struct_Microsoft_Singularity_Diagnostics_Contracts_ProcessContract_NotFound@@SI_NPAUClass_Microsoft_Singularity_Diagnostics_Contracts_ProcessContract_NotFound@@PAUClass_System_Object@@@Z 0209036c f   Shell.obj
 0001:0008f398       ?m_QuickSort@Class_System_Array_SorterGenericArray@@SIXPAU1@HH@Z 02090398 f   Shell.obj
 0001:0008f6d0       ?m__ctor@Class_System_Array_SorterGenericArray@@SIXPAU1@PAUClass_System_Array@@1PAUClass_System_Collections_IComparer@@@Z 020906d0 f   Shell.obj
 0001:0008f730       ?m_StructCopy@Struct_Microsoft_Singularity_V1_Security_PrincipalHandle@@SIXPAU1@0@Z 02090730 f   Shell.obj
 0001:0008f764       ?m_StructCopy@Struct_Microsoft_Singularity_V1_Security_PrincipalHandle@@SIXPAU1@PAU1@@Z 02090764 f   Shell.obj
 0001:0008f800       ?g_GetPrincipalName@Struct_Microsoft_Singularity_V1_Security_PrincipalHandle@@SIPAUClass_System_String@@U1@@Z 02090800 f   Shell.obj
 0001:0008f940       ?m_Equals@Struct_Microsoft_Singularity_V1_Security_PrincipalHandle@@SI_NPAU1@PAUClass_System_Object@@@Z 02090940 f   Shell.obj
 0001:0008f9ac       ?m_Equals@Struct_Microsoft_Singularity_V1_Security_PrincipalHandle@@SI_NPAUClass_Microsoft_Singularity_V1_Security_PrincipalHandle@@PAUClass_System_Object@@@Z 020909ac f   Shell.obj
 0001:0008f9d8       ?m_ToString@bool@@SIPAUClass_System_String@@PA_N@Z 020909d8 f   Shell.obj
 0001:0008fa08       ?m_ToString@bool@@SIPAUClass_System_String@@PAUClass_System_Boolean@@@Z 02090a08 f   Shell.obj
 0001:0008fa50       ?g_Parse@bool@@SI_NPAUClass_System_String@@@Z 02090a50 f   Shell.obj
 0001:0008fb44       ?m_GetHashCode@bool@@SIHPA_N@Z 02090b44 f   Shell.obj
 0001:0008fb78       ?m_GetHashCode@bool@@SIHPAUClass_System_Boolean@@@Z 02090b78 f   Shell.obj
 0001:0008fbc0       ?m_Equals@bool@@SI_NPA_NPAUClass_System_Object@@@Z 02090bc0 f   Shell.obj
 0001:0008fc20       ?m_Equals@bool@@SI_NPAUClass_System_Boolean@@PAUClass_System_Object@@@Z 02090c20 f   Shell.obj
 0001:0008fc6c       ?m_CompareTo@bool@@SIHPA_NPAUClass_System_Object@@@Z 02090c6c f   Shell.obj
 0001:0008fd14       ?m_CompareTo@bool@@SIHPAUClass_System_Boolean@@PAUClass_System_Object@@@Z 02090d14 f   Shell.obj
 0001:0008fd60       ?g__cctor@bool@@SIXXZ      02090d60 f   Shell.obj
 0001:0008fd74       ?m_IsCaseInsensitive@Class_System_Text_RegularExpressions_RegexFC@@SI_NPAU1@@Z 02090d74 f   Shell.obj
 0001:0008fd94       ?m_GetFirstChars@Class_System_Text_RegularExpressions_RegexFC@@SIPAUClass_System_String@@PAU1@PAUClass_System_Globalization_CultureInfo@@@Z 02090d94 f   Shell.obj
 0001:0008fdc8       ?m_AddFC@Class_System_Text_RegularExpressions_RegexFC@@SIXPAU1@0_N@Z 02090dc8 f   Shell.obj
 0001:0008fe50       ?m__ctor@Class_System_Text_RegularExpressions_RegexFC@@SIXPAU1@PAUClass_System_String@@_N2@Z 02090e50 f   Shell.obj
 0001:0008fed0       ?m__ctor@Class_System_Text_RegularExpressions_RegexFC@@SIXPAU1@_W_N22@Z 02090ed0 f   Shell.obj
 0001:0008ffb8       ?m__ctor@Class_System_Text_RegularExpressions_RegexFC@@SIXPAU1@_N@Z 02090fb8 f   Shell.obj
 0001:00090020       ?m__ctor@Class_Microsoft_Contracts_AssertException@@SIXPAU1@@Z 02091020 f   Shell.obj
 0001:00090044       ?m__ctor@Class_Microsoft_Contracts_ContractException@@SIXPAU1@@Z 02091044 f   Shell.obj
 0001:00090068       ?m_StructCopy@Struct_Microsoft_Singularity_Directory_DirectoryServiceContract_Success@@SIXPAU1@0@Z 02091068 f   Shell.obj
 0001:00090084       ?m_StructCopy@Struct_Microsoft_Singularity_Directory_DirectoryServiceContract_Success@@SIXPAU1@PAU1@@Z 02091084 f   Shell.obj
 0001:000900d8       ?m_Equals@Struct_Microsoft_Singularity_Directory_DirectoryServiceContract_Success@@SI_NPAU1@PAUClass_System_Object@@@Z 020910d8 f   Shell.obj
 0001:00090110       ?m_Equals@Struct_Microsoft_Singularity_Directory_DirectoryServiceContract_Success@@SI_NPAUClass_Microsoft_Singularity_Directory_DirectoryServiceContract_Success@@PAUClass_System_Object@@@Z 02091110 f   Shell.obj
 0001:0009013c       ?m_StructCopy@Struct_Microsoft_Singularity_Directory_DirectoryServiceContract_DeleteLink@@SIXPAU1@0@Z 0209113c f   Shell.obj
 0001:00090164       ?m_StructCopy@Struct_Microsoft_Singularity_Directory_DirectoryServiceContract_DeleteLink@@SIXPAU1@PAU1@@Z 02091164 f   Shell.obj
 0001:000901dc       ?m_Equals@Struct_Microsoft_Singularity_Directory_DirectoryServiceContract_DeleteLink@@SI_NPAU1@PAUClass_System_Object@@@Z 020911dc f   Shell.obj
 0001:00090224       ?m_Equals@Struct_Microsoft_Singularity_Directory_DirectoryServiceContract_DeleteLink@@SI_NPAUClass_Microsoft_Singularity_Directory_DirectoryServiceContract_DeleteLink@@PAUClass_System_Object@@@Z 02091224 f   Shell.obj
 0001:00090250       ?m_IntValue@Class_Microsoft_Singularity_Applications_ScriptEngine_Add@@SIHPAU1@PAUClass_Microsoft_Singularity_Applications_ScriptEngine_Interpretation@@@Z 02091250 f   Shell.obj
 0001:000902bc       ?m__ctor@Class_Microsoft_Singularity_Applications_ScriptEngine_Add@@SIXPAU1@PAUClass_Microsoft_Singularity_Applications_ScriptEngine_Expression@@1@Z 020912bc f   Shell.obj
 0001:000902ec       ?m_StructCopy@Struct_Microsoft_Singularity_Directory_DirectoryServiceContract_GetLinkValue@@SIXPAU1@0@Z 020912ec f   Shell.obj
 0001:00090314       ?m_StructCopy@Struct_Microsoft_Singularity_Directory_DirectoryServiceContract_GetLinkValue@@SIXPAU1@PAU1@@Z 02091314 f   Shell.obj
 0001:0009038c       ?m_MarshallContent@Struct_Microsoft_Singularity_Directory_DirectoryServiceContract_GetLinkValue@@SIXPAU1@PAEPAUStruct_Microsoft_Singularity_Channels_Endpoint@@1PAH@Z 0209138c f   Shell.obj
 0001:0009044c       ?m_MarshallAll@Struct_Microsoft_Singularity_Directory_DirectoryServiceContract_GetLinkValue@@SIXPAU1@PAEPAUStruct_Microsoft_Singularity_Channels_Endpoint@@PAH@Z 0209144c f   Shell.obj
 0001:000904a4       ?m_Equals@Struct_Microsoft_Singularity_Directory_DirectoryServiceContract_GetLinkValue@@SI_NPAU1@PAUClass_System_Object@@@Z 020914a4 f   Shell.obj
 0001:000904ec       ?m_Equals@Struct_Microsoft_Singularity_Directory_DirectoryServiceContract_GetLinkValue@@SI_NPAUClass_Microsoft_Singularity_Directory_DirectoryServiceContract_GetLinkValue@@PAUClass_System_Object@@@Z 020914ec f   Shell.obj
 0001:00090518       ?m_InvokeStaticStub@Class_Microsoft_Singularity_Applications_Shell_CommandStart@@SIHPAU1@PAUClass_Microsoft_Singularity_Applications_ShellControl@@PAUClassVector_Class_System_String@@@Z 02091518 f   Shell.obj
 0001:00090550       ?m_Invoke@Class_Microsoft_Singularity_Applications_Shell_CommandStart@@SIHPAU1@PAUClass_Microsoft_Singularity_Applications_ShellControl@@PAUClassVector_Class_System_String@@@Z 02091550 f   Shell.obj
 0001:000905bc       ?m_EndInvoke@Class_Microsoft_Singularity_Applications_Shell_CommandStart@@SIHPAU1@PAUClass_System_IAsyncResult@@@Z 020915bc f   Shell.obj
 0001:000905d8       ?m_BeginInvoke@Class_Microsoft_Singularity_Applications_Shell_CommandStart@@SIPAUClass_System_IAsyncResult@@PAU1@PAUClass_Microsoft_Singularity_Applications_ShellControl@@PAUClassVector_Class_System_String@@PAUClass_System_AsyncCallback@@PAUClass_System_Object@@@Z 020915d8 f   Shell.obj
 0001:000905f8       ?m__ctor@Class_Microsoft_Singularity_Applications_Shell_CommandStart@@SIXPAU1@PAUClass_System_Object@@PAUintPtr@@@Z 020915f8 f   Shell.obj
 0001:00090638       ?m_StructCopy@Struct_Microsoft_Singularity_Io_UnicodePipeContract_Write@@SIXPAU1@0@Z 02091638 f   Shell.obj
 0001:00090678       ?m_StructCopy@Struct_Microsoft_Singularity_Io_UnicodePipeContract_Write@@SIXPAU1@PAU1@@Z 02091678 f   Shell.obj
 0001:00090738       ?m_MarshallContent@Struct_Microsoft_Singularity_Io_UnicodePipeContract_Write@@SIXPAU1@PAEPAUStruct_Microsoft_Singularity_Channels_Endpoint@@1PAH@Z 02091738 f   Shell.obj
 0001:000907f8       ?m_MarshallAll@Struct_Microsoft_Singularity_Io_UnicodePipeContract_Write@@SIXPAU1@PAEPAUStruct_Microsoft_Singularity_Channels_Endpoint@@PAH@Z 020917f8 f   Shell.obj
 0001:00090850       ?m_Equals@Struct_Microsoft_Singularity_Io_UnicodePipeContract_Write@@SI_NPAU1@PAUClass_System_Object@@@Z 02091850 f   Shell.obj
 0001:000908b8       ?m_Equals@Struct_Microsoft_Singularity_Io_UnicodePipeContract_Write@@SI_NPAUClass_Microsoft_Singularity_Io_UnicodePipeContract_Write@@PAUClass_System_Object@@@Z 020918b8 f   Shell.obj
 0001:000908e4       ?g_Run@Class_Microsoft_Singularity_Applications_ScriptEngine@@SIHPAUClass_System_String@@PAUClass_Microsoft_Singularity_Applications_ShellControl@@PAUClass_Microsoft_Singularity_Applications_ScriptEngine_CommandLineRunner@@@Z 020918e4 f   Shell.obj
 0001:00090930       ?g_Run@Class_Microsoft_Singularity_Applications_ScriptEngine@@SIHPAUClass_System_String@@PAUClass_Microsoft_Singularity_Applications_ShellControl@@PAUClass_Microsoft_Singularity_Applications_ScriptEngine_CommandLineRunner@@PAUClassVector_Class_System_String@@@Z 02091930 f   Shell.obj
 0001:00090a5c       ?m_Run@Class_Microsoft_Singularity_Applications_ScriptEngine@@SIHPAU1@PAUClass_Microsoft_Singularity_Applications_ShellControl@@PAUClassVector_Class_System_String@@@Z 02091a5c f   Shell.obj
 0001:00090b08       ?m_Parse@Class_Microsoft_Singularity_Applications_ScriptEngine@@SIXPAU1@@Z 02091b08 f   Shell.obj
 0001:00090b78       ?m__ctor@Class_Microsoft_Singularity_Applications_ScriptEngine@@SIXPAU1@PAUClass_System_String@@PAUClass_Microsoft_Singularity_Applications_ScriptEngine_CommandLineRunner@@@Z 02091b78 f   Shell.obj
 0001:00090ba8       ?g__cctor@Class_Microsoft_Singularity_Applications_ScriptEngine@@SIXXZ 02091ba8 f   Shell.obj
 0001:00090c0c       ?m_Microsoft_SingSharp_ITracked_Release@Class_SurrogateMicrosoft_Singularity_Io_UnicodePipeContract_Exp@@SIXPAU1@@Z 02091c0c f   Shell.obj
 0001:00090c30       ?m_Microsoft_SingSharp_ITracked_Acquire@Class_SurrogateMicrosoft_Singularity_Io_UnicodePipeContract_Exp@@SIXPAU1@@Z 02091c30 f   Shell.obj
 0001:00090c54       ?m_HeadMatches@Class_SurrogateMicrosoft_Singularity_Io_UnicodePipeContract_Exp@@SI_NPAU1@HPA_NPAPAUClass_System_Object@@@Z 02091c54 f   Shell.obj
 0001:00090c88       ?m_GetWaitHandle@Class_SurrogateMicrosoft_Singularity_Io_UnicodePipeContract_Exp@@SI?AUStruct_Microsoft_Singularity_V1_Threads_SyncHandle@@PAU1@@Z 02091c88 f   Shell.obj
 0001:00090cac       ?m_Dispose@Class_SurrogateMicrosoft_Singularity_Io_UnicodePipeContract_Exp@@SIXPAU1@@Z 02091cac f   Shell.obj
 0001:00090cd0       ?g__ctor@Class_SurrogateMicrosoft_Singularity_Io_UnicodePipeContract_Exp@@SIXPAU1@PAUStruct_Microsoft_Singularity_Io_UnicodePipeContract_Exp@@@Z 02091cd0 f   Shell.obj
 0001:00090cf8       ?m_StructCopy@Struct_Microsoft_Singularity_V1_Services_PageTableService@@SIXPAU1@0@Z 02091cf8 f   Shell.obj
 0001:00090d14       ?m_StructCopy@Struct_Microsoft_Singularity_V1_Services_PageTableService@@SIXPAU1@PAU1@@Z 02091d14 f   Shell.obj
 0001:00090d68       ?g_Query@Struct_Microsoft_Singularity_V1_Services_PageTableService@@SI_NPAUuintPtr@@PAPAU2@1@Z 02091d68 f   Shell.obj
 0001:00090dd0       ?m_Equals@Struct_Microsoft_Singularity_V1_Services_PageTableService@@SI_NPAU1@PAUClass_System_Object@@@Z 02091dd0 f   Shell.obj
 0001:00090e08       ?m_Equals@Struct_Microsoft_Singularity_V1_Services_PageTableService@@SI_NPAUClass_Microsoft_Singularity_V1_Services_PageTableService@@PAUClass_System_Object@@@Z 02091e08 f   Shell.obj
 0001:00090e34       ?m_GetChars@Class_System_Text_Encoding_DefaultDecoder@@SIHPAU1@PAUClassVector_uint8@@HHPAUClassVector_bartok_char@@H@Z 02091e34 f   Shell.obj
 0001:00090e70       ?m_GetCharCount@Class_System_Text_Encoding_DefaultDecoder@@SIHPAU1@PAUClassVector_uint8@@HH@Z 02091e70 f   Shell.obj
 0001:00090eac       ?m__ctor@Class_System_Text_Encoding_DefaultDecoder@@SIXPAU1@PAUClass_System_Text_Encoding@@@Z 02091eac f   Shell.obj
 0001:00090edc       ?g_NewRegisteredCounters@Class_System_TryAllCounters@@SIPAU1@XZ 02091edc f   Shell.obj
 0001:00090f68       ?m_MergeCounters@Class_System_TryAllCounters@@SIXPAU1@0@Z 02091f68 f   Shell.obj
 0001:00091728       ?m_IncrementWeakRefsClearedInUpdateLog@Class_System_TryAllCounters@@SIXPAU1@@Z 02092728 f   Shell.obj
 0001:00091758       ?m_IncrementWeakRefsClearedInUpdateEnlistmentLog@Class_System_TryAllCounters@@SIXPAU1@@Z 02092758 f   Shell.obj
 0001:00091788       ?m_IncrementWeakRefsClearedInReadEnlistmentLog@Class_System_TryAllCounters@@SIXPAU1@@Z 02092788 f   Shell.obj
 0001:000917b8       ?m_IncrementUpdatesInReadEnlistmentsAtGC@Class_System_TryAllCounters@@SIXPAU1@@Z 020927b8 f   Shell.obj
 0001:000917e8       ?m_IncrementReadDuplicatesRemoved@Class_System_TryAllCounters@@SIXPAU1@@Z 020927e8 f   Shell.obj
 0001:00091818       ?m_IncrementInvalidOutsideGC@Class_System_TryAllCounters@@SIXPAU1@@Z 02092818 f   Shell.obj
 0001:00091848       ?m_IncrementInvalidDuringGC@Class_System_TryAllCounters@@SIXPAU1@@Z 02092848 f   Shell.obj
 0001:00091870       ?m_IncrementInvalidConflict@Class_System_TryAllCounters@@SIXPAU1@@Z 02092870 f   Shell.obj
 0001:00091898       ?m_IncrementInflationSeen@Class_System_TryAllCounters@@SIXPAU1@@Z 02092898 f   Shell.obj
 0001:000918c0       ?m_IncrementEnlistmentOverflow@Class_System_TryAllCounters@@SIXPAU1@@Z 020928c0 f   Shell.obj
 0001:000918e8       ?m_IncrementCachesCreated@Class_System_TryAllCounters@@SIXPAU1@@Z 020928e8 f   Shell.obj
 0001:00091910       ?m_DumpStats@Class_System_TryAllCounters@@SIXPAU1@@Z 02092910 f   Shell.obj
 0001:00093e40       ?g_DumpRegisteredCounters@Class_System_TryAllCounters@@SIXXZ 02094e40 f   Shell.obj
 0001:00093ed0       ?m__ctor@Class_System_TryAllCounters@@SIXPAU1@@Z 02094ed0 f   Shell.obj
 0001:00093eec       ?g__cctor@Class_System_TryAllCounters@@SIXXZ 02094eec f   Shell.obj
 0001:00093f1c       ?m__ctor@Class_System_TypeInitializationException@@SIXPAU1@@Z 02094f1c f   Shell.obj
 0001:00093f44       ?m__ctor@Class_System_TypeInitializationException@@SIXPAU1@PAUClass_System_String@@PAUClass_System_Exception@@@Z 02094f44 f   Shell.obj
 0001:00093f88       ?m_get$_Process@Class_Microsoft_Singularity_Applications_SingleProcessJob@@SIPAUClass_System_Process@@PAU1@@Z 02094f88 f   Shell.obj
 0001:00093fc4       ?m_Dispose@Class_Microsoft_Singularity_Applications_SingleProcessJob@@SIXPAU1@@Z 02094fc4 f   Shell.obj
 0001:0009400c       ?g_CommandLineString@Class_Microsoft_Singularity_Applications_SingleProcessJob@@SIPAUClass_System_String@@PAUClassVector_Class_System_String@@@Z 0209500c f   Shell.obj
 0001:00094130       ?m__ctor@Class_Microsoft_Singularity_Applications_SingleProcessJob@@SIXPAU1@PAUClassVector_Class_System_String@@PAUClass_System_Process@@PAUStruct_Microsoft_Singularity_Io_UnicodePipeContract_Imp@@@Z 02095130 f   Shell.obj
 0001:00094170       ?g__cctor@Class_Microsoft_Singularity_Applications_SingleProcessJob@@SIXXZ 02095170 f   Shell.obj
 0001:00094198       ?m_StructCopy@Struct_Microsoft_Singularity_Isal_CpuRecord@@SIXPAU1@0@Z 02095198 f   Shell.obj
 0001:00094210       ?m_StructCopy@Struct_Microsoft_Singularity_Isal_CpuRecord@@SIXPAU1@PAU1@@Z 02095210 f   Shell.obj
 0001:00094378       ?m_Equals@Struct_Microsoft_Singularity_Isal_CpuRecord@@SI_NPAU1@PAUClass_System_Object@@@Z 02095378 f   Shell.obj
 0001:000944f4       ?m_Equals@Struct_Microsoft_Singularity_Isal_CpuRecord@@SI_NPAUClass_Microsoft_Singularity_Isal_CpuRecord@@PAUClass_System_Object@@@Z 020954f4 f   Shell.obj
 0001:00094520       ?m_QuickSort@Class_System_Array_SorterObjectArray@@SIXPAU1@HH@Z 02095520 f   Shell.obj
 0001:000948b8       ?m__ctor@Class_System_Array_SorterObjectArray@@SIXPAU1@PAUClassVector_Class_System_Object@@1PAUClass_System_Collections_IComparer@@@Z 020958b8 f   Shell.obj
 0001:00094918       ?m_StructCopy@Struct_Microsoft_Singularity_Directory_DirectoryServiceContract_NakBindReparse@@SIXPAU1@0@Z 02095918 f   Shell.obj
 0001:00094964       ?m_StructCopy@Struct_Microsoft_Singularity_Directory_DirectoryServiceContract_NakBindReparse@@SIXPAU1@PAU1@@Z 02095964 f   Shell.obj
 0001:00094a48       ?m_Equals@Struct_Microsoft_Singularity_Directory_DirectoryServiceContract_NakBindReparse@@SI_NPAU1@PAUClass_System_Object@@@Z 02095a48 f   Shell.obj
 0001:00094ac0       ?m_Equals@Struct_Microsoft_Singularity_Directory_DirectoryServiceContract_NakBindReparse@@SI_NPAUClass_Microsoft_Singularity_Directory_DirectoryServiceContract_NakBindReparse@@PAUClass_System_Object@@@Z 02095ac0 f   Shell.obj
 0001:00094aec       ?m_StructCopy@Struct_Microsoft_Singularity_Directory_FileContract_AckWrite@@SIXPAU1@0@Z 02095aec f   Shell.obj
 0001:00094b38       ?m_StructCopy@Struct_Microsoft_Singularity_Directory_FileContract_AckWrite@@SIXPAU1@PAU1@@Z 02095b38 f   Shell.obj
 0001:00094c1c       ?m_Equals@Struct_Microsoft_Singularity_Directory_FileContract_AckWrite@@SI_NPAU1@PAUClass_System_Object@@@Z 02095c1c f   Shell.obj
 0001:00094c9c       ?m_Equals@Struct_Microsoft_Singularity_Directory_FileContract_AckWrite@@SI_NPAUClass_Microsoft_Singularity_Directory_FileContract_AckWrite@@PAUClass_System_Object@@@Z 02095c9c f   Shell.obj
 0001:00094cc8       ?m_StructCopy@Struct_System_GCs_CallStack_TransitionRecord@@SIXPAU1@0@Z 02095cc8 f   Shell.obj
 0001:00094d18       ?m_StructCopy@Struct_System_GCs_CallStack_TransitionRecord@@SIXPAU1@PAU1@@Z 02095d18 f   Shell.obj
 0001:00094e08       ?m_Equals@Struct_System_GCs_CallStack_TransitionRecord@@SI_NPAU1@PAUClass_System_Object@@@Z 02095e08 f   Shell.obj
 0001:00094f24       ?m_Equals@Struct_System_GCs_CallStack_TransitionRecord@@SI_NPAUClass_System_GCs_CallStack_TransitionRecord@@PAUClass_System_Object@@@Z 02095f24 f   Shell.obj
 0001:00094f50       ?m__ctor@Class_Microsoft_Singularity_Applications_ManifestException@@SIXPAU1@@Z 02095f50 f   Shell.obj
 0001:00094f78       ?m__ctor@Class_Microsoft_Singularity_Applications_ManifestException@@SIXPAU1@PAUClass_System_String@@@Z 02095f78 f   Shell.obj
 0001:00094fa0       ?m__ctor@Class_Microsoft_Singularity_Applications_ScriptEngine_Interpretation_UndefinedVariableException@@SIXPAU1@PAUClass_System_String@@@Z 02095fa0 f   Shell.obj
 0001:00094fd4       ?m_RecvHead@Class_Microsoft_Singularity_Channels_ESet$_2$LMicrosoft_Singularity_Io_UnicodePipeContract_Exp_Microsoft_Singularity_Io_UnicodePipeContract_ACK$G@@SIXPAU1@PAPAUStruct_Microsoft_Singularity_Io_UnicodePipeContract_Exp@@@Z 02095fd4 f   Shell.obj
 0001:00095070       ?m_Microsoft_SingSharp_ITracked_Release@Class_Microsoft_Singularity_Channels_ESet$_2$LMicrosoft_Singularity_Io_UnicodePipeContract_Exp_Microsoft_Singularity_Io_UnicodePipeContract_ACK$G@@SIXPAU1@@Z 02096070 f   Shell.obj
 0001:00095104       ?m_Microsoft_SingSharp_ITracked_Acquire@Class_Microsoft_Singularity_Channels_ESet$_2$LMicrosoft_Singularity_Io_UnicodePipeContract_Exp_Microsoft_Singularity_Io_UnicodePipeContract_ACK$G@@SIXPAU1@@Z 02096104 f   Shell.obj
 0001:00095198       ?m_HeadMatches@Class_Microsoft_Singularity_Channels_ESet$_2$LMicrosoft_Singularity_Io_UnicodePipeContract_Exp_Microsoft_Singularity_Io_UnicodePipeContract_ACK$G@@SI_NPAU1@HPA_NPAPAUClass_System_Object@@@Z 02096198 f   Shell.obj
 0001:00095310       ?m_GetWaitHandle@Class_Microsoft_Singularity_Channels_ESet$_2$LMicrosoft_Singularity_Io_UnicodePipeContract_Exp_Microsoft_Singularity_Io_UnicodePipeContract_ACK$G@@SI?AUStruct_Microsoft_Singularity_V1_Threads_SyncHandle@@PAU1@@Z 02096310 f   Shell.obj
 0001:0009537c       ?m_GetFreshNode@Class_Microsoft_Singularity_Channels_ESet$_2$LMicrosoft_Singularity_Io_UnicodePipeContract_Exp_Microsoft_Singularity_Io_UnicodePipeContract_ACK$G@@SIPAUClass_Microsoft_Singularity_Channels_ESet$_2$LMicrosoft_Singularity_Io_UnicodePipeContract_Exp_Microsoft_Singularity_Io_UnicodePipeContract_ACK$G_Node@@PAU1@PAUStruct_Microsoft_Singularity_Io_UnicodePipeContract_Exp@@0@Z 0209637c f   Shell.obj
 0001:00095420       ?m_get$_NextScanStart@Class_Microsoft_Singularity_Channels_ESet$_2$LMicrosoft_Singularity_Io_UnicodePipeContract_Exp_Microsoft_Singularity_Io_UnicodePipeContract_ACK$G@@SIPAUClass_Microsoft_Singularity_Channels_ESet$_2$LMicrosoft_Singularity_Io_UnicodePipeContract_Exp_Microsoft_Singularity_Io_UnicodePipeContract_ACK$G_Node@@PAU1@@Z 02096420 f   Shell.obj
 0001:00095488       ?m_Dispose@Class_Microsoft_Singularity_Channels_ESet$_2$LMicrosoft_Singularity_Io_UnicodePipeContract_Exp_Microsoft_Singularity_Io_UnicodePipeContract_ACK$G@@SIXPAU1@@Z 02096488 f   Shell.obj
 0001:00095574       ?m_Add@Class_Microsoft_Singularity_Channels_ESet$_2$LMicrosoft_Singularity_Io_UnicodePipeContract_Exp_Microsoft_Singularity_Io_UnicodePipeContract_ACK$G@@SIXPAU1@PAUStruct_Microsoft_Singularity_Io_UnicodePipeContract_Exp@@@Z 02096574 f   Shell.obj
 0001:000955a4       ?m__ctor@Class_Microsoft_Singularity_Channels_ESet$_2$LMicrosoft_Singularity_Io_UnicodePipeContract_Exp_Microsoft_Singularity_Io_UnicodePipeContract_ACK$G@@SIXPAU1@@Z 020965a4 f   Shell.obj
 0001:00095630       ?m_StructCopy@Struct_Microsoft_Singularity_Isal_IX_EVectors@@SIXPAU1@0@Z 02096630 f   Shell.obj
 0001:0009564c       ?m_StructCopy@Struct_Microsoft_Singularity_Isal_IX_EVectors@@SIXPAU1@PAU1@@Z 0209664c f   Shell.obj
 0001:000956a0       ?m_Equals@Struct_Microsoft_Singularity_Isal_IX_EVectors@@SI_NPAU1@PAUClass_System_Object@@@Z 020966a0 f   Shell.obj
 0001:000956d8       ?m_Equals@Struct_Microsoft_Singularity_Isal_IX_EVectors@@SI_NPAUClass_Microsoft_Singularity_Isal_IX_EVectors@@PAUClass_System_Object@@@Z 020966d8 f   Shell.obj
 0001:00095704       ?m__ctor@Class_System_InvalidCastException@@SIXPAU1@@Z 02096704 f   Shell.obj
 0001:0009572c       ?m__ctor@Class_System_InvalidCastException@@SIXPAU1@PAUClass_System_String@@@Z 0209672c f   Shell.obj
 0001:00095754       ?m__ctor@Class_System_InvalidCastException@@SIXPAU1@PAUClass_System_String@@PAUClass_System_Exception@@@Z 02096754 f   Shell.obj
 0001:00095784       ?m__ctor@Class_Microsoft_SingSharp_CustomAllocator@@SIXPAU1@@Z 02096784 f   Shell.obj
 0001:0009579c       ?m_VisitSmallPageEnd@Class_System_GCs_MarkSweepCollector_SweepVisitor@@SIXPAU1@@Z 0209679c f   Shell.obj
 0001:000957c8       ?m_VisitSmall@Class_System_GCs_MarkSweepCollector_SweepVisitor@@SIXPAU1@PAUClass_System_Object@@PAUuintPtr@@@Z 020967c8 f   Shell.obj
 0001:00095814       ?m_VisitLarge@Class_System_GCs_MarkSweepCollector_SweepVisitor@@SIPAUuintPtr@@PAU1@PAUClass_System_Object@@@Z 02096814 f   Shell.obj
 0001:0009589c       ?m__ctor@Class_System_GCs_MarkSweepCollector_SweepVisitor@@SIXPAU1@@Z 0209689c f   Shell.obj
 0001:000958c0       ?m_GetPreamble@Class_System_Text_UnicodeEncoding@@SIPAUClassVector_uint8@@PAU1@@Z 020968c0 f   Shell.obj
 0001:0009592c       ?m_GetMaxCharCount@Class_System_Text_UnicodeEncoding@@SIHPAU1@H@Z 0209692c f   Shell.obj
 0001:000959f0       ?m_GetHashCode@Class_System_Text_UnicodeEncoding@@SIHPAU1@@Z 020969f0 f   Shell.obj
 0001:00095a10       ?m_GetDecoder@Class_System_Text_UnicodeEncoding@@SIPAUClass_System_Text_Decoder@@PAU1@@Z 02096a10 f   Shell.obj
 0001:00095a54       ?m_GetChars@Class_System_Text_UnicodeEncoding@@SIHPAU1@PAUClassVector_uint8@@HHPAUClassVector_bartok_char@@H@Z 02096a54 f   Shell.obj
 0001:00095d64       ?m_GetCharCount@Class_System_Text_UnicodeEncoding@@SIHPAU1@PAUClassVector_uint8@@HH@Z 02096d64 f   Shell.obj
 0001:00095e90       ?m_Equals@Class_System_Text_UnicodeEncoding@@SI_NPAU1@PAUClass_System_Object@@@Z 02096e90 f   Shell.obj
 0001:00095f04       ?m__ctor@Class_System_Text_UnicodeEncoding@@SIXPAU1@@Z 02096f04 f   Shell.obj
 0001:00095f2c       ?m__ctor@Class_System_Text_UnicodeEncoding@@SIXPAU1@_N1@Z 02096f2c f   Shell.obj
 0001:00095f78       ?g__cctor@Class_System_Text_UnicodeEncoding@@SIXXZ 02096f78 f   Shell.obj
 0001:00095fa0       ?m_SetCursorSize@Class_Microsoft_Singularity_Applications_Terminal@@SIXPAU1@_W@Z 02096fa0 f   Shell.obj
 0001:0009605c       ?m_Reset@Class_Microsoft_Singularity_Applications_Terminal@@SIXPAU1@@Z 0209705c f   Shell.obj
 0001:000960a0       ?m_ProcessEscape@Class_Microsoft_Singularity_Applications_Terminal@@SI_NPAU1@_WPAUStruct_Microsoft_Singularity_Io_Tty_EscapeCodes@@PAH@Z 020970a0 f   Shell.obj
 0001:000964ec       ?m_GenerateAndSendEscapeSequence@Class_Microsoft_Singularity_Applications_Terminal@@SIXPAU1@UStruct_Microsoft_Singularity_Io_Tty_EscapeCodes@@@Z 020974ec f   Shell.obj
 0001:00096880       ?m__ctor@Class_Microsoft_Singularity_Applications_Terminal@@SIXPAU1@@Z 02097880 f   Shell.obj
 0001:000968c4       ?m_ToString@Struct_System_TimeSpan@@SIPAUClass_System_String@@PAU1@@Z 020978c4 f   Shell.obj
 0001:00096af4       ?m_ToString@Struct_System_TimeSpan@@SIPAUClass_System_String@@PAUClass_System_TimeSpan@@@Z 02097af4 f   Shell.obj
 0001:00096b3c       ?m_Subtract@Struct_System_TimeSpan@@SI?AU1@PAU1@U1@@Z 02097b3c f   Shell.obj
 0001:00096c58       ?m_StructCopy@Struct_System_TimeSpan@@SIXPAU1@0@Z 02097c58 f   Shell.obj
 0001:00096c8c       ?m_StructCopy@Struct_System_TimeSpan@@SIXPAU1@PAU1@@Z 02097c8c f   Shell.obj
 0001:00096d28       ?g_op$_Subtraction@Struct_System_TimeSpan@@SI?AU1@U1@0@Z 02097d28 f   Shell.obj
 0001:00096d84       ?g_op$_LessThan@Struct_System_TimeSpan@@SI_NU1@0@Z 02097d84 f   Shell.obj
 0001:00096dc0       ?g_op$_Equality@Struct_System_TimeSpan@@SI_NU1@0@Z 02097dc0 f   Shell.obj
 0001:00096dfc       ?m_IntToString@Struct_System_TimeSpan@@SIPAUClass_System_String@@PAU1@HH@Z 02097dfc f   Shell.obj
 0001:00096e48       ?g_Interval@Struct_System_TimeSpan@@SI?AU1@_JH@Z 02097e48 f   Shell.obj
 0001:00096f5c       ?m_GetHashCode@Struct_System_TimeSpan@@SIHPAU1@@Z 02097f5c f   Shell.obj
 0001:00096f88       ?m_GetHashCode@Struct_System_TimeSpan@@SIHPAUClass_System_TimeSpan@@@Z 02097f88 f   Shell.obj
 0001:00096fd0       ?m_get$_Ticks@Struct_System_TimeSpan@@SI_JPAU1@@Z 02097fd0 f   Shell.obj
 0001:00096ff4       ?m_get$_Milliseconds@Struct_System_TimeSpan@@SIHPAU1@@Z 02097ff4 f   Shell.obj
 0001:00097034       ?g_FromSeconds@Struct_System_TimeSpan@@SI?AU1@_J@Z 02098034 f   Shell.obj
 0001:00097080       ?g_FromMilliseconds@Struct_System_TimeSpan@@SI?AU1@_J@Z 02098080 f   Shell.obj
 0001:000970cc       ?m_Equals@Struct_System_TimeSpan@@SI_NPAU1@PAUClass_System_Object@@@Z 020980cc f   Shell.obj
 0001:00097144       ?m_Equals@Struct_System_TimeSpan@@SI_NPAUClass_System_TimeSpan@@PAUClass_System_Object@@@Z 02098144 f   Shell.obj
 0001:00097190       ?m_CompareTo@Struct_System_TimeSpan@@SIHPAU1@PAUClass_System_Object@@@Z 02098190 f   Shell.obj
 0001:0009727c       ?m_CompareTo@Struct_System_TimeSpan@@SIHPAUClass_System_TimeSpan@@PAUClass_System_Object@@@Z 0209827c f   Shell.obj
 0001:000972c8       ?m__ctor@Struct_System_TimeSpan@@SIXPAU1@_J@Z 020982c8 f   Shell.obj
 0001:000972f4       ?g__cctor@Struct_System_TimeSpan@@SIXXZ 020982f4 f   Shell.obj
 0001:000973d4       ?m_StructCopy@Struct_Microsoft_Singularity_Applications_WaitForChildContract_Finish@@SIXPAU1@0@Z 020983d4 f   Shell.obj
 0001:000973f0       ?m_StructCopy@Struct_Microsoft_Singularity_Applications_WaitForChildContract_Finish@@SIXPAU1@PAU1@@Z 020983f0 f   Shell.obj
 0001:00097444       ?m_MarshallContent@Struct_Microsoft_Singularity_Applications_WaitForChildContract_Finish@@SIXPAU1@PAEPAUStruct_Microsoft_Singularity_Channels_Endpoint@@1PAH@Z 02098444 f   Shell.obj
 0001:00097464       ?m_MarshallAll@Struct_Microsoft_Singularity_Applications_WaitForChildContract_Finish@@SIXPAU1@PAEPAUStruct_Microsoft_Singularity_Channels_Endpoint@@PAH@Z 02098464 f   Shell.obj
 0001:000974bc       ?m_Equals@Struct_Microsoft_Singularity_Applications_WaitForChildContract_Finish@@SI_NPAU1@PAUClass_System_Object@@@Z 020984bc f   Shell.obj
 0001:000974f4       ?m_Equals@Struct_Microsoft_Singularity_Applications_WaitForChildContract_Finish@@SI_NPAUClass_Microsoft_Singularity_Applications_WaitForChildContract_Finish@@PAUClass_System_Object@@@Z 020984f4 f   Shell.obj
 0001:00097520       ?m_StructCopy@Struct_System_ArgIterator@@SIXPAU1@0@Z 02098520 f   Shell.obj
 0001:00097554       ?m_StructCopy@Struct_System_ArgIterator@@SIXPAU1@PAU1@@Z 02098554 f   Shell.obj
 0001:000975f0       ?m_GetArg@Struct_System_ArgIterator@@SIPAUClass_System_RuntimeType@@PAU1@HPAPAUintPtr@@@Z 020985f0 f   Shell.obj
 0001:00097674       ?m_get$_Length@Struct_System_ArgIterator@@SIHPAU1@@Z 02098674 f   Shell.obj
 0001:00097694       ?m_Equals@Struct_System_ArgIterator@@SI_NPAU1@PAUClass_System_Object@@@Z 02098694 f   Shell.obj
 0001:000976f0       ?m_Equals@Struct_System_ArgIterator@@SI_NPAUClass_System_ArgIterator@@PAUClass_System_Object@@@Z 020986f0 f   Shell.obj
 0001:0009771c       ?m__ctor@Struct_System_ArgIterator@@SIXPAU1@UStruct_System_RuntimeArgumentHandle@@@Z 0209871c f   Shell.obj
 0001:00097764       ?m_LogTick@Class_Microsoft_Singularity_GCProfilerLogger_ProfilerBuffer@@SIXPAU1@@Z 02098764 f   Shell.obj
 0001:00097808       ?m__ctor@Class_Microsoft_Singularity_GCProfilerLogger_ProfilerBuffer@@SIXPAU1@@Z 02098808 f   Shell.obj
 0001:00097834       ?g_ToString2@Class_Microsoft_Singularity_Bitter@@SIPAUClass_System_String@@PAE@Z 02098834 f   Shell.obj
 0001:000978ec       ?g_ToString2@Class_Microsoft_Singularity_Bitter@@SIPAUClass_System_String@@PA_W@Z 020988ec f   Shell.obj
 0001:00097948       ?g_ToString2@Class_Microsoft_Singularity_Bitter@@SIPAUClass_System_String@@PA_WHH@Z 02098948 f   Shell.obj
 0001:00097a7c       ?g_ToString@Class_Microsoft_Singularity_Bitter@@SIPAUClass_System_String@@PA_W@Z 02098a7c f   Shell.obj
 0001:00097adc       ?g_ToByteArray@Class_Microsoft_Singularity_Bitter@@SIXPAEHHPAUClassVector_uint8@@H@Z 02098adc f   Shell.obj
 0001:00097b84       ?g_FromString2@Class_Microsoft_Singularity_Bitter@@SIPA_WPAUClass_System_String@@@Z 02098b84 f   Shell.obj
 0001:00097bd0       ?g_FromString2@Class_Microsoft_Singularity_Bitter@@SIPA_WPAUClass_System_String@@HH@Z 02098bd0 f   Shell.obj
 0001:00097d00       ?g_Copy@Class_Microsoft_Singularity_Bitter@@SIXPA_WHH0H@Z 02098d00 f   Shell.obj
 0001:00097dd0       ?g_BoundsCheck@Class_Microsoft_Singularity_Bitter@@SIXPAEHH@Z 02098dd0 f   Shell.obj
 0001:00097e98       ?g_BoundsCheck@Class_Microsoft_Singularity_Bitter@@SIXPA_WHH@Z 02098e98 f   Shell.obj
 0001:00097f74       ?g_BoundsCheck@Class_Microsoft_Singularity_Bitter@@SIXPAUClassVector_uint8@@HH@Z 02098f74 f   Shell.obj
 0001:00098038       ?m__ctor@Class_Microsoft_Singularity_Bitter@@SIXPAU1@@Z 02099038 f   Shell.obj
 0001:00098050       ?m_StructCopy@Struct_Microsoft_Singularity_Eventing_ArrayType@@SIXPAU1@0@Z 02099050 f   Shell.obj
 0001:000980a0       ?m_StructCopy@Struct_Microsoft_Singularity_Eventing_ArrayType@@SIXPAU1@PAU1@@Z 020990a0 f   Shell.obj
 0001:00098190       ?m_Equals@Struct_Microsoft_Singularity_Eventing_ArrayType@@SI_NPAU1@PAUClass_System_Object@@@Z 02099190 f   Shell.obj
 0001:0009820c       ?m_Equals@Struct_Microsoft_Singularity_Eventing_ArrayType@@SI_NPAUClass_Microsoft_Singularity_Eventing_ArrayType@@PAUClass_System_Object@@@Z 0209920c f   Shell.obj
 0001:00098238       ?m_ToString@uint32@@SIPAUClass_System_String@@PAI@Z 02099238 f   Shell.obj
 0001:00098260       ?m_ToString@uint32@@SIPAUClass_System_String@@PAIPAU2@@Z 02099260 f   Shell.obj
 0001:000982a8       ?m_ToString@uint32@@SIPAUClass_System_String@@PAUClass_System_UInt32@@@Z 020992a8 f   Shell.obj
 0001:000982d0       ?m_ToString@uint32@@SIPAUClass_System_String@@PAUClass_System_UInt32@@PAU2@@Z 020992d0 f   Shell.obj
 0001:000982fc       ?m_GetHashCode@uint32@@SIHPAI@Z 020992fc f   Shell.obj
 0001:0009831c       ?m_GetHashCode@uint32@@SIHPAUClass_System_UInt32@@@Z 0209931c f   Shell.obj
 0001:00098344       ?m_Equals@uint32@@SI_NPAIPAUClass_System_Object@@@Z 02099344 f   Shell.obj
 0001:000983a0       ?m_Equals@uint32@@SI_NPAUClass_System_UInt32@@PAUClass_System_Object@@@Z 020993a0 f   Shell.obj
 0001:000983cc       ?m_CompareTo@uint32@@SIHPAIPAUClass_System_Object@@@Z 020993cc f   Shell.obj
 0001:0009847c       ?m_CompareTo@uint32@@SIHPAUClass_System_UInt32@@PAUClass_System_Object@@@Z 0209947c f   Shell.obj
 0001:000984a8       ?m__ctor@Class_System_Reflection_Module@@SIXPAU1@@Z 020994a8 f   Shell.obj
 0001:000984c4       ?m_StructCopy@Struct_Microsoft_Singularity_Directory_NotifyContract_Imp@@SIXPAU1@0@Z 020994c4 f   Shell.obj
 0001:000985a0       ?m_StructCopy@Struct_Microsoft_Singularity_Directory_NotifyContract_Imp@@SIXPAU1@PAU1@@Z 020995a0 f   Shell.obj
 0001:00098834       ?m_Peek@Struct_Microsoft_Singularity_Directory_NotifyContract_Imp@@SIHPAU1@@Z 02099834 f   Shell.obj
 0001:000989dc       ?m_HeadMatches@Struct_Microsoft_Singularity_Directory_NotifyContract_Imp@@SI_NPAU1@HPA_NPAPAUClass_System_Object@@@Z 020999dc f   Shell.obj
 0001:00098a9c       ?m_HeadMatches@Struct_Microsoft_Singularity_Directory_NotifyContract_Imp@@SI_NPAUClass_Microsoft_Singularity_Directory_NotifyContract_Imp@@HPA_NPAPAUClass_System_Object@@@Z 02099a9c f   Shell.obj
 0001:00098ad4       ?m_Equals@Struct_Microsoft_Singularity_Directory_NotifyContract_Imp@@SI_NPAU1@PAUClass_System_Object@@@Z 02099ad4 f   Shell.obj
 0001:00098da8       ?m_Equals@Struct_Microsoft_Singularity_Directory_NotifyContract_Imp@@SI_NPAUClass_Microsoft_Singularity_Directory_NotifyContract_Imp@@PAUClass_System_Object@@@Z 02099da8 f   Shell.obj
 0001:00098dd4       ?m_Dispose@Struct_Microsoft_Singularity_Directory_NotifyContract_Imp@@SIXPAU1@@Z 02099dd4 f   Shell.obj
 0001:00098df8       ?m_Dispose@Struct_Microsoft_Singularity_Directory_NotifyContract_Imp@@SIXPAUClass_Microsoft_Singularity_Directory_NotifyContract_Imp@@@Z 02099df8 f   Shell.obj
 0001:00098e20       ?m_StructCopy@Struct_Microsoft_Singularity_Directory_DirectoryServiceContract_CreateAndBindFile@@SIXPAU1@0@Z 02099e20 f   Shell.obj
 0001:00098e54       ?m_StructCopy@Struct_Microsoft_Singularity_Directory_DirectoryServiceContract_CreateAndBindFile@@SIXPAU1@PAU1@@Z 02099e54 f   Shell.obj
 0001:00098ef0       ?m_Equals@Struct_Microsoft_Singularity_Directory_DirectoryServiceContract_CreateAndBindFile@@SI_NPAU1@PAUClass_System_Object@@@Z 02099ef0 f   Shell.obj
 0001:00098f4c       ?m_Equals@Struct_Microsoft_Singularity_Directory_DirectoryServiceContract_CreateAndBindFile@@SI_NPAUClass_Microsoft_Singularity_Directory_DirectoryServiceContract_CreateAndBindFile@@PAUClass_System_Object@@@Z 02099f4c f   Shell.obj
 0001:00098f78       ?g_Create@Class_Microsoft_Singularity_GCProfilerLogger_GCEventSource@@SIPAU1@PAUClass_System_String@@I_K@Z 02099f78 f   Shell.obj
 0001:0009904c       ?m__ctor@Class_Microsoft_Singularity_GCProfilerLogger_GCEventSource@@SIXPAU1@PAUClass_System_String@@PAUClass_Microsoft_Singularity_Eventing_EventingStorage@@I@Z 0209a04c f   Shell.obj
 0001:00099080       ?m_StructCopy@Struct_System_GCs_CalleeSaveRegisters@@SIXPAU1@0@Z 0209a080 f   Shell.obj
 0001:000990cc       ?m_StructCopy@Struct_System_GCs_CalleeSaveRegisters@@SIXPAU1@PAU1@@Z 0209a0cc f   Shell.obj
 0001:000991b0       ?m_GetFramePointer@Struct_System_GCs_CalleeSaveRegisters@@SIPAUuintPtr@@PAU1@@Z 0209a1b0 f   Shell.obj
 0001:000991d0       ?m_Equals@Struct_System_GCs_CalleeSaveRegisters@@SI_NPAU1@PAUClass_System_Object@@@Z 0209a1d0 f   Shell.obj
 0001:00099248       ?m_Equals@Struct_System_GCs_CalleeSaveRegisters@@SI_NPAUClass_System_GCs_CalleeSaveRegisters@@PAUClass_System_Object@@@Z 0209a248 f   Shell.obj
 0001:00099274       ?m_DebugTrace@Struct_System_GCs_CalleeSaveRegisters@@SIXPAU1@@Z 0209a274 f   Shell.obj
 0001:00099290       ?m__ctor@Class_System_VTable_ClassConstructorLock@@SIXPAU1@@Z 0209a290 f   Shell.obj
 0001:000992ac       ?m_StructCopy@Struct_Microsoft_Singularity_Isal_IX_DescriptorTable_Gdt@@SIXPAU1@0@Z 0209a2ac f   Shell.obj
 0001:000993a4       ?m_StructCopy@Struct_Microsoft_Singularity_Isal_IX_DescriptorTable_Gdt@@SIXPAU1@PAU1@@Z 0209a3a4 f   Shell.obj
 0001:0009968c       ?m_Equals@Struct_Microsoft_Singularity_Isal_IX_DescriptorTable_Gdt@@SI_NPAU1@PAUClass_System_Object@@@Z 0209a68c f   Shell.obj
 0001:00099ca0       ?m_Equals@Struct_Microsoft_Singularity_Isal_IX_DescriptorTable_Gdt@@SI_NPAUClass_Microsoft_Singularity_Isal_IX_DescriptorTable_Gdt@@PAUClass_System_Object@@@Z 0209aca0 f   Shell.obj
 0001:00099ccc       ?m_TopFC@Class_System_Text_RegularExpressions_RegexFCD@@SIPAUClass_System_Text_RegularExpressions_RegexFC@@PAU1@@Z 0209accc f   Shell.obj
 0001:00099d04       ?m_SkipChild@Class_System_Text_RegularExpressions_RegexFCD@@SIXPAU1@@Z 0209ad04 f   Shell.obj
 0001:00099d24       ?m_RegexFCFromRegexTree@Class_System_Text_RegularExpressions_RegexFCD@@SIPAUClass_System_Text_RegularExpressions_RegexFC@@PAU1@PAUClass_System_Text_RegularExpressions_RegexTree@@@Z 0209ad24 f   Shell.obj
 0001:00099eb0       ?m_PushInt@Class_System_Text_RegularExpressions_RegexFCD@@SIXPAU1@H@Z 0209aeb0 f   Shell.obj
 0001:00099f4c       ?m_PushFC@Class_System_Text_RegularExpressions_RegexFCD@@SIXPAU1@PAUClass_System_Text_RegularExpressions_RegexFC@@@Z 0209af4c f   Shell.obj
 0001:00099fe0       ?g_Prefix@Class_System_Text_RegularExpressions_RegexFCD@@SIPAUClass_System_Text_RegularExpressions_RegexPrefix@@PAUClass_System_Text_RegularExpressions_RegexTree@@@Z 0209afe0 f   Shell.obj
 0001:0009a25c       ?m_PopInt@Class_System_Text_RegularExpressions_RegexFCD@@SIHPAU1@@Z 0209b25c f   Shell.obj
 0001:0009a29c       ?m_PopFC@Class_System_Text_RegularExpressions_RegexFCD@@SIPAUClass_System_Text_RegularExpressions_RegexFC@@PAU1@@Z 0209b29c f   Shell.obj
 0001:0009a2dc       ?g_FirstChars@Class_System_Text_RegularExpressions_RegexFCD@@SIPAUClass_System_Text_RegularExpressions_RegexPrefix@@PAUClass_System_Text_RegularExpressions_RegexTree@@@Z 0209b2dc f   Shell.obj
 0001:0009a408       ?m_EmptyInt@Class_System_Text_RegularExpressions_RegexFCD@@SI_NPAU1@@Z 0209b408 f   Shell.obj
 0001:0009a430       ?m_EmptyFC@Class_System_Text_RegularExpressions_RegexFCD@@SI_NPAU1@@Z 0209b430 f   Shell.obj
 0001:0009a458       ?m_EarlyExit@Class_System_Text_RegularExpressions_RegexFCD@@SIXPAU1@@Z 0209b458 f   Shell.obj
 0001:0009a478       ?m_CalculateFC@Class_System_Text_RegularExpressions_RegexFCD@@SIXPAU1@HPAUClass_System_Text_RegularExpressions_RegexNode@@H@Z 0209b478 f   Shell.obj
 0001:0009a9d4       ?g_Anchors@Class_System_Text_RegularExpressions_RegexFCD@@SIHPAUClass_System_Text_RegularExpressions_RegexTree@@@Z 0209b9d4 f   Shell.obj
 0001:0009aaf4       ?g_AnchorFromType@Class_System_Text_RegularExpressions_RegexFCD@@SIHH@Z 0209baf4 f   Shell.obj
 0001:0009ab6c       ?m__ctor@Class_System_Text_RegularExpressions_RegexFCD@@SIXPAU1@@Z 0209bb6c f   Shell.obj
 0001:0009abb0       ?m__ctor@Class_System_Runtime_CompilerServices_AssertDevirtualizeAttribute@@SIXPAU1@@Z 0209bbb0 f   Shell.obj
 0001:0009abd4       ?m_InvokeStaticStub@Class_System_GCs_ProfileRootsDelegate@@SIXPAU1@PAUClass_System_GCs_NonNullReferenceVisitor@@@Z 0209bbd4 f   Shell.obj
 0001:0009ac04       ?m_Invoke@Class_System_GCs_ProfileRootsDelegate@@SIXPAU1@PAUClass_System_GCs_NonNullReferenceVisitor@@@Z 0209bc04 f   Shell.obj
 0001:0009ac60       ?m_EndInvoke@Class_System_GCs_ProfileRootsDelegate@@SIXPAU1@PAUClass_System_IAsyncResult@@@Z 0209bc60 f   Shell.obj
 0001:0009ac7c       ?m_BeginInvoke@Class_System_GCs_ProfileRootsDelegate@@SIPAUClass_System_IAsyncResult@@PAU1@PAUClass_System_GCs_NonNullReferenceVisitor@@PAUClass_System_AsyncCallback@@PAUClass_System_Object@@@Z 0209bc7c f   Shell.obj
 0001:0009ac9c       ?m__ctor@Class_System_GCs_ProfileRootsDelegate@@SIXPAU1@PAUClass_System_Object@@PAUintPtr@@@Z 0209bc9c f   Shell.obj
 0001:0009ad00       ?m_WriteImpl@Class_System_GCs_RefWriteBarrier@@SIXPAU1@PAPAUuintPtr@@PAU2@H@Z 0209bd00 f   Shell.obj
 0001:0009ad28       ?m_WeakRefWriteImpl@Class_System_GCs_RefWriteBarrier@@SIPAUuintPtr@@PAU1@PAUClass_System_Object@@H@Z 0209bd28 f   Shell.obj
 0001:0009ad4c       ?m_WeakRefReadImpl@Class_System_GCs_RefWriteBarrier@@SIPAUClass_System_Object@@PAU1@PAUuintPtr@@H@Z 0209bd4c f   Shell.obj
 0001:0009ad70       ?m_ReadObjImpl@Class_System_GCs_RefWriteBarrier@@SIPAUClass_System_Object@@PAU1@PAPAUuintPtr@@H@Z 0209bd70 f   Shell.obj
 0001:0009ad94       ?m_ReadImpl@Class_System_GCs_RefWriteBarrier@@SIPAUuintPtr@@PAU1@PAPAU2@H@Z 0209bd94 f   Shell.obj
 0001:0009adb8       ?m__ctor@Class_System_GCs_RefWriteBarrier@@SIXPAU1@@Z 0209bdb8 f   Shell.obj
 0001:0009addc       ?m__ctor@Class_Microsoft_Singularity_Applications_InvalidPathException@@SIXPAU1@PAUClass_System_String@@@Z 0209bddc f   Shell.obj
 0001:0009ae04       ?m__ctor@Class_Microsoft_Singularity_Applications_Shell_BackgroundProcess@@SIXPAU1@HPAUClass_System_String@@PAUClass_System_Process@@@Z 0209be04 f   Shell.obj
 0001:0009ae40       ?m_ToString@Struct_System_SchedulerTime@@SIPAUClass_System_String@@PAU1@@Z 0209be40 f   Shell.obj
 0001:0009af60       ?m_ToString@Struct_System_SchedulerTime@@SIPAUClass_System_String@@PAUClass_System_SchedulerTime@@@Z 0209bf60 f   Shell.obj
 0001:0009afa8       ?m_StructCopy@Struct_System_SchedulerTime@@SIXPAU1@0@Z 0209bfa8 f   Shell.obj
 0001:0009afdc       ?m_StructCopy@Struct_System_SchedulerTime@@SIXPAU1@PAU1@@Z 0209bfdc f   Shell.obj
 0001:0009b078       ?g_op$_Addition@Struct_System_SchedulerTime@@SI?AU1@U1@UStruct_System_TimeSpan@@@Z 0209c078 f   Shell.obj
 0001:0009b16c       ?m_GetHashCode@Struct_System_SchedulerTime@@SIHPAU1@@Z 0209c16c f   Shell.obj
 0001:0009b198       ?m_GetHashCode@Struct_System_SchedulerTime@@SIHPAUClass_System_SchedulerTime@@@Z 0209c198 f   Shell.obj
 0001:0009b1e0       ?m_get$_TotalDays@Struct_System_SchedulerTime@@SI_JPAU1@@Z 0209c1e0 f   Shell.obj
 0001:0009b218       ?m_get$_Second@Struct_System_SchedulerTime@@SIHPAU1@@Z 0209c218 f   Shell.obj
 0001:0009b258       ?g_get$_Now@Struct_System_SchedulerTime@@SI?AU1@XZ 0209c258 f   Shell.obj
 0001:0009b304       ?m_get$_Minute@Struct_System_SchedulerTime@@SIHPAU1@@Z 0209c304 f   Shell.obj
 0001:0009b344       ?m_get$_Hour@Struct_System_SchedulerTime@@SIHPAU1@@Z 0209c344 f   Shell.obj
 0001:0009b384       ?m_Equals@Struct_System_SchedulerTime@@SI_NPAU1@PAUClass_System_Object@@@Z 0209c384 f   Shell.obj
 0001:0009b3fc       ?m_Equals@Struct_System_SchedulerTime@@SI_NPAUClass_System_SchedulerTime@@PAUClass_System_Object@@@Z 0209c3fc f   Shell.obj
 0001:0009b448       ?m_CompareTo@Struct_System_SchedulerTime@@SIHPAU1@PAUClass_System_Object@@@Z 0209c448 f   Shell.obj
 0001:0009b534       ?m_CompareTo@Struct_System_SchedulerTime@@SIHPAUClass_System_SchedulerTime@@PAUClass_System_Object@@@Z 0209c534 f   Shell.obj
 0001:0009b580       ?m__ctor@Struct_System_SchedulerTime@@SIXPAU1@_J@Z 0209c580 f   Shell.obj
 0001:0009b610       ?g__cctor@Struct_System_SchedulerTime@@SIXXZ 0209c610 f   Shell.obj
 0001:0009b68c       ?m_StructCopy@Struct_Microsoft_Bartok_Runtime_PostHeader@@SIXPAU1@0@Z 0209c68c f   Shell.obj
 0001:0009b6b4       ?m_StructCopy@Struct_Microsoft_Bartok_Runtime_PostHeader@@SIXPAU1@PAU1@@Z 0209c6b4 f   Shell.obj
 0001:0009b72c       ?m_Equals@Struct_Microsoft_Bartok_Runtime_PostHeader@@SI_NPAU1@PAUClass_System_Object@@@Z 0209c72c f   Shell.obj
 0001:0009b778       ?m_Equals@Struct_Microsoft_Bartok_Runtime_PostHeader@@SI_NPAUClass_Microsoft_Bartok_Runtime_PostHeader@@PAUClass_System_Object@@@Z 0209c778 f   Shell.obj
 0001:0009b7a4       ?m_Update@Class_Microsoft_Singularity_Crypto_MD5@@SIXPAU1@PAUClassVector_uint8@@@Z 0209c7a4 f   Shell.obj
 0001:0009bcd4       ?m_RotL@Class_Microsoft_Singularity_Crypto_MD5@@SIIPAU1@IE@Z 0209ccd4 f   Shell.obj
 0001:0009bd44       ?m_Reset@Class_Microsoft_Singularity_Crypto_MD5@@SIXPAU1@@Z 0209cd44 f   Shell.obj
 0001:0009be18       ?m_ProcessBlock@Class_Microsoft_Singularity_Crypto_MD5@@SIXPAU1@@Z 0209ce18 f   Shell.obj
 0001:0009c88c       ?m_Hash@Class_Microsoft_Singularity_Crypto_MD5@@SIPAUClassVector_uint8@@PAU1@PAU2@@Z 0209d88c f   Shell.obj
 0001:0009c8c4       ?m_Finish@Class_Microsoft_Singularity_Crypto_MD5@@SIPAUClassVector_uint8@@PAU1@@Z 0209d8c4 f   Shell.obj
 0001:0009cb08       ?m__ctor@Class_Microsoft_Singularity_Crypto_MD5@@SIXPAU1@@Z 0209db08 f   Shell.obj
 0001:0009cb60       ?g__cctor@Class_Microsoft_Singularity_Crypto_MD5@@SIXXZ 0209db60 f   Shell.obj
 0001:0009cb74       ?m_StructCopy@Struct_Microsoft_Singularity_Diagnostics_Contracts_ProcessContract_GetProcessThreadIDs@@SIXPAU1@0@Z 0209db74 f   Shell.obj
 0001:0009cb9c       ?m_StructCopy@Struct_Microsoft_Singularity_Diagnostics_Contracts_ProcessContract_GetProcessThreadIDs@@SIXPAU1@PAU1@@Z 0209db9c f   Shell.obj
 0001:0009cc14       ?m_Equals@Struct_Microsoft_Singularity_Diagnostics_Contracts_ProcessContract_GetProcessThreadIDs@@SI_NPAU1@PAUClass_System_Object@@@Z 0209dc14 f   Shell.obj
 0001:0009cc5c       ?m_Equals@Struct_Microsoft_Singularity_Diagnostics_Contracts_ProcessContract_GetProcessThreadIDs@@SI_NPAUClass_Microsoft_Singularity_Diagnostics_Contracts_ProcessContract_GetProcessThreadIDs@@PAUClass_System_Object@@@Z 0209dc5c f   Shell.obj
 0001:0009cc88       ?m_UseOptionR@Class_System_Text_RegularExpressions_Regex@@SI_NPAU1@@Z 0209dc88 f   Shell.obj
 0001:0009ccb0       ?m_UseOptionInvariant@Class_System_Text_RegularExpressions_Regex@@SI_NPAU1@@Z 0209dcb0 f   Shell.obj
 0001:0009ccdc       ?m_UncacheCode@Class_System_Text_RegularExpressions_Regex@@SIXPAU1@@Z 0209dcdc f   Shell.obj
 0001:0009cdc8       ?m_ToString@Class_System_Text_RegularExpressions_Regex@@SIPAUClass_System_String@@PAU1@@Z 0209ddc8 f   Shell.obj
 0001:0009cde8       ?m_Run@Class_System_Text_RegularExpressions_Regex@@SIPAUClass_System_Text_RegularExpressions_Match@@PAU1@_NHPAUClass_System_String@@HHH@Z 0209dde8 f   Shell.obj
 0001:0009cfe8       ?m_Replace@Class_System_Text_RegularExpressions_Regex@@SIPAUClass_System_String@@PAU1@PAU2@1@Z 0209dfe8 f   Shell.obj
 0001:0009d084       ?m_Replace@Class_System_Text_RegularExpressions_Regex@@SIPAUClass_System_String@@PAU1@PAU2@1HH@Z 0209e084 f   Shell.obj
 0001:0009d218       ?m_Match@Class_System_Text_RegularExpressions_Regex@@SIPAUClass_System_Text_RegularExpressions_Match@@PAU1@PAUClass_System_String@@@Z 0209e218 f   Shell.obj
 0001:0009d2bc       ?m_Match@Class_System_Text_RegularExpressions_Regex@@SIPAUClass_System_Text_RegularExpressions_Match@@PAU1@PAUClass_System_String@@H@Z 0209e2bc f   Shell.obj
 0001:0009d344       ?m_InitializeReferences@Class_System_Text_RegularExpressions_Regex@@SIXPAU1@@Z 0209e344 f   Shell.obj
 0001:0009d3e8       ?m_get$_RightToLeft@Class_System_Text_RegularExpressions_Regex@@SI_NPAU1@@Z 0209e3e8 f   Shell.obj
 0001:0009d40c       ?m_Finalize@Class_System_Text_RegularExpressions_Regex@@SIXPAU1@@Z 0209e40c f   Shell.obj
 0001:0009d450       ?m__ctor@Class_System_Text_RegularExpressions_Regex@@SIXPAU1@@Z 0209e450 f   Shell.obj
 0001:0009d470       ?m__ctor@Class_System_Text_RegularExpressions_Regex@@SIXPAU1@PAUClass_System_String@@@Z 0209e470 f   Shell.obj
 0001:0009d49c       ?m__ctor@Class_System_Text_RegularExpressions_Regex@@SIXPAU1@PAUClass_System_String@@UStruct_System_Text_RegularExpressions_RegexOptions@@@Z 0209e49c f   Shell.obj
 0001:0009d67c       ?g__cctor@Class_System_Text_RegularExpressions_Regex@@SIXXZ 0209e67c f   Shell.obj
 0001:0009d6bc       ?m_FieldOffset@Class_System_GCs_Barrier_SlowZeroFieldsVisitor@@SIXPAU1@PAUuintPtr@@PAUStruct_System_GCs_ReferenceVisitor_ObjectDescriptor@@@Z 0209e6bc f   Shell.obj
 0001:0009d7a8       ?m__ctor@Class_System_GCs_Barrier_SlowZeroFieldsVisitor@@SIXPAU1@@Z 0209e7a8 f   Shell.obj
 0001:0009d7cc       ?m_VisitPage@Class_System_GCs_SegregatedFreeList_NullPartialFreePageVisitor@@SI?AUStruct_System_GCs_SegregatedFreeList_PartialPageAction@@PAU1@PAUuintPtr@@PAUStruct_System_GCs_SegregatedFreeList_PageHeader@@H@Z 0209e7cc f   Shell.obj
 0001:0009d7f0       ?m_ObserveEmptyPage@Class_System_GCs_SegregatedFreeList_NullPartialFreePageVisitor@@SIXPAU1@@Z 0209e7f0 f   Shell.obj
 0001:0009d80c       ?m__ctor@Class_System_GCs_SegregatedFreeList_NullPartialFreePageVisitor@@SIXPAU1@@Z 0209e80c f   Shell.obj
 0001:0009d830       ?m__ctor@Class_System_GCs_SegregatedFreeList_PartialFreePageVisitor@@SIXPAU1@@Z 0209e830 f   Shell.obj
 0001:0009d84c       ?m_GetChars@Class_System_Text_UnicodeEncoding_Decoder@@SIHPAU1@PAUClassVector_uint8@@HHPAUClassVector_bartok_char@@H@Z 0209e84c f   Shell.obj
 0001:0009dc68       ?m_GetCharCount@Class_System_Text_UnicodeEncoding_Decoder@@SIHPAU1@PAUClassVector_uint8@@HH@Z 0209ec68 f   Shell.obj
 0001:0009ddb0       ?m__ctor@Class_System_Text_UnicodeEncoding_Decoder@@SIXPAU1@PAUClass_System_Text_UnicodeEncoding@@@Z 0209edb0 f   Shell.obj
 0001:0009ddec       ?m__ctor@Class_System_Text_Decoder@@SIXPAU1@@Z 0209edec f   Shell.obj
 0001:0009de08       ?m_StructCopy@Struct_Microsoft_Singularity_Directory_DirectoryServiceContract_AckBind@@SIXPAU1@0@Z 0209ee08 f   Shell.obj
 0001:0009de24       ?m_StructCopy@Struct_Microsoft_Singularity_Directory_DirectoryServiceContract_AckBind@@SIXPAU1@PAU1@@Z 0209ee24 f   Shell.obj
 0001:0009de78       ?m_Equals@Struct_Microsoft_Singularity_Directory_DirectoryServiceContract_AckBind@@SI_NPAU1@PAUClass_System_Object@@@Z 0209ee78 f   Shell.obj
 0001:0009deb0       ?m_Equals@Struct_Microsoft_Singularity_Directory_DirectoryServiceContract_AckBind@@SI_NPAUClass_Microsoft_Singularity_Directory_DirectoryServiceContract_AckBind@@PAUClass_System_Object@@@Z 0209eeb0 f   Shell.obj
 0001:0009dedc       ?m_StructCopy@Struct_Microsoft_Singularity_Directory_DirectoryServiceContract_NakDeleteLinkReparse@@SIXPAU1@0@Z 0209eedc f   Shell.obj
 0001:0009df1c       ?m_StructCopy@Struct_Microsoft_Singularity_Directory_DirectoryServiceContract_NakDeleteLinkReparse@@SIXPAU1@PAU1@@Z 0209ef1c f   Shell.obj
 0001:0009dfdc       ?m_Equals@Struct_Microsoft_Singularity_Directory_DirectoryServiceContract_NakDeleteLinkReparse@@SI_NPAU1@PAUClass_System_Object@@@Z 0209efdc f   Shell.obj
 0001:0009e044       ?m_Equals@Struct_Microsoft_Singularity_Directory_DirectoryServiceContract_NakDeleteLinkReparse@@SI_NPAUClass_Microsoft_Singularity_Directory_DirectoryServiceContract_NakDeleteLinkReparse@@PAUClass_System_Object@@@Z 0209f044 f   Shell.obj
 0001:0009e070       ?m_Microsoft_SingSharp_ITracked_Release@Class_SurrogateMicrosoft_Singularity_Diagnostics_Contracts_ProcessContract_Imp@@SIXPAU1@@Z 0209f070 f   Shell.obj
 0001:0009e094       ?m_Microsoft_SingSharp_ITracked_Acquire@Class_SurrogateMicrosoft_Singularity_Diagnostics_Contracts_ProcessContract_Imp@@SIXPAU1@@Z 0209f094 f   Shell.obj
 0001:0009e0b8       ?m_HeadMatches@Class_SurrogateMicrosoft_Singularity_Diagnostics_Contracts_ProcessContract_Imp@@SI_NPAU1@HPA_NPAPAUClass_System_Object@@@Z 0209f0b8 f   Shell.obj
 0001:0009e0ec       ?m_GetWaitHandle@Class_SurrogateMicrosoft_Singularity_Diagnostics_Contracts_ProcessContract_Imp@@SI?AUStruct_Microsoft_Singularity_V1_Threads_SyncHandle@@PAU1@@Z 0209f0ec f   Shell.obj
 0001:0009e110       ?m_Dispose@Class_SurrogateMicrosoft_Singularity_Diagnostics_Contracts_ProcessContract_Imp@@SIXPAU1@@Z 0209f110 f   Shell.obj
 0001:0009e134       ?g__ctor@Class_SurrogateMicrosoft_Singularity_Diagnostics_Contracts_ProcessContract_Imp@@SIXPAU1@PAUStruct_Microsoft_Singularity_Diagnostics_Contracts_ProcessContract_Imp@@@Z 0209f134 f   Shell.obj
 0001:0009e15c       ?m_StructCopy@Struct_Microsoft_Singularity_Security_Principal@@SIXPAU1@0@Z 0209f15c f   Shell.obj
 0001:0009e188       ?m_StructCopy@Struct_Microsoft_Singularity_Security_Principal@@SIXPAU1@PAU1@@Z 0209f188 f   Shell.obj
 0001:0009e20c       ?g_Self@Struct_Microsoft_Singularity_Security_Principal@@SI?AU1@XZ 0209f20c f   Shell.obj
 0001:0009e2c4       ?m_GetName@Struct_Microsoft_Singularity_Security_Principal@@SIPAUClass_System_String@@PAU1@@Z 0209f2c4 f   Shell.obj
 0001:0009e33c       ?m_Equals@Struct_Microsoft_Singularity_Security_Principal@@SI_NPAU1@PAUClass_System_Object@@@Z 0209f33c f   Shell.obj
 0001:0009e3f0       ?m_Equals@Struct_Microsoft_Singularity_Security_Principal@@SI_NPAUClass_Microsoft_Singularity_Security_Principal@@PAUClass_System_Object@@@Z 0209f3f0 f   Shell.obj
 0001:0009e41c       ?m__ctor@Struct_Microsoft_Singularity_Security_Principal@@SIXPAU1@UStruct_Microsoft_Singularity_V1_Security_PrincipalHandle@@@Z 0209f41c f   Shell.obj
 0001:0009e444       ?m_MoveNext@Class_System_Collections_Queue_QueueEnumerator@@SI_NPAU1@@Z 0209f444 f   Shell.obj
 0001:0009e4e4       ?m_get$_Current@Class_System_Collections_Queue_QueueEnumerator@@SIPAUClass_System_Object@@PAU1@@Z 0209f4e4 f   Shell.obj
 0001:0009e560       ?m__ctor@Class_System_Collections_Queue_QueueEnumerator@@SIXPAU1@PAUClass_System_Collections_Queue@@@Z 0209f560 f   Shell.obj
 0001:0009e5bc       ?m_Wait@Class_Microsoft_Singularity_Applications_Shell_WaitForChildThread@@SIXPAU1@@Z 0209f5bc f   Shell.obj
 0001:0009e634       ?g_StartWaiting@Class_Microsoft_Singularity_Applications_Shell_WaitForChildThread@@SIXPAUClass_System_Process@@PAUClass__Shell_Microsoft_Singularity_Channels_TRef$_2$LMicrosoft_Singularity_Applications_WaitForChildContract_Exp_Microsoft_Singularity_Applications_WaitForChildContract_Start$G@@@Z 0209f634 f   Shell.obj
 0001:0009e744       ?m__ctor@Class_Microsoft_Singularity_Applications_Shell_WaitForChildThread@@SIXPAU1@PAUClass_System_Process@@PAUClass__Shell_Microsoft_Singularity_Channels_TRef$_2$LMicrosoft_Singularity_Applications_WaitForChildContract_Exp_Microsoft_Singularity_Applications_WaitForChildContract_Start$G@@@Z 0209f744 f   Shell.obj
 0001:0009e774       ?m__ctor@Class_Microsoft_Contracts_UnreachableException@@SIXPAU1@@Z 0209f774 f   Shell.obj
 0001:0009e798       ?m_StructCopy@Struct_System_RuntimeTypeHandle@@SIXPAU1@0@Z 0209f798 f   Shell.obj
 0001:0009e7c0       ?m_StructCopy@Struct_System_RuntimeTypeHandle@@SIXPAU1@PAU1@@Z 0209f7c0 f   Shell.obj
 0001:0009e838       ?m_get$_Value@Struct_System_RuntimeTypeHandle@@SIPAUintPtr@@PAU1@@Z 0209f838 f   Shell.obj
 0001:0009e858       ?m_Equals@Struct_System_RuntimeTypeHandle@@SI_NPAU1@PAUClass_System_Object@@@Z 0209f858 f   Shell.obj
 0001:0009e8a0       ?m_Equals@Struct_System_RuntimeTypeHandle@@SI_NPAUClass_System_RuntimeTypeHandle@@PAUClass_System_Object@@@Z 0209f8a0 f   Shell.obj
 0001:0009e8cc       ?m__ctor@Struct_System_RuntimeTypeHandle@@SIXPAU1@PAUClass_System_RuntimeType@@@Z 0209f8cc f   Shell.obj
 0001:0009e8f4       ?g_ToLower@Class_System_Globalization_TextInfo@@SIPAUClass_System_String@@PAU2@@Z 0209f8f4 f   Shell.obj
 0001:0009ea04       ?g_ToLower@Class_System_Globalization_TextInfo@@SI_W_W@Z 0209fa04 f   Shell.obj
 0001:0009ea30       ?g_GetLowerUpperCase@Class_System_Globalization_TextInfo@@SI_WPAUClassVector_int16@@_W@Z 0209fa30 f   Shell.obj
 0001:0009ead0       ?m__ctor@Class_System_Globalization_TextInfo@@SIXPAU1@@Z 0209fad0 f   Shell.obj
 0001:0009eae8       ?g__cctor@Class_System_Globalization_TextInfo@@SIXXZ 0209fae8 f   Shell.obj
 0001:0009eafc       ?m__ctor@Class_System_Threading_SynchronizationLockException@@SIXPAU1@@Z 0209fafc f   Shell.obj
 0001:0009eb24       ?m__ctor@Class_System_Threading_SynchronizationLockException@@SIXPAU1@PAUClass_System_String@@@Z 0209fb24 f   Shell.obj
 0001:0009eb4c       ?m_MoveNext@Class_System_Collections_SortedList_SortedListEnumerator@@SI_NPAU1@@Z 0209fb4c f   Shell.obj
 0001:0009ec10       ?m_get$_Key@Class_System_Collections_SortedList_SortedListEnumerator@@SIPAUClass_System_Object@@PAU1@@Z 0209fc10 f   Shell.obj
 0001:0009ec94       ?m_get$_Current@Class_System_Collections_SortedList_SortedListEnumerator@@SIPAUClass_System_Object@@PAU1@@Z 0209fc94 f   Shell.obj
 0001:0009ed5c       ?m__ctor@Class_System_Collections_SortedList_SortedListEnumerator@@SIXPAU1@PAUClass_System_Collections_SortedList@@HHH@Z 0209fd5c f   Shell.obj
 0001:0009edc4       ?m_UnExpose@Struct_Microsoft_Singularity_Io_ConsoleOutput_PipeData@@SIXPAU1@@Z 0209fdc4 f   Shell.obj
 0001:0009ede0       ?m_Swap@Struct_Microsoft_Singularity_Io_ConsoleOutput_PipeData@@SIPAUStruct_Microsoft_Singularity_Io_UnicodePipeContract_Imp@@PAU1@PAU2@@Z 0209fde0 f   Shell.obj
 0001:0009ee6c       ?m_StructCopy@Struct_Microsoft_Singularity_Io_ConsoleOutput_PipeData@@SIXPAU1@0@Z 0209fe6c f   Shell.obj
 0001:0009ee94       ?m_StructCopy@Struct_Microsoft_Singularity_Io_ConsoleOutput_PipeData@@SIXPAU1@PAU1@@Z 0209fe94 f   Shell.obj
 0001:0009ef0c       ?m_Microsoft_SingSharp_ITracked_Release@Struct_Microsoft_Singularity_Io_ConsoleOutput_PipeData@@SIXPAU1@@Z 0209ff0c f   Shell.obj
 0001:0009ef28       ?m_Microsoft_SingSharp_ITracked_Release@Struct_Microsoft_Singularity_Io_ConsoleOutput_PipeData@@SIXPAUClass_Microsoft_Singularity_Io_ConsoleOutput_PipeData@@@Z 0209ff28 f   Shell.obj
 0001:0009ef50       ?m_Microsoft_SingSharp_ITracked_Acquire@Struct_Microsoft_Singularity_Io_ConsoleOutput_PipeData@@SIXPAU1@@Z 0209ff50 f   Shell.obj
 0001:0009ef6c       ?m_Microsoft_SingSharp_ITracked_Acquire@Struct_Microsoft_Singularity_Io_ConsoleOutput_PipeData@@SIXPAUClass_Microsoft_Singularity_Io_ConsoleOutput_PipeData@@@Z 0209ff6c f   Shell.obj
 0001:0009ef94       ?m_Expose@Struct_Microsoft_Singularity_Io_ConsoleOutput_PipeData@@SIXPAU1@@Z 0209ff94 f   Shell.obj
 0001:0009efb0       ?m_Equals@Struct_Microsoft_Singularity_Io_ConsoleOutput_PipeData@@SI_NPAU1@PAUClass_System_Object@@@Z 0209ffb0 f   Shell.obj
 0001:0009eff8       ?m_Equals@Struct_Microsoft_Singularity_Io_ConsoleOutput_PipeData@@SI_NPAUClass_Microsoft_Singularity_Io_ConsoleOutput_PipeData@@PAUClass_System_Object@@@Z 0209fff8 f   Shell.obj
 0001:0009f024       ?m_Dispose@Struct_Microsoft_Singularity_Io_ConsoleOutput_PipeData@@SIXPAU1@@Z 020a0024 f   Shell.obj
 0001:0009f06c       ?m_Dispose@Struct_Microsoft_Singularity_Io_ConsoleOutput_PipeData@@SIXPAUClass_Microsoft_Singularity_Io_ConsoleOutput_PipeData@@@Z 020a006c f   Shell.obj
 0001:0009f094       ?m_WaitOne@Class_System_Threading_ManualResetEvent@@SI_NPAU1@@Z 020a0094 f   Shell.obj
 0001:0009f108       ?m_WaitOne@Class_System_Threading_ManualResetEvent@@SI_NPAU1@UStruct_System_SchedulerTime@@@Z 020a0108 f   Shell.obj
 0001:0009f190       ?m_Set@Class_System_Threading_ManualResetEvent@@SI_NPAU1@@Z 020a0190 f   Shell.obj
 0001:0009f1dc       ?m_Reset@Class_System_Threading_ManualResetEvent@@SIXPAU1@@Z 020a01dc f   Shell.obj
 0001:0009f214       ?m_Finalize@Class_System_Threading_ManualResetEvent@@SIXPAU1@@Z 020a0214 f   Shell.obj
 0001:0009f278       ?m_Dispose@Class_System_Threading_ManualResetEvent@@SIXPAU1@_N@Z 020a0278 f   Shell.obj
 0001:0009f2c4       ?m__ctor@Class_System_Threading_ManualResetEvent@@SIXPAU1@_N@Z 020a02c4 f   Shell.obj
 0001:0009f330       ?m_System_IDisposable_Dispose@Class_System_Threading_WaitHandle@@SIXPAU1@@Z 020a0330 f   Shell.obj
 0001:0009f360       ?m_Finalize@Class_System_Threading_WaitHandle@@SIXPAU1@@Z 020a0360 f   Shell.obj
 0001:0009f3a8       ?m__ctor@Class_System_Threading_WaitHandle@@SIXPAU1@@Z 020a03a8 f   Shell.obj
 0001:0009f3c4       ?m_Microsoft_SingSharp_ITracked_Release@Class_Microsoft_Singularity_Channels_ESet$_2$LMicrosoft_Singularity_Io_UnicodePipeContract_Exp_Microsoft_Singularity_Io_UnicodePipeContract_READY$G@@SIXPAU1@@Z 020a03c4 f   Shell.obj
 0001:0009f458       ?m_Microsoft_SingSharp_ITracked_Acquire@Class_Microsoft_Singularity_Channels_ESet$_2$LMicrosoft_Singularity_Io_UnicodePipeContract_Exp_Microsoft_Singularity_Io_UnicodePipeContract_READY$G@@SIXPAU1@@Z 020a0458 f   Shell.obj
 0001:0009f4ec       ?m_HeadMatches@Class_Microsoft_Singularity_Channels_ESet$_2$LMicrosoft_Singularity_Io_UnicodePipeContract_Exp_Microsoft_Singularity_Io_UnicodePipeContract_READY$G@@SI_NPAU1@HPA_NPAPAUClass_System_Object@@@Z 020a04ec f   Shell.obj
 0001:0009f664       ?m_GetWaitHandle@Class_Microsoft_Singularity_Channels_ESet$_2$LMicrosoft_Singularity_Io_UnicodePipeContract_Exp_Microsoft_Singularity_Io_UnicodePipeContract_READY$G@@SI?AUStruct_Microsoft_Singularity_V1_Threads_SyncHandle@@PAU1@@Z 020a0664 f   Shell.obj
 0001:0009f6d0       ?m_GetFreshNode@Class_Microsoft_Singularity_Channels_ESet$_2$LMicrosoft_Singularity_Io_UnicodePipeContract_Exp_Microsoft_Singularity_Io_UnicodePipeContract_READY$G@@SIPAUClass_Microsoft_Singularity_Channels_ESet$_2$LMicrosoft_Singularity_Io_UnicodePipeContract_Exp_Microsoft_Singularity_Io_UnicodePipeContract_READY$G_Node@@PAU1@PAUStruct_Microsoft_Singularity_Io_UnicodePipeContract_Exp@@0@Z 020a06d0 f   Shell.obj
 0001:0009f774       ?m_get$_NextScanStart@Class_Microsoft_Singularity_Channels_ESet$_2$LMicrosoft_Singularity_Io_UnicodePipeContract_Exp_Microsoft_Singularity_Io_UnicodePipeContract_READY$G@@SIPAUClass_Microsoft_Singularity_Channels_ESet$_2$LMicrosoft_Singularity_Io_UnicodePipeContract_Exp_Microsoft_Singularity_Io_UnicodePipeContract_READY$G_Node@@PAU1@@Z 020a0774 f   Shell.obj
 0001:0009f7dc       ?m_Extract@Class_Microsoft_Singularity_Channels_ESet$_2$LMicrosoft_Singularity_Io_UnicodePipeContract_Exp_Microsoft_Singularity_Io_UnicodePipeContract_READY$G@@SIPAUStruct_Microsoft_Singularity_Io_UnicodePipeContract_Exp@@PAU1@PAUClass_System_Object@@@Z 020a07dc f   Shell.obj
 0001:0009f894       ?m_Dispose@Class_Microsoft_Singularity_Channels_ESet$_2$LMicrosoft_Singularity_Io_UnicodePipeContract_Exp_Microsoft_Singularity_Io_UnicodePipeContract_READY$G@@SIXPAU1@@Z 020a0894 f   Shell.obj
 0001:0009f980       ?m_Add@Class_Microsoft_Singularity_Channels_ESet$_2$LMicrosoft_Singularity_Io_UnicodePipeContract_Exp_Microsoft_Singularity_Io_UnicodePipeContract_READY$G@@SIXPAU1@PAUStruct_Microsoft_Singularity_Io_UnicodePipeContract_Exp@@@Z 020a0980 f   Shell.obj
 0001:0009f9b0       ?m__ctor@Class_Microsoft_Singularity_Channels_ESet$_2$LMicrosoft_Singularity_Io_UnicodePipeContract_Exp_Microsoft_Singularity_Io_UnicodePipeContract_READY$G@@SIXPAU1@@Z 020a09b0 f   Shell.obj
 0001:0009fa3c       ?m_Suspend@Class_System_Process@@SIXPAU1@_N@Z 020a0a3c f   Shell.obj
 0001:0009fadc       ?m_Stop@Class_System_Process@@SIXPAU1@@Z 020a0adc f   Shell.obj
 0001:0009fb04       ?m_Stop@Class_System_Process@@SIXPAU1@H@Z 020a0b04 f   Shell.obj
 0001:0009fb74       ?m_Start@Class_System_Process@@SIXPAU1@@Z 020a0b74 f   Shell.obj
 0001:0009fc0c       ?m_SetStartupStringArrayArg@Class_System_Process@@SI?AUStruct_Microsoft_Singularity_V1_Services_ParameterCode@@PAU1@HPAUClassVector_Class_System_String@@@Z 020a0c0c f   Shell.obj
 0001:0009fd20       ?m_SetStartupStringArg@Class_System_Process@@SI?AUStruct_Microsoft_Singularity_V1_Services_ParameterCode@@PAU1@HPAUClass_System_String@@@Z 020a0d20 f   Shell.obj
 0001:0009fe98       ?m_SetStartupLongArg@Class_System_Process@@SI?AUStruct_Microsoft_Singularity_V1_Services_ParameterCode@@PAU1@H_J@Z 020a0e98 f   Shell.obj
 0001:0009ff0c       ?m_SetStartupEndpoint@Class_System_Process@@SI_NPAU1@HPAUStruct_Microsoft_Singularity_Channels_Endpoint@@@Z 020a0f0c f   Shell.obj
 0001:0009ffc0       ?m_SetStartupBoolArg@Class_System_Process@@SI?AUStruct_Microsoft_Singularity_V1_Services_ParameterCode@@PAU1@H_N@Z 020a0fc0 f   Shell.obj
 0001:000a0034       ?g_RetStartupEndpoint@Class_System_Process@@SIXHPAUStruct_Microsoft_Singularity_Channels_Endpoint@@@Z 020a1034 f   Shell.obj
 0001:000a0084       ?m_Resume@Class_System_Process@@SIXPAU1@_N@Z 020a1084 f   Shell.obj
 0001:000a0124       ?m_Join@Class_System_Process@@SIXPAU1@@Z 020a1124 f   Shell.obj
 0001:000a01b0       ?g_GetStartupStringArrayArg@Class_System_Process@@SI?AUStruct_Microsoft_Singularity_V1_Services_ParameterCode@@HPAPAUClassVector_Class_System_String@@@Z 020a11b0 f   Shell.obj
 0001:000a03d0       ?g_GetStartupStringArg@Class_System_Process@@SI?AUStruct_Microsoft_Singularity_V1_Services_ParameterCode@@HPAPAUClass_System_String@@@Z 020a13d0 f   Shell.obj
 0001:000a04d0       ?g_GetStartupEndpoint@Class_System_Process@@SIPAUStruct_Microsoft_Singularity_Channels_Endpoint@@H@Z 020a14d0 f   Shell.obj
 0001:000a0550       ?m_get$_State@Class_System_Process@@SI?AUStruct_Microsoft_Singularity_V1_Processes_ProcessState@@PAU1@@Z 020a1550 f   Shell.obj
 0001:000a05cc       ?m_get$_Id@Class_System_Process@@SIHPAU1@@Z 020a15cc f   Shell.obj
 0001:000a0648       ?m_get$_ExitCode@Class_System_Process@@SIHPAU1@@Z 020a1648 f   Shell.obj
 0001:000a06c4       ?g_FlattenStringArray@Class_System_Process@@SIXPAUClassVector_Class_System_String@@PAPAUClassVector_int32@@PAPAUClassVector_bartok_char@@@Z 020a16c4 f   Shell.obj
 0001:000a08a0       ?g_FlattenArgs@Class_System_Process@@SIXPAUClassVector_Class_System_String@@PAUClass_System_String@@PAPAUClassVector_int32@@PAPAUClassVector_bartok_char@@3PAH@Z 020a18a0 f   Shell.obj
 0001:000a08ec       ?m_Finalize@Class_System_Process@@SIXPAU1@@Z 020a18ec f   Shell.obj
 0001:000a0930       ?m_Dispose@Class_System_Process@@SIXPAU1@_N@Z 020a1930 f   Shell.obj
 0001:000a097c       ?m_BindToService@Class_System_Process@@SI_NPAU1@UStruct_Microsoft_Singularity_V1_Types_SystemType@@1PAUClass_System_String@@HH@Z 020a197c f   Shell.obj
 0001:000a0aa0       ?m__ctor@Class_System_Process@@SIXPAU1@PAUClassVector_Class_System_String@@PAUClass_System_String@@H@Z 020a1aa0 f   Shell.obj
 0001:000a0c04       ?m__ctor@Class_System_Process@@SIXPAU1@PAUClass_System_String@@11@Z 020a1c04 f   Shell.obj
 0001:000a0e14       ?m_InvokeStaticStub@Class_System_GCs_ProfileObjectsDelegate@@SIXPAU1@PAUClass_System_GCs_SegregatedFreeList_ObjectVisitor@@@Z 020a1e14 f   Shell.obj
 0001:000a0e44       ?m_Invoke@Class_System_GCs_ProfileObjectsDelegate@@SIXPAU1@PAUClass_System_GCs_SegregatedFreeList_ObjectVisitor@@@Z 020a1e44 f   Shell.obj
 0001:000a0ea0       ?m_EndInvoke@Class_System_GCs_ProfileObjectsDelegate@@SIXPAU1@PAUClass_System_IAsyncResult@@@Z 020a1ea0 f   Shell.obj
 0001:000a0ebc       ?m_BeginInvoke@Class_System_GCs_ProfileObjectsDelegate@@SIPAUClass_System_IAsyncResult@@PAU1@PAUClass_System_GCs_SegregatedFreeList_ObjectVisitor@@PAUClass_System_AsyncCallback@@PAUClass_System_Object@@@Z 020a1ebc f   Shell.obj
 0001:000a0edc       ?m__ctor@Class_System_GCs_ProfileObjectsDelegate@@SIXPAU1@PAUClass_System_Object@@PAUintPtr@@@Z 020a1edc f   Shell.obj
 0001:000a0f40       ?g_get$_RangeMessage@Class_System_ArgumentOutOfRangeException@@SIPAUClass_System_String@@XZ 020a1f40 f   Shell.obj
 0001:000a0f6c       ?m_get$_Message@Class_System_ArgumentOutOfRangeException@@SIPAUClass_System_String@@PAU1@@Z 020a1f6c f   Shell.obj
 0001:000a0fe4       ?m__ctor@Class_System_ArgumentOutOfRangeException@@SIXPAU1@@Z 020a1fe4 f   Shell.obj
 0001:000a100c       ?m__ctor@Class_System_ArgumentOutOfRangeException@@SIXPAU1@PAUClass_System_String@@@Z 020a200c f   Shell.obj
 0001:000a103c       ?m__ctor@Class_System_ArgumentOutOfRangeException@@SIXPAU1@PAUClass_System_String@@1@Z 020a203c f   Shell.obj
 0001:000a106c       ?m__ctor@Class_System_ArgumentOutOfRangeException@@SIXPAU1@PAUClass_System_String@@PAUClass_System_Object@@1@Z 020a206c f   Shell.obj
 0001:000a10a4       ?m_get$_Message@Class_System_ArgumentException@@SIPAUClass_System_String@@PAU1@@Z 020a20a4 f   Shell.obj
 0001:000a1128       ?m__ctor@Class_System_ArgumentException@@SIXPAU1@@Z 020a2128 f   Shell.obj
 0001:000a1150       ?m__ctor@Class_System_ArgumentException@@SIXPAU1@PAUClass_System_String@@@Z 020a2150 f   Shell.obj
 0001:000a1178       ?m__ctor@Class_System_ArgumentException@@SIXPAU1@PAUClass_System_String@@1@Z 020a2178 f   Shell.obj
 0001:000a11ac       ?m__ctor@Class_System_AtomicIsInvalidException@@SIXPAU1@@Z 020a21ac f   Shell.obj
 0001:000a11d0       ?m_ToString@Struct_System_StackHeight@@SIPAUClass_System_String@@PAU1@@Z 020a21d0 f   Shell.obj
 0001:000a122c       ?m_ToString@Struct_System_StackHeight@@SIPAUClass_System_String@@PAUClass_System_StackHeight@@@Z 020a222c f   Shell.obj
 0001:000a1254       ?m_StructCopy@Struct_System_StackHeight@@SIXPAU1@0@Z 020a2254 f   Shell.obj
 0001:000a127c       ?m_StructCopy@Struct_System_StackHeight@@SIXPAU1@PAU1@@Z 020a227c f   Shell.obj
 0001:000a12f4       ?m_Equals@Struct_System_StackHeight@@SI_NPAU1@PAUClass_System_Object@@@Z 020a22f4 f   Shell.obj
 0001:000a133c       ?m_Equals@Struct_System_StackHeight@@SI_NPAUClass_System_StackHeight@@PAUClass_System_Object@@@Z 020a233c f   Shell.obj
 0001:000a1368       ?m__ctor@Class_System_Runtime_CompilerServices_ForceInlineAttribute@@SIXPAU1@@Z 020a2368 f   Shell.obj
 0001:000a138c       ?m_Interpret@Class_Microsoft_Singularity_Applications_ScriptEngine_If@@SIXPAU1@PAUClass_Microsoft_Singularity_Applications_ShellControl@@PAUClass_Microsoft_Singularity_Applications_ScriptEngine_Interpretation@@@Z 020a238c f   Shell.obj
 0001:000a13d8       ?m__ctor@Class_Microsoft_Singularity_Applications_ScriptEngine_If@@SIXPAU1@PAUClass_Microsoft_Singularity_Applications_ScriptEngine_Expression@@PAUClass_Microsoft_Singularity_Applications_ScriptEngine_Block@@@Z 020a23d8 f   Shell.obj
 0001:000a1410       ?m_System_Collections_IEnumerable_GetEnumerator@Class_System_Collections_Hashtable@@SIPAUClass_System_Collections_IEnumerator@@PAU1@@Z 020a2410 f   Shell.obj
 0001:000a1454       ?m_set$_Item@Class_System_Collections_Hashtable@@SIXPAU1@PAUClass_System_Object@@1@Z 020a2454 f   Shell.obj
 0001:000a1484       ?m_set$_hcp@Class_System_Collections_Hashtable@@SIXPAU1@PAUClass_System_Collections_IHashCodeProvider@@@Z 020a2484 f   Shell.obj
 0001:000a14ac       ?m_set$_comparer@Class_System_Collections_Hashtable@@SIXPAU1@PAUClass_System_Collections_IComparer@@@Z 020a24ac f   Shell.obj
 0001:000a14d4       ?m_Remove@Class_System_Collections_Hashtable@@SIXPAU1@PAUClass_System_Object@@@Z 020a24d4 f   Shell.obj
 0001:000a1718       ?m_rehash@Class_System_Collections_Hashtable@@SIXPAU1@@Z 020a2718 f   Shell.obj
 0001:000a1744       ?m_rehash@Class_System_Collections_Hashtable@@SIXPAU1@H@Z 020a2744 f   Shell.obj
 0001:000a18a4       ?m_putEntry@Class_System_Collections_Hashtable@@SIXPAU1@PAUClassVector_Struct_System_Collections_Hashtable_bucket@@PAUClass_System_Object@@2H@Z 020a28a4 f   Shell.obj
 0001:000a19ac       ?m_KeyEquals@Class_System_Collections_Hashtable@@SI_NPAU1@PAUClass_System_Object@@1@Z 020a29ac f   Shell.obj
 0001:000a1a24       ?m_Insert@Class_System_Collections_Hashtable@@SIXPAU1@PAUClass_System_Object@@1_N@Z 020a2a24 f   Shell.obj
 0001:000a1e74       ?m_InitHash@Class_System_Collections_Hashtable@@SIIPAU1@PAUClass_System_Object@@HPAI2@Z 020a2e74 f   Shell.obj
 0001:000a1ee4       ?m_GetPrime@Class_System_Collections_Hashtable@@SIHPAU1@H@Z 020a2ee4 f   Shell.obj
 0001:000a1fa8       ?m_GetHash@Class_System_Collections_Hashtable@@SIHPAU1@PAUClass_System_Object@@@Z 020a2fa8 f   Shell.obj
 0001:000a2010       ?m_GetEnumerator@Class_System_Collections_Hashtable@@SIPAUClass_System_Collections_IDictionaryEnumerator@@PAU1@@Z 020a3010 f   Shell.obj
 0001:000a2054       ?m_get$_SyncRoot@Class_System_Collections_Hashtable@@SIPAUClass_System_Object@@PAU1@@Z 020a3054 f   Shell.obj
 0001:000a2074       ?m_get$_Keys@Class_System_Collections_Hashtable@@SIPAUClass_System_Collections_ICollection@@PAU1@@Z 020a3074 f   Shell.obj
 0001:000a20c8       ?m_get$_Item@Class_System_Collections_Hashtable@@SIPAUClass_System_Object@@PAU1@PAU2@@Z 020a30c8 f   Shell.obj
 0001:000a22b8       ?m_get$_hcp@Class_System_Collections_Hashtable@@SIPAUClass_System_Collections_IHashCodeProvider@@PAU1@@Z 020a32b8 f   Shell.obj
 0001:000a22d8       ?m_get$_Count@Class_System_Collections_Hashtable@@SIHPAU1@@Z 020a32d8 f   Shell.obj
 0001:000a22f8       ?m_get$_comparer@Class_System_Collections_Hashtable@@SIPAUClass_System_Collections_IComparer@@PAU1@@Z 020a32f8 f   Shell.obj
 0001:000a2318       ?m_expand@Class_System_Collections_Hashtable@@SIXPAU1@@Z 020a3318 f   Shell.obj
 0001:000a2354       ?m_CopyTo@Class_System_Collections_Hashtable@@SIXPAU1@PAUClass_System_Array@@H@Z 020a3354 f   Shell.obj
 0001:000a246c       ?m_CopyKeys@Class_System_Collections_Hashtable@@SIXPAU1@PAUClass_System_Array@@H@Z 020a346c f   Shell.obj
 0001:000a252c       ?m_CopyEntries@Class_System_Collections_Hashtable@@SIXPAU1@PAUClass_System_Array@@H@Z 020a352c f   Shell.obj
 0001:000a2644       ?m_ContainsKey@Class_System_Collections_Hashtable@@SI_NPAU1@PAUClass_System_Object@@@Z 020a3644 f   Shell.obj
 0001:000a2828       ?m_Contains@Class_System_Collections_Hashtable@@SI_NPAU1@PAUClass_System_Object@@@Z 020a3828 f   Shell.obj
 0001:000a2858       ?m_Add@Class_System_Collections_Hashtable@@SIXPAU1@PAUClass_System_Object@@1@Z 020a3858 f   Shell.obj
 0001:000a2888       ?m__ctor@Class_System_Collections_Hashtable@@SIXPAU1@@Z 020a3888 f   Shell.obj
 0001:000a28b0       ?m__ctor@Class_System_Collections_Hashtable@@SIXPAU1@H@Z 020a38b0 f   Shell.obj
 0001:000a28dc       ?m__ctor@Class_System_Collections_Hashtable@@SIXPAU1@HH@Z 020a38dc f   Shell.obj
 0001:000a2910       ?m__ctor@Class_System_Collections_Hashtable@@SIXPAU1@HHPAUClass_System_Collections_IHashCodeProvider@@PAUClass_System_Collections_IComparer@@@Z 020a3910 f   Shell.obj
 0001:000a2a94       ?g__cctor@Class_System_Collections_Hashtable@@SIXXZ 020a3a94 f   Shell.obj
 0001:000a2aa8       ?m__ctor@Class_Microsoft_Singularity_Applications_Shell_SchedulerOptions@@SIXPAU1@@Z 020a3aa8 f   Shell.obj
 0001:000a2ad8       ?g_VerifyUnusedRegion@Class_System_GCs_PageManager@@SIXPAUuintPtr@@0@Z 020a3ad8 f   Shell.obj
 0001:000a3164       ?g_VerifyUnusedPage@Class_System_GCs_PageManager@@SIXPAUuintPtr@@_N@Z 020a4164 f   Shell.obj
 0001:000a3318       ?g_UnlinkUnusedPages@Class_System_GCs_PageManager@@SIPAUuintPtr@@PAU2@@Z 020a4318 f   Shell.obj
 0001:000a35c4       ?g_SlotFromCount@Class_System_GCs_PageManager@@SIHPAUuintPtr@@@Z 020a45c4 f   Shell.obj
 0001:000a3610       ?g_SetStaticDataPages@Class_System_GCs_PageManager@@SIXPAUuintPtr@@0@Z 020a4610 f   Shell.obj
 0001:000a3830       ?g_SetPageTypeClean@Class_System_GCs_PageManager@@SIXPAUuintPtr@@0UStruct_System_GCs_PageType@@@Z 020a4830 f   Shell.obj
 0001:000a3dc0       ?g_ReleaseUnusedPages@Class_System_GCs_PageManager@@SIXPAUuintPtr@@0_N@Z 020a4dc0 f   Shell.obj
 0001:000a45e8       ?g_MarkUnusedPages@Class_System_GCs_PageManager@@SIXPAUClass_System_Threading_Thread@@PAUuintPtr@@1_N@Z 020a55e8 f   Shell.obj
 0001:000a4bd8       ?g_LinkUnusedPages@Class_System_GCs_PageManager@@SIXPAUuintPtr@@0_N@Z 020a5bd8 f   Shell.obj
 0001:000a5110       ?g_LeaveMutex@Class_System_GCs_PageManager@@SIXPAUClass_System_Threading_Thread@@_N@Z 020a6110 f   Shell.obj
 0001:000a5160       ?g_Initialize@Class_System_GCs_PageManager@@SIXPAUuintPtr@@0@Z 020a6160 f   Shell.obj
 0001:000a5254       ?g_get$_SlowDebug@Class_System_GCs_PageManager@@SI_NXZ 020a6254 f   Shell.obj
 0001:000a526c       ?g_get$_AggressiveMemReset@Class_System_GCs_PageManager@@SI_NXZ 020a626c f   Shell.obj
 0001:000a5284       ?g_FoundOnlyCleanPages@Class_System_GCs_PageManager@@SI_NPAUuintPtr@@@Z 020a6284 f   Shell.obj
 0001:000a5370       ?g_FinishInitializeThread@Class_System_GCs_PageManager@@SIXXZ 020a6370 f   Shell.obj
 0001:000a53c0       ?g_FindUnusedPages@Class_System_GCs_PageManager@@SIPAUuintPtr@@PAUClass_System_Threading_Thread@@PAU2@UStruct_System_GCs_PageType@@@Z 020a63c0 f   Shell.obj
 0001:000a55a8       ?g_EnterMutex@Class_System_GCs_PageManager@@SI_NPAUClass_System_Threading_Thread@@@Z 020a65a8 f   Shell.obj
 0001:000a5604       ?g_EnsurePages@Class_System_GCs_PageManager@@SIPAUuintPtr@@PAUClass_System_Threading_Thread@@PAU2@UStruct_System_GCs_PageType@@PA_N@Z 020a6604 f   Shell.obj
 0001:000a5ac8       ?g_CleanFoundPages@Class_System_GCs_PageManager@@SIXPAUuintPtr@@@Z 020a6ac8 f   Shell.obj
 0001:000a5bc4       ?m__ctor@Class_System_GCs_PageManager@@SIXPAU1@@Z 020a6bc4 f   Shell.obj
 0001:000a5bdc       ?m_VisitReferenceFields@Class_System_GCs_Barrier_CopyFieldsVisitor@@SIXPAU1@PAUClass_System_VTable@@PAUuintPtr@@2@Z 020a6bdc f   Shell.obj
 0001:000a64ac       ?m_VisitReferenceFields@Class_System_GCs_Barrier_CopyFieldsVisitor@@SIXPAU1@PAUClass_System_VTable@@PAUuintPtr@@2H@Z 020a74ac f   Shell.obj
 0001:000a6678       ?m_FieldOffset@Class_System_GCs_Barrier_CopyFieldsVisitor@@SIXPAU1@PAUuintPtr@@PAUStruct_System_GCs_ReferenceVisitor_ObjectDescriptor@@@Z 020a7678 f   Shell.obj
 0001:000a676c       ?m__ctor@Class_System_GCs_Barrier_CopyFieldsVisitor@@SIXPAU1@@Z 020a776c f   Shell.obj
 0001:000a6790       ?m_ReplacementImpl@Class_System_Text_RegularExpressions_RegexReplacement@@SIXPAU1@PAUClass_System_Text_StringBuilder@@PAUClass_System_Text_RegularExpressions_Match@@@Z 020a7790 f   Shell.obj
 0001:000a6940       ?m_Replace@Class_System_Text_RegularExpressions_RegexReplacement@@SIPAUClass_System_String@@PAU1@PAUClass_System_Text_RegularExpressions_Regex@@PAU2@HH@Z 020a7940 f   Shell.obj
 0001:000a6dac       ?m_get$_Pattern@Class_System_Text_RegularExpressions_RegexReplacement@@SIPAUClass_System_String@@PAU1@@Z 020a7dac f   Shell.obj
 0001:000a6dcc       ?m__ctor@Class_System_Text_RegularExpressions_RegexReplacement@@SIXPAU1@PAUClass_System_String@@PAUClass_System_Text_RegularExpressions_RegexNode@@PAUClass_System_Collections_Hashtable@@@Z 020a7dcc f   Shell.obj
 0001:000a70e4       ?g_openDir@Class_Microsoft_Singularity_Applications_Binder@@SIPAUStruct_Microsoft_Singularity_Directory_DirectoryServiceContract_Imp@@PAU2@PAUClass_System_String@@@Z 020a80e4 f   Shell.obj
 0001:000a71fc       ?g_LoadManifest@Class_Microsoft_Singularity_Applications_Binder@@SIPAUClass_Microsoft_Singularity_Applications_Manifest@@PAUStruct_Microsoft_Singularity_Directory_DirectoryServiceContract_Imp@@PAUClass_System_String@@@Z 020a81fc f   Shell.obj
 0001:000a7398       ?g_Initialize@Class_Microsoft_Singularity_Applications_Binder@@SIXXZ 020a8398 f   Shell.obj
 0001:000a73ac       ?g_GetManifest@Class_Microsoft_Singularity_Applications_Binder@@SIPAUClass_Microsoft_Singularity_Applications_Manifest@@PAUClass_System_String@@PAUStruct_Microsoft_Singularity_Directory_DirectoryServiceContract_Imp@@@Z 020a83ac f   Shell.obj
 0001:000a7494       ?g_GetEndpointType@Class_Microsoft_Singularity_Applications_Binder@@SI?AUStruct_Microsoft_Singularity_V1_Types_SystemType@@PAUClass_Microsoft_Singularity_Xml_XmlNode@@@Z 020a8494 f   Shell.obj
 0001:000a769c       ?g_FindAndReadManifest@Class_Microsoft_Singularity_Applications_Binder@@SIPAUClassVector_uint8@@PAUClass_System_String@@PAUStruct_Microsoft_Singularity_Directory_DirectoryServiceContract_Imp@@@Z 020a869c f   Shell.obj
 0001:000a7c1c       ?g_CreateProcess@Class_Microsoft_Singularity_Applications_Binder@@SIPAUClass_System_Process@@PAUClass_System_String@@PAUStruct_Microsoft_Singularity_Directory_DirectoryServiceContract_Imp@@PAUClassVector_Class_System_String@@PAPAUClass_Microsoft_Singularity_Applications_Manifest@@PAPAU3@@Z 020a8c1c f   Shell.obj
 0001:000a7e54       ?g_BindServiceUser@Class_Microsoft_Singularity_Applications_Binder@@SI_NPAUClass_System_Process@@HPAUClass_System_String@@PAUClass_Microsoft_Singularity_Xml_XmlNode@@@Z 020a8e54 f   Shell.obj
 0001:000a7f54       ?m__ctor@Class_Microsoft_Singularity_Applications_Binder@@SIXPAU1@@Z 020a8f54 f   Shell.obj
 0001:000a7f6c       ?g__cctor@Class_Microsoft_Singularity_Applications_Binder@@SIXXZ 020a8f6c f   Shell.obj
 0001:000a7fdc       ?m__ctor@Class_Microsoft_Singularity_Applications_ScriptEngine_Interpretation_TypeConversionException@@SIXPAU1@PAUClass_System_String@@1@Z 020a8fdc f   Shell.obj
 0001:000a8028       ?m__ctor@Class_Microsoft_Singularity_Applications_ScriptEngine_Interpretation_InterpretationException@@SIXPAU1@PAUClass_System_String@@@Z 020a9028 f   Shell.obj
 0001:000a8050       ?m_StructCopy@Struct_Microsoft_Singularity_Diagnostics_Contracts_ProcessContract_ProcessThreadIDs@@SIXPAU1@0@Z 020a9050 f   Shell.obj
 0001:000a8078       ?m_StructCopy@Struct_Microsoft_Singularity_Diagnostics_Contracts_ProcessContract_ProcessThreadIDs@@SIXPAU1@PAU1@@Z 020a9078 f   Shell.obj
 0001:000a80f0       ?m_Equals@Struct_Microsoft_Singularity_Diagnostics_Contracts_ProcessContract_ProcessThreadIDs@@SI_NPAU1@PAUClass_System_Object@@@Z 020a90f0 f   Shell.obj
 0001:000a8138       ?m_Equals@Struct_Microsoft_Singularity_Diagnostics_Contracts_ProcessContract_ProcessThreadIDs@@SI_NPAUClass_Microsoft_Singularity_Diagnostics_Contracts_ProcessContract_ProcessThreadIDs@@PAUClass_System_Object@@@Z 020a9138 f   Shell.obj
 0001:000a8164       ?g_IsInUserMode@Class_Microsoft_Singularity_Isal_Isa@@SI_NXZ 020a9164 f   Shell.obj
 0001:000a8188       ?g_GetStackReturnAddresses@Class_Microsoft_Singularity_Isal_Isa@@SIIPAUClassVector_uintPtr@@@Z 020a9188 f   Shell.obj
 0001:000a8264       ?g_get$_StackLimit@Class_Microsoft_Singularity_Isal_Isa@@SIPAUuintPtr@@XZ 020a9264 f   Shell.obj
 0001:000a8284       ?g_get$_IsRunningOnInterruptStack@Class_Microsoft_Singularity_Isal_Isa@@SI_NXZ 020a9284 f   Shell.obj
 0001:000a82b8       ?m__ctor@Class_Microsoft_Singularity_Isal_Isa@@SIXPAU1@@Z 020a92b8 f   Shell.obj
 0001:000a82d4       ?m__ctor@Class_System_DivideByZeroException@@SIXPAU1@@Z 020a92d4 f   Shell.obj
 0001:000a82fc       ?m__ctor@Class_System_DivideByZeroException@@SIXPAU1@PAUClass_System_String@@@Z 020a92fc f   Shell.obj
 0001:000a8324       ?m__ctor@Class_System_DivideByZeroException@@SIXPAU1@PAUClass_System_String@@PAUClass_System_Exception@@@Z 020a9324 f   Shell.obj
 0001:000a8354       ?m__ctor@Class_System_ArithmeticException@@SIXPAU1@@Z 020a9354 f   Shell.obj
 0001:000a837c       ?m__ctor@Class_System_ArithmeticException@@SIXPAU1@PAUClass_System_String@@@Z 020a937c f   Shell.obj
 0001:000a83a4       ?m__ctor@Class_System_ArithmeticException@@SIXPAU1@PAUClass_System_String@@PAUClass_System_Exception@@@Z 020a93a4 f   Shell.obj
 0001:000a83d4       ?g_SplitPath@Class_Microsoft_Singularity_Applications_Ls@@SIXPAUClass_System_String@@PAPAU2@1@Z 020a93d4 f   Shell.obj
 0001:000a8564       ?g_ListAndSort@Class_Microsoft_Singularity_Applications_Ls@@SIHPAUClass_System_String@@_N@Z 020a9564 f   Shell.obj
 0001:000a8850       ?g_Find@Class_Microsoft_Singularity_Applications_Ls@@SIHPAUClass_System_String@@0PAUStruct_Microsoft_Singularity_Directory_DirectoryServiceContract_Imp@@@Z 020a9850 f   Shell.obj
 0001:000a8eb0       ?m__ctor@Class_Microsoft_Singularity_Applications_Ls@@SIXPAU1@@Z 020a9eb0 f   Shell.obj
 0001:000a8ec8       ?g__cctor@Class_Microsoft_Singularity_Applications_Ls@@SIXXZ 020a9ec8 f   Shell.obj
 0001:000a8edc       ?m_Visit@Class_System_GCs_GCProfiler_ObjectVisitor@@SIPAUuintPtr@@PAU1@PAUClass_System_Object@@@Z 020a9edc f   Shell.obj
 0001:000a8f94       ?m__ctor@Class_System_GCs_GCProfiler_ObjectVisitor@@SIXPAU1@PAUClass_System_GCs_GCProfiler@@@Z 020a9f94 f   Shell.obj
 0001:000a8ff0       ?m_VisitSmallPageEnd@Class_System_GCs_SegregatedFreeList_ObjectVisitor@@SIXPAU1@@Z 020a9ff0 f   Shell.obj
 0001:000a900c       ?m_VisitSmall@Class_System_GCs_SegregatedFreeList_ObjectVisitor@@SIXPAU1@PAUClass_System_Object@@PAUuintPtr@@@Z 020aa00c f   Shell.obj
 0001:000a9038       ?m_VisitLarge@Class_System_GCs_SegregatedFreeList_ObjectVisitor@@SIPAUuintPtr@@PAU1@PAUClass_System_Object@@@Z 020aa038 f   Shell.obj
 0001:000a9064       ?m_Visit@Class_System_GCs_SegregatedFreeList_ObjectVisitor@@SIPAUuintPtr@@PAU1@PAUClass_System_Object@@@Z 020aa064 f   Shell.obj
 0001:000a9090       ?m_get$_Continue@Class_System_GCs_SegregatedFreeList_ObjectVisitor@@SI_NPAU1@@Z 020aa090 f   Shell.obj
 0001:000a90ac       ?m__ctor@Class_System_GCs_SegregatedFreeList_ObjectVisitor@@SIXPAU1@@Z 020aa0ac f   Shell.obj
 0001:000a90d0       ?m_StructCopy@Struct_System_GCs_CalleeSaveLocations_RegLocation@@SIXPAU1@0@Z 020aa0d0 f   Shell.obj
 0001:000a9110       ?m_StructCopy@Struct_System_GCs_CalleeSaveLocations_RegLocation@@SIXPAU1@PAU1@@Z 020aa110 f   Shell.obj
 0001:000a91d0       ?m_SetCalleeReg@Struct_System_GCs_CalleeSaveLocations_RegLocation@@SIXPAU1@PAPAUuintPtr@@@Z 020aa1d0 f   Shell.obj
 0001:000a9210       ?m_ScanLiveReg@Struct_System_GCs_CalleeSaveLocations_RegLocation@@SIXPAU1@IPAUClass_System_GCs_NonNullReferenceVisitor@@@Z 020aa210 f   Shell.obj
 0001:000a92c0       ?m_PopFrameReg@Struct_System_GCs_CalleeSaveLocations_RegLocation@@SIXPAU1@PAPAPAUuintPtr@@@Z 020aa2c0 f   Shell.obj
 0001:000a9378       ?m_Equals@Struct_System_GCs_CalleeSaveLocations_RegLocation@@SI_NPAU1@PAUClass_System_Object@@@Z 020aa378 f   Shell.obj
 0001:000a93e0       ?m_Equals@Struct_System_GCs_CalleeSaveLocations_RegLocation@@SI_NPAUClass_System_GCs_CalleeSaveLocations_RegLocation@@PAUClass_System_Object@@@Z 020aa3e0 f   Shell.obj
 0001:000a940c       ?m_ClearFrameReg@Struct_System_GCs_CalleeSaveLocations_RegLocation@@SIXPAU1@@Z 020aa40c f   Shell.obj
 0001:000a948c       ?m_ClearCalleeReg@Struct_System_GCs_CalleeSaveLocations_RegLocation@@SIXPAU1@@Z 020aa48c f   Shell.obj
 0001:000a9508       ?m__ctor@Class_System_FormatException@@SIXPAU1@@Z 020aa508 f   Shell.obj
 0001:000a9530       ?m__ctor@Class_System_FormatException@@SIXPAU1@PAUClass_System_String@@@Z 020aa530 f   Shell.obj
 0001:000a9558       ?m_StructCopy@Struct_Microsoft_Singularity_Directory_DirectoryServiceContract_Imp@@SIXPAU1@0@Z 020aa558 f   Shell.obj
 0001:000a9a3c       ?m_StructCopy@Struct_Microsoft_Singularity_Directory_DirectoryServiceContract_Imp@@SIXPAU1@PAU1@@Z 020aaa3c f   Shell.obj
 0001:000aa8e8       ?m_SendReadEnumeration@Struct_Microsoft_Singularity_Directory_DirectoryServiceContract_Imp@@SIXPAU1@@Z 020ab8e8 f   Shell.obj
 0001:000aa9dc       ?m_SendGetLinkValue@Struct_Microsoft_Singularity_Directory_DirectoryServiceContract_Imp@@SIXPAU1@PA_W@Z 020ab9dc f   Shell.obj
 0001:000aaaf0       ?m_SendGetAttributes@Struct_Microsoft_Singularity_Directory_DirectoryServiceContract_Imp@@SIXPAU1@PA_W@Z 020abaf0 f   Shell.obj
 0001:000aac04       ?m_SendEndEnumeration@Struct_Microsoft_Singularity_Directory_DirectoryServiceContract_Imp@@SIXPAU1@@Z 020abc04 f   Shell.obj
 0001:000aacf8       ?m_SendBind@Struct_Microsoft_Singularity_Directory_DirectoryServiceContract_Imp@@SIXPAU1@PA_WPAUStruct_Microsoft_Singularity_Directory_ServiceContract_Exp@@@Z 020abcf8 f   Shell.obj
 0001:000aae9c       ?m_SendBeginEnumeration@Struct_Microsoft_Singularity_Directory_DirectoryServiceContract_Imp@@SIXPAU1@@Z 020abe9c f   Shell.obj
 0001:000aaf90       ?m_Release@Struct_Microsoft_Singularity_Directory_DirectoryServiceContract_Imp@@SIXPAU1@@Z 020abf90 f   Shell.obj
 0001:000aafac       ?m_RecvSuccess@Struct_Microsoft_Singularity_Directory_DirectoryServiceContract_Imp@@SIXPAU1@@Z 020abfac f   Shell.obj
 0001:000ab124       ?m_RecvNakGetLinkValueReparse@Struct_Microsoft_Singularity_Directory_DirectoryServiceContract_Imp@@SIXPAU1@PAPA_W1PA_N@Z 020ac124 f   Shell.obj
 0001:000ab2cc       ?m_RecvNakGetLinkValue@Struct_Microsoft_Singularity_Directory_DirectoryServiceContract_Imp@@SIXPAU1@PAUStruct_Microsoft_Singularity_Directory_ErrorCode@@@Z 020ac2cc f   Shell.obj
 0001:000ab458       ?m_RecvNakGetAttributesReparse@Struct_Microsoft_Singularity_Directory_DirectoryServiceContract_Imp@@SIXPAU1@PAPA_W1PA_N@Z 020ac458 f   Shell.obj
 0001:000ab600       ?m_RecvNakGetAttributes@Struct_Microsoft_Singularity_Directory_DirectoryServiceContract_Imp@@SIXPAU1@PAUStruct_Microsoft_Singularity_Directory_ErrorCode@@@Z 020ac600 f   Shell.obj
 0001:000ab78c       ?m_RecvNakBindReparse@Struct_Microsoft_Singularity_Directory_DirectoryServiceContract_Imp@@SIXPAU1@PAPA_W1PA_NPAPAUStruct_Microsoft_Singularity_Directory_ServiceContract_Exp@@@Z 020ac78c f   Shell.obj
 0001:000ab940       ?m_RecvNakBind@Struct_Microsoft_Singularity_Directory_DirectoryServiceContract_Imp@@SIXPAU1@PAPAUStruct_Microsoft_Singularity_Directory_ServiceContract_Exp@@PAUStruct_Microsoft_Singularity_Directory_ErrorCode@@@Z 020ac940 f   Shell.obj
 0001:000abadc       ?m_RecvEnumerationTerminated@Struct_Microsoft_Singularity_Directory_DirectoryServiceContract_Imp@@SIXPAU1@PAUStruct_Microsoft_Singularity_Directory_ErrorCode@@@Z 020acadc f   Shell.obj
 0001:000abc64       ?m_RecvEnumerationEntries@Struct_Microsoft_Singularity_Directory_DirectoryServiceContract_Imp@@SIXPAU1@PAPAUStruct_Microsoft_Singularity_Directory_EnumerationRecords@@PA_N@Z 020acc64 f   Shell.obj
 0001:000abdfc       ?m_RecvAckGetLinkValue@Struct_Microsoft_Singularity_Directory_DirectoryServiceContract_Imp@@SIXPAU1@PAPA_W@Z 020acdfc f   Shell.obj
 0001:000abf88       ?m_RecvAckGetAttributes@Struct_Microsoft_Singularity_Directory_DirectoryServiceContract_Imp@@SIXPAU1@PAUStruct_Microsoft_Singularity_Directory_FileAttributesRecord@@@Z 020acf88 f   Shell.obj
 0001:000ac158       ?m_RecvAckBind@Struct_Microsoft_Singularity_Directory_DirectoryServiceContract_Imp@@SIXPAU1@@Z 020ad158 f   Shell.obj
 0001:000ac2d0       ?m_Peek@Struct_Microsoft_Singularity_Directory_DirectoryServiceContract_Imp@@SIHPAU1@@Z 020ad2d0 f   Shell.obj
 0001:000acc78       ?m_InState@Struct_Microsoft_Singularity_Directory_DirectoryServiceContract_Imp@@SI_NPAU1@H@Z 020adc78 f   Shell.obj
 0001:000acd08       ?m_HeadMatches@Struct_Microsoft_Singularity_Directory_DirectoryServiceContract_Imp@@SI_NPAU1@HPA_NPAPAUClass_System_Object@@@Z 020add08 f   Shell.obj
 0001:000acdc8       ?m_HeadMatches@Struct_Microsoft_Singularity_Directory_DirectoryServiceContract_Imp@@SI_NPAUClass_Microsoft_Singularity_Directory_DirectoryServiceContract_Imp@@HPA_NPAPAUClass_System_Object@@@Z 020addc8 f   Shell.obj
 0001:000ace00       ?m_Equals@Struct_Microsoft_Singularity_Directory_DirectoryServiceContract_Imp@@SI_NPAU1@PAUClass_System_Object@@@Z 020ade00 f   Shell.obj
 0001:000ae97c       ?m_Equals@Struct_Microsoft_Singularity_Directory_DirectoryServiceContract_Imp@@SI_NPAUClass_Microsoft_Singularity_Directory_DirectoryServiceContract_Imp@@PAUClass_System_Object@@@Z 020af97c f   Shell.obj
 0001:000ae9a8       ?m_Dispose@Struct_Microsoft_Singularity_Directory_DirectoryServiceContract_Imp@@SIXPAU1@@Z 020af9a8 f   Shell.obj
 0001:000ae9cc       ?m_Dispose@Struct_Microsoft_Singularity_Directory_DirectoryServiceContract_Imp@@SIXPAUClass_Microsoft_Singularity_Directory_DirectoryServiceContract_Imp@@@Z 020af9cc f   Shell.obj
 0001:000ae9f4       ?m_CurrentState@Struct_Microsoft_Singularity_Directory_DirectoryServiceContract_Imp@@SIPAUClass_System_String@@PAU1@@Z 020af9f4 f   Shell.obj
 0001:000aed1c       ?m_Acquire@Struct_Microsoft_Singularity_Directory_DirectoryServiceContract_Imp@@SIXPAU1@@Z 020afd1c f   Shell.obj
 0001:000aed38       ?m__ctor@Struct_Microsoft_Singularity_Directory_DirectoryServiceContract_Imp@@SIXPAU1@H@Z 020afd38 f   Shell.obj
 0001:000aed64       ?m_RegisterController@Class_Microsoft_Singularity_Eventing_SystemControllerProxy@@SI_NPAU1@@Z 020afd64 f   Shell.obj
 0001:000aee20       ?g_DebugPrintLogEntry@Class_Microsoft_Singularity_Eventing_SystemControllerProxy@@SI_NPAUuintPtr@@@Z 020afe20 f   Shell.obj
 0001:000aee50       ?m__ctor@Class_Microsoft_Singularity_Eventing_SystemControllerProxy@@SIXPAU1@@Z 020afe50 f   Shell.obj
 0001:000aee74       ?g__cctor@Class_Microsoft_Singularity_Eventing_SystemControllerProxy@@SIXXZ 020afe74 f   Shell.obj
 0001:000aee9c       ?m_BoolValue@Class_Microsoft_Singularity_Applications_ScriptEngine_GreaterEqual@@SI_NPAU1@PAUClass_Microsoft_Singularity_Applications_ScriptEngine_Interpretation@@@Z 020afe9c f   Shell.obj
 0001:000aef00       ?m__ctor@Class_Microsoft_Singularity_Applications_ScriptEngine_GreaterEqual@@SIXPAU1@PAUClass_Microsoft_Singularity_Applications_ScriptEngine_Expression@@1@Z 020aff00 f   Shell.obj
 0001:000aef30       ?m_VisitObjects@Class_System_GCs_MarkSweepCollector@@SIXPAU1@PAUClass_System_GCs_ObjectLayout_ObjectVisitor@@PAUuintPtr@@2@Z 020aff30 f   Shell.obj
 0001:000af8d8       ?m_VerifyHeap@Class_System_GCs_MarkSweepCollector@@SIXPAU1@_N@Z 020b08d8 f   Shell.obj
 0001:000af904       ?m_NewThreadNotification@Class_System_GCs_MarkSweepCollector@@SIXPAU1@PAUClass_System_Threading_Thread@@_N@Z 020b0904 f   Shell.obj
 0001:000af940       ?g_IsPossiblyObject@Class_System_GCs_MarkSweepCollector@@SI_NPAUClass_System_Object@@@Z 020b0940 f   Shell.obj
 0001:000afa2c       ?g_Initialize@Class_System_GCs_MarkSweepCollector@@SIXXZ 020b0a2c f   Shell.obj
 0001:000afb48       ?m_get$_TotalMemory@Class_System_GCs_MarkSweepCollector@@SI_JPAU1@@Z 020b0b48 f   Shell.obj
 0001:000afb6c       ?m_get$_MinGeneration@Class_System_GCs_MarkSweepCollector@@SIHPAU1@@Z 020b0b6c f   Shell.obj
 0001:000afb8c       ?m_get$_MaxGeneration@Class_System_GCs_MarkSweepCollector@@SIHPAU1@@Z 020b0b8c f   Shell.obj
 0001:000afbac       ?m_get$_IsOnTheFlyCollector@Class_System_GCs_MarkSweepCollector@@SI_NPAU1@@Z 020b0bac f   Shell.obj
 0001:000afbc8       ?m_FindObjectAddr@Class_System_GCs_MarkSweepCollector@@SIPAUuintPtr@@PAU1@PAU2@@Z 020b0bc8 f   Shell.obj
 0001:000afbec       ?m_EnableHeap@Class_System_GCs_MarkSweepCollector@@SIXPAU1@@Z 020b0bec f   Shell.obj
 0001:000afc08       ?m_DestructHeap@Class_System_GCs_MarkSweepCollector@@SIXPAU1@@Z 020b0c08 f   Shell.obj
 0001:000afd38       ?m_DeadThreadNotification@Class_System_GCs_MarkSweepCollector@@SIXPAU1@PAUClass_System_Threading_Thread@@@Z 020b0d38 f   Shell.obj
 0001:000afd68       ?m_CreateObject@Class_System_GCs_MarkSweepCollector@@SIXPAU1@PAUClass_System_Object@@PAUClass_System_VTable@@PAUClass_System_Threading_Thread@@@Z 020b0d68 f   Shell.obj
 0001:000afdb0       ?m_CollectStopped@Class_System_GCs_MarkSweepCollector@@SIXPAU1@HH@Z 020b0db0 f   Shell.obj
 0001:000b0b54       ?m_AllocateObjectMemorySlow@Class_System_GCs_MarkSweepCollector@@SIPAUuintPtr@@PAU1@PAU2@IPAUClass_System_Threading_Thread@@@Z 020b1b54 f   Shell.obj
 0001:000b0bec       ?m_AllocateObjectMemory@Class_System_GCs_MarkSweepCollector@@SIPAUuintPtr@@PAU1@PAU2@IPAUClass_System_Threading_Thread@@@Z 020b1bec f   Shell.obj
 0001:000b0fb8       ?m__ctor@Class_System_GCs_MarkSweepCollector@@SIXPAU1@@Z 020b1fb8 f   Shell.obj
 0001:000b0fdc       ?m_ThreadDormantGCNotification@Class_System_GCs_StopTheWorldCollector@@SIXPAU1@H@Z 020b1fdc f   Shell.obj
 0001:000b1024       ?m_StopTheWorld@Class_System_GCs_StopTheWorldCollector@@SIXPAU1@@Z 020b2024 f   Shell.obj
 0001:000b10ec       ?g_set$_CurrentPhase@Class_System_GCs_StopTheWorldCollector@@SIXUStruct_System_GCs_StopTheWorldPhase@@@Z 020b20ec f   Shell.obj
 0001:000b1110       ?g_set$_collectorThreadIndex@Class_System_GCs_StopTheWorldCollector@@SIXH@Z 020b2110 f   Shell.obj
 0001:000b1134       ?m_ResumeTheWorld@Class_System_GCs_StopTheWorldCollector@@SIXPAU1@@Z 020b2134 f   Shell.obj
 0001:000b1178       ?m_PerformCollection@Class_System_GCs_StopTheWorldCollector@@SIXPAU1@HH@Z 020b2178 f   Shell.obj
 0001:000b1818       ?m_NewThreadNotification@Class_System_GCs_StopTheWorldCollector@@SIXPAU1@PAUClass_System_Threading_Thread@@_N@Z 020b2818 f   Shell.obj
 0001:000b18f4       ?g_Initialize@Class_System_GCs_StopTheWorldCollector@@SIXXZ 020b28f4 f   Shell.obj
 0001:000b191c       ?m_get$_IsOnTheFlyCollector@Class_System_GCs_StopTheWorldCollector@@SI_NPAU1@@Z 020b291c f   Shell.obj
 0001:000b1938       ?g_get$_CurrentPhase@Class_System_GCs_StopTheWorldCollector@@SI?AUStruct_System_GCs_StopTheWorldPhase@@XZ 020b2938 f   Shell.obj
 0001:000b1950       ?g_get$_collectorThreadIndex@Class_System_GCs_StopTheWorldCollector@@SIHXZ 020b2950 f   Shell.obj
 0001:000b1968       ?m_EnableHeap@Class_System_GCs_StopTheWorldCollector@@SIXPAU1@@Z 020b2968 f   Shell.obj
 0001:000b19ac       ?m_DeadThreadNotification@Class_System_GCs_StopTheWorldCollector@@SIXPAU1@PAUClass_System_Threading_Thread@@@Z 020b29ac f   Shell.obj
 0001:000b19dc       ?m_CollectStoppable@Class_System_GCs_StopTheWorldCollector@@SIXPAU1@HH@Z 020b29dc f   Shell.obj
 0001:000b1f94       ?m_Collect@Class_System_GCs_StopTheWorldCollector@@SIXPAU1@PAUClass_System_Threading_Thread@@H@Z 020b2f94 f   Shell.obj
 0001:000b1ffc       ?m_CheckForNeededGCWork@Class_System_GCs_StopTheWorldCollector@@SIXPAU1@PAUClass_System_Threading_Thread@@@Z 020b2ffc f   Shell.obj
 0001:000b2050       ?m__ctor@Class_System_GCs_StopTheWorldCollector@@SIXPAU1@@Z 020b3050 f   Shell.obj
 0001:000b2074       ?m_ToString@uint8@@SIPAUClass_System_String@@PAE@Z 020b3074 f   Shell.obj
 0001:000b20c0       ?m_ToString@uint8@@SIPAUClass_System_String@@PAEPAU2@@Z 020b30c0 f   Shell.obj
 0001:000b210c       ?m_ToString@uint8@@SIPAUClass_System_String@@PAUClass_System_Byte@@@Z 020b310c f   Shell.obj
 0001:000b2134       ?m_ToString@uint8@@SIPAUClass_System_String@@PAUClass_System_Byte@@PAU2@@Z 020b3134 f   Shell.obj
 0001:000b2160       ?m_GetHashCode@uint8@@SIHPAE@Z 020b3160 f   Shell.obj
 0001:000b2184       ?m_GetHashCode@uint8@@SIHPAUClass_System_Byte@@@Z 020b3184 f   Shell.obj
 0001:000b21ac       ?m_Equals@uint8@@SI_NPAEPAUClass_System_Object@@@Z 020b31ac f   Shell.obj
 0001:000b220c       ?m_Equals@uint8@@SI_NPAUClass_System_Byte@@PAUClass_System_Object@@@Z 020b320c f   Shell.obj
 0001:000b2238       ?m_CompareTo@uint8@@SIHPAEPAUClass_System_Object@@@Z 020b3238 f   Shell.obj
 0001:000b22c4       ?m_CompareTo@uint8@@SIHPAUClass_System_Byte@@PAUClass_System_Object@@@Z 020b32c4 f   Shell.obj
 0001:000b22f0       ?m_StructCopy@Struct_System_Collections_Hashtable_bucket@@SIXPAU1@0@Z 020b32f0 f   Shell.obj
 0001:000b2330       ?m_StructCopy@Struct_System_Collections_Hashtable_bucket@@SIXPAU1@PAU1@@Z 020b3330 f   Shell.obj
 0001:000b23f0       ?m_Equals@Struct_System_Collections_Hashtable_bucket@@SI_NPAU1@PAUClass_System_Object@@@Z 020b33f0 f   Shell.obj
 0001:000b2464       ?m_Equals@Struct_System_Collections_Hashtable_bucket@@SI_NPAUClass_System_Collections_Hashtable_bucket@@PAUClass_System_Object@@@Z 020b3464 f   Shell.obj
 0001:000b2490       ?m_StructCopy@Struct_Microsoft_Singularity_Directory_DirectoryServiceContract_AckCreateLink@@SIXPAU1@0@Z 020b3490 f   Shell.obj
 0001:000b24ac       ?m_StructCopy@Struct_Microsoft_Singularity_Directory_DirectoryServiceContract_AckCreateLink@@SIXPAU1@PAU1@@Z 020b34ac f   Shell.obj
 0001:000b2500       ?m_Equals@Struct_Microsoft_Singularity_Directory_DirectoryServiceContract_AckCreateLink@@SI_NPAU1@PAUClass_System_Object@@@Z 020b3500 f   Shell.obj
 0001:000b2538       ?m_Equals@Struct_Microsoft_Singularity_Directory_DirectoryServiceContract_AckCreateLink@@SI_NPAUClass_Microsoft_Singularity_Directory_DirectoryServiceContract_AckCreateLink@@PAUClass_System_Object@@@Z 020b3538 f   Shell.obj
 0001:000b2564       ?m_ToString@float32@@SIPAUClass_System_String@@PAM@Z 020b3564 f   Shell.obj
 0001:000b258c       ?m_ToString@float32@@SIPAUClass_System_String@@PAMPAU2@@Z 020b358c f   Shell.obj
 0001:000b25d8       ?m_ToString@float32@@SIPAUClass_System_String@@PAUClass_System_Single@@@Z 020b35d8 f   Shell.obj
 0001:000b2600       ?m_ToString@float32@@SIPAUClass_System_String@@PAUClass_System_Single@@PAU2@@Z 020b3600 f   Shell.obj
 0001:000b262c       ?g_IsNaN@float32@@SI_NM@Z  020b362c f   Shell.obj
 0001:000b26c4       ?m_GetHashCode@float32@@SIHPAM@Z 020b36c4 f   Shell.obj
 0001:000b26f8       ?m_GetHashCode@float32@@SIHPAUClass_System_Single@@@Z 020b36f8 f   Shell.obj
 0001:000b2720       ?m_Equals@float32@@SI_NPAMPAUClass_System_Object@@@Z 020b3720 f   Shell.obj
 0001:000b27c8       ?m_Equals@float32@@SI_NPAUClass_System_Single@@PAUClass_System_Object@@@Z 020b37c8 f   Shell.obj
 0001:000b27f4       ?m_CompareTo@float32@@SIHPAMPAUClass_System_Object@@@Z 020b37f4 f   Shell.obj
 0001:000b2938       ?m_CompareTo@float32@@SIHPAUClass_System_Single@@PAUClass_System_Object@@@Z 020b3938 f   Shell.obj
 0001:000b2964       ?m_InvokeStaticStub@Class_System_Threading_ThreadStart@@SIXPAU1@@Z 020b3964 f   Shell.obj
 0001:000b298c       ?m_Invoke@Class_System_Threading_ThreadStart@@SIXPAU1@@Z 020b398c f   Shell.obj
 0001:000b29e0       ?m_EndInvoke@Class_System_Threading_ThreadStart@@SIXPAU1@PAUClass_System_IAsyncResult@@@Z 020b39e0 f   Shell.obj
 0001:000b29fc       ?m_BeginInvoke@Class_System_Threading_ThreadStart@@SIPAUClass_System_IAsyncResult@@PAU1@PAUClass_System_AsyncCallback@@PAUClass_System_Object@@@Z 020b39fc f   Shell.obj
 0001:000b2a1c       ?m__ctor@Class_System_Threading_ThreadStart@@SIXPAU1@PAUClass_System_Object@@PAUintPtr@@@Z 020b3a1c f   Shell.obj
 0001:000b2a80       ?m_Microsoft_SingSharp_ITracked_Release@Class_SurrogateMicrosoft_Singularity_Directory_DirectoryServiceContract_Imp@@SIXPAU1@@Z 020b3a80 f   Shell.obj
 0001:000b2aa4       ?m_Microsoft_SingSharp_ITracked_Acquire@Class_SurrogateMicrosoft_Singularity_Directory_DirectoryServiceContract_Imp@@SIXPAU1@@Z 020b3aa4 f   Shell.obj
 0001:000b2ac8       ?m_HeadMatches@Class_SurrogateMicrosoft_Singularity_Directory_DirectoryServiceContract_Imp@@SI_NPAU1@HPA_NPAPAUClass_System_Object@@@Z 020b3ac8 f   Shell.obj
 0001:000b2afc       ?m_GetWaitHandle@Class_SurrogateMicrosoft_Singularity_Directory_DirectoryServiceContract_Imp@@SI?AUStruct_Microsoft_Singularity_V1_Threads_SyncHandle@@PAU1@@Z 020b3afc f   Shell.obj
 0001:000b2b20       ?m_Dispose@Class_SurrogateMicrosoft_Singularity_Directory_DirectoryServiceContract_Imp@@SIXPAU1@@Z 020b3b20 f   Shell.obj
 0001:000b2b44       ?g__ctor@Class_SurrogateMicrosoft_Singularity_Directory_DirectoryServiceContract_Imp@@SIXPAU1@PAUStruct_Microsoft_Singularity_Directory_DirectoryServiceContract_Imp@@@Z 020b3b44 f   Shell.obj
 0001:000b2b6c       ?m_GetPreamble@Class_System_Text_UTF8Encoding@@SIPAUClassVector_uint8@@PAU1@@Z 020b3b6c f   Shell.obj
 0001:000b2bc4       ?m_GetMaxCharCount@Class_System_Text_UTF8Encoding@@SIHPAU1@H@Z 020b3bc4 f   Shell.obj
 0001:000b2c1c       ?m_GetHashCode@Class_System_Text_UTF8Encoding@@SIHPAU1@@Z 020b3c1c f   Shell.obj
 0001:000b2c74       ?m_GetDecoder@Class_System_Text_UTF8Encoding@@SIPAUClass_System_Text_Decoder@@PAU1@@Z 020b3c74 f   Shell.obj
 0001:000b2cb8       ?m_GetChars@Class_System_Text_UTF8Encoding@@SIHPAU1@PAUClassVector_uint8@@HHPAUClassVector_bartok_char@@H@Z 020b3cb8 f   Shell.obj
 0001:000b2cf8       ?m_GetChars@Class_System_Text_UTF8Encoding@@SIHPAU1@PAUClassVector_uint8@@HHPAUClassVector_bartok_char@@HPAUClass_System_Text_UTF8Encoding_UTF8Decoder@@@Z 020b3cf8 f   Shell.obj
 0001:000b33bc       ?m_GetCharCount@Class_System_Text_UTF8Encoding@@SIHPAU1@PAUClassVector_uint8@@HH@Z 020b43bc f   Shell.obj
 0001:000b33f4       ?m_GetCharCount@Class_System_Text_UTF8Encoding@@SIHPAU1@PAUClassVector_uint8@@HHPAUClass_System_Text_UTF8Encoding_UTF8Decoder@@@Z 020b43f4 f   Shell.obj
 0001:000b3910       ?m_Equals@Class_System_Text_UTF8Encoding@@SI_NPAU1@PAUClass_System_Object@@@Z 020b4910 f   Shell.obj
 0001:000b396c       ?m__ctor@Class_System_Text_UTF8Encoding@@SIXPAU1@@Z 020b496c f   Shell.obj
 0001:000b3990       ?m__ctor@Class_System_Text_UTF8Encoding@@SIXPAU1@_N@Z 020b4990 f   Shell.obj
 0001:000b39bc       ?m__ctor@Class_System_Text_UTF8Encoding@@SIXPAU1@_N1@Z 020b49bc f   Shell.obj
 0001:000b3a00       ?g__cctor@Class_System_Text_UTF8Encoding@@SIXXZ 020b4a00 f   Shell.obj
 0001:000b3a28       ?m__ctor@Class_System_Text_RegularExpressions_RegexCharClass_LC@@SIXPAU1@_W1HH@Z 020b4a28 f   Shell.obj
 0001:000b3a70       ?g_Min@Class_System_Math@@SIIII@Z 020b4a70 f   Shell.obj
 0001:000b3aa0       ?m__ctor@Class_System_Math@@SIXPAU1@@Z 020b4aa0 f   Shell.obj
 0001:000b3abc       ?g__cctor@Class_System_Math@@SIXXZ 020b4abc f   Shell.obj
 0001:000b3afc       ?m_SetEndpoints@Class_Microsoft_Singularity_Applications_Manifest@@SIHPAU1@PAUClass_System_Process@@PAUClass_System_String@@_N@Z 020b4afc f   Shell.obj
 0001:000b3e94       ?m_HasParameters@Class_Microsoft_Singularity_Applications_Manifest@@SI_NPAU1@@Z 020b4e94 f   Shell.obj
 0001:000b3ed4       ?m_GetStringParameterNode@Class_Microsoft_Singularity_Applications_Manifest@@SIPAUClass_Microsoft_Singularity_Xml_XmlNode@@PAU1@PAU2@@Z 020b4ed4 f   Shell.obj
 0001:000b3f1c       ?m_GetStringArrayParameterNode@Class_Microsoft_Singularity_Applications_Manifest@@SIPAUClass_Microsoft_Singularity_Xml_XmlNode@@PAU1@PAU2@@Z 020b4f1c f   Shell.obj
 0001:000b3f64       ?m_GetPipeIndex@Class_Microsoft_Singularity_Applications_Manifest@@SIHPAU1@PAUClass_System_String@@11@Z 020b4f64 f   Shell.obj
 0001:000b4340       ?m_GetOutputPipeIndex@Class_Microsoft_Singularity_Applications_Manifest@@SIHPAU1@PAUClass_System_String@@1@Z 020b5340 f   Shell.obj
 0001:000b4390       ?m_GetLongParameterNode@Class_Microsoft_Singularity_Applications_Manifest@@SIPAUClass_Microsoft_Singularity_Xml_XmlNode@@PAU1@PAU2@@Z 020b5390 f   Shell.obj
 0001:000b43d8       ?m_GetInputPipeIndex@Class_Microsoft_Singularity_Applications_Manifest@@SIHPAU1@PAUClass_System_String@@1@Z 020b53d8 f   Shell.obj
 0001:000b4428       ?m_GetHelpMessage@Class_Microsoft_Singularity_Applications_Manifest@@SIPAUClass_System_String@@PAU1@PAUClass_Microsoft_Singularity_Xml_XmlNode@@@Z 020b5428 f   Shell.obj
 0001:000b447c       ?m_GetCategoryNodeByName@Class_Microsoft_Singularity_Applications_Manifest@@SIPAUClass_Microsoft_Singularity_Xml_XmlNode@@PAU1@PAUClass_System_String@@@Z 020b547c f   Shell.obj
 0001:000b45a0       ?m_GetCategoryNode@Class_Microsoft_Singularity_Applications_Manifest@@SIPAUClass_Microsoft_Singularity_Xml_XmlNode@@PAU1@PAUClass_System_String@@@Z 020b55a0 f   Shell.obj
 0001:000b47d0       ?m_GetCategoriesNode@Class_Microsoft_Singularity_Applications_Manifest@@SIPAUClass_Microsoft_Singularity_Xml_XmlNode@@PAU1@@Z 020b57d0 f   Shell.obj
 0001:000b480c       ?m_GetBoolParameterNode@Class_Microsoft_Singularity_Applications_Manifest@@SIPAUClass_Microsoft_Singularity_Xml_XmlNode@@PAU1@PAU2@@Z 020b580c f   Shell.obj
 0001:000b4854       ?m__ctor@Class_Microsoft_Singularity_Applications_Manifest@@SIXPAU1@PAUClassVector_uint8@@@Z 020b5854 f   Shell.obj
 0001:000b48fc       ?m__ctor@Class_Microsoft_Singularity_Applications_Manifest@@SIXPAU1@PAUClass_Microsoft_Singularity_Xml_XmlNode@@@Z 020b58fc f   Shell.obj
 0001:000b4afc       ?m_StructCopy@Struct_System_Delegate_NativeDelegateRecord@@SIXPAU1@0@Z 020b5afc f   Shell.obj
 0001:000b4b30       ?m_StructCopy@Struct_System_Delegate_NativeDelegateRecord@@SIXPAU1@PAU1@@Z 020b5b30 f   Shell.obj
 0001:000b4bcc       ?m_Equals@Struct_System_Delegate_NativeDelegateRecord@@SI_NPAU1@PAUClass_System_Object@@@Z 020b5bcc f   Shell.obj
 0001:000b4c2c       ?m_Equals@Struct_System_Delegate_NativeDelegateRecord@@SI_NPAUClass_System_Delegate_NativeDelegateRecord@@PAUClass_System_Object@@@Z 020b5c2c f   Shell.obj
 0001:000b4c58       ?m_Delegate@Struct_System_Delegate_NativeDelegateRecord@@SIPAUClass_System_Delegate@@PAU1@@Z 020b5c58 f   Shell.obj
 0001:000b4c88       ?m_InvokeStaticStub@Class_System_AsyncCallback@@SIXPAU1@PAUClass_System_IAsyncResult@@@Z 020b5c88 f   Shell.obj
 0001:000b4cb8       ?m_Invoke@Class_System_AsyncCallback@@SIXPAU1@PAUClass_System_IAsyncResult@@@Z 020b5cb8 f   Shell.obj
 0001:000b4d14       ?m_EndInvoke@Class_System_AsyncCallback@@SIXPAU1@PAUClass_System_IAsyncResult@@@Z 020b5d14 f   Shell.obj
 0001:000b4d30       ?m_BeginInvoke@Class_System_AsyncCallback@@SIPAUClass_System_IAsyncResult@@PAU1@PAU2@0PAUClass_System_Object@@@Z 020b5d30 f   Shell.obj
 0001:000b4d50       ?m__ctor@Class_System_AsyncCallback@@SIXPAU1@PAUClass_System_Object@@PAUintPtr@@@Z 020b5d50 f   Shell.obj
 0001:000b4db4       ?m_StructCopy@Struct_Microsoft_Singularity_Directory_DirectoryServiceContract_QueryACL@@SIXPAU1@0@Z 020b5db4 f   Shell.obj
 0001:000b4de8       ?m_StructCopy@Struct_Microsoft_Singularity_Directory_DirectoryServiceContract_QueryACL@@SIXPAU1@PAU1@@Z 020b5de8 f   Shell.obj
 0001:000b4e84       ?m_Equals@Struct_Microsoft_Singularity_Directory_DirectoryServiceContract_QueryACL@@SI_NPAU1@PAUClass_System_Object@@@Z 020b5e84 f   Shell.obj
 0001:000b4ee0       ?m_Equals@Struct_Microsoft_Singularity_Directory_DirectoryServiceContract_QueryACL@@SI_NPAUClass_Microsoft_Singularity_Directory_DirectoryServiceContract_QueryACL@@PAUClass_System_Object@@@Z 020b5ee0 f   Shell.obj
 0001:000b4f0c       ?m_Visit@Class_System_GCs_MemoryAccounting_RuntimeTypeMapper@@SIPAUuintPtr@@PAU1@PAUClass_System_Object@@@Z 020b5f0c f   Shell.obj
 0001:000b4f28       ?m_Initialize@Class_System_GCs_MemoryAccounting_RuntimeTypeMapper@@SIXPAU1@_NPAUClassVector_Struct_System_GCs_MemoryAccounting_RuntimeTypeAccounting@@@Z 020b5f28 f   Shell.obj
 0001:000b4f48       ?m__ctor@Class_System_GCs_MemoryAccounting_RuntimeTypeMapper@@SIXPAU1@@Z 020b5f48 f   Shell.obj
 0001:000b4f60       ?g_RestoreLocalPreemption@Class_Microsoft_Singularity_Processor@@SIX_N@Z 020b5f60 f   Shell.obj
 0001:000b4f7c       ?g_GetCycleCount@Class_Microsoft_Singularity_Processor@@SI_KXZ 020b5f7c f   Shell.obj
 0001:000b4f94       ?g_GetCurrentThreadContext@Class_Microsoft_Singularity_Processor@@SIPAUStruct_Microsoft_Singularity_ThreadContext@@XZ 020b5f94 f   Shell.obj
 0001:000b4fac       ?g_GetCurrentThread@Class_Microsoft_Singularity_Processor@@SIPAUClass_System_Threading_Thread@@XZ 020b5fac f   Shell.obj
 0001:000b4fcc       ?g_GetCurrentProcessorContext@Class_Microsoft_Singularity_Processor@@SIPAUStruct_Microsoft_Singularity_ProcessorContext@@XZ 020b5fcc f   Shell.obj
 0001:000b4fe4       ?g_get$_CycleCount@Class_Microsoft_Singularity_Processor@@SI_KXZ 020b5fe4 f   Shell.obj
 0001:000b4ffc       ?g_DisableLocalPreemption@Class_Microsoft_Singularity_Processor@@SI_NXZ 020b5ffc f   Shell.obj
 0001:000b5014       ?m__ctor@Class_Microsoft_Singularity_Processor@@SIXPAU1@@Z 020b6014 f   Shell.obj
 0001:000b5030       ?m__ctor@Class_Microsoft_Singularity_Xml_XmlException@@SIXPAU1@PAUClass_System_String@@@Z 020b6030 f   Shell.obj
 0001:000b5058       ?m_StructCopy@Struct_System_UpdateEnlistmentLogWriter@@SIXPAU1@0@Z 020b6058 f   Shell.obj
 0001:000b508c       ?m_StructCopy@Struct_System_UpdateEnlistmentLogWriter@@SIXPAU1@PAU1@@Z 020b608c f   Shell.obj
 0001:000b5128       ?m_Equals@Struct_System_UpdateEnlistmentLogWriter@@SI_NPAU1@PAUClass_System_Object@@@Z 020b6128 f   Shell.obj
 0001:000b5184       ?m_Equals@Struct_System_UpdateEnlistmentLogWriter@@SI_NPAUClass_System_UpdateEnlistmentLogWriter@@PAUClass_System_Object@@@Z 020b6184 f   Shell.obj
 0001:000b51b0       ?m_Visit@Class_System_GCs_MemoryAccounting_StaticPtrAccounting@@SIXPAU1@PAPAUuintPtr@@@Z 020b61b0 f   Shell.obj
 0001:000b51cc       ?m_Initialize@Class_System_GCs_MemoryAccounting_StaticPtrAccounting@@SIXPAU1@@Z 020b61cc f   Shell.obj
 0001:000b51e4       ?m__ctor@Class_System_GCs_MemoryAccounting_StaticPtrAccounting@@SIXPAU1@@Z 020b61e4 f   Shell.obj
 0001:000b51fc       ?m_Write@Struct_System_GCs_UIntPtrStack@@SIXPAU1@PAUuintPtr@@@Z 020b61fc f   Shell.obj
 0001:000b524c       ?m_StructCopy@Struct_System_GCs_UIntPtrStack@@SIXPAU1@0@Z 020b624c f   Shell.obj
 0001:000b52a8       ?m_StructCopy@Struct_System_GCs_UIntPtrStack@@SIXPAU1@PAU1@@Z 020b62a8 f   Shell.obj
 0001:000b53bc       ?m_RetractPage@Struct_System_GCs_UIntPtrStack@@SIXPAU1@@Z 020b63bc f   Shell.obj
 0001:000b5424       ?m_Read@Struct_System_GCs_UIntPtrStack@@SIPAUuintPtr@@PAU1@@Z 020b6424 f   Shell.obj
 0001:000b5468       ?m_get$_IsEmpty@Struct_System_GCs_UIntPtrStack@@SI_NPAU1@@Z 020b6468 f   Shell.obj
 0001:000b54c0       ?m_Equals@Struct_System_GCs_UIntPtrStack@@SI_NPAU1@PAUClass_System_Object@@@Z 020b64c0 f   Shell.obj
 0001:000b55c4       ?m_Equals@Struct_System_GCs_UIntPtrStack@@SI_NPAUClass_System_GCs_UIntPtrStack@@PAUClass_System_Object@@@Z 020b65c4 f   Shell.obj
 0001:000b55f0       ?m_Cleanup@Struct_System_GCs_UIntPtrStack@@SIXPAU1@_N@Z 020b65f0 f   Shell.obj
 0001:000b56c4       ?m_AdvancePage@Struct_System_GCs_UIntPtrStack@@SIXPAU1@@Z 020b66c4 f   Shell.obj
 0001:000b57a4       ?g_AssertNotNullImplicit@Class_Microsoft_Contracts_NonNullType@@SIXPAUuintPtr@@@Z 020b67a4 f   Shell.obj
 0001:000b57fc       ?g_AssertNotNullImplicit@Class_Microsoft_Contracts_NonNullType@@SIXPAUClass_System_Object@@@Z 020b67fc f   Shell.obj
 0001:000b584c       ?g_AssertNotNull@Class_Microsoft_Contracts_NonNullType@@SIXPAUuintPtr@@@Z 020b684c f   Shell.obj
 0001:000b58a4       ?g_AssertNotNull@Class_Microsoft_Contracts_NonNullType@@SIXPAUClass_System_Object@@@Z 020b68a4 f   Shell.obj
 0001:000b58f4       ?m__ctor@Class_Microsoft_Contracts_NonNullType@@SIXPAU1@@Z 020b68f4 f   Shell.obj
 0001:000b590c       ?m__ctor@Class_System_ApplicationException@@SIXPAU1@@Z 020b690c f   Shell.obj
 0001:000b5934       ?m__ctor@Class_System_ApplicationException@@SIXPAU1@PAUClass_System_String@@@Z 020b6934 f   Shell.obj
 0001:000b595c       ?g_StableState@Class_Microsoft_Singularity_Diagnostics_Contracts_ProcessContract@@SIHPAUStruct_Microsoft_Singularity_Channels_StateStack@@@Z 020b695c f   Shell.obj
 0001:000b5a90       ?g_NewChannel@Class_Microsoft_Singularity_Diagnostics_Contracts_ProcessContract@@SIXPAPAUStruct_Microsoft_Singularity_Diagnostics_Contracts_ProcessContract_Imp@@PAPAUStruct_Microsoft_Singularity_Diagnostics_Contracts_ProcessContract_Exp@@@Z 020b6a90 f   Shell.obj
 0001:000b5b2c       ?m__ctor@Class_Microsoft_Singularity_Diagnostics_Contracts_ProcessContract@@SIXPAU1@@Z 020b6b2c f   Shell.obj
 0001:000b5b44       ?g_StableState@Class_Microsoft_Singularity_Directory_ServiceContract@@SIHPAUStruct_Microsoft_Singularity_Channels_StateStack@@@Z 020b6b44 f   Shell.obj
 0001:000b5bc0       ?g_CanonicalState@Class_Microsoft_Singularity_Directory_ServiceContract@@SIHH@Z 020b6bc0 f   Shell.obj
 0001:000b5c18       ?m__ctor@Class_Microsoft_Singularity_Directory_ServiceContract@@SIXPAU1@@Z 020b6c18 f   Shell.obj
 0001:000b5c30       ?m_StructCopy@Struct_Microsoft_Singularity_Directory_FileContract_Success@@SIXPAU1@0@Z 020b6c30 f   Shell.obj
 0001:000b5c4c       ?m_StructCopy@Struct_Microsoft_Singularity_Directory_FileContract_Success@@SIXPAU1@PAU1@@Z 020b6c4c f   Shell.obj
 0001:000b5ca0       ?m_Equals@Struct_Microsoft_Singularity_Directory_FileContract_Success@@SI_NPAU1@PAUClass_System_Object@@@Z 020b6ca0 f   Shell.obj
 0001:000b5cd8       ?m_Equals@Struct_Microsoft_Singularity_Directory_FileContract_Success@@SI_NPAUClass_Microsoft_Singularity_Directory_FileContract_Success@@PAUClass_System_Object@@@Z 020b6cd8 f   Shell.obj
 0001:000b5d04       ?m_VerifyTailedList@Struct_System_GCs_SegregatedFreeList_PageHeaderList@@SIXPAU1@@Z 020b6d04 f   Shell.obj
 0001:000b5da8       ?m_StructCopy@Struct_System_GCs_SegregatedFreeList_PageHeaderList@@SIXPAU1@0@Z 020b6da8 f   Shell.obj
 0001:000b5ddc       ?m_StructCopy@Struct_System_GCs_SegregatedFreeList_PageHeaderList@@SIXPAU1@PAU1@@Z 020b6ddc f   Shell.obj
 0001:000b5e78       ?m_RemoveHead@Struct_System_GCs_SegregatedFreeList_PageHeaderList@@SIPAUStruct_System_GCs_SegregatedFreeList_PageHeader@@PAU1@@Z 020b6e78 f   Shell.obj
 0001:000b5eb0       ?m_get$_IsEmpty@Struct_System_GCs_SegregatedFreeList_PageHeaderList@@SI_NPAU1@@Z 020b6eb0 f   Shell.obj
 0001:000b5ed4       ?m_Equals@Struct_System_GCs_SegregatedFreeList_PageHeaderList@@SI_NPAU1@PAUClass_System_Object@@@Z 020b6ed4 f   Shell.obj
 0001:000b5f30       ?m_Equals@Struct_System_GCs_SegregatedFreeList_PageHeaderList@@SI_NPAUClass_System_GCs_SegregatedFreeList_PageHeaderList@@PAUClass_System_Object@@@Z 020b6f30 f   Shell.obj
 0001:000b5f5c       ?m_Append@Struct_System_GCs_SegregatedFreeList_PageHeaderList@@SIXPAU1@PAUStruct_System_GCs_SegregatedFreeList_PageHeader@@@Z 020b6f5c f   Shell.obj
 0001:000b5fcc       ?m_Append@Struct_System_GCs_SegregatedFreeList_PageHeaderList@@SIXPAU1@U1@@Z 020b6fcc f   Shell.obj
 0001:000b6030       ?m_StructCopy@Struct_Microsoft_Singularity_Directory_DirectoryServiceContract_AckQueryACL@@SIXPAU1@0@Z 020b7030 f   Shell.obj
 0001:000b6064       ?m_StructCopy@Struct_Microsoft_Singularity_Directory_DirectoryServiceContract_AckQueryACL@@SIXPAU1@PAU1@@Z 020b7064 f   Shell.obj
 0001:000b6100       ?m_Equals@Struct_Microsoft_Singularity_Directory_DirectoryServiceContract_AckQueryACL@@SI_NPAU1@PAUClass_System_Object@@@Z 020b7100 f   Shell.obj
 0001:000b615c       ?m_Equals@Struct_Microsoft_Singularity_Directory_DirectoryServiceContract_AckQueryACL@@SI_NPAUClass_Microsoft_Singularity_Directory_DirectoryServiceContract_AckQueryACL@@PAUClass_System_Object@@@Z 020b715c f   Shell.obj
 0001:000b6188       ?m_StructCopy@Struct_Microsoft_Singularity_V1_Services_DeliveryHandle@@SIXPAU1@0@Z 020b7188 f   Shell.obj
 0001:000b61b0       ?m_StructCopy@Struct_Microsoft_Singularity_V1_Services_DeliveryHandle@@SIXPAU1@PAU1@@Z 020b71b0 f   Shell.obj
 0001:000b6228       ?m_Equals@Struct_Microsoft_Singularity_V1_Services_DeliveryHandle@@SI_NPAU1@PAUClass_System_Object@@@Z 020b7228 f   Shell.obj
 0001:000b6270       ?m_Equals@Struct_Microsoft_Singularity_V1_Services_DeliveryHandle@@SI_NPAUClass_Microsoft_Singularity_V1_Services_DeliveryHandle@@PAUClass_System_Object@@@Z 020b7270 f   Shell.obj
 0001:000b629c       ?g_VisitWeakRefs@Struct_System_MultiUseWord@@SIXPAUClass_System_GCs_DirectReferenceVisitor@@_N@Z 020b729c f   Shell.obj
 0001:000b6408       ?g_VisitStrongRefsNonRC@Struct_System_MultiUseWord@@SIXPAUClass_System_GCs_DirectReferenceVisitor@@_N@Z 020b7408 f   Shell.obj
 0001:000b65d0       ?g_VisitStrongRefs@Struct_System_MultiUseWord@@SIXPAUClass_System_GCs_DirectReferenceVisitor@@_N@Z 020b75d0 f   Shell.obj
 0001:000b65f8       ?m_StructCopy@Struct_System_MultiUseWord@@SIXPAU1@0@Z 020b75f8 f   Shell.obj
 0001:000b6620       ?m_StructCopy@Struct_System_MultiUseWord@@SIXPAU1@PAU1@@Z 020b7620 f   Shell.obj
 0001:000b6698       ?g_SetValForObject@Struct_System_MultiUseWord@@SIXPAUClass_System_Object@@PAUuintPtr@@@Z 020b7698 f   Shell.obj
 0001:000b66d8       ?g_SetForObject@Struct_System_MultiUseWord@@SIXPAUClass_System_Object@@U1@@Z 020b76d8 f   Shell.obj
 0001:000b6708       ?g_PreGCHook@Struct_System_MultiUseWord@@SIX_N@Z 020b7708 f   Shell.obj
 0001:000b672c       ?g_PreGCHook@Struct_System_MultiUseWord@@SIX_N0@Z 020b772c f   Shell.obj
 0001:000b67bc       ?g_PostGCHook@Struct_System_MultiUseWord@@SIX_N@Z 020b77bc f   Shell.obj
 0001:000b6a4c       ?g_PostGCHook@Struct_System_MultiUseWord@@SIXXZ 020b7a4c f   Shell.obj
 0001:000b6a68       ?g_Occasionally@Struct_System_MultiUseWord@@SI_NXZ 020b7a68 f   Shell.obj
 0001:000b6a8c       ?m_IsUnused@Struct_System_MultiUseWord@@SI_NPAU1@@Z 020b7a8c f   Shell.obj
 0001:000b6abc       ?m_IsMonitor@Struct_System_MultiUseWord@@SI_NPAU1@@Z 020b7abc f   Shell.obj
 0001:000b6af0       ?m_IsMarked@Struct_System_MultiUseWord@@SI_NPAU1@@Z 020b7af0 f   Shell.obj
 0001:000b6b30       ?g_IsMarked@Struct_System_MultiUseWord@@SI_NPAUClass_System_Object@@@Z 020b7b30 f   Shell.obj
 0001:000b6b70       ?m_IsInflated@Struct_System_MultiUseWord@@SI_NPAU1@@Z 020b7b70 f   Shell.obj
 0001:000b6ba4       ?g_Inflate@Struct_System_MultiUseWord@@SIXPAUClass_System_Object@@@Z 020b7ba4 f   Shell.obj
 0001:000b6dc4       ?g_IncrementMonitorEMUAllocCount@Struct_System_MultiUseWord@@SIXXZ 020b7dc4 f   Shell.obj
 0001:000b6de4       ?g_IncrementInflationToCount@Struct_System_MultiUseWord@@SIXI@Z 020b7de4 f   Shell.obj
 0001:000b6e40       ?g_IncrementInflationFromCount@Struct_System_MultiUseWord@@SIXI@Z 020b7e40 f   Shell.obj
 0001:000b6e9c       ?g_IncrementFullEMUAllocCount@Struct_System_MultiUseWord@@SIXXZ 020b7e9c f   Shell.obj
 0001:000b6ebc       ?g_IncrementDeadEMUsCount@Struct_System_MultiUseWord@@SIXXZ 020b7ebc f   Shell.obj
 0001:000b6edc       ?g_IncrementAbandonedEMUsCount@Struct_System_MultiUseWord@@SIXXZ 020b7edc f   Shell.obj
 0001:000b6efc       ?m_GetTag@Struct_System_MultiUseWord@@SIIPAU1@@Z 020b7efc f   Shell.obj
 0001:000b6f30       ?m_GetRefPayload@Struct_System_MultiUseWord@@SIPAUClass_System_Object@@PAU1@@Z 020b7f30 f   Shell.obj
 0001:000b6fd4       ?m_GetPayload@Struct_System_MultiUseWord@@SIPAUuintPtr@@PAU1@@Z 020b7fd4 f   Shell.obj
 0001:000b7014       ?g_GetMonitorSlow@Struct_System_MultiUseWord@@SIPAUClass_System_Threading_Monitor@@PAUClass_System_Object@@U1@@Z 020b8014 f   Shell.obj
 0001:000b7210       ?g_GetMonitor@Struct_System_MultiUseWord@@SIPAUClass_System_Threading_Monitor@@PAUClass_System_Object@@@Z 020b8210 f   Shell.obj
 0001:000b72e4       ?g_GetHashCodeSlow@Struct_System_MultiUseWord@@SIHPAUClass_System_Object@@U1@@Z 020b82e4 f   Shell.obj
 0001:000b7454       ?g_GetHashCode@Struct_System_MultiUseWord@@SIHPAUClass_System_Object@@@Z 020b8454 f   Shell.obj
 0001:000b74ec       ?g_GetForObject@Struct_System_MultiUseWord@@SI?AU1@PAUClass_System_Object@@@Z 020b84ec f   Shell.obj
 0001:000b7530       ?m_GetEMURefPayload@Struct_System_MultiUseWord@@SIPAUClass_System_EMU@@PAU1@@Z 020b8530 f   Shell.obj
 0001:000b75bc       ?g_get$_PAYLOAD$_MASK@Struct_System_MultiUseWord@@SIPAUuintPtr@@XZ 020b85bc f   Shell.obj
 0001:000b75d4       ?g_get$_MARK$_BIT$_MASK@Struct_System_MultiUseWord@@SIPAUuintPtr@@XZ 020b85d4 f   Shell.obj
 0001:000b75ec       ?m_Equals@Struct_System_MultiUseWord@@SI_NPAU1@PAUClass_System_Object@@@Z 020b85ec f   Shell.obj
 0001:000b7634       ?m_Equals@Struct_System_MultiUseWord@@SI_NPAUClass_System_MultiUseWord@@PAUClass_System_Object@@@Z 020b8634 f   Shell.obj
 0001:000b7660       ?m_Eq@Struct_System_MultiUseWord@@SI_NPAU1@U1@@Z 020b8660 f   Shell.obj
 0001:000b768c       ?g_DumpTables@Struct_System_MultiUseWord@@SIXXZ 020b868c f   Shell.obj
 0001:000b7cdc       ?g_ComputeEmuCount@Struct_System_MultiUseWord@@SIX_N@Z 020b8cdc f   Shell.obj
 0001:000b7d74       ?g_CompareExchangeForObject@Struct_System_MultiUseWord@@SIPAUuintPtr@@PAUClass_System_Object@@PAU2@1@Z 020b8d74 f   Shell.obj
 0001:000b7dd0       ?g_CompareExchangeForObject@Struct_System_MultiUseWord@@SI?AU1@PAUClass_System_Object@@U1@1@Z 020b8dd0 f   Shell.obj
 0001:000b7e24       ?g_CollectFromThreads@Struct_System_MultiUseWord@@SIX_N@Z 020b8e24 f   Shell.obj
 0001:000b7ec0       ?g_CollectFromThread@Struct_System_MultiUseWord@@SIXPAUClass_System_Threading_Thread@@@Z 020b8ec0 f   Shell.obj
 0001:000b7f50       ?g_CollectFromPreviousCollections@Struct_System_MultiUseWord@@SIX_N@Z 020b8f50 f   Shell.obj
 0001:000b7f98       ?g_ChooseHashCode@Struct_System_MultiUseWord@@SIHPAUClass_System_Object@@@Z 020b8f98 f   Shell.obj
 0001:000b7fe8       ?m__ctor@Struct_System_MultiUseWord@@SIXPAU1@PAUuintPtr@@@Z 020b8fe8 f   Shell.obj
 0001:000b800c       ?m__ctor@Struct_System_MultiUseWord@@SIXPAU1@IPAUuintPtr@@@Z 020b900c f   Shell.obj
 0001:000b8068       ?m__ctor@Struct_System_MultiUseWord@@SIXPAU1@IPAUClass_System_Object@@@Z 020b9068 f   Shell.obj
 0001:000b8138       ?g__cctor@Struct_System_MultiUseWord@@SIXXZ 020b9138 f   Shell.obj
 0001:000b8174       ?m_StructCopy@Struct_System_ReadEnlistmentLogWriter@@SIXPAU1@0@Z 020b9174 f   Shell.obj
 0001:000b81a8       ?m_StructCopy@Struct_System_ReadEnlistmentLogWriter@@SIXPAU1@PAU1@@Z 020b91a8 f   Shell.obj
 0001:000b8244       ?m_Equals@Struct_System_ReadEnlistmentLogWriter@@SI_NPAU1@PAUClass_System_Object@@@Z 020b9244 f   Shell.obj
 0001:000b82a0       ?m_Equals@Struct_System_ReadEnlistmentLogWriter@@SI_NPAUClass_System_ReadEnlistmentLogWriter@@PAUClass_System_Object@@@Z 020b92a0 f   Shell.obj
 0001:000b82cc       ?m_Interpret@Class_Microsoft_Singularity_Applications_ScriptEngine_Command@@SIXPAU1@PAUClass_Microsoft_Singularity_Applications_ShellControl@@PAUClass_Microsoft_Singularity_Applications_ScriptEngine_Interpretation@@@Z 020b92cc f   Shell.obj
 0001:000b85b8       ?m__ctor@Class_Microsoft_Singularity_Applications_ScriptEngine_Command@@SIXPAU1@PAUClass_System_Collections_ArrayList@@@Z 020b95b8 f   Shell.obj
 0001:000b85e4       ?m__ctor@Class_Microsoft_Singularity_Applications_ScriptEngine_Command@@SIXPAU1@PAUClass_System_Collections_ArrayList@@_N@Z 020b95e4 f   Shell.obj
 0001:000b861c       ?m__ctor@Class_System_OutOfMemoryException@@SIXPAU1@@Z 020b961c f   Shell.obj
 0001:000b8644       ?m__ctor@Class_System_OutOfMemoryException@@SIXPAU1@PAUClass_System_String@@@Z 020b9644 f   Shell.obj
 0001:000b866c       ?m__ctor@Class_System_OutOfMemoryException@@SIXPAU1@PAUClass_System_String@@PAUClass_System_Exception@@@Z 020b966c f   Shell.obj
 0001:000b869c       ?g_Assert@Class_System_Diagnostics_Debug@@SIX_N@Z 020b969c f   Shell.obj
 0001:000b86c0       ?g_Assert@Class_System_Diagnostics_Debug@@SIX_NPAUClass_System_String@@@Z 020b96c0 f   Shell.obj
 0001:000b86e8       ?m__ctor@Class_System_Diagnostics_Debug@@SIXPAU1@@Z 020b96e8 f   Shell.obj
 0001:000b8700       ?m__ctor@Class_System_Runtime_CompilerServices_NoBarriersAttribute@@SIXPAU1@@Z 020b9700 f   Shell.obj
 0001:000b8724       ?m__ctor@Class_System_Attribute@@SIXPAU1@@Z 020b9724 f   Shell.obj
 0001:000b8740       ?g_Write@Class_Microsoft_Singularity_Io_ConsoleOutput@@SIPA_WPA_WHHPAUStruct_Microsoft_Singularity_Io_ConsoleOutput_PipeData@@@Z 020b9740 f   Shell.obj
 0001:000b8950       ?g_Write@Class_Microsoft_Singularity_Io_ConsoleOutput@@SIXPAUClassVector_bartok_char@@HH@Z 020b9950 f   Shell.obj
 0001:000b8b6c       ?g_Write@Class_Microsoft_Singularity_Io_ConsoleOutput@@SIXPAUClass_System_String@@@Z 020b9b6c f   Shell.obj
 0001:000b8d8c       ?g_Swap@Class_Microsoft_Singularity_Io_ConsoleOutput@@SIPAUStruct_Microsoft_Singularity_Io_UnicodePipeContract_Imp@@PAU2@@Z 020b9d8c f   Shell.obj
 0001:000b8e94       ?m_Microsoft_SingSharp_ITracked_UnExpose@Class_Microsoft_Singularity_Io_ConsoleOutput@@SIXPAU1@@Z 020b9e94 f   Shell.obj
 0001:000b8eb0       ?m_Microsoft_SingSharp_ITracked_Release@Class_Microsoft_Singularity_Io_ConsoleOutput@@SIXPAU1@@Z 020b9eb0 f   Shell.obj
 0001:000b8ecc       ?m_Microsoft_SingSharp_ITracked_Expose@Class_Microsoft_Singularity_Io_ConsoleOutput@@SIXPAU1@@Z 020b9ecc f   Shell.obj
 0001:000b8ee8       ?m_Microsoft_SingSharp_ITracked_Acquire@Class_Microsoft_Singularity_Io_ConsoleOutput@@SIXPAU1@@Z 020b9ee8 f   Shell.obj
 0001:000b8f04       ?g_Initialize@Class_Microsoft_Singularity_Io_ConsoleOutput@@SIXXZ 020b9f04 f   Shell.obj
 0001:000b8fa4       ?g_GetPipe@Class_Microsoft_Singularity_Io_ConsoleOutput@@SIPAUStruct_Microsoft_Singularity_Io_UnicodePipeContract_Imp@@XZ 020b9fa4 f   Shell.obj
 0001:000b9080       ?g_Finalize@Class_Microsoft_Singularity_Io_ConsoleOutput@@SIXXZ 020ba080 f   Shell.obj
 0001:000b90dc       ?m_Dispose@Class_Microsoft_Singularity_Io_ConsoleOutput@@SIXPAU1@@Z 020ba0dc f   Shell.obj
 0001:000b9128       ?m__ctor@Class_Microsoft_Singularity_Io_ConsoleOutput@@SIXPAU1@PAUStruct_Microsoft_Singularity_Io_UnicodePipeContract_Imp@@@Z 020ba128 f   Shell.obj
 0001:000b9174       ?g__cctor@Class_Microsoft_Singularity_Io_ConsoleOutput@@SIXXZ 020ba174 f   Shell.obj
 0001:000b91e4       ?m_StructCopy@Struct_Microsoft_Singularity_V1_Threads_ThreadHandle@@SIXPAU1@0@Z 020ba1e4 f   Shell.obj
 0001:000b920c       ?m_StructCopy@Struct_Microsoft_Singularity_V1_Threads_ThreadHandle@@SIXPAU1@PAU1@@Z 020ba20c f   Shell.obj
 0001:000b9284       ?m_Equals@Struct_Microsoft_Singularity_V1_Threads_ThreadHandle@@SI_NPAU1@PAUClass_System_Object@@@Z 020ba284 f   Shell.obj
 0001:000b92cc       ?m_Equals@Struct_Microsoft_Singularity_V1_Threads_ThreadHandle@@SI_NPAUClass_Microsoft_Singularity_V1_Threads_ThreadHandle@@PAUClass_System_Object@@@Z 020ba2cc f   Shell.obj
 0001:000b92f8       ?g_Create@Struct_Microsoft_Singularity_V1_Threads_ThreadHandle@@SI_NHUStruct_Microsoft_Singularity_V1_Threads_ContainerHandle@@PAU1@PAPAUuintPtr@@@Z 020ba2f8 f   Shell.obj
 0001:000b9364       ?m_WriteImpl@Class_System_GCs_Barrier@@SIXPAU1@PAPAUuintPtr@@PAU2@H@Z 020ba364 f   Shell.obj
 0001:000b938c       ?m_WriteImpl@Class_System_GCs_Barrier@@SIXPAU1@PAPAUuintPtr@@PAUClass_System_Object@@H@Z 020ba38c f   Shell.obj
 0001:000b93b4       ?m_WriteImpl@Class_System_GCs_Barrier@@SIXPAU1@PAUClass_System_Object@@PAPAUuintPtr@@PAU3@H@Z 020ba3b4 f   Shell.obj
 0001:000b93ec       ?m_WriteImpl@Class_System_GCs_Barrier@@SIXPAU1@PAUClass_System_Object@@PAPAUuintPtr@@1H@Z 020ba3ec f   Shell.obj
 0001:000b9424       ?m_WriteImpl@Class_System_GCs_Barrier@@SIXPAU1@PAUClass_System_Object@@PAUuintPtr@@2H@Z 020ba424 f   Shell.obj
 0001:000b9468       ?m_WriteImpl@Class_System_GCs_Barrier@@SIXPAU1@PAUClass_System_Object@@PAUuintPtr@@1H@Z 020ba468 f   Shell.obj
 0001:000b94ac       ?m_WeakRefWriteImpl@Class_System_GCs_Barrier@@SIPAUuintPtr@@PAU1@PAUClass_System_Object@@H@Z 020ba4ac f   Shell.obj
 0001:000b94d0       ?g_WeakRefWrite@Class_System_GCs_Barrier@@SIPAUuintPtr@@PAUClass_System_Object@@H@Z 020ba4d0 f   Shell.obj
 0001:000b9508       ?m_WeakRefReadImpl@Class_System_GCs_Barrier@@SIPAUClass_System_Object@@PAU1@PAUuintPtr@@H@Z 020ba508 f   Shell.obj
 0001:000b952c       ?g_WeakRefRead@Class_System_GCs_Barrier@@SIPAUClass_System_Object@@PAUuintPtr@@H@Z 020ba52c f   Shell.obj
 0001:000b9564       ?m_StoreIndirectImpl@Class_System_GCs_Barrier@@SIXPAU1@PAPAUuintPtr@@PAUClass_System_Object@@H@Z 020ba564 f   Shell.obj
 0001:000b959c       ?g_StoreIndirect@Class_System_GCs_Barrier@@SIXPAPAUuintPtr@@PAUClass_System_Object@@H@Z 020ba59c f   Shell.obj
 0001:000b95dc       ?m_ReadUIntPtrImpl@Class_System_GCs_Barrier@@SIPAUuintPtr@@PAU1@PAUClass_System_Object@@PAU2@H@Z 020ba5dc f   Shell.obj
 0001:000b9618       ?m_ReadObjImpl@Class_System_GCs_Barrier@@SIPAUClass_System_Object@@PAU1@PAPAUuintPtr@@H@Z 020ba618 f   Shell.obj
 0001:000b963c       ?m_ReadObjImpl@Class_System_GCs_Barrier@@SIPAUClass_System_Object@@PAU1@PAU2@PAPAUuintPtr@@H@Z 020ba63c f   Shell.obj
 0001:000b9678       ?m_ReadObjImpl@Class_System_GCs_Barrier@@SIPAUClass_System_Object@@PAU1@PAU2@PAUuintPtr@@H@Z 020ba678 f   Shell.obj
 0001:000b96b8       ?m_ReadImpl@Class_System_GCs_Barrier@@SIPAUuintPtr@@PAU1@PAPAU2@H@Z 020ba6b8 f   Shell.obj
 0001:000b96dc       ?m_ReadImpl@Class_System_GCs_Barrier@@SIPAUuintPtr@@PAU1@PAUClass_System_Object@@PAPAU2@H@Z 020ba6dc f   Shell.obj
 0001:000b9714       ?g_MyInitObject@Class_System_GCs_Barrier@@SIXPAUClass_System_Object@@PAUClass_System_VTable@@@Z 020ba714 f   Shell.obj
 0001:000b9740       ?g_MemZeroBarrierSlow@Class_System_GCs_Barrier@@SIXPAUClass_System_Object@@PAUuintPtr@@1@Z 020ba740 f   Shell.obj
 0001:000b97a0       ?g_MemCopyBarrierSlow@Class_System_GCs_Barrier@@SIXPAUClass_System_Object@@PAUuintPtr@@011@Z 020ba7a0 f   Shell.obj
 0001:000b9824       ?m_InitObjectImpl@Class_System_GCs_Barrier@@SIXPAU1@PAUClass_System_Object@@PAUClass_System_VTable@@@Z 020ba824 f   Shell.obj
 0001:000b9854       ?g_InitObject@Class_System_GCs_Barrier@@SIXPAUClass_System_Object@@PAUClass_System_VTable@@@Z 020ba854 f   Shell.obj
 0001:000b9888       ?g_Initialize@Class_System_GCs_Barrier@@SIXXZ 020ba888 f   Shell.obj
 0001:000b9a20       ?g_IndexedDataPtr@Class_System_GCs_Barrier@@SIPAUuintPtr@@PAUClass_System_Array@@@Z 020baa20 f   Shell.obj
 0001:000b9a60       ?m_ForwardImpl@Class_System_GCs_Barrier@@SIPAUClass_System_Object@@PAU1@PAU2@H@Z 020baa60 f   Shell.obj
 0001:000b9a84       ?m_CopyStructWithBarrier@Class_System_GCs_Barrier@@SIXPAU1@PAUClass_System_VTable@@PAUuintPtr@@2@Z 020baa84 f   Shell.obj
 0001:000b9abc       ?m_CopyStructNoBarrier@Class_System_GCs_Barrier@@SIXPAU1@PAUClass_System_VTable@@PAUuintPtr@@2@Z 020baabc f   Shell.obj
 0001:000b9b20       ?m_CopyStructImpl@Class_System_GCs_Barrier@@SIXPAU1@PAUClass_System_Object@@1PAUClass_System_VTable@@PAUuintPtr@@3@Z 020bab20 f   Shell.obj
 0001:000b9b58       ?g_CopyStruct@Class_System_GCs_Barrier@@SIXPAUClass_System_Object@@0PAUClass_System_VTable@@PAUuintPtr@@2@Z 020bab58 f   Shell.obj
 0001:000b9b94       ?g_BootstrapInitObjectImpl@Class_System_GCs_Barrier@@SIXPAUClass_System_Object@@PAUClass_System_VTable@@@Z 020bab94 f   Shell.obj
 0001:000b9bc0       ?g_BootstrapInitObject@Class_System_GCs_Barrier@@SIXPAUClass_System_Object@@PAUClass_System_VTable@@@Z 020babc0 f   Shell.obj
 0001:000b9be8       ?m_ArrayCopyWithBarrier@Class_System_GCs_Barrier@@SIXPAU1@PAUClass_System_Array@@H1HH@Z 020babe8 f   Shell.obj
 0001:000b9d24       ?m_ArrayCopyNoBarrier@Class_System_GCs_Barrier@@SIXPAU1@PAUClass_System_Array@@H1HH@Z 020bad24 f   Shell.obj
 0001:000b9e2c       ?m_ArrayCopyImpl@Class_System_GCs_Barrier@@SIXPAU1@PAUClass_System_Array@@H1HH@Z 020bae2c f   Shell.obj
 0001:000b9f68       ?g_ArrayCopy@Class_System_GCs_Barrier@@SIXPAUClass_System_Array@@H0HH@Z 020baf68 f   Shell.obj
 0001:000b9fa4       ?m__ctor@Class_System_GCs_Barrier@@SIXPAU1@@Z 020bafa4 f   Shell.obj
 0001:000b9fc0       ?m_BoolValue@Class_Microsoft_Singularity_Applications_ScriptEngine_Negate@@SI_NPAU1@PAUClass_Microsoft_Singularity_Applications_ScriptEngine_Interpretation@@@Z 020bafc0 f   Shell.obj
 0001:000ba014       ?m__ctor@Class_Microsoft_Singularity_Applications_ScriptEngine_Negate@@SIXPAU1@PAUClass_Microsoft_Singularity_Applications_ScriptEngine_Expression@@@Z 020bb014 f   Shell.obj
 0001:000ba044       ?m_BoolValue@Class_Microsoft_Singularity_Applications_ScriptEngine_Equal@@SI_NPAU1@PAUClass_Microsoft_Singularity_Applications_ScriptEngine_Interpretation@@@Z 020bb044 f   Shell.obj
 0001:000ba0a0       ?m__ctor@Class_Microsoft_Singularity_Applications_ScriptEngine_Equal@@SIXPAU1@PAUClass_Microsoft_Singularity_Applications_ScriptEngine_Expression@@1@Z 020bb0a0 f   Shell.obj
 0001:000ba0d0       ?m__ctor@Class_System_Threading_ThreadStateException@@SIXPAU1@@Z 020bb0d0 f   Shell.obj
 0001:000ba0f8       ?m__ctor@Class_System_Threading_ThreadStateException@@SIXPAU1@PAUClass_System_String@@@Z 020bb0f8 f   Shell.obj
 0001:000ba120       ?m_UnRegisterStorage@Class_Microsoft_Singularity_Eventing_LocalController@@SIXPAU1@PAUClass_Microsoft_Singularity_Eventing_EventingStorage@@@Z 020bb120 f   Shell.obj
 0001:000ba180       ?m_UnRegisterSource@Class_Microsoft_Singularity_Eventing_LocalController@@SIXPAU1@PAUClass_Microsoft_Singularity_Eventing_EventSource@@@Z 020bb180 f   Shell.obj
 0001:000ba21c       ?m_RegisterStorage@Class_Microsoft_Singularity_Eventing_LocalController@@SI_NPAU1@PAUClass_Microsoft_Singularity_Eventing_EventingStorage@@@Z 020bb21c f   Shell.obj
 0001:000ba288       ?m_RegisterSource@Class_Microsoft_Singularity_Eventing_LocalController@@SI_NPAU1@PAUClass_Microsoft_Singularity_Eventing_EventSource@@@Z 020bb288 f   Shell.obj
 0001:000ba4fc       ?m_Initialize@Class_Microsoft_Singularity_Eventing_LocalController@@SIXPAU1@@Z 020bb4fc f   Shell.obj
 0001:000ba934       ?m_GetNativeSourceName@Class_Microsoft_Singularity_Eventing_LocalController@@SI_NPAU1@PAUuintPtr@@PAPAU2@PAPAUClass_System_String@@@Z 020bb934 f   Shell.obj
 0001:000baa7c       ?m__ctor@Class_Microsoft_Singularity_Eventing_LocalController@@SIXPAU1@@Z 020bba7c f   Shell.obj
 0001:000baaa0       ?g__cctor@Class_Microsoft_Singularity_Eventing_LocalController@@SIXXZ 020bbaa0 f   Shell.obj
 0001:000baac8       ?m_ToString@bartok_char@@SIPAUClass_System_String@@PA_W@Z 020bbac8 f   Shell.obj
 0001:000baaec       ?m_ToString@bartok_char@@SIPAUClass_System_String@@PAUClass_System_Char@@@Z 020bbaec f   Shell.obj
 0001:000bab14       ?g_ToString@bartok_char@@SIPAUClass_System_String@@_W@Z 020bbb14 f   Shell.obj
 0001:000bab4c       ?g_ToLower@bartok_char@@SI_W_W@Z 020bbb4c f   Shell.obj
 0001:000bab88       ?g_IsWhiteSpace@bartok_char@@SI_N_W@Z 020bbb88 f   Shell.obj
 0001:000babc4       ?g_IsNumber@bartok_char@@SI_N_W@Z 020bbbc4 f   Shell.obj
 0001:000bac00       ?g_IsLetter@bartok_char@@SI_N_W@Z 020bbc00 f   Shell.obj
 0001:000bac3c       ?g_GetUnicodeCategory@bartok_char@@SI?AUStruct_System_Globalization_UnicodeCategory@@_W@Z 020bbc3c f   Shell.obj
 0001:000bac78       ?m_GetHashCode@bartok_char@@SIHPA_W@Z 020bbc78 f   Shell.obj
 0001:000bacac       ?m_GetHashCode@bartok_char@@SIHPAUClass_System_Char@@@Z 020bbcac f   Shell.obj
 0001:000bacd4       ?m_Equals@bartok_char@@SI_NPA_WPAUClass_System_Object@@@Z 020bbcd4 f   Shell.obj
 0001:000bad38       ?m_Equals@bartok_char@@SI_NPAUClass_System_Char@@PAUClass_System_Object@@@Z 020bbd38 f   Shell.obj
 0001:000bad64       ?m_CompareTo@bartok_char@@SIHPA_WPAUClass_System_Object@@@Z 020bbd64 f   Shell.obj
 0001:000badf0       ?m_CompareTo@bartok_char@@SIHPAUClass_System_Char@@PAUClass_System_Object@@@Z 020bbdf0 f   Shell.obj
 0001:000bae1c       ?g_QueryMemory@Class_System_GCs_MemoryManager@@SI_NPAUuintPtr@@PAPAU2@1@Z 020bbe1c f   Shell.obj
 0001:000bae4c       ?g_Initialize@Class_System_GCs_MemoryManager@@SIXXZ 020bbe4c f   Shell.obj
 0001:000baea0       ?g_IgnoreMemoryContents@Class_System_GCs_MemoryManager@@SIXPAUuintPtr@@0@Z 020bbea0 f   Shell.obj
 0001:000baebc       ?g_get$_OperatingSystemCommitSize@Class_System_GCs_MemoryManager@@SIPAUuintPtr@@XZ 020bbebc f   Shell.obj
 0001:000baed4       ?g_AllocateMemory@Class_System_GCs_MemoryManager@@SIPAUuintPtr@@PAU2@@Z 020bbed4 f   Shell.obj
 0001:000baf6c       ?m__ctor@Class_System_GCs_MemoryManager@@SIXPAU1@@Z 020bbf6c f   Shell.obj
 0001:000baf84       ?m_InvokeStaticStub@Class_System_TryAllManager_VisitMethod@@SIXPAU1@PAUClass_System_GCs_DirectReferenceVisitor@@@Z 020bbf84 f   Shell.obj
 0001:000bafb4       ?m_Invoke@Class_System_TryAllManager_VisitMethod@@SIXPAU1@PAUClass_System_GCs_DirectReferenceVisitor@@@Z 020bbfb4 f   Shell.obj
 0001:000bb010       ?m_EndInvoke@Class_System_TryAllManager_VisitMethod@@SIXPAU1@PAUClass_System_IAsyncResult@@@Z 020bc010 f   Shell.obj
 0001:000bb02c       ?m_BeginInvoke@Class_System_TryAllManager_VisitMethod@@SIPAUClass_System_IAsyncResult@@PAU1@PAUClass_System_GCs_DirectReferenceVisitor@@PAUClass_System_AsyncCallback@@PAUClass_System_Object@@@Z 020bc02c f   Shell.obj
 0001:000bb04c       ?m__ctor@Class_System_TryAllManager_VisitMethod@@SIXPAU1@PAUClass_System_Object@@PAUintPtr@@@Z 020bc04c f   Shell.obj
 0001:000bb08c       ?m_InvocationListEquals@Class_System_MulticastDelegate@@SI_NPAU1@0@Z 020bc08c f   Shell.obj
 0001:000bb100       ?m_GetHashCode@Class_System_MulticastDelegate@@SIHPAU1@@Z 020bc100 f   Shell.obj
 0001:000bb124       ?m_Equals@Class_System_MulticastDelegate@@SI_NPAU1@PAUClass_System_Object@@@Z 020bc124 f   Shell.obj
 0001:000bb1d0       ?m__ctor@Class_System_MulticastDelegate@@SIXPAU1@@Z 020bc1d0 f   Shell.obj
 0001:000bb1f4       ?g_SplitIdx@Class_System_Delegate@@SIXHPAH0@Z 020bc1f4 f   Shell.obj
 0001:000bb2a8       ?g_op$_Equality@Class_System_Delegate@@SI_NPAU1@0@Z 020bc2a8 f   Shell.obj
 0001:000bb2e8       ?m_IsStatic@Class_System_Delegate@@SI_NPAU1@@Z 020bc2e8 f   Shell.obj
 0001:000bb320       ?g_IdxToDelegate@Class_System_Delegate@@SIPAU1@H@Z 020bc320 f   Shell.obj
 0001:000bb398       ?m_GetHashCode@Class_System_Delegate@@SIHPAU1@@Z 020bc398 f   Shell.obj
 0001:000bb3dc       ?m_Equals@Class_System_Delegate@@SI_NPAU1@PAUClass_System_Object@@@Z 020bc3dc f   Shell.obj
 0001:000bb49c       ?m__ctor@Class_System_Delegate@@SIXPAU1@@Z 020bc49c f   Shell.obj
 0001:000bb4c0       ?g__cctor@Class_System_Delegate@@SIXXZ 020bc4c0 f   Shell.obj
 0001:000bb548       ?m_StructCopy@Struct_Microsoft_Singularity_Eventing_QualityOfService@@SIXPAU1@0@Z 020bc548 f   Shell.obj
 0001:000bb594       ?m_StructCopy@Struct_Microsoft_Singularity_Eventing_QualityOfService@@SIXPAU1@PAU1@@Z 020bc594 f   Shell.obj
 0001:000bb678       ?m_Equals@Struct_Microsoft_Singularity_Eventing_QualityOfService@@SI_NPAU1@PAUClass_System_Object@@@Z 020bc678 f   Shell.obj
 0001:000bb6f0       ?m_Equals@Struct_Microsoft_Singularity_Eventing_QualityOfService@@SI_NPAUClass_Microsoft_Singularity_Eventing_QualityOfService@@PAUClass_System_Object@@@Z 020bc6f0 f   Shell.obj
 0001:000bb71c       ?m_StructCopy@Struct_Microsoft_Singularity_Directory_DirectoryServiceContract_NakRegisterReparse@@SIXPAU1@0@Z 020bc71c f   Shell.obj
 0001:000bb768       ?m_StructCopy@Struct_Microsoft_Singularity_Directory_DirectoryServiceContract_NakRegisterReparse@@SIXPAU1@PAU1@@Z 020bc768 f   Shell.obj
 0001:000bb84c       ?m_Equals@Struct_Microsoft_Singularity_Directory_DirectoryServiceContract_NakRegisterReparse@@SI_NPAU1@PAUClass_System_Object@@@Z 020bc84c f   Shell.obj
 0001:000bb8c4       ?m_Equals@Struct_Microsoft_Singularity_Directory_DirectoryServiceContract_NakRegisterReparse@@SI_NPAUClass_Microsoft_Singularity_Directory_DirectoryServiceContract_NakRegisterReparse@@PAUClass_System_Object@@@Z 020bc8c4 f   Shell.obj
 0001:000bb8f0       ?g_ReleaseDSPChannel@Class_Microsoft_Singularity_Directory_SdsUtils@@SIXPAUClass_System_String@@PAUStruct_Microsoft_Singularity_Directory_DirectoryServiceContract_Imp@@@Z 020bc8f0 f   Shell.obj
 0001:000bba08       ?g_NodeTypeToString@Class_Microsoft_Singularity_Directory_SdsUtils@@SIPAUClass_System_String@@UStruct_Microsoft_Singularity_Directory_NodeType@@@Z 020bca08 f   Shell.obj
 0001:000bbacc       ?g_IsMatch@Class_Microsoft_Singularity_Directory_SdsUtils@@SI_NPAUClass_System_String@@0@Z 020bcacc f   Shell.obj
 0001:000bbc4c       ?g_GetLinkValue@Class_Microsoft_Singularity_Directory_SdsUtils@@SI_NPAUClass_System_String@@PAUStruct_Microsoft_Singularity_Directory_DirectoryServiceContract_Imp@@PAPAU2@PAUStruct_Microsoft_Singularity_Directory_ErrorCode@@@Z 020bcc4c f   Shell.obj
 0001:000bc154       ?g_GetDSPChannel@Class_Microsoft_Singularity_Directory_SdsUtils@@SIPAUStruct_Microsoft_Singularity_Directory_DirectoryServiceContract_Imp@@PAU2@PAUClass_System_String@@PAUStruct_Microsoft_Singularity_Directory_ErrorCode@@@Z 020bd154 f   Shell.obj
