 VolMgr

 Timestamp is 62167188 (Wed Feb 23 18:40:24 2022)

 Preferred load address is 02000000

 Start         Length     Name                   Class
 0001:00000000 0008978eH .text                   CODE
 0002:00000000 00000114H .idata$5                DATA
 0002:00000120 00014329H .rdata                  DATA
 0002:0001444c 00000014H .idata$2                DATA
 0002:00014460 00000014H .idata$3                DATA
 0002:00014474 00000114H .idata$4                DATA
 0002:00014588 00001af6H .idata$6                DATA
 0002:0001607e 00000000H .edata                  DATA
 0002:00016080 0000007bH .rdata$debug            DATA
 0003:00000000 00030250H .data                   DATA
 0003:00030250 00000070H .bss                    DATA
 0004:00000000 00000004H .CRT$XCA                DATA
 0004:00000004 00000004H .CRT$XCZ                DATA
 0004:00000008 00000004H .CRT$XIA                DATA
 0004:0000000c 00000004H .CRT$XIZ                DATA
 0004:00000010 00000004H .CRT$XPA                DATA
 0004:00000014 00000004H .CRT$XPZ                DATA
 0004:00000018 00000004H .CRT$XTA                DATA
 0004:0000001c 00000004H .CRT$XTZ                DATA

  Address         Publics by Value              Rva+Base       Lib:Object

 0000:00000000       ___safe_se_handler_count   00000000     <absolute>
 0000:00000000       ___safe_se_handler_table   00000000     <absolute>
 0001:00000000       C:\Users\cc\source\repos\Singularity-OS\base.obj\AppNativeObj\Debug.x86.MarkSweep\VolMgr_CodeBase 02001000     VolMgr.obj
 0001:00000000       ?m_StructCopy@Struct_Microsoft_Singularity_Isal_SpillContext@@SIXPAU1@0@Z 02001000 f   VolMgr.obj
 0001:000000dc       ?m_StructCopy@Struct_Microsoft_Singularity_Isal_SpillContext@@SIXPAU1@PAU1@@Z 020010dc f   VolMgr.obj
 0001:00000370       ?m_Equals@Struct_Microsoft_Singularity_Isal_SpillContext@@SI_NPAU1@PAUClass_System_Object@@@Z 02001370 f   VolMgr.obj
 0001:00000520       ?m_Equals@Struct_Microsoft_Singularity_Isal_SpillContext@@SI_NPAUClass_Microsoft_Singularity_Isal_SpillContext@@PAUClass_System_Object@@@Z 02001520 f   VolMgr.obj
 0001:0000054c       ?m_StructCopy@Struct_Microsoft_Singularity_V1_Threads_MutexHandle@@SIXPAU1@0@Z 0200154c f   VolMgr.obj
 0001:00000574       ?m_StructCopy@Struct_Microsoft_Singularity_V1_Threads_MutexHandle@@SIXPAU1@PAU1@@Z 02001574 f   VolMgr.obj
 0001:000005ec       ?m_Equals@Struct_Microsoft_Singularity_V1_Threads_MutexHandle@@SI_NPAU1@PAUClass_System_Object@@@Z 020015ec f   VolMgr.obj
 0001:00000634       ?m_Equals@Struct_Microsoft_Singularity_V1_Threads_MutexHandle@@SI_NPAUClass_Microsoft_Singularity_V1_Threads_MutexHandle@@PAUClass_System_Object@@@Z 02001634 f   VolMgr.obj
 0001:00000660       ?g_Create@Struct_Microsoft_Singularity_V1_Threads_MutexHandle@@SI_N_NPAU1@@Z 02001660 f   VolMgr.obj
 0001:000006ac       ?m_StructCopy@Struct_System_GCs_OverflowFrameDescriptor@@SIXPAU1@0@Z 020016ac f   VolMgr.obj
 0001:000006e0       ?m_StructCopy@Struct_System_GCs_OverflowFrameDescriptor@@SIXPAU1@PAU1@@Z 020016e0 f   VolMgr.obj
 0001:0000077c       ?m_Equals@Struct_System_GCs_OverflowFrameDescriptor@@SI_NPAU1@PAUClass_System_Object@@@Z 0200177c f   VolMgr.obj
 0001:000007d8       ?m_Equals@Struct_System_GCs_OverflowFrameDescriptor@@SI_NPAUClass_System_GCs_OverflowFrameDescriptor@@PAUClass_System_Object@@@Z 020017d8 f   VolMgr.obj
 0001:00000804       ?m__ctor@Class_System_Reflection_Module@@SIXPAU1@@Z 02001804 f   VolMgr.obj
 0001:00000820       ?m_StructCopy@Struct_Microsoft_Singularity_Directory_DirectoryServiceContract_Bind@@SIXPAU1@0@Z 02001820 f   VolMgr.obj
 0001:00000854       ?m_StructCopy@Struct_Microsoft_Singularity_Directory_DirectoryServiceContract_Bind@@SIXPAU1@PAU1@@Z 02001854 f   VolMgr.obj
 0001:000008f0       ?m_MarshallContent@Struct_Microsoft_Singularity_Directory_DirectoryServiceContract_Bind@@SIXPAU1@PAEPAUStruct_Microsoft_Singularity_Channels_Endpoint@@1PAH@Z 020018f0 f   VolMgr.obj
 0001:00000a18       ?m_MarshallAll@Struct_Microsoft_Singularity_Directory_DirectoryServiceContract_Bind@@SIXPAU1@PAEPAUStruct_Microsoft_Singularity_Channels_Endpoint@@PAH@Z 02001a18 f   VolMgr.obj
 0001:00000a70       ?m_Equals@Struct_Microsoft_Singularity_Directory_DirectoryServiceContract_Bind@@SI_NPAU1@PAUClass_System_Object@@@Z 02001a70 f   VolMgr.obj
 0001:00000acc       ?m_Equals@Struct_Microsoft_Singularity_Directory_DirectoryServiceContract_Bind@@SI_NPAUClass_Microsoft_Singularity_Directory_DirectoryServiceContract_Bind@@PAUClass_System_Object@@@Z 02001acc f   VolMgr.obj
 0001:00000af8       ?g_StructSize@Class_System_Runtime_InteropServices_Marshal@@SIHPAUClass_System_Type@@@Z 02001af8 f   VolMgr.obj
 0001:00000bb8       ?m__ctor@Class_System_Runtime_InteropServices_Marshal@@SIXPAU1@@Z 02001bb8 f   VolMgr.obj
 0001:00000bd0       ?m_StructCopy@Struct_System_TryAll@@SIXPAU1@0@Z 02001bd0 f   VolMgr.obj
 0001:00000c4c       ?m_StructCopy@Struct_System_TryAll@@SIXPAU1@PAU1@@Z 02001c4c f   VolMgr.obj
 0001:00000dc0       ?m_Equals@Struct_System_TryAll@@SI_NPAU1@PAUClass_System_Object@@@Z 02001dc0 f   VolMgr.obj
 0001:000010b4       ?m_Equals@Struct_System_TryAll@@SI_NPAUClass_System_TryAll@@PAUClass_System_Object@@@Z 020020b4 f   VolMgr.obj
 0001:000010e0       ?m__ctor@Class_System_Threading_ThreadQueue@@SIXPAU1@@Z 020020e0 f   VolMgr.obj
 0001:000010f8       ?m_StructCopy@Struct_Microsoft_Singularity_Directory_DirectoryServiceContract_NakBindReparse@@SIXPAU1@0@Z 020020f8 f   VolMgr.obj
 0001:00001144       ?m_StructCopy@Struct_Microsoft_Singularity_Directory_DirectoryServiceContract_NakBindReparse@@SIXPAU1@PAU1@@Z 02002144 f   VolMgr.obj
 0001:00001228       ?m_Equals@Struct_Microsoft_Singularity_Directory_DirectoryServiceContract_NakBindReparse@@SI_NPAU1@PAUClass_System_Object@@@Z 02002228 f   VolMgr.obj
 0001:000012a0       ?m_Equals@Struct_Microsoft_Singularity_Directory_DirectoryServiceContract_NakBindReparse@@SI_NPAUClass_Microsoft_Singularity_Directory_DirectoryServiceContract_NakBindReparse@@PAUClass_System_Object@@@Z 020022a0 f   VolMgr.obj
 0001:000012cc       ?m_StructCopy@Struct_Microsoft_Singularity_Directory_DirectoryServiceContract_DeleteDirectory@@SIXPAU1@0@Z 020022cc f   VolMgr.obj
 0001:000012f4       ?m_StructCopy@Struct_Microsoft_Singularity_Directory_DirectoryServiceContract_DeleteDirectory@@SIXPAU1@PAU1@@Z 020022f4 f   VolMgr.obj
 0001:0000136c       ?m_Equals@Struct_Microsoft_Singularity_Directory_DirectoryServiceContract_DeleteDirectory@@SI_NPAU1@PAUClass_System_Object@@@Z 0200236c f   VolMgr.obj
 0001:000013b4       ?m_Equals@Struct_Microsoft_Singularity_Directory_DirectoryServiceContract_DeleteDirectory@@SI_NPAUClass_Microsoft_Singularity_Directory_DirectoryServiceContract_DeleteDirectory@@PAUClass_System_Object@@@Z 020023b4 f   VolMgr.obj
 0001:000013e0       ?m_set$_Capacity@Class_System_Collections_ArrayList@@SIXPAU1@H@Z 020023e0 f   VolMgr.obj
 0001:000014a8       ?m_GetEnumerator@Class_System_Collections_ArrayList@@SIPAUClass_System_Collections_IEnumerator@@PAU1@@Z 020024a8 f   VolMgr.obj
 0001:000014ec       ?m_get$_Item@Class_System_Collections_ArrayList@@SIPAUClass_System_Object@@PAU1@H@Z 020024ec f   VolMgr.obj
 0001:00001574       ?m_get$_Count@Class_System_Collections_ArrayList@@SIHPAU1@@Z 02002574 f   VolMgr.obj
 0001:00001594       ?m_EnsureCapacity@Class_System_Collections_ArrayList@@SIXPAU1@H@Z 02002594 f   VolMgr.obj
 0001:00001600       ?m_Add@Class_System_Collections_ArrayList@@SIHPAU1@PAUClass_System_Object@@@Z 02002600 f   VolMgr.obj
 0001:00001690       ?m__ctor@Class_System_Collections_ArrayList@@SIXPAU1@@Z 02002690 f   VolMgr.obj
 0001:000016c0       ?m__ctor@Class_System_Collections_ArrayList@@SIXPAU1@H@Z 020026c0 f   VolMgr.obj
 0001:00001724       ?m_Visit@Class_System_GCs_GCProfiler_ObjectVisitor@@SIPAUuintPtr@@PAU1@PAUClass_System_Object@@@Z 02002724 f   VolMgr.obj
 0001:000017dc       ?m__ctor@Class_System_GCs_GCProfiler_ObjectVisitor@@SIXPAU1@PAUClass_System_GCs_GCProfiler@@@Z 020027dc f   VolMgr.obj
 0001:00001838       ?m_UnRegisterStorage@Class_Microsoft_Singularity_Eventing_LocalController@@SIXPAU1@PAUClass_Microsoft_Singularity_Eventing_EventingStorage@@@Z 02002838 f   VolMgr.obj
 0001:00001898       ?m_UnRegisterSource@Class_Microsoft_Singularity_Eventing_LocalController@@SIXPAU1@PAUClass_Microsoft_Singularity_Eventing_EventSource@@@Z 02002898 f   VolMgr.obj
 0001:00001930       ?m_RegisterStorage@Class_Microsoft_Singularity_Eventing_LocalController@@SI_NPAU1@PAUClass_Microsoft_Singularity_Eventing_EventingStorage@@@Z 02002930 f   VolMgr.obj
 0001:0000199c       ?m_RegisterSource@Class_Microsoft_Singularity_Eventing_LocalController@@SI_NPAU1@PAUClass_Microsoft_Singularity_Eventing_EventSource@@@Z 0200299c f   VolMgr.obj
 0001:00001c04       ?m_Initialize@Class_Microsoft_Singularity_Eventing_LocalController@@SIXPAU1@@Z 02002c04 f   VolMgr.obj
 0001:0000203c       ?m_GetNativeSourceName@Class_Microsoft_Singularity_Eventing_LocalController@@SI_NPAU1@PAUuintPtr@@PAPAU2@PAPAUClass_System_String@@@Z 0200303c f   VolMgr.obj
 0001:00002184       ?m__ctor@Class_Microsoft_Singularity_Eventing_LocalController@@SIXPAU1@@Z 02003184 f   VolMgr.obj
 0001:000021a8       ?g__cctor@Class_Microsoft_Singularity_Eventing_LocalController@@SIXXZ 020031a8 f   VolMgr.obj
 0001:000021d0       ?m_StructCopy@Struct_Microsoft_Singularity_V1_Services_SharedHeapService_Allocation@@SIXPAU1@0@Z 020031d0 f   VolMgr.obj
 0001:00002234       ?m_StructCopy@Struct_Microsoft_Singularity_V1_Services_SharedHeapService_Allocation@@SIXPAU1@PAU1@@Z 02003234 f   VolMgr.obj
 0001:00002360       ?m_Equals@Struct_Microsoft_Singularity_V1_Services_SharedHeapService_Allocation@@SI_NPAU1@PAUClass_System_Object@@@Z 02003360 f   VolMgr.obj
 0001:000023f0       ?m_Equals@Struct_Microsoft_Singularity_V1_Services_SharedHeapService_Allocation@@SI_NPAUClass_Microsoft_Singularity_V1_Services_SharedHeapService_Allocation@@PAUClass_System_Object@@@Z 020033f0 f   VolMgr.obj
 0001:0000241c       ?m__ctor@Class_System_IndexOutOfRangeException@@SIXPAU1@@Z 0200341c f   VolMgr.obj
 0001:00002444       ?m__ctor@Class_System_IndexOutOfRangeException@@SIXPAU1@PAUClass_System_String@@@Z 02003444 f   VolMgr.obj
 0001:0000246c       ?m__ctor@Class_System_IndexOutOfRangeException@@SIXPAU1@PAUClass_System_String@@PAUClass_System_Exception@@@Z 0200346c f   VolMgr.obj
 0001:0000249c       ?m_Visit@Class_System_GCs_MemoryAccounting_StaticPtrAccounting@@SIXPAU1@PAPAUuintPtr@@@Z 0200349c f   VolMgr.obj
 0001:000024b8       ?m_Initialize@Class_System_GCs_MemoryAccounting_StaticPtrAccounting@@SIXPAU1@@Z 020034b8 f   VolMgr.obj
 0001:000024d0       ?m__ctor@Class_System_GCs_MemoryAccounting_StaticPtrAccounting@@SIXPAU1@@Z 020034d0 f   VolMgr.obj
 0001:000024e8       ?m_MoveNext@Class_System_Collections_Stack_StackEnumerator@@SI_NPAU1@@Z 020034e8 f   VolMgr.obj
 0001:000025d4       ?m_get$_Current@Class_System_Collections_Stack_StackEnumerator@@SIPAUClass_System_Object@@PAU1@@Z 020035d4 f   VolMgr.obj
 0001:0000264c       ?m__ctor@Class_System_Collections_Stack_StackEnumerator@@SIXPAU1@PAUClass_System_Collections_Stack@@@Z 0200364c f   VolMgr.obj
 0001:00002694       ?m__ctor@Class_System_RankException@@SIXPAU1@@Z 02003694 f   VolMgr.obj
 0001:000026bc       ?m__ctor@Class_System_RankException@@SIXPAU1@PAUClass_System_String@@@Z 020036bc f   VolMgr.obj
 0001:000026e4       ?m_Update@Class_Microsoft_Singularity_Crypto_MD5@@SIXPAU1@PAUClassVector_uint8@@@Z 020036e4 f   VolMgr.obj
 0001:00002c14       ?m_RotL@Class_Microsoft_Singularity_Crypto_MD5@@SIIPAU1@IE@Z 02003c14 f   VolMgr.obj
 0001:00002c84       ?m_Reset@Class_Microsoft_Singularity_Crypto_MD5@@SIXPAU1@@Z 02003c84 f   VolMgr.obj
 0001:00002d58       ?m_ProcessBlock@Class_Microsoft_Singularity_Crypto_MD5@@SIXPAU1@@Z 02003d58 f   VolMgr.obj
 0001:000037cc       ?m_Hash@Class_Microsoft_Singularity_Crypto_MD5@@SIPAUClassVector_uint8@@PAU1@PAU2@@Z 020047cc f   VolMgr.obj
 0001:00003804       ?m_Finish@Class_Microsoft_Singularity_Crypto_MD5@@SIPAUClassVector_uint8@@PAU1@@Z 02004804 f   VolMgr.obj
 0001:00003a48       ?m__ctor@Class_Microsoft_Singularity_Crypto_MD5@@SIXPAU1@@Z 02004a48 f   VolMgr.obj
 0001:00003aa0       ?g__cctor@Class_Microsoft_Singularity_Crypto_MD5@@SIXXZ 02004aa0 f   VolMgr.obj
 0001:00003ab4       ?m_InvokeStaticStub@Class_System_TryAllManager_GCHookMethod@@SIXPAU1@@Z 02004ab4 f   VolMgr.obj
 0001:00003adc       ?m_Invoke@Class_System_TryAllManager_GCHookMethod@@SIXPAU1@@Z 02004adc f   VolMgr.obj
 0001:00003b30       ?m_EndInvoke@Class_System_TryAllManager_GCHookMethod@@SIXPAU1@PAUClass_System_IAsyncResult@@@Z 02004b30 f   VolMgr.obj
 0001:00003b4c       ?m_BeginInvoke@Class_System_TryAllManager_GCHookMethod@@SIPAUClass_System_IAsyncResult@@PAU1@PAUClass_System_AsyncCallback@@PAUClass_System_Object@@@Z 02004b4c f   VolMgr.obj
 0001:00003b6c       ?m__ctor@Class_System_TryAllManager_GCHookMethod@@SIXPAU1@PAUClass_System_Object@@PAUintPtr@@@Z 02004b6c f   VolMgr.obj
 0001:00003bac       ?m_StructCopy@Struct_Microsoft_Singularity_Io_VolumeManagerContract_AckConnect@@SIXPAU1@0@Z 02004bac f   VolMgr.obj
 0001:00003bc8       ?m_StructCopy@Struct_Microsoft_Singularity_Io_VolumeManagerContract_AckConnect@@SIXPAU1@PAU1@@Z 02004bc8 f   VolMgr.obj
 0001:00003c1c       ?m_Equals@Struct_Microsoft_Singularity_Io_VolumeManagerContract_AckConnect@@SI_NPAU1@PAUClass_System_Object@@@Z 02004c1c f   VolMgr.obj
 0001:00003c54       ?m_Equals@Struct_Microsoft_Singularity_Io_VolumeManagerContract_AckConnect@@SI_NPAUClass_Microsoft_Singularity_Io_VolumeManagerContract_AckConnect@@PAUClass_System_Object@@@Z 02004c54 f   VolMgr.obj
 0001:00003c80       ?m__ctor@Class_Microsoft_Singularity_Eventing_DataType@@SIXPAU1@@Z 02004c80 f   VolMgr.obj
 0001:00003c9c       ?m_StructCopy@Struct_Microsoft_Singularity_Directory_NotifyContract_AckChangeNotification@@SIXPAU1@0@Z 02004c9c f   VolMgr.obj
 0001:00003cb8       ?m_StructCopy@Struct_Microsoft_Singularity_Directory_NotifyContract_AckChangeNotification@@SIXPAU1@PAU1@@Z 02004cb8 f   VolMgr.obj
 0001:00003d0c       ?m_MarshallContent@Struct_Microsoft_Singularity_Directory_NotifyContract_AckChangeNotification@@SIXPAU1@PAEPAUStruct_Microsoft_Singularity_Channels_Endpoint@@1PAH@Z 02004d0c f   VolMgr.obj
 0001:00003d2c       ?m_MarshallAll@Struct_Microsoft_Singularity_Directory_NotifyContract_AckChangeNotification@@SIXPAU1@PAEPAUStruct_Microsoft_Singularity_Channels_Endpoint@@PAH@Z 02004d2c f   VolMgr.obj
 0001:00003d84       ?m_Equals@Struct_Microsoft_Singularity_Directory_NotifyContract_AckChangeNotification@@SI_NPAU1@PAUClass_System_Object@@@Z 02004d84 f   VolMgr.obj
 0001:00003dbc       ?m_Equals@Struct_Microsoft_Singularity_Directory_NotifyContract_AckChangeNotification@@SI_NPAUClass_Microsoft_Singularity_Directory_NotifyContract_AckChangeNotification@@PAUClass_System_Object@@@Z 02004dbc f   VolMgr.obj
 0001:00003de8       ?m_StructCopy@Struct_Microsoft_Singularity_Io_DiskDeviceContract_NakWrite@@SIXPAU1@0@Z 02004de8 f   VolMgr.obj
 0001:00003e04       ?m_StructCopy@Struct_Microsoft_Singularity_Io_DiskDeviceContract_NakWrite@@SIXPAU1@PAU1@@Z 02004e04 f   VolMgr.obj
 0001:00003e58       ?m_Equals@Struct_Microsoft_Singularity_Io_DiskDeviceContract_NakWrite@@SI_NPAU1@PAUClass_System_Object@@@Z 02004e58 f   VolMgr.obj
 0001:00003e90       ?m_Equals@Struct_Microsoft_Singularity_Io_DiskDeviceContract_NakWrite@@SI_NPAUClass_Microsoft_Singularity_Io_DiskDeviceContract_NakWrite@@PAUClass_System_Object@@@Z 02004e90 f   VolMgr.obj
 0001:00003ebc       ?g_ScanStaticPointerData@Class_System_GCs_StaticData@@SIIPAUClass_System_GCs_NonNullReferenceVisitor@@@Z 02004ebc f   VolMgr.obj
 0001:000040a4       ?g_ScanStaticData@Class_System_GCs_StaticData@@SIXPAUClass_System_GCs_DirectReferenceVisitor@@@Z 020050a4 f   VolMgr.obj
 0001:0000424c       ?g_Initialize@Class_System_GCs_StaticData@@SIXXZ 0200524c f   VolMgr.obj
 0001:000044c0       ?m__ctor@Class_System_GCs_StaticData@@SIXPAU1@@Z 020054c0 f   VolMgr.obj
 0001:000044d8       ?m_ToString@Struct_System_DateTime@@SIPAUClass_System_String@@PAU1@@Z 020054d8 f   VolMgr.obj
 0001:00004500       ?m_ToString@Struct_System_DateTime@@SIPAUClass_System_String@@PAU1@PAU2@@Z 02005500 f   VolMgr.obj
 0001:00004834       ?m_ToString@Struct_System_DateTime@@SIPAUClass_System_String@@PAUClass_System_DateTime@@@Z 02005834 f   VolMgr.obj
 0001:0000487c       ?m_ToString@Struct_System_DateTime@@SIPAUClass_System_String@@PAUClass_System_DateTime@@PAU2@@Z 0200587c f   VolMgr.obj
 0001:000048c8       ?m_StructCopy@Struct_System_DateTime@@SIXPAU1@0@Z 020058c8 f   VolMgr.obj
 0001:000048fc       ?m_StructCopy@Struct_System_DateTime@@SIXPAU1@PAU1@@Z 020058fc f   VolMgr.obj
 0001:00004998       ?m_GetShortWeekday@Struct_System_DateTime@@SIPAUClass_System_String@@PAU1@@Z 02005998 f   VolMgr.obj
 0001:000049fc       ?m_GetShortMonth@Struct_System_DateTime@@SIPAUClass_System_String@@PAU1@@Z 020059fc f   VolMgr.obj
 0001:00004a88       ?m_GetHashCode@Struct_System_DateTime@@SIHPAU1@@Z 02005a88 f   VolMgr.obj
 0001:00004ab4       ?m_GetHashCode@Struct_System_DateTime@@SIHPAUClass_System_DateTime@@@Z 02005ab4 f   VolMgr.obj
 0001:00004afc       ?m_GetDatePart@Struct_System_DateTime@@SIHPAU1@H@Z 02005afc f   VolMgr.obj
 0001:00004d54       ?m_get$_Year@Struct_System_DateTime@@SIHPAU1@@Z 02005d54 f   VolMgr.obj
 0001:00004d7c       ?m_get$_Second@Struct_System_DateTime@@SIHPAU1@@Z 02005d7c f   VolMgr.obj
 0001:00004dbc       ?m_get$_Month@Struct_System_DateTime@@SIHPAU1@@Z 02005dbc f   VolMgr.obj
 0001:00004de4       ?m_get$_Minute@Struct_System_DateTime@@SIHPAU1@@Z 02005de4 f   VolMgr.obj
 0001:00004e24       ?m_get$_Hour@Struct_System_DateTime@@SIHPAU1@@Z 02005e24 f   VolMgr.obj
 0001:00004e64       ?m_get$_DayOfWeek@Struct_System_DateTime@@SI?AUStruct_System_DayOfWeek@@PAU1@@Z 02005e64 f   VolMgr.obj
 0001:00004eb0       ?m_get$_Day@Struct_System_DateTime@@SIHPAU1@@Z 02005eb0 f   VolMgr.obj
 0001:00004ed8       ?m_Equals@Struct_System_DateTime@@SI_NPAU1@PAUClass_System_Object@@@Z 02005ed8 f   VolMgr.obj
 0001:00004f50       ?m_Equals@Struct_System_DateTime@@SI_NPAUClass_System_DateTime@@PAUClass_System_Object@@@Z 02005f50 f   VolMgr.obj
 0001:00004f9c       ?m_CompareTo@Struct_System_DateTime@@SIHPAU1@PAUClass_System_Object@@@Z 02005f9c f   VolMgr.obj
 0001:00005088       ?m_CompareTo@Struct_System_DateTime@@SIHPAUClass_System_DateTime@@PAUClass_System_Object@@@Z 02006088 f   VolMgr.obj
 0001:000050d4       ?m__ctor@Struct_System_DateTime@@SIXPAU1@_J@Z 020060d4 f   VolMgr.obj
 0001:00005170       ?g__cctor@Struct_System_DateTime@@SIXXZ 02006170 f   VolMgr.obj
 0001:000051ec       ?m__ctor@Class_Microsoft_Contracts_AssertException@@SIXPAU1@@Z 020061ec f   VolMgr.obj
 0001:00005210       ?m__ctor@Class_System_Runtime_CompilerServices_AssertDevirtualizeAttribute@@SIXPAU1@@Z 02006210 f   VolMgr.obj
 0001:00005234       ?m_StructCopy@Struct_Microsoft_Singularity_Io_DiskDeviceContract_AckGetDeviceName@@SIXPAU1@0@Z 02006234 f   VolMgr.obj
 0001:0000525c       ?m_StructCopy@Struct_Microsoft_Singularity_Io_DiskDeviceContract_AckGetDeviceName@@SIXPAU1@PAU1@@Z 0200625c f   VolMgr.obj
 0001:000052d4       ?m_Equals@Struct_Microsoft_Singularity_Io_DiskDeviceContract_AckGetDeviceName@@SI_NPAU1@PAUClass_System_Object@@@Z 020062d4 f   VolMgr.obj
 0001:0000531c       ?m_Equals@Struct_Microsoft_Singularity_Io_DiskDeviceContract_AckGetDeviceName@@SI_NPAUClass_Microsoft_Singularity_Io_DiskDeviceContract_AckGetDeviceName@@PAUClass_System_Object@@@Z 0200631c f   VolMgr.obj
 0001:00005348       ?m_ToString@int8@@SIPAUClass_System_String@@PAC@Z 02006348 f   VolMgr.obj
 0001:00005370       ?m_ToString@int8@@SIPAUClass_System_String@@PACPAU2@@Z 02006370 f   VolMgr.obj
 0001:00005468       ?m_ToString@int8@@SIPAUClass_System_String@@PAUClass_System_SByte@@@Z 02006468 f   VolMgr.obj
 0001:00005490       ?m_ToString@int8@@SIPAUClass_System_String@@PAUClass_System_SByte@@PAU2@@Z 02006490 f   VolMgr.obj
 0001:000054bc       ?m_GetHashCode@int8@@SIHPAC@Z 020064bc f   VolMgr.obj
 0001:000054ec       ?m_GetHashCode@int8@@SIHPAUClass_System_SByte@@@Z 020064ec f   VolMgr.obj
 0001:00005514       ?m_Equals@int8@@SI_NPACPAUClass_System_Object@@@Z 02006514 f   VolMgr.obj
 0001:00005574       ?m_Equals@int8@@SI_NPAUClass_System_SByte@@PAUClass_System_Object@@@Z 02006574 f   VolMgr.obj
 0001:000055a0       ?m_CompareTo@int8@@SIHPACPAUClass_System_Object@@@Z 020065a0 f   VolMgr.obj
 0001:0000562c       ?m_CompareTo@int8@@SIHPAUClass_System_SByte@@PAUClass_System_Object@@@Z 0200662c f   VolMgr.obj
 0001:00005658       ?m_StructCopy@Struct_Microsoft_Singularity_Directory_NotifyContract_ChangeNotification@@SIXPAU1@0@Z 02006658 f   VolMgr.obj
 0001:0000568c       ?m_StructCopy@Struct_Microsoft_Singularity_Directory_NotifyContract_ChangeNotification@@SIXPAU1@PAU1@@Z 0200668c f   VolMgr.obj
 0001:00005728       ?m_Equals@Struct_Microsoft_Singularity_Directory_NotifyContract_ChangeNotification@@SI_NPAU1@PAUClass_System_Object@@@Z 02006728 f   VolMgr.obj
 0001:000057d8       ?m_Equals@Struct_Microsoft_Singularity_Directory_NotifyContract_ChangeNotification@@SI_NPAUClass_Microsoft_Singularity_Directory_NotifyContract_ChangeNotification@@PAUClass_System_Object@@@Z 020067d8 f   VolMgr.obj
 0001:00005804       ?m_StructCopy@Struct_System_ReadEnlistmentLogWriter@@SIXPAU1@0@Z 02006804 f   VolMgr.obj
 0001:00005838       ?m_StructCopy@Struct_System_ReadEnlistmentLogWriter@@SIXPAU1@PAU1@@Z 02006838 f   VolMgr.obj
 0001:000058d4       ?m_Equals@Struct_System_ReadEnlistmentLogWriter@@SI_NPAU1@PAUClass_System_Object@@@Z 020068d4 f   VolMgr.obj
 0001:00005930       ?m_Equals@Struct_System_ReadEnlistmentLogWriter@@SI_NPAUClass_System_ReadEnlistmentLogWriter@@PAUClass_System_Object@@@Z 02006930 f   VolMgr.obj
 0001:0000595c       ?m_StructCopy@Struct_Microsoft_Singularity_Io_DiskDeviceContract_GetSystemId@@SIXPAU1@0@Z 0200695c f   VolMgr.obj
 0001:00005978       ?m_StructCopy@Struct_Microsoft_Singularity_Io_DiskDeviceContract_GetSystemId@@SIXPAU1@PAU1@@Z 02006978 f   VolMgr.obj
 0001:000059cc       ?m_Equals@Struct_Microsoft_Singularity_Io_DiskDeviceContract_GetSystemId@@SI_NPAU1@PAUClass_System_Object@@@Z 020069cc f   VolMgr.obj
 0001:00005a04       ?m_Equals@Struct_Microsoft_Singularity_Io_DiskDeviceContract_GetSystemId@@SI_NPAUClass_Microsoft_Singularity_Io_DiskDeviceContract_GetSystemId@@PAUClass_System_Object@@@Z 02006a04 f   VolMgr.obj
 0001:00005a30       ?m_StructCopy@Struct_System_Collections_Hashtable_bucket@@SIXPAU1@0@Z 02006a30 f   VolMgr.obj
 0001:00005a70       ?m_StructCopy@Struct_System_Collections_Hashtable_bucket@@SIXPAU1@PAU1@@Z 02006a70 f   VolMgr.obj
 0001:00005b30       ?m_Equals@Struct_System_Collections_Hashtable_bucket@@SI_NPAU1@PAUClass_System_Object@@@Z 02006b30 f   VolMgr.obj
 0001:00005ba4       ?m_Equals@Struct_System_Collections_Hashtable_bucket@@SI_NPAUClass_System_Collections_Hashtable_bucket@@PAUClass_System_Object@@@Z 02006ba4 f   VolMgr.obj
 0001:00005bd0       ?m_HeadMatches@Class_SurrogateMicrosoft_Singularity_Io_DiskDeviceContract_Imp@@SI_NPAU1@HPA_NPAPAUClass_System_Object@@@Z 02006bd0 f   VolMgr.obj
 0001:00005c04       ?m_GetWaitHandle@Class_SurrogateMicrosoft_Singularity_Io_DiskDeviceContract_Imp@@SI?AUStruct_Microsoft_Singularity_V1_Threads_SyncHandle@@PAU1@@Z 02006c04 f   VolMgr.obj
 0001:00005c28       ?g__ctor@Class_SurrogateMicrosoft_Singularity_Io_DiskDeviceContract_Imp@@SIXPAU1@PAUStruct_Microsoft_Singularity_Io_DiskDeviceContract_Imp@@@Z 02006c28 f   VolMgr.obj
 0001:00005c50       ?g_Summary@Class_System_GCs_CollectorStatistics@@SIXXZ 02006c50 f   VolMgr.obj
 0001:00005c64       ?g_Initialize@Class_System_GCs_CollectorStatistics@@SIXXZ 02006c64 f   VolMgr.obj
 0001:00005c78       ?g_Event@Class_System_GCs_CollectorStatistics@@SIXUStruct_System_GCs_GCEvent@@@Z 02006c78 f   VolMgr.obj
 0001:00005c94       ?g_Event@Class_System_GCs_CollectorStatistics@@SIXUStruct_System_GCs_GCEvent@@_J@Z 02006c94 f   VolMgr.obj
 0001:00005cb0       ?m__ctor@Class_System_GCs_CollectorStatistics@@SIXPAU1@@Z 02006cb0 f   VolMgr.obj
 0001:00005cc8       ?m_StructCopy@Struct_System_RuntimeTypeHandle@@SIXPAU1@0@Z 02006cc8 f   VolMgr.obj
 0001:00005cf0       ?m_StructCopy@Struct_System_RuntimeTypeHandle@@SIXPAU1@PAU1@@Z 02006cf0 f   VolMgr.obj
 0001:00005d68       ?m_get$_Value@Struct_System_RuntimeTypeHandle@@SIPAUintPtr@@PAU1@@Z 02006d68 f   VolMgr.obj
 0001:00005d88       ?m_Equals@Struct_System_RuntimeTypeHandle@@SI_NPAU1@PAUClass_System_Object@@@Z 02006d88 f   VolMgr.obj
 0001:00005dd0       ?m_Equals@Struct_System_RuntimeTypeHandle@@SI_NPAUClass_System_RuntimeTypeHandle@@PAUClass_System_Object@@@Z 02006dd0 f   VolMgr.obj
 0001:00005dfc       ?m__ctor@Struct_System_RuntimeTypeHandle@@SIXPAU1@PAUClass_System_RuntimeType@@@Z 02006dfc f   VolMgr.obj
 0001:00005e24       ?m_StructCopy@Struct_Microsoft_Singularity_Directory_DirectoryServiceContract_NakDeleteFileReparse@@SIXPAU1@0@Z 02006e24 f   VolMgr.obj
 0001:00005e64       ?m_StructCopy@Struct_Microsoft_Singularity_Directory_DirectoryServiceContract_NakDeleteFileReparse@@SIXPAU1@PAU1@@Z 02006e64 f   VolMgr.obj
 0001:00005f24       ?m_Equals@Struct_Microsoft_Singularity_Directory_DirectoryServiceContract_NakDeleteFileReparse@@SI_NPAU1@PAUClass_System_Object@@@Z 02006f24 f   VolMgr.obj
 0001:00005f8c       ?m_Equals@Struct_Microsoft_Singularity_Directory_DirectoryServiceContract_NakDeleteFileReparse@@SI_NPAUClass_Microsoft_Singularity_Directory_DirectoryServiceContract_NakDeleteFileReparse@@PAUClass_System_Object@@@Z 02006f8c f   VolMgr.obj
 0001:00005fb8       ?m_StructCopy@Struct_Microsoft_Singularity_Directory_DirectoryServiceContract_NakDeregister@@SIXPAU1@0@Z 02006fb8 f   VolMgr.obj
 0001:00005fe0       ?m_StructCopy@Struct_Microsoft_Singularity_Directory_DirectoryServiceContract_NakDeregister@@SIXPAU1@PAU1@@Z 02006fe0 f   VolMgr.obj
 0001:00006058       ?m_Equals@Struct_Microsoft_Singularity_Directory_DirectoryServiceContract_NakDeregister@@SI_NPAU1@PAUClass_System_Object@@@Z 02007058 f   VolMgr.obj
 0001:000060f8       ?m_Equals@Struct_Microsoft_Singularity_Directory_DirectoryServiceContract_NakDeregister@@SI_NPAUClass_Microsoft_Singularity_Directory_DirectoryServiceContract_NakDeregister@@PAUClass_System_Object@@@Z 020070f8 f   VolMgr.obj
 0001:00006124       ?g_Create@Class_Microsoft_Singularity_GCProfilerLogger_GCEventSource@@SIPAU1@PAUClass_System_String@@I_K@Z 02007124 f   VolMgr.obj
 0001:000061f8       ?m__ctor@Class_Microsoft_Singularity_GCProfilerLogger_GCEventSource@@SIXPAU1@PAUClass_System_String@@PAUClass_Microsoft_Singularity_Eventing_EventingStorage@@I@Z 020071f8 f   VolMgr.obj
 0001:0000622c       ?m_StructCopy@Struct_Microsoft_Singularity_Directory_ServiceProviderContract_AckConnect@@SIXPAU1@0@Z 0200722c f   VolMgr.obj
 0001:00006248       ?m_StructCopy@Struct_Microsoft_Singularity_Directory_ServiceProviderContract_AckConnect@@SIXPAU1@PAU1@@Z 02007248 f   VolMgr.obj
 0001:0000629c       ?m_MarshallContent@Struct_Microsoft_Singularity_Directory_ServiceProviderContract_AckConnect@@SIXPAU1@PAEPAUStruct_Microsoft_Singularity_Channels_Endpoint@@1PAH@Z 0200729c f   VolMgr.obj
 0001:000062bc       ?m_MarshallAll@Struct_Microsoft_Singularity_Directory_ServiceProviderContract_AckConnect@@SIXPAU1@PAEPAUStruct_Microsoft_Singularity_Channels_Endpoint@@PAH@Z 020072bc f   VolMgr.obj
 0001:00006314       ?m_Equals@Struct_Microsoft_Singularity_Directory_ServiceProviderContract_AckConnect@@SI_NPAU1@PAUClass_System_Object@@@Z 02007314 f   VolMgr.obj
 0001:0000634c       ?m_Equals@Struct_Microsoft_Singularity_Directory_ServiceProviderContract_AckConnect@@SI_NPAUClass_Microsoft_Singularity_Directory_ServiceProviderContract_AckConnect@@PAUClass_System_Object@@@Z 0200734c f   VolMgr.obj
 0001:00006378       ?m_StructCopy@Struct_System_UpdateEnlistmentLog_Entry@@SIXPAU1@0@Z 02007378 f   VolMgr.obj
 0001:000063fc       ?m_StructCopy@Struct_System_UpdateEnlistmentLog_Entry@@SIXPAU1@PAU1@@Z 020073fc f   VolMgr.obj
 0001:00006588       ?m_Equals@Struct_System_UpdateEnlistmentLog_Entry@@SI_NPAU1@PAUClass_System_Object@@@Z 02007588 f   VolMgr.obj
 0001:00006700       ?m_Equals@Struct_System_UpdateEnlistmentLog_Entry@@SI_NPAUClass_System_UpdateEnlistmentLog_Entry@@PAUClass_System_Object@@@Z 02007700 f   VolMgr.obj
 0001:0000672c       ?m_WaitOne@Class_System_Threading_ManualResetEvent@@SI_NPAU1@@Z 0200772c f   VolMgr.obj
 0001:000067a0       ?m_WaitOne@Class_System_Threading_ManualResetEvent@@SI_NPAU1@UStruct_System_SchedulerTime@@@Z 020077a0 f   VolMgr.obj
 0001:00006828       ?m_Set@Class_System_Threading_ManualResetEvent@@SI_NPAU1@@Z 02007828 f   VolMgr.obj
 0001:00006874       ?m_Reset@Class_System_Threading_ManualResetEvent@@SIXPAU1@@Z 02007874 f   VolMgr.obj
 0001:000068ac       ?m_Finalize@Class_System_Threading_ManualResetEvent@@SIXPAU1@@Z 020078ac f   VolMgr.obj
 0001:00006910       ?m_Dispose@Class_System_Threading_ManualResetEvent@@SIXPAU1@_N@Z 02007910 f   VolMgr.obj
 0001:0000695c       ?m__ctor@Class_System_Threading_ManualResetEvent@@SIXPAU1@_N@Z 0200795c f   VolMgr.obj
 0001:000069c8       ?g_AssertNotNullImplicit@Class_Microsoft_Contracts_NonNullType@@SIXPAUuintPtr@@@Z 020079c8 f   VolMgr.obj
 0001:00006a20       ?g_AssertNotNull@Class_Microsoft_Contracts_NonNullType@@SIXPAUuintPtr@@@Z 02007a20 f   VolMgr.obj
 0001:00006a78       ?g_AssertNotNull@Class_Microsoft_Contracts_NonNullType@@SIXPAUClass_System_Object@@@Z 02007a78 f   VolMgr.obj
 0001:00006ac8       ?m__ctor@Class_Microsoft_Contracts_NonNullType@@SIXPAU1@@Z 02007ac8 f   VolMgr.obj
 0001:00006ae0       ?m_StructCopy@Struct_Microsoft_Singularity_Directory_DirectoryServiceContract_AckNotify@@SIXPAU1@0@Z 02007ae0 f   VolMgr.obj
 0001:00006afc       ?m_StructCopy@Struct_Microsoft_Singularity_Directory_DirectoryServiceContract_AckNotify@@SIXPAU1@PAU1@@Z 02007afc f   VolMgr.obj
 0001:00006b50       ?m_Equals@Struct_Microsoft_Singularity_Directory_DirectoryServiceContract_AckNotify@@SI_NPAU1@PAUClass_System_Object@@@Z 02007b50 f   VolMgr.obj
 0001:00006b88       ?m_Equals@Struct_Microsoft_Singularity_Directory_DirectoryServiceContract_AckNotify@@SI_NPAUClass_Microsoft_Singularity_Directory_DirectoryServiceContract_AckNotify@@PAUClass_System_Object@@@Z 02007b88 f   VolMgr.obj
 0001:00006bb4       ?m__ctor@Class_System_NullReferenceException@@SIXPAU1@@Z 02007bb4 f   VolMgr.obj
 0001:00006bdc       ?m__ctor@Class_System_NullReferenceException@@SIXPAU1@PAUClass_System_String@@@Z 02007bdc f   VolMgr.obj
 0001:00006c04       ?m__ctor@Class_System_NullReferenceException@@SIXPAU1@PAUClass_System_String@@PAUClass_System_Exception@@@Z 02007c04 f   VolMgr.obj
 0001:00006c34       ?m_StructCopy@Struct_Microsoft_Singularity_V1_Threads_ManualResetEventHandle@@SIXPAU1@0@Z 02007c34 f   VolMgr.obj
 0001:00006c5c       ?m_StructCopy@Struct_Microsoft_Singularity_V1_Threads_ManualResetEventHandle@@SIXPAU1@PAU1@@Z 02007c5c f   VolMgr.obj
 0001:00006cd4       ?m_Equals@Struct_Microsoft_Singularity_V1_Threads_ManualResetEventHandle@@SI_NPAU1@PAUClass_System_Object@@@Z 02007cd4 f   VolMgr.obj
 0001:00006d1c       ?m_Equals@Struct_Microsoft_Singularity_V1_Threads_ManualResetEventHandle@@SI_NPAUClass_Microsoft_Singularity_V1_Threads_ManualResetEventHandle@@PAUClass_System_Object@@@Z 02007d1c f   VolMgr.obj
 0001:00006d48       ?g_Create@Struct_Microsoft_Singularity_V1_Threads_ManualResetEventHandle@@SI_N_NPAU1@@Z 02007d48 f   VolMgr.obj
 0001:00006d94       ?m__ctor@Class_Microsoft_Singularity_Tracing@@SIXPAU1@@Z 02007d94 f   VolMgr.obj
 0001:00006db0       ?m__ctor@Class_System_OutOfMemoryException@@SIXPAU1@@Z 02007db0 f   VolMgr.obj
 0001:00006dd8       ?m__ctor@Class_System_OutOfMemoryException@@SIXPAU1@PAUClass_System_String@@@Z 02007dd8 f   VolMgr.obj
 0001:00006e00       ?m__ctor@Class_System_OutOfMemoryException@@SIXPAU1@PAUClass_System_String@@PAUClass_System_Exception@@@Z 02007e00 f   VolMgr.obj
 0001:00006e30       ?m_ZeroIfMustBeQuiescent@Struct_System_MultiUseWord_STMSnapshot@@SIIPAU1@@Z 02007e30 f   VolMgr.obj
 0001:00006e58       ?m_Visit@Struct_System_MultiUseWord_STMSnapshot@@SIXPAU1@PAUClass_System_GCs_DirectReferenceVisitor@@@Z 02007e58 f   VolMgr.obj
 0001:00007014       ?m_StructCopy@Struct_System_MultiUseWord_STMSnapshot@@SIXPAU1@0@Z 02008014 f   VolMgr.obj
 0001:0000703c       ?m_StructCopy@Struct_System_MultiUseWord_STMSnapshot@@SIXPAU1@PAU1@@Z 0200803c f   VolMgr.obj
 0001:000070b4       ?m_GetSTMWord@Struct_System_MultiUseWord_STMSnapshot@@SI?AUStruct_System_STMWord@@PAU1@@Z 020080b4 f   VolMgr.obj
 0001:00007160       ?m_Equals@Struct_System_MultiUseWord_STMSnapshot@@SI_NPAU1@PAUClass_System_Object@@@Z 02008160 f   VolMgr.obj
 0001:000071a8       ?m_Equals@Struct_System_MultiUseWord_STMSnapshot@@SI_NPAUClass_System_MultiUseWord_STMSnapshot@@PAUClass_System_Object@@@Z 020081a8 f   VolMgr.obj
 0001:000071d4       ?m_Eq@Struct_System_MultiUseWord_STMSnapshot@@SI_NPAU1@U1@@Z 020081d4 f   VolMgr.obj
 0001:00007200       ?m__ctor@Struct_System_MultiUseWord_STMSnapshot@@SIXPAU1@UStruct_System_MultiUseWord@@@Z 02008200 f   VolMgr.obj
 0001:00007228       ?m_HeadMatches@Class_SurrogateMicrosoft_Singularity_Directory_DirectoryServiceContract_Imp@@SI_NPAU1@HPA_NPAPAUClass_System_Object@@@Z 02008228 f   VolMgr.obj
 0001:0000725c       ?m_GetWaitHandle@Class_SurrogateMicrosoft_Singularity_Directory_DirectoryServiceContract_Imp@@SI?AUStruct_Microsoft_Singularity_V1_Threads_SyncHandle@@PAU1@@Z 0200825c f   VolMgr.obj
 0001:00007280       ?g__ctor@Class_SurrogateMicrosoft_Singularity_Directory_DirectoryServiceContract_Imp@@SIXPAU1@PAUStruct_Microsoft_Singularity_Directory_DirectoryServiceContract_Imp@@@Z 02008280 f   VolMgr.obj
 0001:000072a8       ?m_StructCopy@Struct_Microsoft_Singularity_Directory_DirectoryServiceContract_NakCreateLink@@SIXPAU1@0@Z 020082a8 f   VolMgr.obj
 0001:000072d0       ?m_StructCopy@Struct_Microsoft_Singularity_Directory_DirectoryServiceContract_NakCreateLink@@SIXPAU1@PAU1@@Z 020082d0 f   VolMgr.obj
 0001:00007348       ?m_Equals@Struct_Microsoft_Singularity_Directory_DirectoryServiceContract_NakCreateLink@@SI_NPAU1@PAUClass_System_Object@@@Z 02008348 f   VolMgr.obj
 0001:000073e8       ?m_Equals@Struct_Microsoft_Singularity_Directory_DirectoryServiceContract_NakCreateLink@@SI_NPAUClass_Microsoft_Singularity_Directory_DirectoryServiceContract_NakCreateLink@@PAUClass_System_Object@@@Z 020083e8 f   VolMgr.obj
 0001:00007414       ?m_StructCopy@Struct_Microsoft_Singularity_Io_DiskDeviceContract_NakRead@@SIXPAU1@0@Z 02008414 f   VolMgr.obj
 0001:00007430       ?m_StructCopy@Struct_Microsoft_Singularity_Io_DiskDeviceContract_NakRead@@SIXPAU1@PAU1@@Z 02008430 f   VolMgr.obj
 0001:00007484       ?m_Equals@Struct_Microsoft_Singularity_Io_DiskDeviceContract_NakRead@@SI_NPAU1@PAUClass_System_Object@@@Z 02008484 f   VolMgr.obj
 0001:000074bc       ?m_Equals@Struct_Microsoft_Singularity_Io_DiskDeviceContract_NakRead@@SI_NPAUClass_Microsoft_Singularity_Io_DiskDeviceContract_NakRead@@PAUClass_System_Object@@@Z 020084bc f   VolMgr.obj
 0001:000074e8       ?m_StructCopy@Struct_Microsoft_Singularity_Isal_IX_EVectors@@SIXPAU1@0@Z 020084e8 f   VolMgr.obj
 0001:00007504       ?m_StructCopy@Struct_Microsoft_Singularity_Isal_IX_EVectors@@SIXPAU1@PAU1@@Z 02008504 f   VolMgr.obj
 0001:00007558       ?m_Equals@Struct_Microsoft_Singularity_Isal_IX_EVectors@@SI_NPAU1@PAUClass_System_Object@@@Z 02008558 f   VolMgr.obj
 0001:00007590       ?m_Equals@Struct_Microsoft_Singularity_Isal_IX_EVectors@@SI_NPAUClass_Microsoft_Singularity_Isal_IX_EVectors@@PAUClass_System_Object@@@Z 02008590 f   VolMgr.obj
 0001:000075bc       ?m_StructCopy@Struct_Microsoft_Singularity_Io_VolumeManagerContract_NakRegisterDisk@@SIXPAU1@0@Z 020085bc f   VolMgr.obj
 0001:000075d8       ?m_StructCopy@Struct_Microsoft_Singularity_Io_VolumeManagerContract_NakRegisterDisk@@SIXPAU1@PAU1@@Z 020085d8 f   VolMgr.obj
 0001:0000762c       ?m_MarshallContent@Struct_Microsoft_Singularity_Io_VolumeManagerContract_NakRegisterDisk@@SIXPAU1@PAEPAUStruct_Microsoft_Singularity_Channels_Endpoint@@1PAH@Z 0200862c f   VolMgr.obj
 0001:0000764c       ?m_MarshallAll@Struct_Microsoft_Singularity_Io_VolumeManagerContract_NakRegisterDisk@@SIXPAU1@PAEPAUStruct_Microsoft_Singularity_Channels_Endpoint@@PAH@Z 0200864c f   VolMgr.obj
 0001:000076a4       ?m_Equals@Struct_Microsoft_Singularity_Io_VolumeManagerContract_NakRegisterDisk@@SI_NPAU1@PAUClass_System_Object@@@Z 020086a4 f   VolMgr.obj
 0001:000076dc       ?m_Equals@Struct_Microsoft_Singularity_Io_VolumeManagerContract_NakRegisterDisk@@SI_NPAUClass_Microsoft_Singularity_Io_VolumeManagerContract_NakRegisterDisk@@PAUClass_System_Object@@@Z 020086dc f   VolMgr.obj
 0001:00007708       ?m_StructCopy@Struct_Microsoft_Bartok_Runtime_PreHeader@@SIXPAU1@0@Z 02008708 f   VolMgr.obj
 0001:00007734       ?m_StructCopy@Struct_Microsoft_Bartok_Runtime_PreHeader@@SIXPAU1@PAU1@@Z 02008734 f   VolMgr.obj
 0001:000077b8       ?m_Equals@Struct_Microsoft_Bartok_Runtime_PreHeader@@SI_NPAU1@PAUClass_System_Object@@@Z 020087b8 f   VolMgr.obj
 0001:00007864       ?m_Equals@Struct_Microsoft_Bartok_Runtime_PreHeader@@SI_NPAUClass_Microsoft_Bartok_Runtime_PreHeader@@PAUClass_System_Object@@@Z 02008864 f   VolMgr.obj
 0001:00007890       ?g_wcslen@Class_System_Number@@SIHPAUClassVector_bartok_char@@H@Z 02008890 f   VolMgr.obj
 0001:00007904       ?g_UInt64ToDecString@Class_System_Number@@SIPAUClass_System_String@@_KH@Z 02008904 f   VolMgr.obj
 0001:00007a04       ?g_UInt32ToDecString@Class_System_Number@@SIPAUClass_System_String@@IH@Z 02008a04 f   VolMgr.obj
 0001:00007a98       ?m_ToStringFormat@Class_System_Number@@SIPAUClass_System_String@@PAU1@PAU2@@Z 02008a98 f   VolMgr.obj
 0001:0000917c       ?m_ToString@Class_System_Number@@SIPAUClass_System_String@@PAU1@_WH@Z 0200a17c f   VolMgr.obj
 0001:00009abc       ?m_RoundNumber@Class_System_Number@@SIXPAU1@H@Z 0200aabc f   VolMgr.obj
 0001:00009cc8       ?g_ParseFormatSpecifier@Class_System_Number@@SI_WPAUClass_System_String@@PAH@Z 0200acc8 f   VolMgr.obj
 0001:00009e6c       ?g_NumberToDouble@Class_System_Number@@SIXPAU1@PAN@Z 0200ae6c f   VolMgr.obj
 0001:0000a120       ?g_LO32@Class_System_Number@@SII_K@Z 0200b120 f   VolMgr.obj
 0001:0000a138       ?g_Int64ToHexString@Class_System_Number@@SIPAUClass_System_String@@_K_WH@Z 0200b138 f   VolMgr.obj
 0001:0000a1c8       ?g_Int64ToHexChars@Class_System_Number@@SIHPAUClassVector_bartok_char@@H_K_WH@Z 0200b1c8 f   VolMgr.obj
 0001:0000a28c       ?g_Int64ToDecString@Class_System_Number@@SIPAUClass_System_String@@_JHPAU2@@Z 0200b28c f   VolMgr.obj
 0001:0000a47c       ?g_Int64ToDecChars@Class_System_Number@@SIXPAUClassVector_bartok_char@@PAH_KH@Z 0200b47c f   VolMgr.obj
 0001:0000a52c       ?g_Int64DivMod1E9@Class_System_Number@@SI_K_KPAI@Z 0200b52c f   VolMgr.obj
 0001:0000a588       ?g_Int32ToHexString@Class_System_Number@@SIPAUClass_System_String@@I_WH@Z 0200b588 f   VolMgr.obj
 0001:0000a614       ?g_Int32ToHexChars@Class_System_Number@@SIHPAUClassVector_bartok_char@@HI_WH@Z 0200b614 f   VolMgr.obj
 0001:0000a6b4       ?g_Int32ToDecString@Class_System_Number@@SIPAUClass_System_String@@HHPAU2@@Z 0200b6b4 f   VolMgr.obj
 0001:0000a810       ?g_Int32ToDecChars@Class_System_Number@@SIXPAUClassVector_bartok_char@@PAHIH@Z 0200b810 f   VolMgr.obj
 0001:0000a8a4       ?g_HI32@Class_System_Number@@SII_K@Z 0200b8a4 f   VolMgr.obj
 0001:0000a8c8       ?g_Get@Class_System_Number@@SI_WPAUClass_System_String@@H@Z 0200b8c8 f   VolMgr.obj
 0001:0000a910       ?g_FPNumberToString@Class_System_Number@@SIPAUClass_System_String@@PAU1@PAU2@@Z 0200b910 f   VolMgr.obj
 0001:0000aa00       ?g_FormatUInt64@Class_System_Number@@SIPAUClass_System_String@@_KPAU2@@Z 0200ba00 f   VolMgr.obj
 0001:0000ab14       ?g_FormatUInt32@Class_System_Number@@SIPAUClass_System_String@@IPAU2@@Z 0200bb14 f   VolMgr.obj
 0001:0000ac18       ?g_FormatSingle@Class_System_Number@@SIPAUClass_System_String@@MPAU2@@Z 0200bc18 f   VolMgr.obj
 0001:0000aea4       ?m_FormatScientific@Class_System_Number@@SIHPAU1@PAUClassVector_bartok_char@@HH_W@Z 0200bea4 f   VolMgr.obj
 0001:0000b06c       ?m_FormatPercent@Class_System_Number@@SIHPAU1@PAUClassVector_bartok_char@@HH@Z 0200c06c f   VolMgr.obj
 0001:0000b238       ?m_FormatNumber@Class_System_Number@@SIHPAU1@PAUClassVector_bartok_char@@HH@Z 0200c238 f   VolMgr.obj
 0001:0000b3cc       ?g_FormatInt64@Class_System_Number@@SIPAUClass_System_String@@_JPAU2@@Z 0200c3cc f   VolMgr.obj
 0001:0000b504       ?g_FormatInt32@Class_System_Number@@SIPAUClass_System_String@@HPAU2@@Z 0200c504 f   VolMgr.obj
 0001:0000b62c       ?m_FormatGeneral@Class_System_Number@@SIHPAU1@PAUClassVector_bartok_char@@HH_W@Z 0200c62c f   VolMgr.obj
 0001:0000b8d4       ?m_FormatFixed@Class_System_Number@@SIHPAU1@PAUClassVector_bartok_char@@HHPAUClassVector_int32@@PAUClass_System_String@@3@Z 0200c8d4 f   VolMgr.obj
 0001:0000be54       ?m_FormatExponent@Class_System_Number@@SIHPAU1@PAUClassVector_bartok_char@@HH_WPAUClass_System_String@@3H@Z 0200ce54 f   VolMgr.obj
 0001:0000bfac       ?g_FormatDouble@Class_System_Number@@SIPAUClass_System_String@@NPAU2@@Z 0200cfac f   VolMgr.obj
 0001:0000c1e8       ?g_FormatDecimal@Class_System_Number@@SIPAUClass_System_String@@UStruct_System_Decimal@@PAU2@@Z 0200d1e8 f   VolMgr.obj
 0001:0000c280       ?g_FindSection@Class_System_Number@@SIHPAUClass_System_String@@H@Z 0200d280 f   VolMgr.obj
 0001:0000c3d4       ?m_DecDivMod1E9@Class_System_Number@@SIIPAU1@PAUStruct_System_Decimal@@@Z 0200d3d4 f   VolMgr.obj
 0001:0000c4ac       ?m_D32DivMod1E9@Class_System_Number@@SIIPAU1@IIPAI@Z 0200d4ac f   VolMgr.obj
 0001:0000c528       ?g_AddStringRef@Class_System_Number@@SIHPAUClassVector_bartok_char@@HPAUClass_System_String@@@Z 0200d528 f   VolMgr.obj
 0001:0000c5c0       ?m__ctor@Class_System_Number@@SIXPAU1@@Z 0200d5c0 f   VolMgr.obj
 0001:0000c5f0       ?m__ctor@Class_System_Number@@SIXPAU1@_K@Z 0200d5f0 f   VolMgr.obj
 0001:0000c700       ?m__ctor@Class_System_Number@@SIXPAU1@I@Z 0200d700 f   VolMgr.obj
 0001:0000c80c       ?m__ctor@Class_System_Number@@SIXPAU1@PAUStruct_System_Decimal@@@Z 0200d80c f   VolMgr.obj
 0001:0000c99c       ?m__ctor@Class_System_Number@@SIXPAU1@_J@Z 0200d99c f   VolMgr.obj
 0001:0000cafc       ?m__ctor@Class_System_Number@@SIXPAU1@H@Z 0200dafc f   VolMgr.obj
 0001:0000cc28       ?m__ctor@Class_System_Number@@SIXPAU1@NH@Z 0200dc28 f   VolMgr.obj
 0001:0000cc8c       ?g__cctor@Class_System_Number@@SIXXZ 0200dc8c f   VolMgr.obj
 0001:0000cdc8       ?m_StructCopy@Struct_Microsoft_Singularity_Directory_DirectoryServiceContract_Notify@@SIXPAU1@0@Z 0200ddc8 f   VolMgr.obj
 0001:0000ce14       ?m_StructCopy@Struct_Microsoft_Singularity_Directory_DirectoryServiceContract_Notify@@SIXPAU1@PAU1@@Z 0200de14 f   VolMgr.obj
 0001:0000cef8       ?m_MarshallContent@Struct_Microsoft_Singularity_Directory_DirectoryServiceContract_Notify@@SIXPAU1@PAEPAUStruct_Microsoft_Singularity_Channels_Endpoint@@1PAH@Z 0200def8 f   VolMgr.obj
 0001:0000d0c8       ?m_MarshallAll@Struct_Microsoft_Singularity_Directory_DirectoryServiceContract_Notify@@SIXPAU1@PAEPAUStruct_Microsoft_Singularity_Channels_Endpoint@@PAH@Z 0200e0c8 f   VolMgr.obj
 0001:0000d120       ?m_Equals@Struct_Microsoft_Singularity_Directory_DirectoryServiceContract_Notify@@SI_NPAU1@PAUClass_System_Object@@@Z 0200e120 f   VolMgr.obj
 0001:0000d198       ?m_Equals@Struct_Microsoft_Singularity_Directory_DirectoryServiceContract_Notify@@SI_NPAUClass_Microsoft_Singularity_Directory_DirectoryServiceContract_Notify@@PAUClass_System_Object@@@Z 0200e198 f   VolMgr.obj
 0001:0000d1c4       ?m_StructCopy@Struct_Microsoft_Singularity_Io_DiskDeviceContract_NoOp@@SIXPAU1@0@Z 0200e1c4 f   VolMgr.obj
 0001:0000d1e0       ?m_StructCopy@Struct_Microsoft_Singularity_Io_DiskDeviceContract_NoOp@@SIXPAU1@PAU1@@Z 0200e1e0 f   VolMgr.obj
 0001:0000d234       ?m_Equals@Struct_Microsoft_Singularity_Io_DiskDeviceContract_NoOp@@SI_NPAU1@PAUClass_System_Object@@@Z 0200e234 f   VolMgr.obj
 0001:0000d26c       ?m_Equals@Struct_Microsoft_Singularity_Io_DiskDeviceContract_NoOp@@SI_NPAUClass_Microsoft_Singularity_Io_DiskDeviceContract_NoOp@@PAUClass_System_Object@@@Z 0200e26c f   VolMgr.obj
 0001:0000d298       ?m_StructCopy@Struct_Microsoft_Singularity_Directory_ServiceProviderContract_Connect@@SIXPAU1@0@Z 0200e298 f   VolMgr.obj
 0001:0000d2c0       ?m_StructCopy@Struct_Microsoft_Singularity_Directory_ServiceProviderContract_Connect@@SIXPAU1@PAU1@@Z 0200e2c0 f   VolMgr.obj
 0001:0000d338       ?m_Equals@Struct_Microsoft_Singularity_Directory_ServiceProviderContract_Connect@@SI_NPAU1@PAUClass_System_Object@@@Z 0200e338 f   VolMgr.obj
 0001:0000d380       ?m_Equals@Struct_Microsoft_Singularity_Directory_ServiceProviderContract_Connect@@SI_NPAUClass_Microsoft_Singularity_Directory_ServiceProviderContract_Connect@@PAUClass_System_Object@@@Z 0200e380 f   VolMgr.obj
 0001:0000d3ac       ?m_ToString@Class_Microsoft_Singularity_Io_IoPort@@SIPAUClass_System_String@@PAU1@@Z 0200e3ac f   VolMgr.obj
 0001:0000d430       ?m_TryEnter@Class_System_Threading_Monitor@@SI_NPAU1@@Z 0200e430 f   VolMgr.obj
 0001:0000d4a0       ?m_TryEnter@Class_System_Threading_Monitor@@SI_NPAU1@UStruct_System_SchedulerTime@@@Z 0200e4a0 f   VolMgr.obj
 0001:0000d51c       ?g_TryEnter@Class_System_Threading_Monitor@@SI_NPAUClass_System_Object@@@Z 0200e51c f   VolMgr.obj
 0001:0000d558       ?m_IsInUse@Class_System_Threading_Monitor@@SI_NPAU1@@Z 0200e558 f   VolMgr.obj
 0001:0000d574       ?g_GetMonitorFromObject@Class_System_Threading_Monitor@@SIPAU1@PAUClass_System_Object@@@Z 0200e574 f   VolMgr.obj
 0001:0000d5f0       ?g_FromAddress@Class_System_Threading_Monitor@@SIPAU1@PAUuintPtr@@@Z 0200e5f0 f   VolMgr.obj
 0001:0000d60c       ?g_ExitImpl@Class_System_Threading_Monitor@@SIXPAUClass_System_Object@@@Z 0200e60c f   VolMgr.obj
 0001:0000d648       ?m_Exit@Class_System_Threading_Monitor@@SIXPAU1@@Z 0200e648 f   VolMgr.obj
 0001:0000d6c0       ?g_EnterImpl@Class_System_Threading_Monitor@@SIXPAUClass_System_Object@@@Z 0200e6c0 f   VolMgr.obj
 0001:0000d6fc       ?m_Enter@Class_System_Threading_Monitor@@SIXPAU1@@Z 0200e6fc f   VolMgr.obj
 0001:0000d75c       ?m__ctor@Class_System_Threading_Monitor@@SIXPAU1@@Z 0200e75c f   VolMgr.obj
 0001:0000d7b0       ?m__ctor@Class_System_ReadEnlistmentLog_LogChunk@@SIXPAU1@PAUClassVector_Struct_System_ReadEnlistmentLog_Entry@@0@Z 0200e7b0 f   VolMgr.obj
 0001:0000d7e4       ?m_StructCopy@Struct_Microsoft_Singularity_Io_DiskDeviceContract_GetStartSector@@SIXPAU1@0@Z 0200e7e4 f   VolMgr.obj
 0001:0000d800       ?m_StructCopy@Struct_Microsoft_Singularity_Io_DiskDeviceContract_GetStartSector@@SIXPAU1@PAU1@@Z 0200e800 f   VolMgr.obj
 0001:0000d854       ?m_Equals@Struct_Microsoft_Singularity_Io_DiskDeviceContract_GetStartSector@@SI_NPAU1@PAUClass_System_Object@@@Z 0200e854 f   VolMgr.obj
 0001:0000d88c       ?m_Equals@Struct_Microsoft_Singularity_Io_DiskDeviceContract_GetStartSector@@SI_NPAUClass_Microsoft_Singularity_Io_DiskDeviceContract_GetStartSector@@PAUClass_System_Object@@@Z 0200e88c f   VolMgr.obj
 0001:0000d8b8       ?m_ToString@bool@@SIPAUClass_System_String@@PA_N@Z 0200e8b8 f   VolMgr.obj
 0001:0000d8e8       ?m_ToString@bool@@SIPAUClass_System_String@@PAUClass_System_Boolean@@@Z 0200e8e8 f   VolMgr.obj
 0001:0000d930       ?m_GetHashCode@bool@@SIHPA_N@Z 0200e930 f   VolMgr.obj
 0001:0000d964       ?m_GetHashCode@bool@@SIHPAUClass_System_Boolean@@@Z 0200e964 f   VolMgr.obj
 0001:0000d9ac       ?m_Equals@bool@@SI_NPA_NPAUClass_System_Object@@@Z 0200e9ac f   VolMgr.obj
 0001:0000da0c       ?m_Equals@bool@@SI_NPAUClass_System_Boolean@@PAUClass_System_Object@@@Z 0200ea0c f   VolMgr.obj
 0001:0000da58       ?m_CompareTo@bool@@SIHPA_NPAUClass_System_Object@@@Z 0200ea58 f   VolMgr.obj
 0001:0000db00       ?m_CompareTo@bool@@SIHPAUClass_System_Boolean@@PAUClass_System_Object@@@Z 0200eb00 f   VolMgr.obj
 0001:0000db4c       ?g__cctor@bool@@SIXXZ      0200eb4c f   VolMgr.obj
 0001:0000db60       ?m_StructCopy@Struct_Microsoft_Singularity_V1_Services_ProcessService@@SIXPAU1@0@Z 0200eb60 f   VolMgr.obj
 0001:0000db7c       ?m_StructCopy@Struct_Microsoft_Singularity_V1_Services_ProcessService@@SIXPAU1@PAU1@@Z 0200eb7c f   VolMgr.obj
 0001:0000dbd0       ?g_GetSharedSourceHandles@Struct_Microsoft_Singularity_V1_Services_ProcessService@@SI_NIPAPAUuintPtr@@00@Z 0200ebd0 f   VolMgr.obj
 0001:0000dc54       ?m_Equals@Struct_Microsoft_Singularity_V1_Services_ProcessService@@SI_NPAU1@PAUClass_System_Object@@@Z 0200ec54 f   VolMgr.obj
 0001:0000dc8c       ?m_Equals@Struct_Microsoft_Singularity_V1_Services_ProcessService@@SI_NPAUClass_Microsoft_Singularity_V1_Services_ProcessService@@PAUClass_System_Object@@@Z 0200ec8c f   VolMgr.obj
 0001:0000dcb8       ?m_Visit@Struct_System_MultiUseWord_STMHandle@@SI_NPAU1@PAUClass_System_GCs_DirectReferenceVisitor@@@Z 0200ecb8 f   VolMgr.obj
 0001:0000dd0c       ?m_StructCopy@Struct_System_MultiUseWord_STMHandle@@SIXPAU1@0@Z 0200ed0c f   VolMgr.obj
 0001:0000dd34       ?m_StructCopy@Struct_System_MultiUseWord_STMHandle@@SIXPAU1@PAU1@@Z 0200ed34 f   VolMgr.obj
 0001:0000ddac       ?m_SetSTMWordAtGC@Struct_System_MultiUseWord_STMHandle@@SIXPAU1@PAUClass_System_GCs_DirectReferenceVisitor@@UStruct_System_STMWord@@@Z 0200edac f   VolMgr.obj
 0001:0000dea4       ?m_SetMark@Struct_System_MultiUseWord_STMHandle@@SIXPAU1@_N@Z 0200eea4 f   VolMgr.obj
 0001:0000df38       ?m_IsMarked@Struct_System_MultiUseWord_STMHandle@@SI_NPAU1@@Z 0200ef38 f   VolMgr.obj
 0001:0000df7c       ?m_GetSTMSnapshot@Struct_System_MultiUseWord_STMHandle@@SI?AUStruct_System_MultiUseWord_STMSnapshot@@PAU1@@Z 0200ef7c f   VolMgr.obj
 0001:0000dfc8       ?m_Equals@Struct_System_MultiUseWord_STMHandle@@SI_NPAU1@PAUClass_System_Object@@@Z 0200efc8 f   VolMgr.obj
 0001:0000e010       ?m_Equals@Struct_System_MultiUseWord_STMHandle@@SI_NPAUClass_System_MultiUseWord_STMHandle@@PAUClass_System_Object@@@Z 0200f010 f   VolMgr.obj
 0001:0000e03c       ?m_Visit@Class_System_GCs_MemoryAccounting_ManagedPtrAccounting@@SIXPAU1@PAPAUuintPtr@@@Z 0200f03c f   VolMgr.obj
 0001:0000e058       ?m_Initialize@Class_System_GCs_MemoryAccounting_ManagedPtrAccounting@@SIXPAU1@@Z 0200f058 f   VolMgr.obj
 0001:0000e070       ?m__ctor@Class_System_GCs_MemoryAccounting_ManagedPtrAccounting@@SIXPAU1@@Z 0200f070 f   VolMgr.obj
 0001:0000e088       ?m_StructCopy@Struct_Microsoft_Singularity_Directory_DirectoryServiceContract_NakStoreACL@@SIXPAU1@0@Z 0200f088 f   VolMgr.obj
 0001:0000e0b0       ?m_StructCopy@Struct_Microsoft_Singularity_Directory_DirectoryServiceContract_NakStoreACL@@SIXPAU1@PAU1@@Z 0200f0b0 f   VolMgr.obj
 0001:0000e128       ?m_Equals@Struct_Microsoft_Singularity_Directory_DirectoryServiceContract_NakStoreACL@@SI_NPAU1@PAUClass_System_Object@@@Z 0200f128 f   VolMgr.obj
 0001:0000e1c8       ?m_Equals@Struct_Microsoft_Singularity_Directory_DirectoryServiceContract_NakStoreACL@@SI_NPAUClass_Microsoft_Singularity_Directory_DirectoryServiceContract_NakStoreACL@@PAUClass_System_Object@@@Z 0200f1c8 f   VolMgr.obj
 0001:0000e1f4       ?m_StructCopy@Struct_Microsoft_Singularity_Directory_DirectoryServiceContract_AckGetLinkValue@@SIXPAU1@0@Z 0200f1f4 f   VolMgr.obj
 0001:0000e21c       ?m_StructCopy@Struct_Microsoft_Singularity_Directory_DirectoryServiceContract_AckGetLinkValue@@SIXPAU1@PAU1@@Z 0200f21c f   VolMgr.obj
 0001:0000e294       ?m_Equals@Struct_Microsoft_Singularity_Directory_DirectoryServiceContract_AckGetLinkValue@@SI_NPAU1@PAUClass_System_Object@@@Z 0200f294 f   VolMgr.obj
 0001:0000e2dc       ?m_Equals@Struct_Microsoft_Singularity_Directory_DirectoryServiceContract_AckGetLinkValue@@SI_NPAUClass_Microsoft_Singularity_Directory_DirectoryServiceContract_AckGetLinkValue@@PAUClass_System_Object@@@Z 0200f2dc f   VolMgr.obj
 0001:0000e308       ?m_ToString@Class_System_Version@@SIPAUClass_System_String@@PAU1@@Z 0200f308 f   VolMgr.obj
 0001:0000e364       ?m_ToString@Class_System_Version@@SIPAUClass_System_String@@PAU1@H@Z 0200f364 f   VolMgr.obj
 0001:0000e6e4       ?m_GetHashCode@Class_System_Version@@SIHPAU1@@Z 0200f6e4 f   VolMgr.obj
 0001:0000e768       ?m_get$_Major@Class_System_Version@@SIHPAU1@@Z 0200f768 f   VolMgr.obj
 0001:0000e788       ?m_Equals@Class_System_Version@@SI_NPAU1@PAUClass_System_Object@@@Z 0200f788 f   VolMgr.obj
 0001:0000e848       ?m_CompareTo@Class_System_Version@@SIHPAU1@PAUClass_System_Object@@@Z 0200f848 f   VolMgr.obj
 0001:0000e95c       ?m__ctor@Class_System_Version@@SIXPAU1@@Z 0200f95c f   VolMgr.obj
 0001:0000e9a0       ?m_StructCopy@Struct_Microsoft_Singularity_Directory_DirectoryServiceContract_NakQueryACLReparse@@SIXPAU1@0@Z 0200f9a0 f   VolMgr.obj
 0001:0000e9e0       ?m_StructCopy@Struct_Microsoft_Singularity_Directory_DirectoryServiceContract_NakQueryACLReparse@@SIXPAU1@PAU1@@Z 0200f9e0 f   VolMgr.obj
 0001:0000eaa0       ?m_Equals@Struct_Microsoft_Singularity_Directory_DirectoryServiceContract_NakQueryACLReparse@@SI_NPAU1@PAUClass_System_Object@@@Z 0200faa0 f   VolMgr.obj
 0001:0000eb08       ?m_Equals@Struct_Microsoft_Singularity_Directory_DirectoryServiceContract_NakQueryACLReparse@@SI_NPAUClass_Microsoft_Singularity_Directory_DirectoryServiceContract_NakQueryACLReparse@@PAUClass_System_Object@@@Z 0200fb08 f   VolMgr.obj
 0001:0000eb34       ?m_StructCopy@Struct_Microsoft_Singularity_Directory_FileContract_Exp@@SIXPAU1@0@Z 0200fb34 f   VolMgr.obj
 0001:0000ec34       ?m_StructCopy@Struct_Microsoft_Singularity_Directory_FileContract_Exp@@SIXPAU1@PAU1@@Z 0200fc34 f   VolMgr.obj
 0001:0000ef34       ?m_Peek@Struct_Microsoft_Singularity_Directory_FileContract_Exp@@SIHPAU1@@Z 0200ff34 f   VolMgr.obj
 0001:0000f1c8       ?m_HeadMatches@Struct_Microsoft_Singularity_Directory_FileContract_Exp@@SI_NPAU1@HPA_NPAPAUClass_System_Object@@@Z 020101c8 f   VolMgr.obj
 0001:0000f288       ?m_HeadMatches@Struct_Microsoft_Singularity_Directory_FileContract_Exp@@SI_NPAUClass_Microsoft_Singularity_Directory_FileContract_Exp@@HPA_NPAPAUClass_System_Object@@@Z 02010288 f   VolMgr.obj
 0001:0000f2c0       ?m_Equals@Struct_Microsoft_Singularity_Directory_FileContract_Exp@@SI_NPAU1@PAUClass_System_Object@@@Z 020102c0 f   VolMgr.obj
 0001:0000f6a0       ?m_Equals@Struct_Microsoft_Singularity_Directory_FileContract_Exp@@SI_NPAUClass_Microsoft_Singularity_Directory_FileContract_Exp@@PAUClass_System_Object@@@Z 020106a0 f   VolMgr.obj
 0001:0000f6cc       ?m__ctor@Class_System_Runtime_CompilerServices_InlineAttribute@@SIXPAU1@@Z 020106cc f   VolMgr.obj
 0001:0000f6f0       ?g_InitializeQuerySystem@Class_Microsoft_Singularity_Eventing_QuerySession@@SI_NXZ 020106f0 f   VolMgr.obj
 0001:0000f790       ?m__ctor@Class_Microsoft_Singularity_Eventing_QuerySession@@SIXPAU1@@Z 02010790 f   VolMgr.obj
 0001:0000f7c0       ?g__cctor@Class_Microsoft_Singularity_Eventing_QuerySession@@SIXXZ 020107c0 f   VolMgr.obj
 0001:0000f7d4       ?m__ctor@Class_System_Runtime_CompilerServices_CalledRarelyAttribute@@SIXPAU1@@Z 020107d4 f   VolMgr.obj
 0001:0000f7f8       ?m_StructCopy@Struct_Microsoft_Singularity_Io_DiskDeviceContract_ReadPerf@@SIXPAU1@0@Z 020107f8 f   VolMgr.obj
 0001:0000f82c       ?m_StructCopy@Struct_Microsoft_Singularity_Io_DiskDeviceContract_ReadPerf@@SIXPAU1@PAU1@@Z 0201082c f   VolMgr.obj
 0001:0000f8c8       ?m_Equals@Struct_Microsoft_Singularity_Io_DiskDeviceContract_ReadPerf@@SI_NPAU1@PAUClass_System_Object@@@Z 020108c8 f   VolMgr.obj
 0001:0000f924       ?m_Equals@Struct_Microsoft_Singularity_Io_DiskDeviceContract_ReadPerf@@SI_NPAUClass_Microsoft_Singularity_Io_DiskDeviceContract_ReadPerf@@PAUClass_System_Object@@@Z 02010924 f   VolMgr.obj
 0001:0000f950       ?g_VerifyPages@Class_System_GCs_Verifier@@SIXPAUClass_System_GCs_ObjectLayout_ObjectVisitor@@@Z 02010950 f   VolMgr.obj
 0001:0000fd74       ?m_VerifyHeap@Class_System_GCs_Verifier@@SIXPAU1@@Z 02010d74 f   VolMgr.obj
 0001:0001001c       ?g_VerifyAllThreadsGCControlled@Class_System_GCs_Verifier@@SIXPAUClass_System_Threading_Thread@@@Z 0201101c f   VolMgr.obj
 0001:000100a4       ?m__ctor@Class_System_GCs_Verifier@@SIXPAU1@PAUClass_System_GCs_NonNullReferenceVisitor@@1PAUClass_System_GCs_ObjectLayout_ObjectVisitor@@PAUClass_System_GCs_Verifier_StackVerifier@@@Z 020110a4 f   VolMgr.obj
 0001:000100e8       ?g__cctor@Class_System_GCs_Verifier@@SIXXZ 020110e8 f   VolMgr.obj
 0001:0001020c       ?m_StructCopy@Struct_Microsoft_Singularity_Directory_DirectoryServiceContract_AckDeleteLink@@SIXPAU1@0@Z 0201120c f   VolMgr.obj
 0001:00010228       ?m_StructCopy@Struct_Microsoft_Singularity_Directory_DirectoryServiceContract_AckDeleteLink@@SIXPAU1@PAU1@@Z 02011228 f   VolMgr.obj
 0001:0001027c       ?m_Equals@Struct_Microsoft_Singularity_Directory_DirectoryServiceContract_AckDeleteLink@@SI_NPAU1@PAUClass_System_Object@@@Z 0201127c f   VolMgr.obj
 0001:000102b4       ?m_Equals@Struct_Microsoft_Singularity_Directory_DirectoryServiceContract_AckDeleteLink@@SI_NPAUClass_Microsoft_Singularity_Directory_DirectoryServiceContract_AckDeleteLink@@PAUClass_System_Object@@@Z 020112b4 f   VolMgr.obj
 0001:000102e0       ?m_StructCopy@Struct_System_UpdateLogWriter@@SIXPAU1@0@Z 020112e0 f   VolMgr.obj
 0001:00010314       ?m_StructCopy@Struct_System_UpdateLogWriter@@SIXPAU1@PAU1@@Z 02011314 f   VolMgr.obj
 0001:000103b0       ?m_Equals@Struct_System_UpdateLogWriter@@SI_NPAU1@PAUClass_System_Object@@@Z 020113b0 f   VolMgr.obj
 0001:0001040c       ?m_Equals@Struct_System_UpdateLogWriter@@SI_NPAUClass_System_UpdateLogWriter@@PAUClass_System_Object@@@Z 0201140c f   VolMgr.obj
 0001:00010438       ?m_ToString@uint8@@SIPAUClass_System_String@@PAE@Z 02011438 f   VolMgr.obj
 0001:00010484       ?m_ToString@uint8@@SIPAUClass_System_String@@PAEPAU2@@Z 02011484 f   VolMgr.obj
 0001:000104d0       ?m_ToString@uint8@@SIPAUClass_System_String@@PAUClass_System_Byte@@@Z 020114d0 f   VolMgr.obj
 0001:000104f8       ?m_ToString@uint8@@SIPAUClass_System_String@@PAUClass_System_Byte@@PAU2@@Z 020114f8 f   VolMgr.obj
 0001:00010524       ?m_GetHashCode@uint8@@SIHPAE@Z 02011524 f   VolMgr.obj
 0001:00010548       ?m_GetHashCode@uint8@@SIHPAUClass_System_Byte@@@Z 02011548 f   VolMgr.obj
 0001:00010570       ?m_Equals@uint8@@SI_NPAEPAUClass_System_Object@@@Z 02011570 f   VolMgr.obj
 0001:000105d0       ?m_Equals@uint8@@SI_NPAUClass_System_Byte@@PAUClass_System_Object@@@Z 020115d0 f   VolMgr.obj
 0001:000105fc       ?m_CompareTo@uint8@@SIHPAEPAUClass_System_Object@@@Z 020115fc f   VolMgr.obj
 0001:00010688       ?m_CompareTo@uint8@@SIHPAUClass_System_Byte@@PAUClass_System_Object@@@Z 02011688 f   VolMgr.obj
 0001:000106b4       ?m_StructCopy@Struct_Microsoft_Singularity_Directory_DirectoryServiceContract_GetAttributes@@SIXPAU1@0@Z 020116b4 f   VolMgr.obj
 0001:000106dc       ?m_StructCopy@Struct_Microsoft_Singularity_Directory_DirectoryServiceContract_GetAttributes@@SIXPAU1@PAU1@@Z 020116dc f   VolMgr.obj
 0001:00010754       ?m_Equals@Struct_Microsoft_Singularity_Directory_DirectoryServiceContract_GetAttributes@@SI_NPAU1@PAUClass_System_Object@@@Z 02011754 f   VolMgr.obj
 0001:0001079c       ?m_Equals@Struct_Microsoft_Singularity_Directory_DirectoryServiceContract_GetAttributes@@SI_NPAUClass_Microsoft_Singularity_Directory_DirectoryServiceContract_GetAttributes@@PAUClass_System_Object@@@Z 0201179c f   VolMgr.obj
 0001:000107c8       ?m_StructCopy@Struct_Microsoft_Singularity_Directory_DirectoryServiceContract_DeleteFile@@SIXPAU1@0@Z 020117c8 f   VolMgr.obj
 0001:000107f0       ?m_StructCopy@Struct_Microsoft_Singularity_Directory_DirectoryServiceContract_DeleteFile@@SIXPAU1@PAU1@@Z 020117f0 f   VolMgr.obj
 0001:00010868       ?m_Equals@Struct_Microsoft_Singularity_Directory_DirectoryServiceContract_DeleteFile@@SI_NPAU1@PAUClass_System_Object@@@Z 02011868 f   VolMgr.obj
 0001:000108b0       ?m_Equals@Struct_Microsoft_Singularity_Directory_DirectoryServiceContract_DeleteFile@@SI_NPAUClass_Microsoft_Singularity_Directory_DirectoryServiceContract_DeleteFile@@PAUClass_System_Object@@@Z 020118b0 f   VolMgr.obj
 0001:000108dc       ?g_WaitForPending@Struct_System_Finalizer@@SIXXZ 020118dc f   VolMgr.obj
 0001:0001090c       ?g_VisitBootstrapData@Struct_System_Finalizer@@SIXPAUClass_System_GCs_DirectReferenceVisitor@@@Z 0201190c f   VolMgr.obj
 0001:00010974       ?g_VisitAllRunFinalizer@Struct_System_Finalizer@@SIXPAUClass_System_GCs_DirectReferenceVisitor@@_N1@Z 02011974 f   VolMgr.obj
 0001:00010aec       ?g_ThreadLoop@Struct_System_Finalizer@@SIXXZ 02011aec f   VolMgr.obj
 0001:00010b88       ?g_SuppressCandidate@Struct_System_Finalizer@@SIXPAUClass_System_Object@@@Z 02011b88 f   VolMgr.obj
 0001:00010d64       ?m_StructCopy@Struct_System_Finalizer@@SIXPAU1@0@Z 02011d64 f   VolMgr.obj
 0001:00010d80       ?m_StructCopy@Struct_System_Finalizer@@SIXPAU1@PAU1@@Z 02011d80 f   VolMgr.obj
 0001:00010dd4       ?g_StartFinalizerThread@Struct_System_Finalizer@@SIXXZ 02011dd4 f   VolMgr.obj
 0001:00010eb4       ?g_Shutdown@Struct_System_Finalizer@@SIXXZ 02011eb4 f   VolMgr.obj
 0001:00011028       ?g_ResurrectCandidates@Struct_System_Finalizer@@SIXPAUClass_System_GCs_DirectReferenceVisitor@@0_N@Z 02012028 f   VolMgr.obj
 0001:000115c8       ?g_ReleaseCollectFinalizers@Struct_System_Finalizer@@SIXXZ 020125c8 f   VolMgr.obj
 0001:00011610       ?g_RegisterCandidate@Struct_System_Finalizer@@SIXPAUClass_System_Object@@@Z 02012610 f   VolMgr.obj
 0001:000119d4       ?g_PrepareCollectFinalizers@Struct_System_Finalizer@@SIXXZ 020129d4 f   VolMgr.obj
 0001:00011ac0       ?g_LinkToIndex@Struct_System_Finalizer@@SIHH@Z 02012ac0 f   VolMgr.obj
 0001:00011af0       ?g_IsLink@Struct_System_Finalizer@@SI_NH@Z 02012af0 f   VolMgr.obj
 0001:00011b18       ?g_IndexToLink@Struct_System_Finalizer@@SIHH@Z 02012b18 f   VolMgr.obj
 0001:00011b3c       ?g_GetObjectFromRun@Struct_System_Finalizer@@SIPAUClass_System_Object@@XZ 02012b3c f   VolMgr.obj
 0001:00011cd8       ?m_Equals@Struct_System_Finalizer@@SI_NPAU1@PAUClass_System_Object@@@Z 02012cd8 f   VolMgr.obj
 0001:00011d10       ?m_Equals@Struct_System_Finalizer@@SI_NPAUClass_System_Finalizer@@PAUClass_System_Object@@@Z 02012d10 f   VolMgr.obj
 0001:00011d3c       ?g_CompactTables@Struct_System_Finalizer@@SIXXZ 02012d3c f   VolMgr.obj
 0001:00011d50       ?g__cctor@Struct_System_Finalizer@@SIXXZ 02012d50 f   VolMgr.obj
 0001:00011ee4       ?g_StableState@Class_Microsoft_Singularity_Directory_NotifyContract@@SIHPAUStruct_Microsoft_Singularity_Channels_StateStack@@@Z 02012ee4 f   VolMgr.obj
 0001:00011f40       ?g_NewChannel@Class_Microsoft_Singularity_Directory_NotifyContract@@SIXPAPAUStruct_Microsoft_Singularity_Directory_NotifyContract_Imp@@PAPAUStruct_Microsoft_Singularity_Directory_NotifyContract_Exp@@@Z 02012f40 f   VolMgr.obj
 0001:00011fdc       ?g_CanonicalState@Class_Microsoft_Singularity_Directory_NotifyContract@@SIHH@Z 02012fdc f   VolMgr.obj
 0001:00012024       ?m__ctor@Class_Microsoft_Singularity_Directory_NotifyContract@@SIXPAU1@@Z 02013024 f   VolMgr.obj
 0001:0001203c       ?m_StructCopy@Struct_Microsoft_Singularity_Directory_DirectoryServiceContract_AckDeregister@@SIXPAU1@0@Z 0201303c f   VolMgr.obj
 0001:00012064       ?m_StructCopy@Struct_Microsoft_Singularity_Directory_DirectoryServiceContract_AckDeregister@@SIXPAU1@PAU1@@Z 02013064 f   VolMgr.obj
 0001:000120dc       ?m_Equals@Struct_Microsoft_Singularity_Directory_DirectoryServiceContract_AckDeregister@@SI_NPAU1@PAUClass_System_Object@@@Z 020130dc f   VolMgr.obj
 0001:00012124       ?m_Equals@Struct_Microsoft_Singularity_Directory_DirectoryServiceContract_AckDeregister@@SI_NPAUClass_Microsoft_Singularity_Directory_DirectoryServiceContract_AckDeregister@@PAUClass_System_Object@@@Z 02013124 f   VolMgr.obj
 0001:00012150       ?m_StructCopy@Struct_System_ArgIterator@@SIXPAU1@0@Z 02013150 f   VolMgr.obj
 0001:00012184       ?m_StructCopy@Struct_System_ArgIterator@@SIXPAU1@PAU1@@Z 02013184 f   VolMgr.obj
 0001:00012220       ?m_GetArg@Struct_System_ArgIterator@@SIPAUClass_System_RuntimeType@@PAU1@HPAPAUintPtr@@@Z 02013220 f   VolMgr.obj
 0001:000122a4       ?m_get$_Length@Struct_System_ArgIterator@@SIHPAU1@@Z 020132a4 f   VolMgr.obj
 0001:000122c4       ?m_Equals@Struct_System_ArgIterator@@SI_NPAU1@PAUClass_System_Object@@@Z 020132c4 f   VolMgr.obj
 0001:00012320       ?m_Equals@Struct_System_ArgIterator@@SI_NPAUClass_System_ArgIterator@@PAUClass_System_Object@@@Z 02013320 f   VolMgr.obj
 0001:0001234c       ?m__ctor@Struct_System_ArgIterator@@SIXPAU1@UStruct_System_RuntimeArgumentHandle@@@Z 0201334c f   VolMgr.obj
 0001:00012394       ?g_UnderGCControl@Class_System_GCs_Transitions@@SI_NH@Z 02013394 f   VolMgr.obj
 0001:00012448       ?g_TransferMutatorControl@Class_System_GCs_Transitions@@SIXPAUStruct_Microsoft_Singularity_ThreadContext@@@Z 02013448 f   VolMgr.obj
 0001:00012588       ?g_TransferMutatorControl@Class_System_GCs_Transitions@@SIXPAHH@Z 02013588 f   VolMgr.obj
 0001:0001269c       ?g_ThreadStart@Class_System_GCs_Transitions@@SIXXZ 0201369c f   VolMgr.obj
 0001:00012884       ?g_ThreadEnd@Class_System_GCs_Transitions@@SIXH@Z 02013884 f   VolMgr.obj
 0001:00012ab0       ?g_TakeMutatorControlSlowNoGC@Class_System_GCs_Transitions@@SIXPAHH@Z 02013ab0 f   VolMgr.obj
 0001:00012adc       ?g_TakeMutatorControlSlow@Class_System_GCs_Transitions@@SIXPAHH@Z 02013adc f   VolMgr.obj
 0001:00012b08       ?g_TakeMutatorControlSlow@Class_System_GCs_Transitions@@SIXPAHH_N1@Z 02013b08 f   VolMgr.obj
 0001:00012cd4       ?g_TakeMutatorControlNoGC@Class_System_GCs_Transitions@@SIXPAUStruct_Microsoft_Singularity_ThreadContext@@@Z 02013cd4 f   VolMgr.obj
 0001:00012e38       ?g_TakeMutatorControlNoGC@Class_System_GCs_Transitions@@SIXPAHH@Z 02013e38 f   VolMgr.obj
 0001:00012f74       ?g_TakeMutatorControlNoGC@Class_System_GCs_Transitions@@SIXH@Z 02013f74 f   VolMgr.obj
 0001:00013164       ?g_TakeMutatorControl@Class_System_GCs_Transitions@@SIXPAUStruct_Microsoft_Singularity_ThreadContext@@@Z 02014164 f   VolMgr.obj
 0001:000132c8       ?g_TakeMutatorControl@Class_System_GCs_Transitions@@SIXPAHH@Z 020142c8 f   VolMgr.obj
 0001:00013404       ?g_TakeMutatorControl@Class_System_GCs_Transitions@@SIXH@Z 02014404 f   VolMgr.obj
 0001:000135f4       ?g_TakeGCControl@Class_System_GCs_Transitions@@SI_NPAH@Z 020145f4 f   VolMgr.obj
 0001:000136b8       ?g_TakeGCControl@Class_System_GCs_Transitions@@SI_NH@Z 020146b8 f   VolMgr.obj
 0001:00013834       ?g_TakeDormantControlNoGC@Class_System_GCs_Transitions@@SIXPAH@Z 02014834 f   VolMgr.obj
 0001:000138e0       ?g_TakeDormantControlNoGC@Class_System_GCs_Transitions@@SIXH@Z 020148e0 f   VolMgr.obj
 0001:00013a34       ?g_TakeDormantControl@Class_System_GCs_Transitions@@SIXPAUStruct_Microsoft_Singularity_ThreadContext@@@Z 02014a34 f   VolMgr.obj
 0001:00013b40       ?g_TakeDormantControl@Class_System_GCs_Transitions@@SIXPAHH@Z 02014b40 f   VolMgr.obj
 0001:00013c14       ?g_TakeDormantControl@Class_System_GCs_Transitions@@SIXH@Z 02014c14 f   VolMgr.obj
 0001:00013d7c       ?g_SwitchToMutatorStateWithGCRequest@Class_System_GCs_Transitions@@SI_NPAH@Z 02014d7c f   VolMgr.obj
 0001:00013de8       ?g_SwitchToMutatorState@Class_System_GCs_Transitions@@SI_NPAH@Z 02014de8 f   VolMgr.obj
 0001:00013e98       ?g_RuntimeInitialized@Class_System_GCs_Transitions@@SIXXZ 02014e98 f   VolMgr.obj
 0001:00013eb4       ?g_ReturnToManagedSpace@Class_System_GCs_Transitions@@SIXPAUStruct_Microsoft_Singularity_ThreadContext@@@Z 02014eb4 f   VolMgr.obj
 0001:00014094       ?g_ReturnFromManagedSpaceNoCallerTransition@Class_System_GCs_Transitions@@SIXXZ 02015094 f   VolMgr.obj
 0001:000141a8       ?g_ReturnFromManagedSpace@Class_System_GCs_Transitions@@SIXXZ 020151a8 f   VolMgr.obj
 0001:000142f0       ?g_RestoreMutatorControlIfNeeded@Class_System_GCs_Transitions@@SIXXZ 020152f0 f   VolMgr.obj
 0001:00014428       ?g_ReleaseGCControl@Class_System_GCs_Transitions@@SIXPAHH@Z 02015428 f   VolMgr.obj
 0001:000144ec       ?g_ReleaseGCControl@Class_System_GCs_Transitions@@SIXH@Z 020154ec f   VolMgr.obj
 0001:0001464c       ?g_NewThreadNotification@Class_System_GCs_Transitions@@SIXH_N@Z 0201564c f   VolMgr.obj
 0001:000147ec       ?g_MakeGCRequests@Class_System_GCs_Transitions@@SIXH@Z 020157ec f   VolMgr.obj
 0001:00014914       ?g_MakeGCRequest@Class_System_GCs_Transitions@@SIXPAHH@Z 02015914 f   VolMgr.obj
 0001:00014978       ?g_MakeGCRequest@Class_System_GCs_Transitions@@SIXH@Z 02015978 f   VolMgr.obj
 0001:00014a1c       ?g_LeaveManagedSpace@Class_System_GCs_Transitions@@SIXPAUStruct_Microsoft_Singularity_ThreadContext@@@Z 02015a1c f   VolMgr.obj
 0001:00014b5c       ?g_LeaveLoadFunctionStub@Class_System_GCs_Transitions@@SIXXZ 02015b5c f   VolMgr.obj
 0001:00014cc8       ?g_InMutatorState@Class_System_GCs_Transitions@@SI_NPAUStruct_Microsoft_Singularity_ThreadContext@@@Z 02015cc8 f   VolMgr.obj
 0001:00014d18       ?g_InMutatorState@Class_System_GCs_Transitions@@SI_NH@Z 02015d18 f   VolMgr.obj
 0001:00014dd4       ?g_Initialize@Class_System_GCs_Transitions@@SIXXZ 02015dd4 f   VolMgr.obj
 0001:00014de8       ?g_InDormantState@Class_System_GCs_Transitions@@SI_NH@Z 02015de8 f   VolMgr.obj
 0001:00014e98       ?g_HasGCRequest@Class_System_GCs_Transitions@@SI_NH@Z 02015e98 f   VolMgr.obj
 0001:00014f48       ?g_GetThreadContext@Class_System_GCs_Transitions@@SIPAUStruct_Microsoft_Singularity_ThreadContext@@H@Z 02015f48 f   VolMgr.obj
 0001:00014f98       ?g_GetCurrentThreadContext@Class_System_GCs_Transitions@@SIPAUStruct_Microsoft_Singularity_ThreadContext@@H@Z 02015f98 f   VolMgr.obj
 0001:00015020       ?g_fUnderGCControl@Class_System_GCs_Transitions@@SI_NH@Z 02016020 f   VolMgr.obj
 0001:00015048       ?g_fInMutatorState@Class_System_GCs_Transitions@@SI_NH@Z 02016048 f   VolMgr.obj
 0001:00015070       ?g_fInDormantState@Class_System_GCs_Transitions@@SI_NH@Z 02016070 f   VolMgr.obj
 0001:00015098       ?g_fHasGCRequest@Class_System_GCs_Transitions@@SI_NH@Z 02016098 f   VolMgr.obj
 0001:000150c0       ?g_EntryIntoManagedSpace@Class_System_GCs_Transitions@@SIXXZ 020160c0 f   VolMgr.obj
 0001:000152a8       ?g_EnterLoadFunctionStub@Class_System_GCs_Transitions@@SIXXZ 020162a8 f   VolMgr.obj
 0001:000154a0       ?g_EnsureMutatorControlNoGC@Class_System_GCs_Transitions@@SIXPAUStruct_Microsoft_Singularity_ThreadContext@@@Z 020164a0 f   VolMgr.obj
 0001:00015680       ?g_EnsureMutatorControlNoGC@Class_System_GCs_Transitions@@SIXPAHH@Z 02016680 f   VolMgr.obj
 0001:00015838       ?g_EnsureMutatorControl@Class_System_GCs_Transitions@@SIXPAUStruct_Microsoft_Singularity_ThreadContext@@@Z 02016838 f   VolMgr.obj
 0001:00015a18       ?g_EnsureMutatorControl@Class_System_GCs_Transitions@@SIXPAHH@Z 02016a18 f   VolMgr.obj
 0001:00015bd0       ?g_DeadThreadNotification@Class_System_GCs_Transitions@@SIXH@Z 02016bd0 f   VolMgr.obj
 0001:00015d80       ?g_CompareAndSwap@Class_System_GCs_Transitions@@SI_NPAHHH@Z 02016d80 f   VolMgr.obj
 0001:00015db4       ?g_ClearGCRequest@Class_System_GCs_Transitions@@SIXPAHH@Z 02016db4 f   VolMgr.obj
 0001:00015e60       ?g_ClearGCRequest@Class_System_GCs_Transitions@@SIXH@Z 02016e60 f   VolMgr.obj
 0001:00015f04       ?m__ctor@Class_System_GCs_Transitions@@SIXPAU1@@Z 02016f04 f   VolMgr.obj
 0001:00015f20       ?m_StructCopy@Struct_Microsoft_Singularity_Directory_DirectoryServiceContract_AckCreateDirectory@@SIXPAU1@0@Z 02016f20 f   VolMgr.obj
 0001:00015f3c       ?m_StructCopy@Struct_Microsoft_Singularity_Directory_DirectoryServiceContract_AckCreateDirectory@@SIXPAU1@PAU1@@Z 02016f3c f   VolMgr.obj
 0001:00015f90       ?m_Equals@Struct_Microsoft_Singularity_Directory_DirectoryServiceContract_AckCreateDirectory@@SI_NPAU1@PAUClass_System_Object@@@Z 02016f90 f   VolMgr.obj
 0001:00015fc8       ?m_Equals@Struct_Microsoft_Singularity_Directory_DirectoryServiceContract_AckCreateDirectory@@SI_NPAUClass_Microsoft_Singularity_Directory_DirectoryServiceContract_AckCreateDirectory@@PAUClass_System_Object@@@Z 02016fc8 f   VolMgr.obj
 0001:00015ff4       ?m_Visit@Class_System_GCs_Verifier_GenericObjectVisitor@@SIPAUuintPtr@@PAU1@PAUClass_System_Object@@@Z 02016ff4 f   VolMgr.obj
 0001:00016020       ?m__ctor@Class_System_GCs_Verifier_GenericObjectVisitor@@SIXPAU1@PAUClass_System_GCs_NonNullReferenceVisitor@@@Z 02017020 f   VolMgr.obj
 0001:00016050       ?m_ToString@int64@@SIPAUClass_System_String@@PA_J@Z 02017050 f   VolMgr.obj
 0001:00016078       ?m_ToString@int64@@SIPAUClass_System_String@@PA_JPAU2@@Z 02017078 f   VolMgr.obj
 0001:000160cc       ?m_ToString@int64@@SIPAUClass_System_String@@PAUClass_System_Int64@@@Z 020170cc f   VolMgr.obj
 0001:000160f4       ?m_ToString@int64@@SIPAUClass_System_String@@PAUClass_System_Int64@@PAU2@@Z 020170f4 f   VolMgr.obj
 0001:00016120       ?m_GetHashCode@int64@@SIHPA_J@Z 02017120 f   VolMgr.obj
 0001:00016154       ?m_GetHashCode@int64@@SIHPAUClass_System_Int64@@@Z 02017154 f   VolMgr.obj
 0001:0001617c       ?m_Equals@int64@@SI_NPA_JPAUClass_System_Object@@@Z 0201717c f   VolMgr.obj
 0001:000161ec       ?m_Equals@int64@@SI_NPAUClass_System_Int64@@PAUClass_System_Object@@@Z 020171ec f   VolMgr.obj
 0001:00016218       ?m_CompareTo@int64@@SIHPA_JPAUClass_System_Object@@@Z 02017218 f   VolMgr.obj
 0001:0001630c       ?m_CompareTo@int64@@SIHPAUClass_System_Int64@@PAUClass_System_Object@@@Z 0201730c f   VolMgr.obj
 0001:00016338       ?m_StructCopy@Struct_Microsoft_Singularity_Isal_IX_PE@@SIXPAU1@0@Z 02017338 f   VolMgr.obj
 0001:00016354       ?m_StructCopy@Struct_Microsoft_Singularity_Isal_IX_PE@@SIXPAU1@PAU1@@Z 02017354 f   VolMgr.obj
 0001:000163a8       ?m_Equals@Struct_Microsoft_Singularity_Isal_IX_PE@@SI_NPAU1@PAUClass_System_Object@@@Z 020173a8 f   VolMgr.obj
 0001:000163e0       ?m_Equals@Struct_Microsoft_Singularity_Isal_IX_PE@@SI_NPAUClass_Microsoft_Singularity_Isal_IX_PE@@PAUClass_System_Object@@@Z 020173e0 f   VolMgr.obj
 0001:0001640c       ?g_NewRegisteredCounters@Class_System_TryAllCounters@@SIPAU1@XZ 0201740c f   VolMgr.obj
 0001:00016498       ?m_MergeCounters@Class_System_TryAllCounters@@SIXPAU1@0@Z 02017498 f   VolMgr.obj
 0001:00016c58       ?m_IncrementWeakRefsClearedInUpdateLog@Class_System_TryAllCounters@@SIXPAU1@@Z 02017c58 f   VolMgr.obj
 0001:00016c88       ?m_IncrementWeakRefsClearedInUpdateEnlistmentLog@Class_System_TryAllCounters@@SIXPAU1@@Z 02017c88 f   VolMgr.obj
 0001:00016cb8       ?m_IncrementWeakRefsClearedInReadEnlistmentLog@Class_System_TryAllCounters@@SIXPAU1@@Z 02017cb8 f   VolMgr.obj
 0001:00016ce8       ?m_IncrementUpdatesInReadEnlistmentsAtGC@Class_System_TryAllCounters@@SIXPAU1@@Z 02017ce8 f   VolMgr.obj
 0001:00016d18       ?m_IncrementReadDuplicatesRemoved@Class_System_TryAllCounters@@SIXPAU1@@Z 02017d18 f   VolMgr.obj
 0001:00016d48       ?m_IncrementInvalidOutsideGC@Class_System_TryAllCounters@@SIXPAU1@@Z 02017d48 f   VolMgr.obj
 0001:00016d78       ?m_IncrementInvalidDuringGC@Class_System_TryAllCounters@@SIXPAU1@@Z 02017d78 f   VolMgr.obj
 0001:00016da0       ?m_IncrementInvalidConflict@Class_System_TryAllCounters@@SIXPAU1@@Z 02017da0 f   VolMgr.obj
 0001:00016dc8       ?m_IncrementInflationSeen@Class_System_TryAllCounters@@SIXPAU1@@Z 02017dc8 f   VolMgr.obj
 0001:00016df0       ?m_IncrementEnlistmentOverflow@Class_System_TryAllCounters@@SIXPAU1@@Z 02017df0 f   VolMgr.obj
 0001:00016e18       ?m_IncrementCachesCreated@Class_System_TryAllCounters@@SIXPAU1@@Z 02017e18 f   VolMgr.obj
 0001:00016e40       ?m_DumpStats@Class_System_TryAllCounters@@SIXPAU1@@Z 02017e40 f   VolMgr.obj
 0001:00019370       ?g_DumpRegisteredCounters@Class_System_TryAllCounters@@SIXXZ 0201a370 f   VolMgr.obj
 0001:00019400       ?m__ctor@Class_System_TryAllCounters@@SIXPAU1@@Z 0201a400 f   VolMgr.obj
 0001:0001941c       ?g__cctor@Class_System_TryAllCounters@@SIXXZ 0201a41c f   VolMgr.obj
 0001:0001944c       ?m_StructCopy@Struct_Microsoft_Singularity_Io_DiskDeviceContract_GetSectorCount@@SIXPAU1@0@Z 0201a44c f   VolMgr.obj
 0001:00019468       ?m_StructCopy@Struct_Microsoft_Singularity_Io_DiskDeviceContract_GetSectorCount@@SIXPAU1@PAU1@@Z 0201a468 f   VolMgr.obj
 0001:000194bc       ?m_Equals@Struct_Microsoft_Singularity_Io_DiskDeviceContract_GetSectorCount@@SI_NPAU1@PAUClass_System_Object@@@Z 0201a4bc f   VolMgr.obj
 0001:000194f4       ?m_Equals@Struct_Microsoft_Singularity_Io_DiskDeviceContract_GetSectorCount@@SI_NPAUClass_Microsoft_Singularity_Io_DiskDeviceContract_GetSectorCount@@PAUClass_System_Object@@@Z 0201a4f4 f   VolMgr.obj
 0001:00019520       ?m_StructCopy@Struct_Microsoft_Singularity_Directory_DirectoryServiceContract_Success@@SIXPAU1@0@Z 0201a520 f   VolMgr.obj
 0001:0001953c       ?m_StructCopy@Struct_Microsoft_Singularity_Directory_DirectoryServiceContract_Success@@SIXPAU1@PAU1@@Z 0201a53c f   VolMgr.obj
 0001:00019590       ?m_Equals@Struct_Microsoft_Singularity_Directory_DirectoryServiceContract_Success@@SI_NPAU1@PAUClass_System_Object@@@Z 0201a590 f   VolMgr.obj
 0001:000195c8       ?m_Equals@Struct_Microsoft_Singularity_Directory_DirectoryServiceContract_Success@@SI_NPAUClass_Microsoft_Singularity_Directory_DirectoryServiceContract_Success@@PAUClass_System_Object@@@Z 0201a5c8 f   VolMgr.obj
 0001:000195f4       ?m_StructCopy@Struct_Microsoft_Singularity_Io_DiskDeviceContract_Success@@SIXPAU1@0@Z 0201a5f4 f   VolMgr.obj
 0001:00019610       ?m_StructCopy@Struct_Microsoft_Singularity_Io_DiskDeviceContract_Success@@SIXPAU1@PAU1@@Z 0201a610 f   VolMgr.obj
 0001:00019664       ?m_Equals@Struct_Microsoft_Singularity_Io_DiskDeviceContract_Success@@SI_NPAU1@PAUClass_System_Object@@@Z 0201a664 f   VolMgr.obj
 0001:0001969c       ?m_Equals@Struct_Microsoft_Singularity_Io_DiskDeviceContract_Success@@SI_NPAUClass_Microsoft_Singularity_Io_DiskDeviceContract_Success@@PAUClass_System_Object@@@Z 0201a69c f   VolMgr.obj
 0001:000196c8       ?m_StructCopy@Struct_Microsoft_Singularity_Io_VolumeManagerContract_Success@@SIXPAU1@0@Z 0201a6c8 f   VolMgr.obj
 0001:000196e4       ?m_StructCopy@Struct_Microsoft_Singularity_Io_VolumeManagerContract_Success@@SIXPAU1@PAU1@@Z 0201a6e4 f   VolMgr.obj
 0001:00019738       ?m_MarshallContent@Struct_Microsoft_Singularity_Io_VolumeManagerContract_Success@@SIXPAU1@PAEPAUStruct_Microsoft_Singularity_Channels_Endpoint@@1PAH@Z 0201a738 f   VolMgr.obj
 0001:00019758       ?m_MarshallAll@Struct_Microsoft_Singularity_Io_VolumeManagerContract_Success@@SIXPAU1@PAEPAUStruct_Microsoft_Singularity_Channels_Endpoint@@PAH@Z 0201a758 f   VolMgr.obj
 0001:000197b0       ?m_Equals@Struct_Microsoft_Singularity_Io_VolumeManagerContract_Success@@SI_NPAU1@PAUClass_System_Object@@@Z 0201a7b0 f   VolMgr.obj
 0001:000197e8       ?m_Equals@Struct_Microsoft_Singularity_Io_VolumeManagerContract_Success@@SI_NPAUClass_Microsoft_Singularity_Io_VolumeManagerContract_Success@@PAUClass_System_Object@@@Z 0201a7e8 f   VolMgr.obj
 0001:00019814       ?m_StructCopy@Struct_Microsoft_Singularity_V1_Services_PageTableService@@SIXPAU1@0@Z 0201a814 f   VolMgr.obj
 0001:00019830       ?m_StructCopy@Struct_Microsoft_Singularity_V1_Services_PageTableService@@SIXPAU1@PAU1@@Z 0201a830 f   VolMgr.obj
 0001:00019884       ?g_Query@Struct_Microsoft_Singularity_V1_Services_PageTableService@@SI_NPAUuintPtr@@PAPAU2@1@Z 0201a884 f   VolMgr.obj
 0001:000198ec       ?m_Equals@Struct_Microsoft_Singularity_V1_Services_PageTableService@@SI_NPAU1@PAUClass_System_Object@@@Z 0201a8ec f   VolMgr.obj
 0001:00019924       ?m_Equals@Struct_Microsoft_Singularity_V1_Services_PageTableService@@SI_NPAUClass_Microsoft_Singularity_V1_Services_PageTableService@@PAUClass_System_Object@@@Z 0201a924 f   VolMgr.obj
 0001:00019950       ?m_StructCopy@Struct_Microsoft_Singularity_ThreadContext@@SIXPAU1@0@Z 0201a950 f   VolMgr.obj
 0001:00019b00       ?m_StructCopy@Struct_Microsoft_Singularity_ThreadContext@@SIXPAU1@PAU1@@Z 0201ab00 f   VolMgr.obj
 0001:0001a010       ?m_SetProcessMode@Struct_Microsoft_Singularity_ThreadContext@@SIXPAU1@@Z 0201b010 f   VolMgr.obj
 0001:0001a04c       ?m_SetKernelMode@Struct_Microsoft_Singularity_ThreadContext@@SIXPAU1@@Z 0201b04c f   VolMgr.obj
 0001:0001a08c       ?g_ParentModeMarker@Struct_Microsoft_Singularity_ThreadContext@@SIPAUStruct_System_GCs_CallStack_TransitionRecord@@PAU2@@Z 0201b08c f   VolMgr.obj
 0001:0001a0e0       ?m_IsInKernelMode@Struct_Microsoft_Singularity_ThreadContext@@SI_NPAU1@@Z 0201b0e0 f   VolMgr.obj
 0001:0001a13c       ?m_get$_thread@Struct_Microsoft_Singularity_ThreadContext@@SIPAUClass_System_Threading_Thread@@PAU1@@Z 0201b13c f   VolMgr.obj
 0001:0001a160       ?m_Equals@Struct_Microsoft_Singularity_ThreadContext@@SI_NPAU1@PAUClass_System_Object@@@Z 0201b160 f   VolMgr.obj
 0001:0001a400       ?m_Equals@Struct_Microsoft_Singularity_ThreadContext@@SI_NPAUClass_Microsoft_Singularity_ThreadContext@@PAUClass_System_Object@@@Z 0201b400 f   VolMgr.obj
 0001:0001a42c       ?g_Truncate@Class_System_GCs_BootstrapMemory@@SIXXZ 0201b42c f   VolMgr.obj
 0001:0001a590       ?g_Initialize@Class_System_GCs_BootstrapMemory@@SIXPAUuintPtr@@@Z 0201b590 f   VolMgr.obj
 0001:0001a5d4       ?g_AllocateBlock@Class_System_GCs_BootstrapMemory@@SIPAUuintPtr@@PAU2@I@Z 0201b5d4 f   VolMgr.obj
 0001:0001a704       ?g_Allocate@Class_System_GCs_BootstrapMemory@@SIPAUClass_System_Object@@PAUClass_System_VTable@@@Z 0201b704 f   VolMgr.obj
 0001:0001a7bc       ?g_Allocate@Class_System_GCs_BootstrapMemory@@SIPAUClass_System_Object@@PAUClass_System_VTable@@I@Z 0201b7bc f   VolMgr.obj
 0001:0001a834       ?g_Allocate@Class_System_GCs_BootstrapMemory@@SIPAUClass_System_Object@@PAUClass_System_Type@@@Z 0201b834 f   VolMgr.obj
 0001:0001a858       ?g_Allocate@Class_System_GCs_BootstrapMemory@@SIPAUClass_System_Object@@PAUClass_System_Type@@I@Z 0201b858 f   VolMgr.obj
 0001:0001a884       ?g_Allocate@Class_System_GCs_BootstrapMemory@@SIPAUClass_System_Object@@PAUClass_System_RuntimeType@@@Z 0201b884 f   VolMgr.obj
 0001:0001a8a8       ?g_Allocate@Class_System_GCs_BootstrapMemory@@SIPAUClass_System_Object@@PAUClass_System_RuntimeType@@I@Z 0201b8a8 f   VolMgr.obj
 0001:0001a8d4       ?m__ctor@Class_System_GCs_BootstrapMemory@@SIXPAU1@@Z 0201b8d4 f   VolMgr.obj
 0001:0001a8ec       ?g_StableState@Class_Microsoft_Singularity_Io_DiskDeviceContract@@SIHPAUStruct_Microsoft_Singularity_Channels_StateStack@@@Z 0201b8ec f   VolMgr.obj
 0001:0001a968       ?g_NewChannel@Class_Microsoft_Singularity_Io_DiskDeviceContract@@SIXPAPAUStruct_Microsoft_Singularity_Io_DiskDeviceContract_Imp@@PAPAUStruct_Microsoft_Singularity_Io_DiskDeviceContract_Exp@@@Z 0201b968 f   VolMgr.obj
 0001:0001aa04       ?g_CanonicalState@Class_Microsoft_Singularity_Io_DiskDeviceContract@@SIHH@Z 0201ba04 f   VolMgr.obj
 0001:0001aa5c       ?m__ctor@Class_Microsoft_Singularity_Io_DiskDeviceContract@@SIXPAU1@@Z 0201ba5c f   VolMgr.obj
 0001:0001aa74       ?m_StructCopy@Struct_Microsoft_Singularity_Isal_IX_DescriptorTable_Gdt@@SIXPAU1@0@Z 0201ba74 f   VolMgr.obj
 0001:0001ab6c       ?m_StructCopy@Struct_Microsoft_Singularity_Isal_IX_DescriptorTable_Gdt@@SIXPAU1@PAU1@@Z 0201bb6c f   VolMgr.obj
 0001:0001ae54       ?m_Equals@Struct_Microsoft_Singularity_Isal_IX_DescriptorTable_Gdt@@SI_NPAU1@PAUClass_System_Object@@@Z 0201be54 f   VolMgr.obj
 0001:0001b468       ?m_Equals@Struct_Microsoft_Singularity_Isal_IX_DescriptorTable_Gdt@@SI_NPAUClass_Microsoft_Singularity_Isal_IX_DescriptorTable_Gdt@@PAUClass_System_Object@@@Z 0201c468 f   VolMgr.obj
 0001:0001b494       ?m_Visit@Class_System_GCs_MarkSweepCollector_UpdateReferenceVisitor@@SIXPAU1@PAPAUuintPtr@@@Z 0201c494 f   VolMgr.obj
 0001:0001b73c       ?m__ctor@Class_System_GCs_MarkSweepCollector_UpdateReferenceVisitor@@SIXPAU1@@Z 0201c73c f   VolMgr.obj
 0001:0001b760       ?m_StructCopy@Struct_Microsoft_Singularity_Directory_DirectoryServiceContract_EnumerationTerminated@@SIXPAU1@0@Z 0201c760 f   VolMgr.obj
 0001:0001b788       ?m_StructCopy@Struct_Microsoft_Singularity_Directory_DirectoryServiceContract_EnumerationTerminated@@SIXPAU1@PAU1@@Z 0201c788 f   VolMgr.obj
 0001:0001b800       ?m_Equals@Struct_Microsoft_Singularity_Directory_DirectoryServiceContract_EnumerationTerminated@@SI_NPAU1@PAUClass_System_Object@@@Z 0201c800 f   VolMgr.obj
 0001:0001b8a0       ?m_Equals@Struct_Microsoft_Singularity_Directory_DirectoryServiceContract_EnumerationTerminated@@SI_NPAUClass_Microsoft_Singularity_Directory_DirectoryServiceContract_EnumerationTerminated@@PAUClass_System_Object@@@Z 0201c8a0 f   VolMgr.obj
 0001:0001b8cc       ?m_set$_Value@Class_System_MutableInt32@@SIXPAU1@H@Z 0201c8cc f   VolMgr.obj
 0001:0001b8f4       ?m_get$_Value@Class_System_MutableInt32@@SIHPAU1@@Z 0201c8f4 f   VolMgr.obj
 0001:0001b914       ?m__ctor@Class_System_MutableInt32@@SIXPAU1@H@Z 0201c914 f   VolMgr.obj
 0001:0001b93c       ?m_StructCopy@Struct_Microsoft_Singularity_Isal_IX_Gdtp@@SIXPAU1@0@Z 0201c93c f   VolMgr.obj
 0001:0001b980       ?m_StructCopy@Struct_Microsoft_Singularity_Isal_IX_Gdtp@@SIXPAU1@PAU1@@Z 0201c980 f   VolMgr.obj
 0001:0001ba4c       ?m_Equals@Struct_Microsoft_Singularity_Isal_IX_Gdtp@@SI_NPAU1@PAUClass_System_Object@@@Z 0201ca4c f   VolMgr.obj
 0001:0001babc       ?m_Equals@Struct_Microsoft_Singularity_Isal_IX_Gdtp@@SI_NPAUClass_Microsoft_Singularity_Isal_IX_Gdtp@@PAUClass_System_Object@@@Z 0201cabc f   VolMgr.obj
 0001:0001bae8       ?m__ctor@Class_System_Threading_ThreadStateException@@SIXPAU1@@Z 0201cae8 f   VolMgr.obj
 0001:0001bb10       ?m__ctor@Class_System_Threading_ThreadStateException@@SIXPAU1@PAUClass_System_String@@@Z 0201cb10 f   VolMgr.obj
 0001:0001bb38       ?g_WaitForPendingFinalizers@Class_System_GC@@SIXXZ 0201cb38 f   VolMgr.obj
 0001:0001bb50       ?g_ThreadStartNotification@Class_System_GC@@SIXH@Z 0201cb50 f   VolMgr.obj
 0001:0001bb7c       ?g_ThreadDormantGCNotification@Class_System_GC@@SIXH@Z 0201cb7c f   VolMgr.obj
 0001:0001bba8       ?g_SuppressFinalize@Class_System_GC@@SIXPAUClass_System_Object@@@Z 0201cba8 f   VolMgr.obj
 0001:0001bc10       ?g_Shutdown@Class_System_GC@@SIXXZ 0201cc10 f   VolMgr.obj
 0001:0001bc38       ?g_SetProfiler@Class_System_GC@@SIXPAUClass_System_GCs_GCProfiler@@@Z 0201cc38 f   VolMgr.obj
 0001:0001bc6c       ?g_NewThreadNotification@Class_System_GC@@SIXPAUClass_System_Threading_Thread@@_N@Z 0201cc6c f   VolMgr.obj
 0001:0001bca8       ?g_nativeSuppressFinalize@Class_System_GC@@SIXPAUClass_System_Object@@@Z 0201cca8 f   VolMgr.obj
 0001:0001bccc       ?g_KeepAlive@Class_System_GC@@SIXPAUClass_System_Object@@@Z 0201cccc f   VolMgr.obj
 0001:0001bcf8       ?g_InvokeCollection@Class_System_GC@@SIXPAUClass_System_Threading_Thread@@@Z 0201ccf8 f   VolMgr.obj
 0001:0001bd24       ?g_Initialize@Class_System_GC@@SIXXZ 0201cd24 f   VolMgr.obj
 0001:0001bd5c       ?g_GetTotalMemory@Class_System_GC@@SI_J_N@Z 0201cd5c f   VolMgr.obj
 0001:0001becc       ?g_get$_MaxGeneration@Class_System_GC@@SIHXZ 0201cecc f   VolMgr.obj
 0001:0001bef0       ?g_get$_IsProfiling@Class_System_GC@@SI_NXZ 0201cef0 f   VolMgr.obj
 0001:0001bf08       ?g_FinishInitializeThread@Class_System_GC@@SIXXZ 0201cf08 f   VolMgr.obj
 0001:0001bf20       ?g_EnableHeap@Class_System_GC@@SIXXZ 0201cf20 f   VolMgr.obj
 0001:0001bf68       ?g_DestructHeap@Class_System_GC@@SIXXZ 0201cf68 f   VolMgr.obj
 0001:0001bf90       ?g_DeadThreadNotification@Class_System_GC@@SIXPAUClass_System_Threading_Thread@@@Z 0201cf90 f   VolMgr.obj
 0001:0001bfbc       ?g_ConstructHeap@Class_System_GC@@SIXXZ 0201cfbc f   VolMgr.obj
 0001:0001c05c       ?g_CollectTransition@Class_System_GC@@SIXPAUClass_System_Threading_Thread@@H@Z 0201d05c f   VolMgr.obj
 0001:0001c084       ?g_CollectBody@Class_System_GC@@SIPAUClass_System_Threading_Thread@@PAU2@H@Z 0201d084 f   VolMgr.obj
 0001:0001c0e8       ?g_Collect@Class_System_GC@@SIXXZ 0201d0e8 f   VolMgr.obj
 0001:0001c12c       ?g_CheckForNeededGCWork@Class_System_GC@@SIXPAUClass_System_Threading_Thread@@@Z 0201d12c f   VolMgr.obj
 0001:0001c154       ?g_AllocateVector@Class_System_GC@@SIPAUClass_System_Array@@PAUClass_System_VTable@@H@Z 0201d154 f   VolMgr.obj
 0001:0001c258       ?g_AllocateVector@Class_System_GC@@SIPAUClass_System_Array@@PAUClass_System_VTable@@HPAUClass_System_Threading_Thread@@@Z 0201d258 f   VolMgr.obj
 0001:0001c348       ?g_AllocateString@Class_System_GC@@SIPAUClass_System_String@@H@Z 0201d348 f   VolMgr.obj
 0001:0001c43c       ?g_AllocateString@Class_System_GC@@SIPAUClass_System_String@@HPAUClass_System_Threading_Thread@@@Z 0201d43c f   VolMgr.obj
 0001:0001c528       ?g_AllocateObjectNoInline@Class_System_GC@@SIPAUClass_System_Object@@PAUClass_System_VTable@@@Z 0201d528 f   VolMgr.obj
 0001:0001c62c       ?g_AllocateObjectNoInline@Class_System_GC@@SIPAUClass_System_Object@@PAUClass_System_VTable@@PAUClass_System_Threading_Thread@@@Z 0201d62c f   VolMgr.obj
 0001:0001c724       ?g_AllocateObject@Class_System_GC@@SIPAUClass_System_Object@@PAUClass_System_VTable@@@Z 0201d724 f   VolMgr.obj
 0001:0001c818       ?g_AllocateObject@Class_System_GC@@SIPAUClass_System_Object@@PAUClass_System_VTable@@PAUuintPtr@@IPAUClass_System_Threading_Thread@@@Z 0201d818 f   VolMgr.obj
 0001:0001c908       ?g_AllocateObject@Class_System_GC@@SIPAUClass_System_Object@@PAUClass_System_VTable@@PAUClass_System_Threading_Thread@@@Z 0201d908 f   VolMgr.obj
 0001:0001c9f4       ?m__ctor@Class_System_GC@@SIXPAU1@@Z 0201d9f4 f   VolMgr.obj
 0001:0001ca10       ?g__cctor@Class_System_GC@@SIXXZ 0201da10 f   VolMgr.obj
 0001:0001ca60       ?m_StructCopy@Struct_System_ReadEnlistmentLog_Entry@@SIXPAU1@0@Z 0201da60 f   VolMgr.obj
 0001:0001ca9c       ?m_StructCopy@Struct_System_ReadEnlistmentLog_Entry@@SIXPAU1@PAU1@@Z 0201da9c f   VolMgr.obj
 0001:0001cb50       ?m_Equals@Struct_System_ReadEnlistmentLog_Entry@@SI_NPAU1@PAUClass_System_Object@@@Z 0201db50 f   VolMgr.obj
 0001:0001cc68       ?m_Equals@Struct_System_ReadEnlistmentLog_Entry@@SI_NPAUClass_System_ReadEnlistmentLog_Entry@@PAUClass_System_Object@@@Z 0201dc68 f   VolMgr.obj
 0001:0001cc94       ?m_StructCopy@Struct_Microsoft_Singularity_Directory_DirectoryServiceContract_StoreACL@@SIXPAU1@0@Z 0201dc94 f   VolMgr.obj
 0001:0001ccd4       ?m_StructCopy@Struct_Microsoft_Singularity_Directory_DirectoryServiceContract_StoreACL@@SIXPAU1@PAU1@@Z 0201dcd4 f   VolMgr.obj
 0001:0001cd94       ?m_Equals@Struct_Microsoft_Singularity_Directory_DirectoryServiceContract_StoreACL@@SI_NPAU1@PAUClass_System_Object@@@Z 0201dd94 f   VolMgr.obj
 0001:0001cdfc       ?m_Equals@Struct_Microsoft_Singularity_Directory_DirectoryServiceContract_StoreACL@@SI_NPAUClass_Microsoft_Singularity_Directory_DirectoryServiceContract_StoreACL@@PAUClass_System_Object@@@Z 0201ddfc f   VolMgr.obj
 0001:0001ce28       ?m__ctor@Class_Microsoft_Singularity_Memory_Stacks@@SIXPAU1@@Z 0201de28 f   VolMgr.obj
 0001:0001ce44       ?m_StructCopy@Struct_System_Threading_SpinLock@@SIXPAU1@0@Z 0201de44 f   VolMgr.obj
 0001:0001ce70       ?m_StructCopy@Struct_System_Threading_SpinLock@@SIXPAU1@PAU1@@Z 0201de70 f   VolMgr.obj
 0001:0001cef4       ?m_ReleaseInternal@Struct_System_Threading_SpinLock@@SIXPAU1@PAUClass_System_Threading_Thread@@H@Z 0201def4 f   VolMgr.obj
 0001:0001cf70       ?m_Release@Struct_System_Threading_SpinLock@@SIXPAU1@@Z 0201df70 f   VolMgr.obj
 0001:0001cfb4       ?m_Release@Struct_System_Threading_SpinLock@@SIXPAU1@PAUClass_System_Threading_Thread@@@Z 0201dfb4 f   VolMgr.obj
 0001:0001cfec       ?m_Equals@Struct_System_Threading_SpinLock@@SI_NPAU1@PAUClass_System_Object@@@Z 0201dfec f   VolMgr.obj
 0001:0001d0b0       ?m_Equals@Struct_System_Threading_SpinLock@@SI_NPAUClass_System_Threading_SpinLock@@PAUClass_System_Object@@@Z 0201e0b0 f   VolMgr.obj
 0001:0001d0dc       ?m_AcquireInternal@Struct_System_Threading_SpinLock@@SIXPAU1@PAUClass_System_Threading_Thread@@H@Z 0201e0dc f   VolMgr.obj
 0001:0001d1a4       ?m_Acquire@Struct_System_Threading_SpinLock@@SIXPAU1@@Z 0201e1a4 f   VolMgr.obj
 0001:0001d1e8       ?m_Acquire@Struct_System_Threading_SpinLock@@SIXPAU1@PAUClass_System_Threading_Thread@@@Z 0201e1e8 f   VolMgr.obj
 0001:0001d220       ?m_InvokeStaticStub@Class_System_TryAllManager_VisitMethod@@SIXPAU1@PAUClass_System_GCs_DirectReferenceVisitor@@@Z 0201e220 f   VolMgr.obj
 0001:0001d250       ?m_Invoke@Class_System_TryAllManager_VisitMethod@@SIXPAU1@PAUClass_System_GCs_DirectReferenceVisitor@@@Z 0201e250 f   VolMgr.obj
 0001:0001d2ac       ?m_EndInvoke@Class_System_TryAllManager_VisitMethod@@SIXPAU1@PAUClass_System_IAsyncResult@@@Z 0201e2ac f   VolMgr.obj
 0001:0001d2c8       ?m_BeginInvoke@Class_System_TryAllManager_VisitMethod@@SIPAUClass_System_IAsyncResult@@PAU1@PAUClass_System_GCs_DirectReferenceVisitor@@PAUClass_System_AsyncCallback@@PAUClass_System_Object@@@Z 0201e2c8 f   VolMgr.obj
 0001:0001d2e8       ?m__ctor@Class_System_TryAllManager_VisitMethod@@SIXPAU1@PAUClass_System_Object@@PAUintPtr@@@Z 0201e2e8 f   VolMgr.obj
 0001:0001d328       ?m_InvokeStaticStub@Class_System_AsyncCallback@@SIXPAU1@PAUClass_System_IAsyncResult@@@Z 0201e328 f   VolMgr.obj
 0001:0001d358       ?m_Invoke@Class_System_AsyncCallback@@SIXPAU1@PAUClass_System_IAsyncResult@@@Z 0201e358 f   VolMgr.obj
 0001:0001d3b4       ?m_EndInvoke@Class_System_AsyncCallback@@SIXPAU1@PAUClass_System_IAsyncResult@@@Z 0201e3b4 f   VolMgr.obj
 0001:0001d3d0       ?m_BeginInvoke@Class_System_AsyncCallback@@SIPAUClass_System_IAsyncResult@@PAU1@PAU2@0PAUClass_System_Object@@@Z 0201e3d0 f   VolMgr.obj
 0001:0001d3f0       ?m__ctor@Class_System_AsyncCallback@@SIXPAU1@PAUClass_System_Object@@PAUintPtr@@@Z 0201e3f0 f   VolMgr.obj
 0001:0001d454       ?m_StructCopy@Struct_Microsoft_Singularity_Directory_DirectoryServiceContract_Exp@@SIXPAU1@0@Z 0201e454 f   VolMgr.obj
 0001:0001d67c       ?m_StructCopy@Struct_Microsoft_Singularity_Directory_DirectoryServiceContract_Exp@@SIXPAU1@PAU1@@Z 0201e67c f   VolMgr.obj
 0001:0001dcf4       ?m_Peek@Struct_Microsoft_Singularity_Directory_DirectoryServiceContract_Exp@@SIHPAU1@@Z 0201ecf4 f   VolMgr.obj
 0001:0001e69c       ?m_MarshallDeliverRegister0@Struct_Microsoft_Singularity_Directory_DirectoryServiceContract_Exp@@SIXPAU1@PA_WPAUStruct_Microsoft_Singularity_Directory_ServiceProviderContract_Imp@@PAUStruct_Microsoft_Singularity_Channels_Endpoint@@@Z 0201f69c f   VolMgr.obj
 0001:0001e6f8       ?m_MarshallDeliverNotify0@Struct_Microsoft_Singularity_Directory_DirectoryServiceContract_Exp@@SIXPAU1@PA_W1_NPAUStruct_Microsoft_Singularity_Directory_NotifyContract_Imp@@PAUStruct_Microsoft_Singularity_Channels_Endpoint@@@Z 0201f6f8 f   VolMgr.obj
 0001:0001e760       ?m_MarshallDeliverBind0@Struct_Microsoft_Singularity_Directory_DirectoryServiceContract_Exp@@SIXPAU1@PA_WPAUStruct_Microsoft_Singularity_Directory_ServiceContract_Exp@@PAUStruct_Microsoft_Singularity_Channels_Endpoint@@@Z 0201f760 f   VolMgr.obj
 0001:0001e7bc       ?m_HeadMatches@Struct_Microsoft_Singularity_Directory_DirectoryServiceContract_Exp@@SI_NPAU1@HPA_NPAPAUClass_System_Object@@@Z 0201f7bc f   VolMgr.obj
 0001:0001e87c       ?m_HeadMatches@Struct_Microsoft_Singularity_Directory_DirectoryServiceContract_Exp@@SI_NPAUClass_Microsoft_Singularity_Directory_DirectoryServiceContract_Exp@@HPA_NPAPAUClass_System_Object@@@Z 0201f87c f   VolMgr.obj
 0001:0001e8b4       ?m_Equals@Struct_Microsoft_Singularity_Directory_DirectoryServiceContract_Exp@@SI_NPAU1@PAUClass_System_Object@@@Z 0201f8b4 f   VolMgr.obj
 0001:0001f418       ?m_Equals@Struct_Microsoft_Singularity_Directory_DirectoryServiceContract_Exp@@SI_NPAUClass_Microsoft_Singularity_Directory_DirectoryServiceContract_Exp@@PAUClass_System_Object@@@Z 02020418 f   VolMgr.obj
 0001:0001f444       ?m_DeliverRegister0@Struct_Microsoft_Singularity_Directory_DirectoryServiceContract_Exp@@SIXPAU1@PA_WPAUStruct_Microsoft_Singularity_Directory_ServiceProviderContract_Imp@@@Z 02020444 f   VolMgr.obj
 0001:0001f494       ?m_DeliverNotify0@Struct_Microsoft_Singularity_Directory_DirectoryServiceContract_Exp@@SIXPAU1@PA_W1_NPAUStruct_Microsoft_Singularity_Directory_NotifyContract_Imp@@@Z 02020494 f   VolMgr.obj
 0001:0001f4f0       ?m_DeliverBind0@Struct_Microsoft_Singularity_Directory_DirectoryServiceContract_Exp@@SIXPAU1@PA_WPAUStruct_Microsoft_Singularity_Directory_ServiceContract_Exp@@@Z 020204f0 f   VolMgr.obj
 0001:0001f540       ?m_VisitSmall@Class_System_GCs_SegregatedFreeList_ObjectVisitorWrapper@@SIXPAU1@PAUClass_System_Object@@PAUuintPtr@@@Z 02020540 f   VolMgr.obj
 0001:0001f56c       ?m_VisitLarge@Class_System_GCs_SegregatedFreeList_ObjectVisitorWrapper@@SIPAUuintPtr@@PAU1@PAUClass_System_Object@@@Z 0202056c f   VolMgr.obj
 0001:0001f598       ?m__ctor@Class_System_GCs_SegregatedFreeList_ObjectVisitorWrapper@@SIXPAU1@PAUClass_System_GCs_ObjectLayout_ObjectVisitor@@@Z 02020598 f   VolMgr.obj
 0001:0001f5c8       ?m_StructCopy@Struct_System_GCs_CompressedFrameDescriptor@@SIXPAU1@0@Z 020205c8 f   VolMgr.obj
 0001:0001f5f0       ?m_StructCopy@Struct_System_GCs_CompressedFrameDescriptor@@SIXPAU1@PAU1@@Z 020205f0 f   VolMgr.obj
 0001:0001f668       ?m_StackArgSize@Struct_System_GCs_CompressedFrameDescriptor@@SIIPAU1@@Z 02020668 f   VolMgr.obj
 0001:0001f68c       ?m_OverflowDescriptor@Struct_System_GCs_CompressedFrameDescriptor@@SIPAUStruct_System_GCs_OverflowFrameDescriptor@@PAU1@@Z 0202068c f   VolMgr.obj
 0001:0001f6ac       ?m_IsFramePointerOmitted@Struct_System_GCs_CompressedFrameDescriptor@@SI_NPAU1@@Z 020206ac f   VolMgr.obj
 0001:0001f6d4       ?m_IsFramePointerOmitted@Struct_System_GCs_CompressedFrameDescriptor@@SI_NPAU1@PAUStruct_System_GCs_OverflowFrameDescriptor@@@Z 020206d4 f   VolMgr.obj
 0001:0001f700       ?m_IsCompressed@Struct_System_GCs_CompressedFrameDescriptor@@SI_NPAU1@@Z 02020700 f   VolMgr.obj
 0001:0001f728       ?m_InBetweenSlotsBelowWithFP@Struct_System_GCs_CompressedFrameDescriptor@@SIHPAU1@@Z 02020728 f   VolMgr.obj
 0001:0001f748       ?m_InBetweenSlotsBelowNoFP@Struct_System_GCs_CompressedFrameDescriptor@@SIHPAU1@@Z 02020748 f   VolMgr.obj
 0001:0001f768       ?m_InBetweenSlotsAboveWithFP@Struct_System_GCs_CompressedFrameDescriptor@@SIHPAU1@@Z 02020768 f   VolMgr.obj
 0001:0001f788       ?m_InBetweenSlotsAboveNoFP@Struct_System_GCs_CompressedFrameDescriptor@@SIHPAU1@@Z 02020788 f   VolMgr.obj
 0001:0001f7a8       ?m_HasTransitionRecord@Struct_System_GCs_CompressedFrameDescriptor@@SI_NPAU1@@Z 020207a8 f   VolMgr.obj
 0001:0001f7d0       ?m_HasTransitionRecord@Struct_System_GCs_CompressedFrameDescriptor@@SI_NPAU1@PAUStruct_System_GCs_OverflowFrameDescriptor@@@Z 020207d0 f   VolMgr.obj
 0001:0001f7fc       ?m_HasPinnedPointersWithFP@Struct_System_GCs_CompressedFrameDescriptor@@SI_NPAU1@PAUStruct_System_GCs_OverflowFrameDescriptor@@@Z 020207fc f   VolMgr.obj
 0001:0001f828       ?m_HasPinnedPointersNoFP@Struct_System_GCs_CompressedFrameDescriptor@@SI_NPAU1@PAUStruct_System_GCs_OverflowFrameDescriptor@@@Z 02020828 f   VolMgr.obj
 0001:0001f854       ?m_FrameSizeNoFP@Struct_System_GCs_CompressedFrameDescriptor@@SIHPAU1@@Z 02020854 f   VolMgr.obj
 0001:0001f878       ?m_FrameSizeNoFP@Struct_System_GCs_CompressedFrameDescriptor@@SIHPAU1@PAUStruct_System_GCs_OverflowFrameDescriptor@@@Z 02020878 f   VolMgr.obj
 0001:0001f89c       ?m_Equals@Struct_System_GCs_CompressedFrameDescriptor@@SI_NPAU1@PAUClass_System_Object@@@Z 0202089c f   VolMgr.obj
 0001:0001f8e4       ?m_Equals@Struct_System_GCs_CompressedFrameDescriptor@@SI_NPAUClass_System_GCs_CompressedFrameDescriptor@@PAUClass_System_Object@@@Z 020208e4 f   VolMgr.obj
 0001:0001f910       ?m_EntrySizeWithFP@Struct_System_GCs_CompressedFrameDescriptor@@SIIPAU1@PAUStruct_System_GCs_OverflowFrameDescriptor@@@Z 02020910 f   VolMgr.obj
 0001:0001f938       ?m_EntrySizeNoFP@Struct_System_GCs_CompressedFrameDescriptor@@SIIPAU1@PAUStruct_System_GCs_OverflowFrameDescriptor@@@Z 02020938 f   VolMgr.obj
 0001:0001f960       ?m_CalleeSaveValueMaskWithFP@Struct_System_GCs_CompressedFrameDescriptor@@SIPAUuintPtr@@PAU1@@Z 02020960 f   VolMgr.obj
 0001:0001f984       ?m_CalleeSaveValueMaskWithFP@Struct_System_GCs_CompressedFrameDescriptor@@SIPAUuintPtr@@PAU1@PAUStruct_System_GCs_OverflowFrameDescriptor@@@Z 02020984 f   VolMgr.obj
 0001:0001f9ac       ?m_CalleeSaveValueMaskNoFP@Struct_System_GCs_CompressedFrameDescriptor@@SIPAUuintPtr@@PAU1@@Z 020209ac f   VolMgr.obj
 0001:0001f9d4       ?m_CalleeSaveValueMaskNoFP@Struct_System_GCs_CompressedFrameDescriptor@@SIPAUuintPtr@@PAU1@PAUStruct_System_GCs_OverflowFrameDescriptor@@@Z 020209d4 f   VolMgr.obj
 0001:0001fa00       ?m_CalleeSaveMaskWithFP@Struct_System_GCs_CompressedFrameDescriptor@@SIPAUuintPtr@@PAU1@@Z 02020a00 f   VolMgr.obj
 0001:0001fa24       ?m_CalleeSaveMaskWithFP@Struct_System_GCs_CompressedFrameDescriptor@@SIPAUuintPtr@@PAU1@PAUStruct_System_GCs_OverflowFrameDescriptor@@@Z 02020a24 f   VolMgr.obj
 0001:0001fa4c       ?m_CalleeSaveMaskNoFP@Struct_System_GCs_CompressedFrameDescriptor@@SIPAUuintPtr@@PAU1@@Z 02020a4c f   VolMgr.obj
 0001:0001fa70       ?m_CalleeSaveMaskNoFP@Struct_System_GCs_CompressedFrameDescriptor@@SIPAUuintPtr@@PAU1@PAUStruct_System_GCs_OverflowFrameDescriptor@@@Z 02020a70 f   VolMgr.obj
 0001:0001fa98       ?m_ArgumentMaskWithFP@Struct_System_GCs_CompressedFrameDescriptor@@SIPAUuintPtr@@PAU1@@Z 02020a98 f   VolMgr.obj
 0001:0001fabc       ?m_ArgumentMaskNoFP@Struct_System_GCs_CompressedFrameDescriptor@@SIPAUuintPtr@@PAU1@@Z 02020abc f   VolMgr.obj
 0001:0001fae0       ?m_Write@Struct_System_GCs_UIntPtrStack@@SIXPAU1@PAUuintPtr@@@Z 02020ae0 f   VolMgr.obj
 0001:0001fb30       ?m_StructCopy@Struct_System_GCs_UIntPtrStack@@SIXPAU1@0@Z 02020b30 f   VolMgr.obj
 0001:0001fb8c       ?m_StructCopy@Struct_System_GCs_UIntPtrStack@@SIXPAU1@PAU1@@Z 02020b8c f   VolMgr.obj
 0001:0001fca0       ?m_RetractPage@Struct_System_GCs_UIntPtrStack@@SIXPAU1@@Z 02020ca0 f   VolMgr.obj
 0001:0001fd08       ?m_Read@Struct_System_GCs_UIntPtrStack@@SIPAUuintPtr@@PAU1@@Z 02020d08 f   VolMgr.obj
 0001:0001fd4c       ?m_get$_IsEmpty@Struct_System_GCs_UIntPtrStack@@SI_NPAU1@@Z 02020d4c f   VolMgr.obj
 0001:0001fda4       ?m_Equals@Struct_System_GCs_UIntPtrStack@@SI_NPAU1@PAUClass_System_Object@@@Z 02020da4 f   VolMgr.obj
 0001:0001fea8       ?m_Equals@Struct_System_GCs_UIntPtrStack@@SI_NPAUClass_System_GCs_UIntPtrStack@@PAUClass_System_Object@@@Z 02020ea8 f   VolMgr.obj
 0001:0001fed4       ?m_Cleanup@Struct_System_GCs_UIntPtrStack@@SIXPAU1@_N@Z 02020ed4 f   VolMgr.obj
 0001:0001ffa8       ?m_AdvancePage@Struct_System_GCs_UIntPtrStack@@SIXPAU1@@Z 02020fa8 f   VolMgr.obj
 0001:00020088       ?g_RestoreLocalPreemption@Class_Microsoft_Singularity_Processor@@SIX_N@Z 02021088 f   VolMgr.obj
 0001:000200a4       ?g_GetCycleCount@Class_Microsoft_Singularity_Processor@@SI_KXZ 020210a4 f   VolMgr.obj
 0001:000200bc       ?g_GetCurrentThreadContext@Class_Microsoft_Singularity_Processor@@SIPAUStruct_Microsoft_Singularity_ThreadContext@@XZ 020210bc f   VolMgr.obj
 0001:000200d4       ?g_GetCurrentThread@Class_Microsoft_Singularity_Processor@@SIPAUClass_System_Threading_Thread@@XZ 020210d4 f   VolMgr.obj
 0001:000200f4       ?g_GetCurrentProcessorContext@Class_Microsoft_Singularity_Processor@@SIPAUStruct_Microsoft_Singularity_ProcessorContext@@XZ 020210f4 f   VolMgr.obj
 0001:0002010c       ?g_get$_CycleCount@Class_Microsoft_Singularity_Processor@@SI_KXZ 0202110c f   VolMgr.obj
 0001:00020124       ?g_DisableLocalPreemption@Class_Microsoft_Singularity_Processor@@SI_NXZ 02021124 f   VolMgr.obj
 0001:0002013c       ?m__ctor@Class_Microsoft_Singularity_Processor@@SIXPAU1@@Z 0202113c f   VolMgr.obj
 0001:00020158       ?m_StructCopy@Struct_Microsoft_Singularity_Directory_ServiceContract_ContractNotSupported@@SIXPAU1@0@Z 02021158 f   VolMgr.obj
 0001:00020174       ?m_StructCopy@Struct_Microsoft_Singularity_Directory_ServiceContract_ContractNotSupported@@SIXPAU1@PAU1@@Z 02021174 f   VolMgr.obj
 0001:000201c8       ?m_Equals@Struct_Microsoft_Singularity_Directory_ServiceContract_ContractNotSupported@@SI_NPAU1@PAUClass_System_Object@@@Z 020211c8 f   VolMgr.obj
 0001:00020200       ?m_Equals@Struct_Microsoft_Singularity_Directory_ServiceContract_ContractNotSupported@@SI_NPAUClass_Microsoft_Singularity_Directory_ServiceContract_ContractNotSupported@@PAUClass_System_Object@@@Z 02021200 f   VolMgr.obj
 0001:0002022c       ?m_StructCopy@Struct_Microsoft_Singularity_Directory_DirectoryServiceContract_NakRegister@@SIXPAU1@0@Z 0202122c f   VolMgr.obj
 0001:00020260       ?m_StructCopy@Struct_Microsoft_Singularity_Directory_DirectoryServiceContract_NakRegister@@SIXPAU1@PAU1@@Z 02021260 f   VolMgr.obj
 0001:000202fc       ?m_Equals@Struct_Microsoft_Singularity_Directory_DirectoryServiceContract_NakRegister@@SI_NPAU1@PAUClass_System_Object@@@Z 020212fc f   VolMgr.obj
 0001:000203ac       ?m_Equals@Struct_Microsoft_Singularity_Directory_DirectoryServiceContract_NakRegister@@SI_NPAUClass_Microsoft_Singularity_Directory_DirectoryServiceContract_NakRegister@@PAUClass_System_Object@@@Z 020213ac f   VolMgr.obj
 0001:000203d8       ?m_ToString@uint32@@SIPAUClass_System_String@@PAI@Z 020213d8 f   VolMgr.obj
 0001:00020400       ?m_ToString@uint32@@SIPAUClass_System_String@@PAIPAU2@@Z 02021400 f   VolMgr.obj
 0001:00020448       ?m_ToString@uint32@@SIPAUClass_System_String@@PAUClass_System_UInt32@@@Z 02021448 f   VolMgr.obj
 0001:00020470       ?m_ToString@uint32@@SIPAUClass_System_String@@PAUClass_System_UInt32@@PAU2@@Z 02021470 f   VolMgr.obj
 0001:0002049c       ?m_GetHashCode@uint32@@SIHPAI@Z 0202149c f   VolMgr.obj
 0001:000204bc       ?m_GetHashCode@uint32@@SIHPAUClass_System_UInt32@@@Z 020214bc f   VolMgr.obj
 0001:000204e4       ?m_Equals@uint32@@SI_NPAIPAUClass_System_Object@@@Z 020214e4 f   VolMgr.obj
 0001:00020540       ?m_Equals@uint32@@SI_NPAUClass_System_UInt32@@PAUClass_System_Object@@@Z 02021540 f   VolMgr.obj
 0001:0002056c       ?m_CompareTo@uint32@@SIHPAIPAUClass_System_Object@@@Z 0202156c f   VolMgr.obj
 0001:0002061c       ?m_CompareTo@uint32@@SIHPAUClass_System_UInt32@@PAUClass_System_Object@@@Z 0202161c f   VolMgr.obj
 0001:00020648       ?m_Unlink@Class_Microsoft_Singularity_Channels_EMap$_3$LMicrosoft_Singularity_Io_VolumeManagerContract_Exp_Microsoft_Singularity_Io_VolumeManagerContract_Accept_optional_Microsoft_Contracts_NonNullType__Microsoft_Singularity_Services_VolumeManager_Volume$G_Node@@SIPAUStruct_Microsoft_Singularity_Io_VolumeManagerContract_Exp@@PAU1@PAUClass_Microsoft_Singularity_Channels_EMap$_3$LMicrosoft_Singularity_Io_VolumeManagerContract_Exp_Microsoft_Singularity_Io_VolumeManagerContract_Accept_optional_Microsoft_Contracts_NonNullType__Microsoft_Singularity_Services_VolumeManager_Volume$G@@PAPAUClass_Microsoft_Singularity_Services_VolumeManager_Volume@@@Z 02021648 f   VolMgr.obj
 0001:00020730       ?m_LinkAsNext@Class_Microsoft_Singularity_Channels_EMap$_3$LMicrosoft_Singularity_Io_VolumeManagerContract_Exp_Microsoft_Singularity_Io_VolumeManagerContract_Accept_optional_Microsoft_Contracts_NonNullType__Microsoft_Singularity_Services_VolumeManager_Volume$G_Node@@SIXPAU1@PAUStruct_Microsoft_Singularity_Io_VolumeManagerContract_Exp@@PAUClass_Microsoft_Singularity_Services_VolumeManager_Volume@@PAUClass_Microsoft_Singularity_Channels_EMap$_3$LMicrosoft_Singularity_Io_VolumeManagerContract_Exp_Microsoft_Singularity_Io_VolumeManagerContract_Accept_optional_Microsoft_Contracts_NonNullType__Microsoft_Singularity_Services_VolumeManager_Volume$G@@@Z 02021730 f   VolMgr.obj
 0001:000207b0       ?m_Init@Class_Microsoft_Singularity_Channels_EMap$_3$LMicrosoft_Singularity_Io_VolumeManagerContract_Exp_Microsoft_Singularity_Io_VolumeManagerContract_Accept_optional_Microsoft_Contracts_NonNullType__Microsoft_Singularity_Services_VolumeManager_Volume$G_Node@@SIXPAU1@PAUStruct_Microsoft_Singularity_Io_VolumeManagerContract_Exp@@PAUClass_Microsoft_Singularity_Services_VolumeManager_Volume@@PAUClass_Microsoft_Singularity_Channels_EMap$_3$LMicrosoft_Singularity_Io_VolumeManagerContract_Exp_Microsoft_Singularity_Io_VolumeManagerContract_Accept_optional_Microsoft_Contracts_NonNullType__Microsoft_Singularity_Services_VolumeManager_Volume$G@@@Z 020217b0 f   VolMgr.obj
 0001:000207ec       ?m__ctor@Class_Microsoft_Singularity_Channels_EMap$_3$LMicrosoft_Singularity_Io_VolumeManagerContract_Exp_Microsoft_Singularity_Io_VolumeManagerContract_Accept_optional_Microsoft_Contracts_NonNullType__Microsoft_Singularity_Services_VolumeManager_Volume$G_Node@@SIXPAU1@PAUStruct_Microsoft_Singularity_Io_VolumeManagerContract_Exp@@PAUClass_Microsoft_Singularity_Services_VolumeManager_Volume@@PAUClass_Microsoft_Singularity_Channels_EMap$_3$LMicrosoft_Singularity_Io_VolumeManagerContract_Exp_Microsoft_Singularity_Io_VolumeManagerContract_Accept_optional_Microsoft_Contracts_NonNullType__Microsoft_Singularity_Services_VolumeManager_Volume$G@@@Z 020217ec f   VolMgr.obj
 0001:00020834       ?m__ctor@Class_Microsoft_Singularity_Channels_EMap$_3$LMicrosoft_Singularity_Io_VolumeManagerContract_Exp_Microsoft_Singularity_Io_VolumeManagerContract_Accept_optional_Microsoft_Contracts_NonNullType__Microsoft_Singularity_Services_VolumeManager_Volume$G_Node@@SIXPAU1@PAUClass_Microsoft_Singularity_Channels_EMap$_3$LMicrosoft_Singularity_Io_VolumeManagerContract_Exp_Microsoft_Singularity_Io_VolumeManagerContract_Accept_optional_Microsoft_Contracts_NonNullType__Microsoft_Singularity_Services_VolumeManager_Volume$G@@@Z 02021834 f   VolMgr.obj
 0001:00020868       ?g_ConvertToLong@Class_System_RuntimeTypeHash@@SI_JPAUClassVector_uint8@@H@Z 02021868 f   VolMgr.obj
 0001:0002093c       ?g_ComputeHashAndReturnName@Class_System_RuntimeTypeHash@@SIPAUClassVector_uint8@@PAUClass_System_String@@PA_J1@Z 0202193c f   VolMgr.obj
 0001:000209ac       ?g_ComputeHash@Class_System_RuntimeTypeHash@@SIXPAUClassVector_uint8@@PA_J1@Z 020219ac f   VolMgr.obj
 0001:00020a4c       ?m__ctor@Class_System_RuntimeTypeHash@@SIXPAU1@@Z 02021a4c f   VolMgr.obj
 0001:00020a64       ?m_StructCopy@Struct_Microsoft_Singularity_Directory_EnumerationRecords@@SIXPAU1@0@Z 02021a64 f   VolMgr.obj
 0001:00020a98       ?m_StructCopy@Struct_Microsoft_Singularity_Directory_EnumerationRecords@@SIXPAU1@PAU1@@Z 02021a98 f   VolMgr.obj
 0001:00020b34       ?m_Equals@Struct_Microsoft_Singularity_Directory_EnumerationRecords@@SI_NPAU1@PAUClass_System_Object@@@Z 02021b34 f   VolMgr.obj
 0001:00020be8       ?m_Equals@Struct_Microsoft_Singularity_Directory_EnumerationRecords@@SI_NPAUClass_Microsoft_Singularity_Directory_EnumerationRecords@@PAUClass_System_Object@@@Z 02021be8 f   VolMgr.obj
 0001:00020c14       ?m_StructCopy@Struct_Microsoft_Singularity_Directory_DirectoryServiceContract_AckBind@@SIXPAU1@0@Z 02021c14 f   VolMgr.obj
 0001:00020c30       ?m_StructCopy@Struct_Microsoft_Singularity_Directory_DirectoryServiceContract_AckBind@@SIXPAU1@PAU1@@Z 02021c30 f   VolMgr.obj
 0001:00020c84       ?m_Equals@Struct_Microsoft_Singularity_Directory_DirectoryServiceContract_AckBind@@SI_NPAU1@PAUClass_System_Object@@@Z 02021c84 f   VolMgr.obj
 0001:00020cbc       ?m_Equals@Struct_Microsoft_Singularity_Directory_DirectoryServiceContract_AckBind@@SI_NPAUClass_Microsoft_Singularity_Directory_DirectoryServiceContract_AckBind@@PAUClass_System_Object@@@Z 02021cbc f   VolMgr.obj
 0001:00020ce8       ?g_WriterIsValid@Class_System_ReadEnlistmentLog@@SI_NUStruct_System_ReadEnlistmentLogWriter@@@Z 02021ce8 f   VolMgr.obj
 0001:00020d08       ?m_VisitWeakRefs@Class_System_ReadEnlistmentLog@@SIXPAU1@PAUClass_System_TryAllManager@@PAUClass_System_GCs_DirectReferenceVisitor@@@Z 02021d08 f   VolMgr.obj
 0001:0002127c       ?m_ValidateAndRemoveDuplicates@Class_System_ReadEnlistmentLog@@SIXPAU1@PAUClass_System_TryAllManager@@@Z 0202227c f   VolMgr.obj
 0001:00021d5c       ?m_Validate@Class_System_ReadEnlistmentLog@@SIXPAU1@PAUClass_System_TryAllManager@@_N@Z 02022d5c f   VolMgr.obj
 0001:000223ec       ?g_SyncFromWriter@Class_System_ReadEnlistmentLog@@SIXPAUClass_System_TryAllManager@@@Z 020233ec f   VolMgr.obj
 0001:00022470       ?g_InitWriter@Class_System_ReadEnlistmentLog@@SIXPAUClass_System_TryAllManager@@@Z 02023470 f   VolMgr.obj
 0001:000224ec       ?m_get$_CurrentLocation@Class_System_ReadEnlistmentLog@@SI?AUStruct_System_ReadEnlistmentLog_Location@@PAU1@@Z 020234ec f   VolMgr.obj
 0001:00022580       ?m_AddrToIndex@Class_System_ReadEnlistmentLog@@SIIPAU1@PAUStruct_System_ReadEnlistmentLog_Entry@@@Z 02023580 f   VolMgr.obj
 0001:00022610       ?m_AddrOfEntry@Class_System_ReadEnlistmentLog@@SIPAUStruct_System_ReadEnlistmentLog_Entry@@PAU1@H@Z 02023610 f   VolMgr.obj
 0001:000226b0       ?m__ctor@Class_System_ReadEnlistmentLog@@SIXPAU1@@Z 020236b0 f   VolMgr.obj
 0001:00022714       ?m_StructCopy@Struct_Microsoft_Singularity_Io_VolumeManagerContract_Connect@@SIXPAU1@0@Z 02023714 f   VolMgr.obj
 0001:00022778       ?m_StructCopy@Struct_Microsoft_Singularity_Io_VolumeManagerContract_Connect@@SIXPAU1@PAU1@@Z 02023778 f   VolMgr.obj
 0001:000228a4       ?m_MarshallContent@Struct_Microsoft_Singularity_Io_VolumeManagerContract_Connect@@SIXPAU1@PAEPAUStruct_Microsoft_Singularity_Channels_Endpoint@@1PAH@Z 020238a4 f   VolMgr.obj
 0001:00022928       ?m_MarshallAll@Struct_Microsoft_Singularity_Io_VolumeManagerContract_Connect@@SIXPAU1@PAEPAUStruct_Microsoft_Singularity_Channels_Endpoint@@PAH@Z 02023928 f   VolMgr.obj
 0001:00022980       ?m_Equals@Struct_Microsoft_Singularity_Io_VolumeManagerContract_Connect@@SI_NPAU1@PAUClass_System_Object@@@Z 02023980 f   VolMgr.obj
 0001:00022a30       ?m_Equals@Struct_Microsoft_Singularity_Io_VolumeManagerContract_Connect@@SI_NPAUClass_Microsoft_Singularity_Io_VolumeManagerContract_Connect@@PAUClass_System_Object@@@Z 02023a30 f   VolMgr.obj
 0001:00022a5c       ?m_StructCopy@Struct_System_GCs_CalleeSaveLocations@@SIXPAU1@0@Z 02023a5c f   VolMgr.obj
 0001:00022acc       ?m_StructCopy@Struct_System_GCs_CalleeSaveLocations@@SIXPAU1@PAU1@@Z 02023acc f   VolMgr.obj
 0001:00022c1c       ?m_SetCalleeSaves@Struct_System_GCs_CalleeSaveLocations@@SIXPAU1@PAUStruct_System_GCs_CalleeSaveRegisters@@@Z 02023c1c f   VolMgr.obj
 0001:00022cb8       ?m_ScanLiveRegs@Struct_System_GCs_CalleeSaveLocations@@SIXPAU1@PAUuintPtr@@PAUClass_System_GCs_NonNullReferenceVisitor@@@Z 02023cb8 f   VolMgr.obj
 0001:00022d44       ?m_PopFrame@Struct_System_GCs_CalleeSaveLocations@@SIXPAU1@PAPAUuintPtr@@PAU2@_N3@Z 02023d44 f   VolMgr.obj
 0001:00022e6c       ?m_GetFramePointer@Struct_System_GCs_CalleeSaveLocations@@SIPAUuintPtr@@PAU1@@Z 02023e6c f   VolMgr.obj
 0001:00022e94       ?m_Equals@Struct_System_GCs_CalleeSaveLocations@@SI_NPAU1@PAUClass_System_Object@@@Z 02023e94 f   VolMgr.obj
 0001:000231c4       ?m_Equals@Struct_System_GCs_CalleeSaveLocations@@SI_NPAUClass_System_GCs_CalleeSaveLocations@@PAUClass_System_Object@@@Z 020241c4 f   VolMgr.obj
 0001:000231f0       ?m_ClearFrame@Struct_System_GCs_CalleeSaveLocations@@SIXPAU1@PAUuintPtr@@_N@Z 020241f0 f   VolMgr.obj
 0001:000232b4       ?m_ClearCalleeSaves@Struct_System_GCs_CalleeSaveLocations@@SIXPAU1@@Z 020242b4 f   VolMgr.obj
 0001:00023300       ?m_StructCopy@Struct_Microsoft_Singularity_Directory_FileAttributesRecord@@SIXPAU1@0@Z 02024300 f   VolMgr.obj
 0001:00023388       ?m_StructCopy@Struct_Microsoft_Singularity_Directory_FileAttributesRecord@@SIXPAU1@PAU1@@Z 02024388 f   VolMgr.obj
 0001:00023520       ?m_Equals@Struct_Microsoft_Singularity_Directory_FileAttributesRecord@@SI_NPAU1@PAUClass_System_Object@@@Z 02024520 f   VolMgr.obj
 0001:00023668       ?m_Equals@Struct_Microsoft_Singularity_Directory_FileAttributesRecord@@SI_NPAUClass_Microsoft_Singularity_Directory_FileAttributesRecord@@PAUClass_System_Object@@@Z 02024668 f   VolMgr.obj
 0001:00023694       ?m_Visit@Class_System_GCs_Verifier_GenericThreadReferenceVisitor@@SIXPAU1@PAPAUuintPtr@@@Z 02024694 f   VolMgr.obj
 0001:00023998       ?m__ctor@Class_System_GCs_Verifier_GenericThreadReferenceVisitor@@SIXPAU1@@Z 02024998 f   VolMgr.obj
 0001:000239bc       ?m_ToString@int16@@SIPAUClass_System_String@@PAF@Z 020249bc f   VolMgr.obj
 0001:000239e4       ?m_ToString@int16@@SIPAUClass_System_String@@PAFPAU2@@Z 020249e4 f   VolMgr.obj
 0001:00023ae0       ?m_ToString@int16@@SIPAUClass_System_String@@PAUClass_System_Int16@@@Z 02024ae0 f   VolMgr.obj
 0001:00023b08       ?m_ToString@int16@@SIPAUClass_System_String@@PAUClass_System_Int16@@PAU2@@Z 02024b08 f   VolMgr.obj
 0001:00023b34       ?m_GetHashCode@int16@@SIHPAF@Z 02024b34 f   VolMgr.obj
 0001:00023b68       ?m_GetHashCode@int16@@SIHPAUClass_System_Int16@@@Z 02024b68 f   VolMgr.obj
 0001:00023b90       ?m_Equals@int16@@SI_NPAFPAUClass_System_Object@@@Z 02024b90 f   VolMgr.obj
 0001:00023bf4       ?m_Equals@int16@@SI_NPAUClass_System_Int16@@PAUClass_System_Object@@@Z 02024bf4 f   VolMgr.obj
 0001:00023c20       ?m_CompareTo@int16@@SIHPAFPAUClass_System_Object@@@Z 02024c20 f   VolMgr.obj
 0001:00023cac       ?m_CompareTo@int16@@SIHPAUClass_System_Int16@@PAUClass_System_Object@@@Z 02024cac f   VolMgr.obj
 0001:00023cd8       ?m_StructCopy@Struct_Microsoft_Singularity_Directory_DirectoryServiceContract_Register@@SIXPAU1@0@Z 02024cd8 f   VolMgr.obj
 0001:00023d0c       ?m_StructCopy@Struct_Microsoft_Singularity_Directory_DirectoryServiceContract_Register@@SIXPAU1@PAU1@@Z 02024d0c f   VolMgr.obj
 0001:00023da8       ?m_MarshallContent@Struct_Microsoft_Singularity_Directory_DirectoryServiceContract_Register@@SIXPAU1@PAEPAUStruct_Microsoft_Singularity_Channels_Endpoint@@1PAH@Z 02024da8 f   VolMgr.obj
 0001:00023ed0       ?m_MarshallAll@Struct_Microsoft_Singularity_Directory_DirectoryServiceContract_Register@@SIXPAU1@PAEPAUStruct_Microsoft_Singularity_Channels_Endpoint@@PAH@Z 02024ed0 f   VolMgr.obj
 0001:00023f28       ?m_Equals@Struct_Microsoft_Singularity_Directory_DirectoryServiceContract_Register@@SI_NPAU1@PAUClass_System_Object@@@Z 02024f28 f   VolMgr.obj
 0001:00023f84       ?m_Equals@Struct_Microsoft_Singularity_Directory_DirectoryServiceContract_Register@@SI_NPAUClass_Microsoft_Singularity_Directory_DirectoryServiceContract_Register@@PAUClass_System_Object@@@Z 02024f84 f   VolMgr.obj
 0001:00023fb0       ?m_StructCopy@Struct_Microsoft_Singularity_Io_DiskDeviceContract_AckGetStartSector@@SIXPAU1@0@Z 02024fb0 f   VolMgr.obj
 0001:00023fe4       ?m_StructCopy@Struct_Microsoft_Singularity_Io_DiskDeviceContract_AckGetStartSector@@SIXPAU1@PAU1@@Z 02024fe4 f   VolMgr.obj
 0001:00024080       ?m_Equals@Struct_Microsoft_Singularity_Io_DiskDeviceContract_AckGetStartSector@@SI_NPAU1@PAUClass_System_Object@@@Z 02025080 f   VolMgr.obj
 0001:000240ec       ?m_Equals@Struct_Microsoft_Singularity_Io_DiskDeviceContract_AckGetStartSector@@SI_NPAUClass_Microsoft_Singularity_Io_DiskDeviceContract_AckGetStartSector@@PAUClass_System_Object@@@Z 020250ec f   VolMgr.obj
 0001:00024118       ?m_GetSize@Class_Microsoft_Singularity_Eventing_UnmanagedMemoryBuffer@@SI_KPAU1@@Z 02025118 f   VolMgr.obj
 0001:00024140       ?m_GetBuffer@Class_Microsoft_Singularity_Eventing_UnmanagedMemoryBuffer@@SIPAEPAU1@@Z 02025140 f   VolMgr.obj
 0001:00024160       ?m_Finalize@Class_Microsoft_Singularity_Eventing_UnmanagedMemoryBuffer@@SIXPAU1@@Z 02025160 f   VolMgr.obj
 0001:000241e4       ?m_AllocateBuffer@Class_Microsoft_Singularity_Eventing_UnmanagedMemoryBuffer@@SI_NPAU1@_K@Z 020251e4 f   VolMgr.obj
 0001:00024274       ?m__ctor@Class_Microsoft_Singularity_Eventing_UnmanagedMemoryBuffer@@SIXPAU1@@Z 02025274 f   VolMgr.obj
 0001:00024298       ?g_TransferOwnership@Struct_Microsoft_Singularity_Io_DiskDeviceContract_Exp@@SIXPAUStruct_Microsoft_Singularity_Channels_Endpoint@@PAU1@@Z 02025298 f   VolMgr.obj
 0001:000242dc       ?m_TransferContentsOwnership@Struct_Microsoft_Singularity_Io_DiskDeviceContract_Exp@@SIXPAU1@PAUStruct_Microsoft_Singularity_Channels_Endpoint@@@Z 020252dc f   VolMgr.obj
 0001:00024308       ?m_StructCopy@Struct_Microsoft_Singularity_Io_DiskDeviceContract_Exp@@SIXPAU1@0@Z 02025308 f   VolMgr.obj
 0001:00024478       ?m_StructCopy@Struct_Microsoft_Singularity_Io_DiskDeviceContract_Exp@@SIXPAU1@PAU1@@Z 02025478 f   VolMgr.obj
 0001:000248c8       ?m_Peek@Struct_Microsoft_Singularity_Io_DiskDeviceContract_Exp@@SIHPAU1@@Z 020258c8 f   VolMgr.obj
 0001:00024e18       ?m_MarshallDeliverRead0@Struct_Microsoft_Singularity_Io_DiskDeviceContract_Exp@@SIXPAU1@PAE_K22PAUStruct_Microsoft_Singularity_Channels_Endpoint@@@Z 02025e18 f   VolMgr.obj
 0001:00024e88       ?m_MarshallContent@Struct_Microsoft_Singularity_Io_DiskDeviceContract_Exp@@SIXPAU1@PAEPAUStruct_Microsoft_Singularity_Channels_Endpoint@@1@Z 02025e88 f   VolMgr.obj
 0001:00024ea8       ?m_InState@Struct_Microsoft_Singularity_Io_DiskDeviceContract_Exp@@SI_NPAU1@H@Z 02025ea8 f   VolMgr.obj
 0001:00024f38       ?m_HeadMatches@Struct_Microsoft_Singularity_Io_DiskDeviceContract_Exp@@SI_NPAU1@HPA_NPAPAUClass_System_Object@@@Z 02025f38 f   VolMgr.obj
 0001:00024ff8       ?m_HeadMatches@Struct_Microsoft_Singularity_Io_DiskDeviceContract_Exp@@SI_NPAUClass_Microsoft_Singularity_Io_DiskDeviceContract_Exp@@HPA_NPAPAUClass_System_Object@@@Z 02025ff8 f   VolMgr.obj
 0001:00025030       ?m_Equals@Struct_Microsoft_Singularity_Io_DiskDeviceContract_Exp@@SI_NPAU1@PAUClass_System_Object@@@Z 02026030 f   VolMgr.obj
 0001:00025674       ?m_Equals@Struct_Microsoft_Singularity_Io_DiskDeviceContract_Exp@@SI_NPAUClass_Microsoft_Singularity_Io_DiskDeviceContract_Exp@@PAUClass_System_Object@@@Z 02026674 f   VolMgr.obj
 0001:000256a0       ?m_DeliverRead0@Struct_Microsoft_Singularity_Io_DiskDeviceContract_Exp@@SIXPAU1@PAE_K22@Z 020266a0 f   VolMgr.obj
 0001:0002570c       ?m_CurrentState@Struct_Microsoft_Singularity_Io_DiskDeviceContract_Exp@@SIPAUClass_System_String@@PAU1@@Z 0202670c f   VolMgr.obj
 0001:00025850       ?m__ctor@Struct_Microsoft_Singularity_Io_DiskDeviceContract_Exp@@SIXPAU1@H@Z 02026850 f   VolMgr.obj
 0001:0002587c       ?g_Create@Class_Microsoft_Singularity_GCProfilerLogger_GCTypeSource@@SIPAU1@PAUClass_System_String@@I_K@Z 0202687c f   VolMgr.obj
 0001:00025950       ?m__ctor@Class_Microsoft_Singularity_GCProfilerLogger_GCTypeSource@@SIXPAU1@PAUClass_System_String@@PAUClass_Microsoft_Singularity_Eventing_EventingStorage@@I@Z 02026950 f   VolMgr.obj
 0001:00025984       ?m_MoveNext@Class_System_Collections_Hashtable_HashtableEnumerator@@SI_NPAU1@@Z 02026984 f   VolMgr.obj
 0001:00025a54       ?m_get$_Current@Class_System_Collections_Hashtable_HashtableEnumerator@@SIPAUClass_System_Object@@PAU1@@Z 02026a54 f   VolMgr.obj
 0001:00025b1c       ?m__ctor@Class_System_Collections_Hashtable_HashtableEnumerator@@SIXPAU1@PAUClass_System_Collections_Hashtable@@H@Z 02026b1c f   VolMgr.obj
 0001:00025b70       ?m_Unlink@Class_Microsoft_Singularity_Channels_EMap$_3$LMicrosoft_Singularity_Directory_ServiceProviderContract_Exp_Microsoft_Singularity_Directory_ServiceProviderContract_Start_optional_Microsoft_Contracts_NonNullType__Microsoft_Singularity_Services_VolumeManager_Volume$G_Node@@SIPAUStruct_Microsoft_Singularity_Directory_ServiceProviderContract_Exp@@PAU1@PAUClass_Microsoft_Singularity_Channels_EMap$_3$LMicrosoft_Singularity_Directory_ServiceProviderContract_Exp_Microsoft_Singularity_Directory_ServiceProviderContract_Start_optional_Microsoft_Contracts_NonNullType__Microsoft_Singularity_Services_VolumeManager_Volume$G@@PAPAUClass_Microsoft_Singularity_Services_VolumeManager_Volume@@@Z 02026b70 f   VolMgr.obj
 0001:00025c58       ?m_LinkAsNext@Class_Microsoft_Singularity_Channels_EMap$_3$LMicrosoft_Singularity_Directory_ServiceProviderContract_Exp_Microsoft_Singularity_Directory_ServiceProviderContract_Start_optional_Microsoft_Contracts_NonNullType__Microsoft_Singularity_Services_VolumeManager_Volume$G_Node@@SIXPAU1@PAUStruct_Microsoft_Singularity_Directory_ServiceProviderContract_Exp@@PAUClass_Microsoft_Singularity_Services_VolumeManager_Volume@@PAUClass_Microsoft_Singularity_Channels_EMap$_3$LMicrosoft_Singularity_Directory_ServiceProviderContract_Exp_Microsoft_Singularity_Directory_ServiceProviderContract_Start_optional_Microsoft_Contracts_NonNullType__Microsoft_Singularity_Services_VolumeManager_Volume$G@@@Z 02026c58 f   VolMgr.obj
 0001:00025cd8       ?m_Init@Class_Microsoft_Singularity_Channels_EMap$_3$LMicrosoft_Singularity_Directory_ServiceProviderContract_Exp_Microsoft_Singularity_Directory_ServiceProviderContract_Start_optional_Microsoft_Contracts_NonNullType__Microsoft_Singularity_Services_VolumeManager_Volume$G_Node@@SIXPAU1@PAUStruct_Microsoft_Singularity_Directory_ServiceProviderContract_Exp@@PAUClass_Microsoft_Singularity_Services_VolumeManager_Volume@@PAUClass_Microsoft_Singularity_Channels_EMap$_3$LMicrosoft_Singularity_Directory_ServiceProviderContract_Exp_Microsoft_Singularity_Directory_ServiceProviderContract_Start_optional_Microsoft_Contracts_NonNullType__Microsoft_Singularity_Services_VolumeManager_Volume$G@@@Z 02026cd8 f   VolMgr.obj
 0001:00025d14       ?m__ctor@Class_Microsoft_Singularity_Channels_EMap$_3$LMicrosoft_Singularity_Directory_ServiceProviderContract_Exp_Microsoft_Singularity_Directory_ServiceProviderContract_Start_optional_Microsoft_Contracts_NonNullType__Microsoft_Singularity_Services_VolumeManager_Volume$G_Node@@SIXPAU1@PAUStruct_Microsoft_Singularity_Directory_ServiceProviderContract_Exp@@PAUClass_Microsoft_Singularity_Services_VolumeManager_Volume@@PAUClass_Microsoft_Singularity_Channels_EMap$_3$LMicrosoft_Singularity_Directory_ServiceProviderContract_Exp_Microsoft_Singularity_Directory_ServiceProviderContract_Start_optional_Microsoft_Contracts_NonNullType__Microsoft_Singularity_Services_VolumeManager_Volume$G@@@Z 02026d14 f   VolMgr.obj
 0001:00025d5c       ?m__ctor@Class_Microsoft_Singularity_Channels_EMap$_3$LMicrosoft_Singularity_Directory_ServiceProviderContract_Exp_Microsoft_Singularity_Directory_ServiceProviderContract_Start_optional_Microsoft_Contracts_NonNullType__Microsoft_Singularity_Services_VolumeManager_Volume$G_Node@@SIXPAU1@PAUClass_Microsoft_Singularity_Channels_EMap$_3$LMicrosoft_Singularity_Directory_ServiceProviderContract_Exp_Microsoft_Singularity_Directory_ServiceProviderContract_Start_optional_Microsoft_Contracts_NonNullType__Microsoft_Singularity_Services_VolumeManager_Volume$G@@@Z 02026d5c f   VolMgr.obj
 0001:00025d90       ?m__ctor@Class_System_TypeInitializationException@@SIXPAU1@@Z 02026d90 f   VolMgr.obj
 0001:00025db8       ?m__ctor@Class_System_TypeInitializationException@@SIXPAU1@PAUClass_System_String@@PAUClass_System_Exception@@@Z 02026db8 f   VolMgr.obj
 0001:00025dfc       ?m_VisitPage@Class_System_GCs_SegregatedFreeList_NullPartialFreePageVisitor@@SI?AUStruct_System_GCs_SegregatedFreeList_PartialPageAction@@PAU1@PAUuintPtr@@PAUStruct_System_GCs_SegregatedFreeList_PageHeader@@H@Z 02026dfc f   VolMgr.obj
 0001:00025e20       ?m_ObserveEmptyPage@Class_System_GCs_SegregatedFreeList_NullPartialFreePageVisitor@@SIXPAU1@@Z 02026e20 f   VolMgr.obj
 0001:00025e3c       ?m__ctor@Class_System_GCs_SegregatedFreeList_NullPartialFreePageVisitor@@SIXPAU1@@Z 02026e3c f   VolMgr.obj
 0001:00025e60       ?m_StructCopy@Struct_Microsoft_Singularity_V1_Threads_ThreadHandle@@SIXPAU1@0@Z 02026e60 f   VolMgr.obj
 0001:00025e88       ?m_StructCopy@Struct_Microsoft_Singularity_V1_Threads_ThreadHandle@@SIXPAU1@PAU1@@Z 02026e88 f   VolMgr.obj
 0001:00025f00       ?m_Equals@Struct_Microsoft_Singularity_V1_Threads_ThreadHandle@@SI_NPAU1@PAUClass_System_Object@@@Z 02026f00 f   VolMgr.obj
 0001:00025f48       ?m_Equals@Struct_Microsoft_Singularity_V1_Threads_ThreadHandle@@SI_NPAUClass_Microsoft_Singularity_V1_Threads_ThreadHandle@@PAUClass_System_Object@@@Z 02026f48 f   VolMgr.obj
 0001:00025f74       ?g_Create@Struct_Microsoft_Singularity_V1_Threads_ThreadHandle@@SI_NHUStruct_Microsoft_Singularity_V1_Threads_ContainerHandle@@PAU1@PAPAUuintPtr@@@Z 02026f74 f   VolMgr.obj
 0001:00025fe0       ?m_StructCopy@Struct_Microsoft_Singularity_Directory_DirectoryServiceContract_NakDeregisterReparse@@SIXPAU1@0@Z 02026fe0 f   VolMgr.obj
 0001:00026020       ?m_StructCopy@Struct_Microsoft_Singularity_Directory_DirectoryServiceContract_NakDeregisterReparse@@SIXPAU1@PAU1@@Z 02027020 f   VolMgr.obj
 0001:000260e0       ?m_Equals@Struct_Microsoft_Singularity_Directory_DirectoryServiceContract_NakDeregisterReparse@@SI_NPAU1@PAUClass_System_Object@@@Z 020270e0 f   VolMgr.obj
 0001:00026148       ?m_Equals@Struct_Microsoft_Singularity_Directory_DirectoryServiceContract_NakDeregisterReparse@@SI_NPAUClass_Microsoft_Singularity_Directory_DirectoryServiceContract_NakDeregisterReparse@@PAUClass_System_Object@@@Z 02027148 f   VolMgr.obj
 0001:00026174       ?g_UIntPtrPad@Class_System_GCs_Util@@SIPAUuintPtr@@PAU2@@Z 02027174 f   VolMgr.obj
 0001:000261a4       ?g_PrintPageContents@Class_System_GCs_Util@@SIXPAUuintPtr@@@Z 020271a4 f   VolMgr.obj
 0001:00026230       ?g_PrintMemoryContents@Class_System_GCs_Util@@SIXPAUuintPtr@@0@Z 02027230 f   VolMgr.obj
 0001:0002661c       ?g_Pad@Class_System_GCs_Util@@SIPAUuintPtr@@PAU2@0@Z 0202761c f   VolMgr.obj
 0001:0002664c       ?g_MemCopy@Class_System_GCs_Util@@SIXPAUuintPtr@@00@Z 0202764c f   VolMgr.obj
 0001:0002667c       ?g_MemClear@Class_System_GCs_Util@@SIXPAUuintPtr@@0@Z 0202767c f   VolMgr.obj
 0001:000266a8       ?g_IsAligned@Class_System_GCs_Util@@SI_NII@Z 020276a8 f   VolMgr.obj
 0001:000266d8       ?g_Align@Class_System_GCs_Util@@SIPAUuintPtr@@PAU2@0@Z 020276d8 f   VolMgr.obj
 0001:00026704       ?m__ctor@Class_System_GCs_Util@@SIXPAU1@@Z 02027704 f   VolMgr.obj
 0001:0002671c       ?m_StructCopy@Struct_Microsoft_Singularity_Directory_FileContract_Read@@SIXPAU1@0@Z 0202771c f   VolMgr.obj
 0001:0002678c       ?m_StructCopy@Struct_Microsoft_Singularity_Directory_FileContract_Read@@SIXPAU1@PAU1@@Z 0202778c f   VolMgr.obj
 0001:000268dc       ?m_Equals@Struct_Microsoft_Singularity_Directory_FileContract_Read@@SI_NPAU1@PAUClass_System_Object@@@Z 020278dc f   VolMgr.obj
 0001:000269a4       ?m_Equals@Struct_Microsoft_Singularity_Directory_FileContract_Read@@SI_NPAUClass_Microsoft_Singularity_Directory_FileContract_Read@@PAUClass_System_Object@@@Z 020279a4 f   VolMgr.obj
 0001:000269d0       ?m__ctor@Class_Microsoft_Contracts_ContractMarkerException@@SIXPAU1@@Z 020279d0 f   VolMgr.obj
 0001:000269f4       ?m_StructCopy@Struct_System_RuntimeArgumentHandle@@SIXPAU1@0@Z 020279f4 f   VolMgr.obj
 0001:00026a1c       ?m_StructCopy@Struct_System_RuntimeArgumentHandle@@SIXPAU1@PAU1@@Z 02027a1c f   VolMgr.obj
 0001:00026a94       ?m_get$_Pointer@Struct_System_RuntimeArgumentHandle@@SIPAUintPtr@@PAU1@@Z 02027a94 f   VolMgr.obj
 0001:00026ab4       ?m_Equals@Struct_System_RuntimeArgumentHandle@@SI_NPAU1@PAUClass_System_Object@@@Z 02027ab4 f   VolMgr.obj
 0001:00026afc       ?m_Equals@Struct_System_RuntimeArgumentHandle@@SI_NPAUClass_System_RuntimeArgumentHandle@@PAUClass_System_Object@@@Z 02027afc f   VolMgr.obj
 0001:00026b28       ?g_Arglist@Struct_System_RuntimeArgumentHandle@@SI?AU1@PAUStruct_System_VarargList@@@Z 02027b28 f   VolMgr.obj
 0001:00026b74       ?m_StructCopy@Struct_Microsoft_Singularity_Isal_IX_TSS@@SIXPAU1@0@Z 02027b74 f   VolMgr.obj
 0001:00026d88       ?m_StructCopy@Struct_Microsoft_Singularity_Isal_IX_TSS@@SIXPAU1@PAU1@@Z 02027d88 f   VolMgr.obj
 0001:000273c4       ?m_Equals@Struct_Microsoft_Singularity_Isal_IX_TSS@@SI_NPAU1@PAUClass_System_Object@@@Z 020283c4 f   VolMgr.obj
 0001:000276b4       ?m_Equals@Struct_Microsoft_Singularity_Isal_IX_TSS@@SI_NPAUClass_Microsoft_Singularity_Isal_IX_TSS@@PAUClass_System_Object@@@Z 020286b4 f   VolMgr.obj
 0001:000276e0       ?m_StructCopy@Struct_System_ReadEnlistmentLog_Location@@SIXPAU1@0@Z 020286e0 f   VolMgr.obj
 0001:00027714       ?m_StructCopy@Struct_System_ReadEnlistmentLog_Location@@SIXPAU1@PAU1@@Z 02028714 f   VolMgr.obj
 0001:000277b0       ?m_Equals@Struct_System_ReadEnlistmentLog_Location@@SI_NPAU1@PAUClass_System_Object@@@Z 020287b0 f   VolMgr.obj
 0001:00027810       ?m_Equals@Struct_System_ReadEnlistmentLog_Location@@SI_NPAUClass_System_ReadEnlistmentLog_Location@@PAUClass_System_Object@@@Z 02028810 f   VolMgr.obj
 0001:0002783c       ?m__ctor@Struct_System_ReadEnlistmentLog_Location@@SIXPAU1@PAUClass_System_ReadEnlistmentLog_LogChunk@@H@Z 0202883c f   VolMgr.obj
 0001:0002786c       ?m_ToString@uintPtr@@SIPAUClass_System_String@@PAPAU1@@Z 0202886c f   VolMgr.obj
 0001:000278a0       ?m_ToString@uintPtr@@SIPAUClass_System_String@@PAPAU1@PAU2@@Z 020288a0 f   VolMgr.obj
 0001:000278d8       ?m_ToString@uintPtr@@SIPAUClass_System_String@@PAUClass_System_UIntPtr@@@Z 020288d8 f   VolMgr.obj
 0001:0002792c       ?m_ToString@uintPtr@@SIPAUClass_System_String@@PAUClass_System_UIntPtr@@PAU2@@Z 0202892c f   VolMgr.obj
 0001:00027984       ?m_GetHashCode@uintPtr@@SIHPAPAU1@@Z 02028984 f   VolMgr.obj
 0001:000279a8       ?m_GetHashCode@uintPtr@@SIHPAUClass_System_UIntPtr@@@Z 020289a8 f   VolMgr.obj
 0001:000279e4       ?m_Equals@uintPtr@@SI_NPAPAU1@PAUClass_System_Object@@@Z 020289e4 f   VolMgr.obj
 0001:00027a40       ?m_Equals@uintPtr@@SI_NPAUClass_System_UIntPtr@@PAUClass_System_Object@@@Z 02028a40 f   VolMgr.obj
 0001:00027ac8       ?m_StructCopy@Struct_System_GCs_CallStack_TransitionRecord@@SIXPAU1@0@Z 02028ac8 f   VolMgr.obj
 0001:00027b18       ?m_StructCopy@Struct_System_GCs_CallStack_TransitionRecord@@SIXPAU1@PAU1@@Z 02028b18 f   VolMgr.obj
 0001:00027c08       ?m_Equals@Struct_System_GCs_CallStack_TransitionRecord@@SI_NPAU1@PAUClass_System_Object@@@Z 02028c08 f   VolMgr.obj
 0001:00027d24       ?m_Equals@Struct_System_GCs_CallStack_TransitionRecord@@SI_NPAUClass_System_GCs_CallStack_TransitionRecord@@PAUClass_System_Object@@@Z 02028d24 f   VolMgr.obj
 0001:00027d50       ?g_get$_RangeMessage@Class_System_ArgumentOutOfRangeException@@SIPAUClass_System_String@@XZ 02028d50 f   VolMgr.obj
 0001:00027d7c       ?m_get$_Message@Class_System_ArgumentOutOfRangeException@@SIPAUClass_System_String@@PAU1@@Z 02028d7c f   VolMgr.obj
 0001:00027df4       ?m__ctor@Class_System_ArgumentOutOfRangeException@@SIXPAU1@@Z 02028df4 f   VolMgr.obj
 0001:00027e1c       ?m__ctor@Class_System_ArgumentOutOfRangeException@@SIXPAU1@PAUClass_System_String@@@Z 02028e1c f   VolMgr.obj
 0001:00027e4c       ?m__ctor@Class_System_ArgumentOutOfRangeException@@SIXPAU1@PAUClass_System_String@@1@Z 02028e4c f   VolMgr.obj
 0001:00027e7c       ?m__ctor@Class_System_ArgumentOutOfRangeException@@SIXPAU1@PAUClass_System_String@@PAUClass_System_Object@@1@Z 02028e7c f   VolMgr.obj
 0001:00027eb4       ?m_StructCopy@Struct_Microsoft_Singularity_Isal_ThreadRecord@@SIXPAU1@0@Z 02028eb4 f   VolMgr.obj
 0001:00027ef4       ?m_StructCopy@Struct_Microsoft_Singularity_Isal_ThreadRecord@@SIXPAU1@PAU1@@Z 02028ef4 f   VolMgr.obj
 0001:00027fb4       ?m_Equals@Struct_Microsoft_Singularity_Isal_ThreadRecord@@SI_NPAU1@PAUClass_System_Object@@@Z 02028fb4 f   VolMgr.obj
 0001:00028084       ?m_Equals@Struct_Microsoft_Singularity_Isal_ThreadRecord@@SI_NPAUClass_Microsoft_Singularity_Isal_ThreadRecord@@PAUClass_System_Object@@@Z 02029084 f   VolMgr.obj
 0001:000280b0       ?m_GetController@Class_Microsoft_Singularity_Eventing_GlobalStorage@@SIPAUClass_Microsoft_Singularity_Eventing_Controller@@PAU1@@Z 020290b0 f   VolMgr.obj
 0001:000280e4       ?m_Finalize@Class_Microsoft_Singularity_Eventing_GlobalStorage@@SIXPAU1@@Z 020290e4 f   VolMgr.obj
 0001:00028128       ?m_Destroy@Class_Microsoft_Singularity_Eventing_GlobalStorage@@SIXPAU1@@Z 02029128 f   VolMgr.obj
 0001:0002815c       ?m_StructCopy@Struct_Microsoft_Bartok_Runtime_PostHeader@@SIXPAU1@0@Z 0202915c f   VolMgr.obj
 0001:00028184       ?m_StructCopy@Struct_Microsoft_Bartok_Runtime_PostHeader@@SIXPAU1@PAU1@@Z 02029184 f   VolMgr.obj
 0001:000281fc       ?m_Equals@Struct_Microsoft_Bartok_Runtime_PostHeader@@SI_NPAU1@PAUClass_System_Object@@@Z 020291fc f   VolMgr.obj
 0001:00028248       ?m_Equals@Struct_Microsoft_Bartok_Runtime_PostHeader@@SI_NPAUClass_Microsoft_Bartok_Runtime_PostHeader@@PAUClass_System_Object@@@Z 02029248 f   VolMgr.obj
 0001:00028274       ?m_StructCopy@Struct_Microsoft_Singularity_Io_VolumeManagerContract_NakConnect@@SIXPAU1@0@Z 02029274 f   VolMgr.obj
 0001:0002829c       ?m_StructCopy@Struct_Microsoft_Singularity_Io_VolumeManagerContract_NakConnect@@SIXPAU1@PAU1@@Z 0202929c f   VolMgr.obj
 0001:00028314       ?m_Equals@Struct_Microsoft_Singularity_Io_VolumeManagerContract_NakConnect@@SI_NPAU1@PAUClass_System_Object@@@Z 02029314 f   VolMgr.obj
 0001:0002835c       ?m_Equals@Struct_Microsoft_Singularity_Io_VolumeManagerContract_NakConnect@@SI_NPAUClass_Microsoft_Singularity_Io_VolumeManagerContract_NakConnect@@PAUClass_System_Object@@@Z 0202935c f   VolMgr.obj
 0001:00028388       ?m_FieldOffset@Class_System_GCs_Barrier_SlowCopyFieldsVisitor@@SIXPAU1@PAUuintPtr@@PAUStruct_System_GCs_ReferenceVisitor_ObjectDescriptor@@@Z 02029388 f   VolMgr.obj
 0001:000284e8       ?m__ctor@Class_System_GCs_Barrier_SlowCopyFieldsVisitor@@SIXPAU1@@Z 020294e8 f   VolMgr.obj
 0001:0002850c       ?m_ToString@Struct_System_Decimal@@SIPAUClass_System_String@@PAU1@@Z 0202950c f   VolMgr.obj
 0001:00028534       ?m_ToString@Struct_System_Decimal@@SIPAUClass_System_String@@PAU1@PAU2@@Z 02029534 f   VolMgr.obj
 0001:000285b8       ?m_ToString@Struct_System_Decimal@@SIPAUClass_System_String@@PAUClass_System_Decimal@@@Z 020295b8 f   VolMgr.obj
 0001:00028600       ?m_ToString@Struct_System_Decimal@@SIPAUClass_System_String@@PAUClass_System_Decimal@@PAU2@@Z 02029600 f   VolMgr.obj
 0001:0002864c       ?m_StructCopy@Struct_System_Decimal@@SIXPAU1@0@Z 0202964c f   VolMgr.obj
 0001:00028698       ?m_StructCopy@Struct_System_Decimal@@SIXPAU1@PAU1@@Z 02029698 f   VolMgr.obj
 0001:0002877c       ?m_set$_mid32@Struct_System_Decimal@@SIXPAU1@I@Z 0202977c f   VolMgr.obj
 0001:000287a4       ?m_set$_lo32@Struct_System_Decimal@@SIXPAU1@I@Z 020297a4 f   VolMgr.obj
 0001:000287cc       ?m_set$_hi32@Struct_System_Decimal@@SIXPAU1@I@Z 020297cc f   VolMgr.obj
 0001:000287f4       ?m_GetHashCode@Struct_System_Decimal@@SIHPAU1@@Z 020297f4 f   VolMgr.obj
 0001:00028854       ?m_GetHashCode@Struct_System_Decimal@@SIHPAUClass_System_Decimal@@@Z 02029854 f   VolMgr.obj
 0001:0002889c       ?m_get$_scale@Struct_System_Decimal@@SIEPAU1@@Z 0202989c f   VolMgr.obj
 0001:000288c0       ?m_get$_negative@Struct_System_Decimal@@SI_NPAU1@@Z 020298c0 f   VolMgr.obj
 0001:000288e4       ?m_get$_mid32@Struct_System_Decimal@@SIIPAU1@@Z 020298e4 f   VolMgr.obj
 0001:00028904       ?m_get$_lo32@Struct_System_Decimal@@SIIPAU1@@Z 02029904 f   VolMgr.obj
 0001:00028924       ?m_get$_hi32@Struct_System_Decimal@@SIIPAU1@@Z 02029924 f   VolMgr.obj
 0001:00028944       ?m_Equals@Struct_System_Decimal@@SI_NPAU1@PAUClass_System_Object@@@Z 02029944 f   VolMgr.obj
 0001:00028a18       ?m_Equals@Struct_System_Decimal@@SI_NPAUClass_System_Decimal@@PAUClass_System_Object@@@Z 02029a18 f   VolMgr.obj
 0001:00028a64       ?m_CompareTo@Struct_System_Decimal@@SIHPAU1@PAUClass_System_Object@@@Z 02029a64 f   VolMgr.obj
 0001:00028b68       ?m_CompareTo@Struct_System_Decimal@@SIHPAUClass_System_Decimal@@PAUClass_System_Object@@@Z 02029b68 f   VolMgr.obj
 0001:00028bb4       ?g_Compare@Struct_System_Decimal@@SIHU1@0@Z 02029bb4 f   VolMgr.obj
 0001:00028bd8       ?m__ctor@Struct_System_Decimal@@SIXPAU1@H@Z 02029bd8 f   VolMgr.obj
 0001:00028c38       ?m__ctor@Struct_System_Decimal@@SIXPAU1@HHH_NE@Z 02029c38 f   VolMgr.obj
 0001:00028cc8       ?g__cctor@Struct_System_Decimal@@SIXXZ 02029cc8 f   VolMgr.obj
 0001:00028e58       ?m_ToString@Struct_System_TimeSpan@@SIPAUClass_System_String@@PAU1@@Z 02029e58 f   VolMgr.obj
 0001:00029088       ?m_ToString@Struct_System_TimeSpan@@SIPAUClass_System_String@@PAUClass_System_TimeSpan@@@Z 0202a088 f   VolMgr.obj
 0001:000290d0       ?m_Subtract@Struct_System_TimeSpan@@SI?AU1@PAU1@U1@@Z 0202a0d0 f   VolMgr.obj
 0001:000291ec       ?m_StructCopy@Struct_System_TimeSpan@@SIXPAU1@0@Z 0202a1ec f   VolMgr.obj
 0001:00029220       ?m_StructCopy@Struct_System_TimeSpan@@SIXPAU1@PAU1@@Z 0202a220 f   VolMgr.obj
 0001:000292bc       ?g_op$_Subtraction@Struct_System_TimeSpan@@SI?AU1@U1@0@Z 0202a2bc f   VolMgr.obj
 0001:00029318       ?m_IntToString@Struct_System_TimeSpan@@SIPAUClass_System_String@@PAU1@HH@Z 0202a318 f   VolMgr.obj
 0001:00029364       ?m_GetHashCode@Struct_System_TimeSpan@@SIHPAU1@@Z 0202a364 f   VolMgr.obj
 0001:00029390       ?m_GetHashCode@Struct_System_TimeSpan@@SIHPAUClass_System_TimeSpan@@@Z 0202a390 f   VolMgr.obj
 0001:000293d8       ?m_get$_Ticks@Struct_System_TimeSpan@@SI_JPAU1@@Z 0202a3d8 f   VolMgr.obj
 0001:000293fc       ?m_get$_Milliseconds@Struct_System_TimeSpan@@SIHPAU1@@Z 0202a3fc f   VolMgr.obj
 0001:0002943c       ?m_Equals@Struct_System_TimeSpan@@SI_NPAU1@PAUClass_System_Object@@@Z 0202a43c f   VolMgr.obj
 0001:000294b4       ?m_Equals@Struct_System_TimeSpan@@SI_NPAUClass_System_TimeSpan@@PAUClass_System_Object@@@Z 0202a4b4 f   VolMgr.obj
 0001:00029500       ?m_CompareTo@Struct_System_TimeSpan@@SIHPAU1@PAUClass_System_Object@@@Z 0202a500 f   VolMgr.obj
 0001:000295ec       ?m_CompareTo@Struct_System_TimeSpan@@SIHPAUClass_System_TimeSpan@@PAUClass_System_Object@@@Z 0202a5ec f   VolMgr.obj
 0001:00029638       ?m__ctor@Struct_System_TimeSpan@@SIXPAU1@_J@Z 0202a638 f   VolMgr.obj
 0001:00029664       ?g__cctor@Struct_System_TimeSpan@@SIXXZ 0202a664 f   VolMgr.obj
 0001:00029744       ?m_StructCopy@Struct_System_GCs_SegregatedFreeList_PageHeader@@SIXPAU1@0@Z 0202a744 f   VolMgr.obj
 0001:000297a0       ?m_StructCopy@Struct_System_GCs_SegregatedFreeList_PageHeader@@SIXPAU1@PAU1@@Z 0202a7a0 f   VolMgr.obj
 0001:000298b4       ?g_get$_Size@Struct_System_GCs_SegregatedFreeList_PageHeader@@SIHXZ 0202a8b4 f   VolMgr.obj
 0001:000298cc       ?m_Equals@Struct_System_GCs_SegregatedFreeList_PageHeader@@SI_NPAU1@PAUClass_System_Object@@@Z 0202a8cc f   VolMgr.obj
 0001:00029954       ?m_Equals@Struct_System_GCs_SegregatedFreeList_PageHeader@@SI_NPAUClass_System_GCs_SegregatedFreeList_PageHeader@@PAUClass_System_Object@@@Z 0202a954 f   VolMgr.obj
 0001:00029980       ?m_StructCopy@Struct_System_TypedReference@@SIXPAU1@0@Z 0202a980 f   VolMgr.obj
 0001:000299b4       ?m_StructCopy@Struct_System_TypedReference@@SIXPAU1@PAU1@@Z 0202a9b4 f   VolMgr.obj
 0001:00029a50       ?g_RefAnyType@Struct_System_TypedReference@@SI?AUStruct_System_RuntimeTypeHandle@@U1@@Z 0202aa50 f   VolMgr.obj
 0001:00029a88       ?g_MakeRefAny@Struct_System_TypedReference@@SI?AU1@PAUvoid@@PAUClass_System_RuntimeType@@@Z 0202aa88 f   VolMgr.obj
 0001:00029b28       ?m_GetHashCode@Struct_System_TypedReference@@SIHPAU1@@Z 0202ab28 f   VolMgr.obj
 0001:00029b9c       ?m_GetHashCode@Struct_System_TypedReference@@SIHPAUClass_System_TypedReference@@@Z 0202ab9c f   VolMgr.obj
 0001:00029bc4       ?m_Equals@Struct_System_TypedReference@@SI_NPAU1@PAUClass_System_Object@@@Z 0202abc4 f   VolMgr.obj
 0001:00029c04       ?m_Equals@Struct_System_TypedReference@@SI_NPAUClass_System_TypedReference@@PAUClass_System_Object@@@Z 0202ac04 f   VolMgr.obj
 0001:00029c30       ?m__ctor@Struct_System_TypedReference@@SIXPAU1@PAUvoid@@PAUClass_System_RuntimeType@@@Z 0202ac30 f   VolMgr.obj
 0001:00029c60       ?m_StructCopy@Struct_System_LogEntryUndoAction@@SIXPAU1@0@Z 0202ac60 f   VolMgr.obj
 0001:00029c98       ?m_StructCopy@Struct_System_LogEntryUndoAction@@SIXPAU1@PAU1@@Z 0202ac98 f   VolMgr.obj
 0001:00029d40       ?m_Equals@Struct_System_LogEntryUndoAction@@SI_NPAU1@PAUClass_System_Object@@@Z 0202ad40 f   VolMgr.obj
 0001:00029e3c       ?m_Equals@Struct_System_LogEntryUndoAction@@SI_NPAUClass_System_LogEntryUndoAction@@PAUClass_System_Object@@@Z 0202ae3c f   VolMgr.obj
 0001:00029e68       ?m_WriteImpl@Class_System_GCs_EmptyWriteBarrier@@SIXPAU1@PAPAUuintPtr@@PAUClass_System_Object@@H@Z 0202ae68 f   VolMgr.obj
 0001:00029e90       ?g_Initialize@Class_System_GCs_EmptyWriteBarrier@@SIXXZ 0202ae90 f   VolMgr.obj
 0001:00029f08       ?m_CopyStructImpl@Class_System_GCs_EmptyWriteBarrier@@SIXPAU1@PAUClass_System_Object@@1PAUClass_System_VTable@@PAUuintPtr@@3@Z 0202af08 f   VolMgr.obj
 0001:00029f6c       ?m_ArrayCopyImpl@Class_System_GCs_EmptyWriteBarrier@@SIXPAU1@PAUClass_System_Array@@H1HH@Z 0202af6c f   VolMgr.obj
 0001:0002a074       ?m__ctor@Class_System_GCs_EmptyWriteBarrier@@SIXPAU1@@Z 0202b074 f   VolMgr.obj
 0001:0002a098       ?m_WriteImpl@Class_System_GCs_RefWriteBarrier@@SIXPAU1@PAPAUuintPtr@@PAU2@H@Z 0202b098 f   VolMgr.obj
 0001:0002a0c0       ?m_WeakRefWriteImpl@Class_System_GCs_RefWriteBarrier@@SIPAUuintPtr@@PAU1@PAUClass_System_Object@@H@Z 0202b0c0 f   VolMgr.obj
 0001:0002a0e4       ?m_WeakRefReadImpl@Class_System_GCs_RefWriteBarrier@@SIPAUClass_System_Object@@PAU1@PAUuintPtr@@H@Z 0202b0e4 f   VolMgr.obj
 0001:0002a108       ?m_ReadObjImpl@Class_System_GCs_RefWriteBarrier@@SIPAUClass_System_Object@@PAU1@PAPAUuintPtr@@H@Z 0202b108 f   VolMgr.obj
 0001:0002a12c       ?m_ReadImpl@Class_System_GCs_RefWriteBarrier@@SIPAUuintPtr@@PAU1@PAPAU2@H@Z 0202b12c f   VolMgr.obj
 0001:0002a150       ?m__ctor@Class_System_GCs_RefWriteBarrier@@SIXPAU1@@Z 0202b150 f   VolMgr.obj
 0001:0002a174       ?g_WriteHelperShort@Class_System_Buffer@@SIXPAFF_N@Z 0202b174 f   VolMgr.obj
 0001:0002a1b8       ?g_WriteHelperInt@Class_System_Buffer@@SIXPAHH_N@Z 0202b1b8 f   VolMgr.obj
 0001:0002a1f4       ?g_WriteHelperByte@Class_System_Buffer@@SIXPAEE_N@Z 0202b1f4 f   VolMgr.obj
 0001:0002a230       ?g_ReadHelperShort@Class_System_Buffer@@SIFPAF_N@Z 0202b230 f   VolMgr.obj
 0001:0002a268       ?g_ReadHelperInt@Class_System_Buffer@@SIHPAH_N@Z 0202b268 f   VolMgr.obj
 0001:0002a29c       ?g_ReadHelperByte@Class_System_Buffer@@SIEPAE_N@Z 0202b29c f   VolMgr.obj
 0001:0002a2d0       ?g_MoveMemoryVolatile@Class_System_Buffer@@SIXPAE0H@Z 0202b2d0 f   VolMgr.obj
 0001:0002abb4       ?g_MoveMemoryImpl@Class_System_Buffer@@SIXPAE0H_N@Z 0202bbb4 f   VolMgr.obj
 0001:0002b8fc       ?g_MoveMemory@Class_System_Buffer@@SIXPAE0PAUuintPtr@@@Z 0202c8fc f   VolMgr.obj
 0001:0002b92c       ?g_InitMemoryVolatile@Class_System_Buffer@@SIXPAEEH@Z 0202c92c f   VolMgr.obj
 0001:0002bb8c       ?g_InitMemoryImpl@Class_System_Buffer@@SIXPAEEH_N@Z 0202cb8c f   VolMgr.obj
 0001:0002be1c       ?g_InitMemory@Class_System_Buffer@@SIXPAEEH@Z 0202ce1c f   VolMgr.obj
 0001:0002c07c       ?m__ctor@Class_System_Buffer@@SIXPAU1@@Z 0202d07c f   VolMgr.obj
 0001:0002c098       ?m_StructCopy@Struct_Microsoft_Singularity_ProcessorContext@@SIXPAU1@0@Z 0202d098 f   VolMgr.obj
 0001:0002c130       ?m_StructCopy@Struct_Microsoft_Singularity_ProcessorContext@@SIXPAU1@PAU1@@Z 0202d130 f   VolMgr.obj
 0001:0002c2f8       ?m_Equals@Struct_Microsoft_Singularity_ProcessorContext@@SI_NPAU1@PAUClass_System_Object@@@Z 0202d2f8 f   VolMgr.obj
 0001:0002c43c       ?m_Equals@Struct_Microsoft_Singularity_ProcessorContext@@SI_NPAUClass_Microsoft_Singularity_ProcessorContext@@PAUClass_System_Object@@@Z 0202d43c f   VolMgr.obj
 0001:0002c468       ?m_StructCopy@Struct_Microsoft_Singularity_Io_VolumeManagerContract_Imp@@SIXPAU1@0@Z 0202d468 f   VolMgr.obj
 0001:0002c594       ?m_StructCopy@Struct_Microsoft_Singularity_Io_VolumeManagerContract_Imp@@SIXPAU1@PAU1@@Z 0202d594 f   VolMgr.obj
 0001:0002c918       ?m_Peek@Struct_Microsoft_Singularity_Io_VolumeManagerContract_Imp@@SIHPAU1@@Z 0202d918 f   VolMgr.obj
 0001:0002cbac       ?m_MarshallDeliverSuccess0@Struct_Microsoft_Singularity_Io_VolumeManagerContract_Imp@@SIXPAU1@PAUStruct_Microsoft_Singularity_Channels_Endpoint@@@Z 0202dbac f   VolMgr.obj
 0001:0002cbf8       ?m_MarshallDeliverNakRegisterDisk1@Struct_Microsoft_Singularity_Io_VolumeManagerContract_Imp@@SIXPAU1@PAUStruct_Microsoft_Singularity_Channels_Endpoint@@@Z 0202dbf8 f   VolMgr.obj
 0001:0002cc44       ?m_MarshallDeliverConnect0@Struct_Microsoft_Singularity_Io_VolumeManagerContract_Imp@@SIXPAU1@PAUStruct_Microsoft_Singularity_Io_DiskDeviceContract_Exp@@E_K2PAUStruct_Microsoft_Singularity_Channels_Endpoint@@@Z 0202dc44 f   VolMgr.obj
 0001:0002ccac       ?m_MarshallDeliverAckRegisterDisk1@Struct_Microsoft_Singularity_Io_VolumeManagerContract_Imp@@SIXPAU1@PAUStruct_Microsoft_Singularity_Channels_Endpoint@@@Z 0202dcac f   VolMgr.obj
 0001:0002ccf8       ?m_HeadMatches@Struct_Microsoft_Singularity_Io_VolumeManagerContract_Imp@@SI_NPAU1@HPA_NPAPAUClass_System_Object@@@Z 0202dcf8 f   VolMgr.obj
 0001:0002cdb8       ?m_HeadMatches@Struct_Microsoft_Singularity_Io_VolumeManagerContract_Imp@@SI_NPAUClass_Microsoft_Singularity_Io_VolumeManagerContract_Imp@@HPA_NPAPAUClass_System_Object@@@Z 0202ddb8 f   VolMgr.obj
 0001:0002cdf0       ?m_Equals@Struct_Microsoft_Singularity_Io_VolumeManagerContract_Imp@@SI_NPAU1@PAUClass_System_Object@@@Z 0202ddf0 f   VolMgr.obj
 0001:0002d274       ?m_Equals@Struct_Microsoft_Singularity_Io_VolumeManagerContract_Imp@@SI_NPAUClass_Microsoft_Singularity_Io_VolumeManagerContract_Imp@@PAUClass_System_Object@@@Z 0202e274 f   VolMgr.obj
 0001:0002d2a0       ?m_DeliverSuccess0@Struct_Microsoft_Singularity_Io_VolumeManagerContract_Imp@@SIXPAU1@@Z 0202e2a0 f   VolMgr.obj
 0001:0002d2d4       ?m_DeliverNakRegisterDisk1@Struct_Microsoft_Singularity_Io_VolumeManagerContract_Imp@@SIXPAU1@@Z 0202e2d4 f   VolMgr.obj
 0001:0002d308       ?m_DeliverConnect0@Struct_Microsoft_Singularity_Io_VolumeManagerContract_Imp@@SIXPAU1@PAUStruct_Microsoft_Singularity_Io_DiskDeviceContract_Exp@@E_K2@Z 0202e308 f   VolMgr.obj
 0001:0002d370       ?m_DeliverAckRegisterDisk1@Struct_Microsoft_Singularity_Io_VolumeManagerContract_Imp@@SIXPAU1@@Z 0202e370 f   VolMgr.obj
 0001:0002d3a4       ?m_HeadMatches@Class_SurrogateMicrosoft_Singularity_Directory_ServiceProviderContract_Exp@@SI_NPAU1@HPA_NPAPAUClass_System_Object@@@Z 0202e3a4 f   VolMgr.obj
 0001:0002d3d8       ?m_GetWaitHandle@Class_SurrogateMicrosoft_Singularity_Directory_ServiceProviderContract_Exp@@SI?AUStruct_Microsoft_Singularity_V1_Threads_SyncHandle@@PAU1@@Z 0202e3d8 f   VolMgr.obj
 0001:0002d3fc       ?g__ctor@Class_SurrogateMicrosoft_Singularity_Directory_ServiceProviderContract_Exp@@SIXPAU1@PAUStruct_Microsoft_Singularity_Directory_ServiceProviderContract_Exp@@@Z 0202e3fc f   VolMgr.obj
 0001:0002d424       ?m_WaitOneNoGC@Class_System_Threading_AutoResetEvent@@SI_NPAU1@@Z 0202e424 f   VolMgr.obj
 0001:0002d48c       ?m_WaitOne@Class_System_Threading_AutoResetEvent@@SI_NPAU1@@Z 0202e48c f   VolMgr.obj
 0001:0002d500       ?m_WaitOne@Class_System_Threading_AutoResetEvent@@SI_NPAU1@UStruct_System_SchedulerTime@@@Z 0202e500 f   VolMgr.obj
 0001:0002d588       ?m_SetNoGC@Class_System_Threading_AutoResetEvent@@SIXPAU1@@Z 0202e588 f   VolMgr.obj
 0001:0002d5b8       ?m_Set@Class_System_Threading_AutoResetEvent@@SIXPAU1@@Z 0202e5b8 f   VolMgr.obj
 0001:0002d5f0       ?m_Finalize@Class_System_Threading_AutoResetEvent@@SIXPAU1@@Z 0202e5f0 f   VolMgr.obj
 0001:0002d654       ?m_Dispose@Class_System_Threading_AutoResetEvent@@SIXPAU1@_N@Z 0202e654 f   VolMgr.obj
 0001:0002d6a0       ?m__ctor@Class_System_Threading_AutoResetEvent@@SIXPAU1@_N@Z 0202e6a0 f   VolMgr.obj
 0001:0002d70c       ?m_StructCopy@Struct_Microsoft_Singularity_Directory_FileContract_Write@@SIXPAU1@0@Z 0202e70c f   VolMgr.obj
 0001:0002d77c       ?m_StructCopy@Struct_Microsoft_Singularity_Directory_FileContract_Write@@SIXPAU1@PAU1@@Z 0202e77c f   VolMgr.obj
 0001:0002d8cc       ?m_Equals@Struct_Microsoft_Singularity_Directory_FileContract_Write@@SI_NPAU1@PAUClass_System_Object@@@Z 0202e8cc f   VolMgr.obj
 0001:0002d990       ?m_Equals@Struct_Microsoft_Singularity_Directory_FileContract_Write@@SI_NPAUClass_Microsoft_Singularity_Directory_FileContract_Write@@PAUClass_System_Object@@@Z 0202e990 f   VolMgr.obj
 0001:0002d9bc       ?m_StructCopy@Struct_Microsoft_Singularity_Directory_DirectoryServiceContract_CreateDirectory@@SIXPAU1@0@Z 0202e9bc f   VolMgr.obj
 0001:0002d9e4       ?m_StructCopy@Struct_Microsoft_Singularity_Directory_DirectoryServiceContract_CreateDirectory@@SIXPAU1@PAU1@@Z 0202e9e4 f   VolMgr.obj
 0001:0002da5c       ?m_Equals@Struct_Microsoft_Singularity_Directory_DirectoryServiceContract_CreateDirectory@@SI_NPAU1@PAUClass_System_Object@@@Z 0202ea5c f   VolMgr.obj
 0001:0002daa4       ?m_Equals@Struct_Microsoft_Singularity_Directory_DirectoryServiceContract_CreateDirectory@@SI_NPAUClass_Microsoft_Singularity_Directory_DirectoryServiceContract_CreateDirectory@@PAUClass_System_Object@@@Z 0202eaa4 f   VolMgr.obj
 0001:0002dad0       ?m_StructCopy@Struct_Microsoft_Singularity_Io_VolumeManagerContract_RegisterDisk@@SIXPAU1@0@Z 0202ead0 f   VolMgr.obj
 0001:0002daf8       ?m_StructCopy@Struct_Microsoft_Singularity_Io_VolumeManagerContract_RegisterDisk@@SIXPAU1@PAU1@@Z 0202eaf8 f   VolMgr.obj
 0001:0002db70       ?m_Equals@Struct_Microsoft_Singularity_Io_VolumeManagerContract_RegisterDisk@@SI_NPAU1@PAUClass_System_Object@@@Z 0202eb70 f   VolMgr.obj
 0001:0002dbb8       ?m_Equals@Struct_Microsoft_Singularity_Io_VolumeManagerContract_RegisterDisk@@SI_NPAUClass_Microsoft_Singularity_Io_VolumeManagerContract_RegisterDisk@@PAUClass_System_Object@@@Z 0202ebb8 f   VolMgr.obj
 0001:0002dbe4       ?g_TransferOwnership@Struct_Microsoft_Singularity_Directory_NotifyContract_Imp@@SIXPAUStruct_Microsoft_Singularity_Channels_Endpoint@@PAU1@@Z 0202ebe4 f   VolMgr.obj
 0001:0002dc28       ?m_TransferContentsOwnership@Struct_Microsoft_Singularity_Directory_NotifyContract_Imp@@SIXPAU1@PAUStruct_Microsoft_Singularity_Channels_Endpoint@@@Z 0202ec28 f   VolMgr.obj
 0001:0002dc54       ?m_StructCopy@Struct_Microsoft_Singularity_Directory_NotifyContract_Imp@@SIXPAU1@0@Z 0202ec54 f   VolMgr.obj
 0001:0002dd30       ?m_StructCopy@Struct_Microsoft_Singularity_Directory_NotifyContract_Imp@@SIXPAU1@PAU1@@Z 0202ed30 f   VolMgr.obj
 0001:0002dfc4       ?m_Peek@Struct_Microsoft_Singularity_Directory_NotifyContract_Imp@@SIHPAU1@@Z 0202efc4 f   VolMgr.obj
 0001:0002e16c       ?m_MarshallDeliverAckChangeNotification0@Struct_Microsoft_Singularity_Directory_NotifyContract_Imp@@SIXPAU1@PAUStruct_Microsoft_Singularity_Channels_Endpoint@@@Z 0202f16c f   VolMgr.obj
 0001:0002e1b8       ?m_MarshallContent@Struct_Microsoft_Singularity_Directory_NotifyContract_Imp@@SIXPAU1@PAEPAUStruct_Microsoft_Singularity_Channels_Endpoint@@1@Z 0202f1b8 f   VolMgr.obj
 0001:0002e1d8       ?m_InState@Struct_Microsoft_Singularity_Directory_NotifyContract_Imp@@SI_NPAU1@H@Z 0202f1d8 f   VolMgr.obj
 0001:0002e268       ?m_HeadMatches@Struct_Microsoft_Singularity_Directory_NotifyContract_Imp@@SI_NPAU1@HPA_NPAPAUClass_System_Object@@@Z 0202f268 f   VolMgr.obj
 0001:0002e328       ?m_HeadMatches@Struct_Microsoft_Singularity_Directory_NotifyContract_Imp@@SI_NPAUClass_Microsoft_Singularity_Directory_NotifyContract_Imp@@HPA_NPAPAUClass_System_Object@@@Z 0202f328 f   VolMgr.obj
 0001:0002e360       ?m_Equals@Struct_Microsoft_Singularity_Directory_NotifyContract_Imp@@SI_NPAU1@PAUClass_System_Object@@@Z 0202f360 f   VolMgr.obj
 0001:0002e634       ?m_Equals@Struct_Microsoft_Singularity_Directory_NotifyContract_Imp@@SI_NPAUClass_Microsoft_Singularity_Directory_NotifyContract_Imp@@PAUClass_System_Object@@@Z 0202f634 f   VolMgr.obj
 0001:0002e660       ?m_Dispose@Struct_Microsoft_Singularity_Directory_NotifyContract_Imp@@SIXPAU1@@Z 0202f660 f   VolMgr.obj
 0001:0002e684       ?m_DeliverAckChangeNotification0@Struct_Microsoft_Singularity_Directory_NotifyContract_Imp@@SIXPAU1@@Z 0202f684 f   VolMgr.obj
 0001:0002e6b8       ?m_CurrentState@Struct_Microsoft_Singularity_Directory_NotifyContract_Imp@@SIPAUClass_System_String@@PAU1@@Z 0202f6b8 f   VolMgr.obj
 0001:0002e744       ?m__ctor@Struct_Microsoft_Singularity_Directory_NotifyContract_Imp@@SIXPAU1@H@Z 0202f744 f   VolMgr.obj
 0001:0002e770       ?m_InitializeFromExistingHandle@Class_Microsoft_Singularity_Eventing_MemoryStorage@@SI_NPAU1@@Z 0202f770 f   VolMgr.obj
 0001:0002e818       ?m_Initialize@Class_Microsoft_Singularity_Eventing_MemoryStorage@@SI_NPAU1@_K@Z 0202f818 f   VolMgr.obj
 0001:0002e95c       ?m_Finalize@Class_Microsoft_Singularity_Eventing_MemoryStorage@@SIXPAU1@@Z 0202f95c f   VolMgr.obj
 0001:0002e9a0       ?m_Destroy@Class_Microsoft_Singularity_Eventing_MemoryStorage@@SIXPAU1@@Z 0202f9a0 f   VolMgr.obj
 0001:0002e9d0       ?m_AddBuffer@Class_Microsoft_Singularity_Eventing_MemoryStorage@@SI_NPAU1@_K@Z 0202f9d0 f   VolMgr.obj
 0001:0002ea9c       ?m__ctor@Class_Microsoft_Singularity_Eventing_MemoryStorage@@SIXPAU1@@Z 0202fa9c f   VolMgr.obj
 0001:0002eac8       ?m_StructCopy@Struct_Microsoft_Singularity_Directory_DirectoryServiceContract_CreateLink@@SIXPAU1@0@Z 0202fac8 f   VolMgr.obj
 0001:0002eafc       ?m_StructCopy@Struct_Microsoft_Singularity_Directory_DirectoryServiceContract_CreateLink@@SIXPAU1@PAU1@@Z 0202fafc f   VolMgr.obj
 0001:0002eb98       ?m_Equals@Struct_Microsoft_Singularity_Directory_DirectoryServiceContract_CreateLink@@SI_NPAU1@PAUClass_System_Object@@@Z 0202fb98 f   VolMgr.obj
 0001:0002ebf4       ?m_Equals@Struct_Microsoft_Singularity_Directory_DirectoryServiceContract_CreateLink@@SI_NPAUClass_Microsoft_Singularity_Directory_DirectoryServiceContract_CreateLink@@PAUClass_System_Object@@@Z 0202fbf4 f   VolMgr.obj
 0001:0002ec20       ?m_StructCopy@Struct_System_InterfaceInfo@@SIXPAU1@0@Z 0202fc20 f   VolMgr.obj
 0001:0002ec54       ?m_StructCopy@Struct_System_InterfaceInfo@@SIXPAU1@PAU1@@Z 0202fc54 f   VolMgr.obj
 0001:0002ecf0       ?m_Equals@Struct_System_InterfaceInfo@@SI_NPAU1@PAUClass_System_Object@@@Z 0202fcf0 f   VolMgr.obj
 0001:0002ed50       ?m_Equals@Struct_System_InterfaceInfo@@SI_NPAUClass_System_InterfaceInfo@@PAUClass_System_Object@@@Z 0202fd50 f   VolMgr.obj
 0001:0002ed7c       ?m_StructCopy@Struct_Microsoft_Singularity_Directory_DirectoryServiceContract_NakQueryACL@@SIXPAU1@0@Z 0202fd7c f   VolMgr.obj
 0001:0002eda4       ?m_StructCopy@Struct_Microsoft_Singularity_Directory_DirectoryServiceContract_NakQueryACL@@SIXPAU1@PAU1@@Z 0202fda4 f   VolMgr.obj
 0001:0002ee1c       ?m_Equals@Struct_Microsoft_Singularity_Directory_DirectoryServiceContract_NakQueryACL@@SI_NPAU1@PAUClass_System_Object@@@Z 0202fe1c f   VolMgr.obj
 0001:0002eebc       ?m_Equals@Struct_Microsoft_Singularity_Directory_DirectoryServiceContract_NakQueryACL@@SI_NPAUClass_Microsoft_Singularity_Directory_DirectoryServiceContract_NakQueryACL@@PAUClass_System_Object@@@Z 0202febc f   VolMgr.obj
 0001:0002eee8       ?m_InvokeStaticStub@Class_System_Threading_Thread_StopServiceNotice@@SIXPAU1@@Z 0202fee8 f   VolMgr.obj
 0001:0002ef10       ?m_Invoke@Class_System_Threading_Thread_StopServiceNotice@@SIXPAU1@@Z 0202ff10 f   VolMgr.obj
 0001:0002ef64       ?m_EndInvoke@Class_System_Threading_Thread_StopServiceNotice@@SIXPAU1@PAUClass_System_IAsyncResult@@@Z 0202ff64 f   VolMgr.obj
 0001:0002ef80       ?m_BeginInvoke@Class_System_Threading_Thread_StopServiceNotice@@SIPAUClass_System_IAsyncResult@@PAU1@PAUClass_System_AsyncCallback@@PAUClass_System_Object@@@Z 0202ff80 f   VolMgr.obj
 0001:0002efa0       ?m__ctor@Class_System_Threading_Thread_StopServiceNotice@@SIXPAU1@PAUClass_System_Object@@PAUintPtr@@@Z 0202ffa0 f   VolMgr.obj
 0001:0002f004       ?m__ctor@Class_System_InvalidOperationException@@SIXPAU1@@Z 02030004 f   VolMgr.obj
 0001:0002f02c       ?m__ctor@Class_System_InvalidOperationException@@SIXPAU1@PAUClass_System_String@@@Z 0203002c f   VolMgr.obj
 0001:0002f054       ?m__ctor@Class_System_InvalidOperationException@@SIXPAU1@PAUClass_System_String@@PAUClass_System_Exception@@@Z 02030054 f   VolMgr.obj
 0001:0002f084       ?m_Visit@Class_System_GCs_GCProfiler_RootVisitor@@SIXPAU1@PAPAUuintPtr@@@Z 02030084 f   VolMgr.obj
 0001:0002f0b0       ?m__ctor@Class_System_GCs_GCProfiler_RootVisitor@@SIXPAU1@PAUClass_System_GCs_GCProfiler@@@Z 020300b0 f   VolMgr.obj
 0001:0002f0e0       ?m_StructCopy@Struct_Microsoft_Singularity_V1_Types_SystemType@@SIXPAU1@0@Z 020300e0 f   VolMgr.obj
 0001:0002f108       ?m_StructCopy@Struct_Microsoft_Singularity_V1_Types_SystemType@@SIXPAU1@PAU1@@Z 02030108 f   VolMgr.obj
 0001:0002f180       ?g_IsNull@Struct_Microsoft_Singularity_V1_Types_SystemType@@SI_NU1@@Z 02030180 f   VolMgr.obj
 0001:0002f1a4       ?m_get$_TypeId@Struct_Microsoft_Singularity_V1_Types_SystemType@@SIPAUuintPtr@@PAU1@@Z 020301a4 f   VolMgr.obj
 0001:0002f1c4       ?m_Equals@Struct_Microsoft_Singularity_V1_Types_SystemType@@SI_NPAU1@PAUClass_System_Object@@@Z 020301c4 f   VolMgr.obj
 0001:0002f20c       ?m_Equals@Struct_Microsoft_Singularity_V1_Types_SystemType@@SI_NPAUClass_Microsoft_Singularity_V1_Types_SystemType@@PAUClass_System_Object@@@Z 0203020c f   VolMgr.obj
 0001:0002f238       ?m_StructCopy@Struct_System_VarargList@@SIXPAU1@0@Z 02030238 f   VolMgr.obj
 0001:0002f260       ?m_StructCopy@Struct_System_VarargList@@SIXPAU1@PAU1@@Z 02030260 f   VolMgr.obj
 0001:0002f2d8       ?m_Equals@Struct_System_VarargList@@SI_NPAU1@PAUClass_System_Object@@@Z 020302d8 f   VolMgr.obj
 0001:0002f320       ?m_Equals@Struct_System_VarargList@@SI_NPAUClass_System_VarargList@@PAUClass_System_Object@@@Z 02030320 f   VolMgr.obj
 0001:0002f34c       ?g_Create@Struct_System_VarargList@@SI?AU1@H@Z 0203034c f   VolMgr.obj
 0001:0002f37c       ?m_StartScanOneObject@Class_Microsoft_Singularity_GCProfilerLogger@@SIXPAU1@PAUuintPtr@@PAUClass_System_Type@@1@Z 0203037c f   VolMgr.obj
 0001:0002f43c       ?g_StartProfiling@Class_Microsoft_Singularity_GCProfilerLogger@@SIXXZ 0203043c f   VolMgr.obj
 0001:0002f544       ?m_Shutdown@Class_Microsoft_Singularity_GCProfilerLogger@@SIXPAU1@@Z 02030544 f   VolMgr.obj
 0001:0002f570       ?m_ScanOneRoot@Class_Microsoft_Singularity_GCProfilerLogger@@SIXPAU1@PAUuintPtr@@@Z 02030570 f   VolMgr.obj
 0001:0002f620       ?m_ScanOneObjectField@Class_Microsoft_Singularity_GCProfilerLogger@@SIXPAU1@PAUuintPtr@@@Z 02030620 f   VolMgr.obj
 0001:0002f694       ?m_PreGC@Class_Microsoft_Singularity_GCProfilerLogger@@SIXPAU1@H@Z 02030694 f   VolMgr.obj
 0001:0002f774       ?m_PostGC@Class_Microsoft_Singularity_GCProfilerLogger@@SIXPAU1@@Z 02030774 f   VolMgr.obj
 0001:0002f84c       ?m_Initialize@Class_Microsoft_Singularity_GCProfilerLogger@@SIXPAU1@_K1@Z 0203084c f   VolMgr.obj
 0001:0002fa3c       ?m_GetTypeId@Class_Microsoft_Singularity_GCProfilerLogger@@SIIPAU1@PAUClass_System_Type@@@Z 02030a3c f   VolMgr.obj
 0001:0002fb04       ?m_GetStackId@Class_Microsoft_Singularity_GCProfilerLogger@@SIIPAU1@PAUClass_System_Type@@PAUuintPtr@@PAUClassVector_uintPtr@@I@Z 02030b04 f   VolMgr.obj
 0001:0002fe64       ?m_GetFunctionId@Class_Microsoft_Singularity_GCProfilerLogger@@SIIPAU1@PAUuintPtr@@@Z 02030e64 f   VolMgr.obj
 0001:0002ff60       ?m_EndScanOneObject@Class_Microsoft_Singularity_GCProfilerLogger@@SIXPAU1@@Z 02030f60 f   VolMgr.obj
 0001:0002ffc4       ?m_Allocation@Class_Microsoft_Singularity_GCProfilerLogger@@SIXPAU1@PAUuintPtr@@PAUClass_System_Type@@1@Z 02030fc4 f   VolMgr.obj
 0001:00030154       ?m__ctor@Class_Microsoft_Singularity_GCProfilerLogger@@SIXPAU1@@Z 02031154 f   VolMgr.obj
 0001:00030178       ?g__cctor@Class_Microsoft_Singularity_GCProfilerLogger@@SIXXZ 02031178 f   VolMgr.obj
 0001:0003018c       ?m_StructCopy@Struct_Microsoft_Singularity_Directory_DirectoryServiceContract_AckCreateFile@@SIXPAU1@0@Z 0203118c f   VolMgr.obj
 0001:000301a8       ?m_StructCopy@Struct_Microsoft_Singularity_Directory_DirectoryServiceContract_AckCreateFile@@SIXPAU1@PAU1@@Z 020311a8 f   VolMgr.obj
 0001:000301fc       ?m_Equals@Struct_Microsoft_Singularity_Directory_DirectoryServiceContract_AckCreateFile@@SI_NPAU1@PAUClass_System_Object@@@Z 020311fc f   VolMgr.obj
 0001:00030234       ?m_Equals@Struct_Microsoft_Singularity_Directory_DirectoryServiceContract_AckCreateFile@@SI_NPAUClass_Microsoft_Singularity_Directory_DirectoryServiceContract_AckCreateFile@@PAUClass_System_Object@@@Z 02031234 f   VolMgr.obj
 0001:00030260       ?m_StructCopy@Struct_Microsoft_Singularity_Directory_DirectoryServiceContract_AckGetAttributes@@SIXPAU1@0@Z 02031260 f   VolMgr.obj
 0001:0003028c       ?m_StructCopy@Struct_Microsoft_Singularity_Directory_DirectoryServiceContract_AckGetAttributes@@SIXPAU1@PAU1@@Z 0203128c f   VolMgr.obj
 0001:00030310       ?m_Equals@Struct_Microsoft_Singularity_Directory_DirectoryServiceContract_AckGetAttributes@@SI_NPAU1@PAUClass_System_Object@@@Z 02031310 f   VolMgr.obj
 0001:000303b8       ?m_Equals@Struct_Microsoft_Singularity_Directory_DirectoryServiceContract_AckGetAttributes@@SI_NPAUClass_Microsoft_Singularity_Directory_DirectoryServiceContract_AckGetAttributes@@PAUClass_System_Object@@@Z 020313b8 f   VolMgr.obj
 0001:000303e4       ?m_StructCopy@Struct_Microsoft_Singularity_V1_Processes_ProcessHandle@@SIXPAU1@0@Z 020313e4 f   VolMgr.obj
 0001:0003040c       ?m_StructCopy@Struct_Microsoft_Singularity_V1_Processes_ProcessHandle@@SIXPAU1@PAU1@@Z 0203140c f   VolMgr.obj
 0001:00030484       ?m_Equals@Struct_Microsoft_Singularity_V1_Processes_ProcessHandle@@SI_NPAU1@PAUClass_System_Object@@@Z 02031484 f   VolMgr.obj
 0001:000304cc       ?m_Equals@Struct_Microsoft_Singularity_V1_Processes_ProcessHandle@@SI_NPAUClass_Microsoft_Singularity_V1_Processes_ProcessHandle@@PAUClass_System_Object@@@Z 020314cc f   VolMgr.obj
 0001:000304f8       ?g_WriterIsValid@Class_System_UpdateEnlistmentLog@@SI_NUStruct_System_UpdateEnlistmentLogWriter@@@Z 020314f8 f   VolMgr.obj
 0001:00030518       ?m_VisitWeakRefs@Class_System_UpdateEnlistmentLog@@SIXPAU1@PAUClass_System_TryAllManager@@PAUClass_System_GCs_DirectReferenceVisitor@@@Z 02031518 f   VolMgr.obj
 0001:00030a7c       ?g_SyncFromWriter@Class_System_UpdateEnlistmentLog@@SIXPAUClass_System_TryAllManager@@@Z 02031a7c f   VolMgr.obj
 0001:00030b00       ?m_NotEmpty@Class_System_UpdateEnlistmentLog@@SI_NPAU1@@Z 02031b00 f   VolMgr.obj
 0001:00030b3c       ?g_InitWriter@Class_System_UpdateEnlistmentLog@@SIXPAUClass_System_TryAllManager@@@Z 02031b3c f   VolMgr.obj
 0001:00030bb8       ?m_get$_CurrentLocation@Class_System_UpdateEnlistmentLog@@SI?AUStruct_System_UpdateEnlistmentLog_Location@@PAU1@@Z 02031bb8 f   VolMgr.obj
 0001:00030c4c       ?m_AddrToIndex@Class_System_UpdateEnlistmentLog@@SIIPAU1@PAUStruct_System_UpdateEnlistmentLog_Entry@@@Z 02031c4c f   VolMgr.obj
 0001:00030cdc       ?g_AddrOfEntry@Class_System_UpdateEnlistmentLog@@SIPAUStruct_System_UpdateEnlistmentLog_Entry@@PAUClassVector_Struct_System_UpdateEnlistmentLog_Entry@@H@Z 02031cdc f   VolMgr.obj
 0001:00030d68       ?m_AddrOfEntry@Class_System_UpdateEnlistmentLog@@SIPAUStruct_System_UpdateEnlistmentLog_Entry@@PAU1@H@Z 02031d68 f   VolMgr.obj
 0001:00030db4       ?m_AddCapacity@Class_System_UpdateEnlistmentLog@@SIXPAU1@PAUClass_System_TryAllManager@@@Z 02031db4 f   VolMgr.obj
 0001:00030e9c       ?m__ctor@Class_System_UpdateEnlistmentLog@@SIXPAU1@PAUClass_System_TryAllManager@@@Z 02031e9c f   VolMgr.obj
 0001:00030ec4       ?g_QuickScanLongerString@Class_System_Globalization_CompareInfo@@SIHPAUClass_System_String@@HHHHHHH@Z 02031ec4 f   VolMgr.obj
 0001:00030f8c       ?g_GetUnicode@Class_System_Globalization_CompareInfo@@SIG_W@Z 02031f8c f   VolMgr.obj
 0001:00031034       ?g_GetDiacritic@Class_System_Globalization_CompareInfo@@SIE_W@Z 02032034 f   VolMgr.obj
 0001:000310d8       ?g_GetCase@Class_System_Globalization_CompareInfo@@SIE_W@Z 020320d8 f   VolMgr.obj
 0001:0003117c       ?g_GET$_SCRIPT$_MEMBER@Class_System_Globalization_CompareInfo@@SIEG@Z 0203217c f   VolMgr.obj
 0001:000311a8       ?g_GET$_ALPHA$_NUMERIC@Class_System_Globalization_CompareInfo@@SIEG@Z 020321a8 f   VolMgr.obj
 0001:000311d0       ?g_CompareString@Class_System_Globalization_CompareInfo@@SIHUStruct_System_Globalization_CompareOptions@@PAUClass_System_String@@HH1HH@Z 020321d0 f   VolMgr.obj
 0001:000318c8       ?g_CompareOrdinal@Class_System_Globalization_CompareInfo@@SIHPAUClass_System_String@@HH0HH@Z 020328c8 f   VolMgr.obj
 0001:000319c4       ?g_Compare@Class_System_Globalization_CompareInfo@@SIHPAUClass_System_String@@0@Z 020329c4 f   VolMgr.obj
 0001:000319f0       ?g_Compare@Class_System_Globalization_CompareInfo@@SIHPAUClass_System_String@@0UStruct_System_Globalization_CompareOptions@@@Z 020329f0 f   VolMgr.obj
 0001:00031b20       ?m__ctor@Class_System_Globalization_CompareInfo@@SIXPAU1@@Z 02032b20 f   VolMgr.obj
 0001:00031b38       ?g__cctor@Class_System_Globalization_CompareInfo@@SIXXZ 02032b38 f   VolMgr.obj
 0001:00031b4c       ?m_ToString@Class_System_String@@SIPAU1@PAU1@@Z 02032b4c f   VolMgr.obj
 0001:00031b6c       ?m_ToCharArray@Class_System_String@@SIPAUClassVector_bartok_char@@PAU1@HH@Z 02032b6c f   VolMgr.obj
 0001:00031c54       ?m_System_Collections_IEnumerable_GetEnumerator@Class_System_String@@SIPAUClass_System_Collections_IEnumerator@@PAU1@@Z 02032c54 f   VolMgr.obj
 0001:00031c98       ?m_Substring@Class_System_String@@SIPAU1@PAU1@H@Z 02032c98 f   VolMgr.obj
 0001:00031cd0       ?m_Substring@Class_System_String@@SIPAU1@PAU1@HH@Z 02032cd0 f   VolMgr.obj
 0001:00031dd0       ?g_StringCTOR@Class_System_String@@SIPAU1@PA_WHH@Z 02032dd0 f   VolMgr.obj
 0001:00031ea8       ?g_StringCTOR@Class_System_String@@SIPAU1@PAUClassVector_bartok_char@@HH@Z 02032ea8 f   VolMgr.obj
 0001:00031fa4       ?m_SetLength@Class_System_String@@SIXPAU1@H@Z 02032fa4 f   VolMgr.obj
 0001:00031fe4       ?m_PadRight@Class_System_String@@SIPAU1@PAU1@H_W@Z 02032fe4 f   VolMgr.obj
 0001:00032018       ?m_PadLeft@Class_System_String@@SIPAU1@PAU1@H_W@Z 02033018 f   VolMgr.obj
 0001:0003204c       ?m_PadHelper@Class_System_String@@SIPAU1@PAU1@H_W_N@Z 0203304c f   VolMgr.obj
 0001:00032138       ?g_op$_Inequality@Class_System_String@@SI_NPAU1@0@Z 02033138 f   VolMgr.obj
 0001:00032164       ?m_NullTerminate@Class_System_String@@SIXPAU1@@Z 02033164 f   VolMgr.obj
 0001:000321bc       ?g_LimitedFormatTo@Class_System_String@@SIHPAU1@UStruct_System_ArgIterator@@PA_WH@Z 020331bc f   VolMgr.obj
 0001:00032998       ?m_LastIndexOf@Class_System_String@@SIHPAU1@_W@Z 02033998 f   VolMgr.obj
 0001:000329e0       ?m_LastIndexOf@Class_System_String@@SIHPAU1@_WHH@Z 020339e0 f   VolMgr.obj
 0001:00032b58       ?m_InternalLength@Class_System_String@@SIHPAU1@@Z 02033b58 f   VolMgr.obj
 0001:00032b78       ?m_InternalGetChar@Class_System_String@@SI_WPAU1@H@Z 02033b78 f   VolMgr.obj
 0001:00032bf4       ?m_InternalCopyTo@Class_System_String@@SIXPAU1@HPAUClassVector_bartok_char@@HH@Z 02033bf4 f   VolMgr.obj
 0001:00032d18       ?g_InternalCopy@Class_System_String@@SIPAU1@PAU1@@Z 02033d18 f   VolMgr.obj
 0001:00032d78       ?g_InternalCopy@Class_System_String@@SIXPAU1@PAUClassVector_uint8@@H@Z 02033d78 f   VolMgr.obj
 0001:00032e40       ?m_InitializeStringLength@Class_System_String@@SIXPAU1@H@Z 02033e40 f   VolMgr.obj
 0001:00032e74       ?g_GetStringForStringBuilder@Class_System_String@@SIPAU1@PAU1@H@Z 02033e74 f   VolMgr.obj
 0001:00032f1c       ?m_GetHashCode@Class_System_String@@SIHPAU1@@Z 02033f1c f   VolMgr.obj
 0001:00033018       ?m_get$_Length@Class_System_String@@SIHPAU1@@Z 02034018 f   VolMgr.obj
 0001:0003303c       ?m_get$_Item@Class_System_String@@SI_WPAU1@H@Z 0203403c f   VolMgr.obj
 0001:00033064       ?m_get$_Capacity@Class_System_String@@SIHPAU1@@Z 02034064 f   VolMgr.obj
 0001:00033088       ?m_get$_ArrayLength@Class_System_String@@SIHPAU1@@Z 02034088 f   VolMgr.obj
 0001:000330a8       ?g_Format@Class_System_String@@SIPAU1@PAU1@PAUClassVector_Class_System_Object@@@Z 020340a8 f   VolMgr.obj
 0001:000331a0       ?g_Format@Class_System_String@@SIPAU1@PAU1@PAUClass_System_Object@@@Z 020341a0 f   VolMgr.obj
 0001:000331f8       ?g_Format@Class_System_String@@SIPAU1@PAU1@PAUClass_System_Object@@1@Z 020341f8 f   VolMgr.obj
 0001:0003325c       ?g_FillSubstring@Class_System_String@@SIXPAU1@H0HH@Z 0203425c f   VolMgr.obj
 0001:000332c0       ?g_FillStringEx@Class_System_String@@SIXPAU1@H0H@Z 020342c0 f   VolMgr.obj
 0001:0003331c       ?g_FillStringChecked@Class_System_String@@SIXPAU1@H0@Z 0203431c f   VolMgr.obj
 0001:000333bc       ?g_FillStringCharPtr@Class_System_String@@SIXPAU1@HPA_WH@Z 020343bc f   VolMgr.obj
 0001:00033430       ?g_FillStringChar@Class_System_String@@SIXPAU1@H_WH@Z 02034430 f   VolMgr.obj
 0001:0003354c       ?g_FillStringArray@Class_System_String@@SIXPAU1@HPAUClassVector_bartok_char@@HH@Z 0203454c f   VolMgr.obj
 0001:000335b8       ?g_FillString@Class_System_String@@SIXPAU1@H0@Z 020345b8 f   VolMgr.obj
 0001:00033618       ?g_FastAllocateString@Class_System_String@@SIPAU1@H@Z 02034618 f   VolMgr.obj
 0001:0003371c       ?g_Equals@Class_System_String@@SI_NPAU1@0@Z 0203471c f   VolMgr.obj
 0001:0003377c       ?m_Equals@Class_System_String@@SI_NPAU1@0@Z 0203477c f   VolMgr.obj
 0001:0003387c       ?m_Equals@Class_System_String@@SI_NPAU1@PAUClass_System_Object@@@Z 0203487c f   VolMgr.obj
 0001:000338cc       ?g_CountDigits@Class_System_String@@SIH_KI@Z 020348cc f   VolMgr.obj
 0001:00033964       ?g_ConcatArray@Class_System_String@@SIPAU1@PAUClassVector_Class_System_String@@H@Z 02034964 f   VolMgr.obj
 0001:00033a44       ?g_Concat@Class_System_String@@SIPAU1@PAUClassVector_Class_System_String@@@Z 02034a44 f   VolMgr.obj
 0001:00033b90       ?g_Concat@Class_System_String@@SIPAU1@PAUClassVector_Class_System_Object@@@Z 02034b90 f   VolMgr.obj
 0001:00033ce8       ?g_Concat@Class_System_String@@SIPAU1@PAU1@0@Z 02034ce8 f   VolMgr.obj
 0001:00033d8c       ?g_Concat@Class_System_String@@SIPAU1@PAU1@00@Z 02034d8c f   VolMgr.obj
 0001:00033ecc       ?g_Concat@Class_System_String@@SIPAU1@PAU1@000@Z 02034ecc f   VolMgr.obj
 0001:0003406c       ?g_Concat@Class_System_String@@SIPAU1@PAUClass_System_Object@@@Z 0203506c f   VolMgr.obj
 0001:000340a0       ?g_Concat@Class_System_String@@SIPAU1@PAUClass_System_Object@@0@Z 020350a0 f   VolMgr.obj
 0001:00034108       ?g_Concat@Class_System_String@@SIPAU1@PAUClass_System_Object@@00@Z 02035108 f   VolMgr.obj
 0001:00034194       ?m_CompareTo@Class_System_String@@SIHPAU1@PAUClass_System_Object@@@Z 02035194 f   VolMgr.obj
 0001:00034218       ?g_Compare@Class_System_String@@SIHPAU1@0@Z 02035218 f   VolMgr.obj
 0001:00034258       ?m_ClearPostNullChar@Class_System_String@@SIXPAU1@@Z 02035258 f   VolMgr.obj
 0001:000342d0       ?m_AppendInPlace@Class_System_String@@SIXPAU1@PAUClassVector_bartok_char@@HHH@Z 020352d0 f   VolMgr.obj
 0001:0003436c       ?m_AppendInPlace@Class_System_String@@SIXPAU1@0H@Z 0203536c f   VolMgr.obj
 0001:000343f4       ?m_AppendInPlace@Class_System_String@@SIXPAU1@_WH@Z 020353f4 f   VolMgr.obj
 0001:0003448c       ?m_AppendInPlace@Class_System_String@@SIXPAU1@_WHH@Z 0203548c f   VolMgr.obj
 0001:00034558       ?g_AddString@Class_System_String@@SIPA_WPA_W00HH@Z 02035558 f   VolMgr.obj
 0001:00034674       ?g_AddString@Class_System_String@@SIPA_WPA_W0PAU1@H@Z 02035674 f   VolMgr.obj
 0001:000346d0       ?g_AddNumber@Class_System_String@@SIPA_WPA_W0_KHI_W2@Z 020356d0 f   VolMgr.obj
 0001:0003497c       ?g_AddChar@Class_System_String@@SIPA_WPA_W0_WH@Z 0203597c f   VolMgr.obj
 0001:00034a6c       ?g__cctor@Class_System_String@@SIXXZ 02035a6c f   VolMgr.obj
 0001:00034a80       ?m_WaitOne@Class_System_Threading_Mutex@@SI_NPAU1@@Z 02035a80 f   VolMgr.obj
 0001:00034af4       ?m_WaitOne@Class_System_Threading_Mutex@@SI_NPAU1@UStruct_System_SchedulerTime@@@Z 02035af4 f   VolMgr.obj
 0001:00034b7c       ?m_ReleaseMutex@Class_System_Threading_Mutex@@SIXPAU1@@Z 02035b7c f   VolMgr.obj
 0001:00034bb4       ?m_IsOwnedByCurrentThread@Class_System_Threading_Mutex@@SI_NPAU1@@Z 02035bb4 f   VolMgr.obj
 0001:00034c00       ?m_Finalize@Class_System_Threading_Mutex@@SIXPAU1@@Z 02035c00 f   VolMgr.obj
 0001:00034c64       ?m_Dispose@Class_System_Threading_Mutex@@SIXPAU1@_N@Z 02035c64 f   VolMgr.obj
 0001:00034cb0       ?m_AcquireMutex@Class_System_Threading_Mutex@@SI_NPAU1@@Z 02035cb0 f   VolMgr.obj
 0001:00034cd4       ?m_AcquireMutex@Class_System_Threading_Mutex@@SI_NPAU1@UStruct_System_SchedulerTime@@@Z 02035cd4 f   VolMgr.obj
 0001:00034d14       ?m__ctor@Class_System_Threading_Mutex@@SIXPAU1@@Z 02035d14 f   VolMgr.obj
 0001:00034d7c       ?m_System_IDisposable_Dispose@Class_System_Threading_WaitHandle@@SIXPAU1@@Z 02035d7c f   VolMgr.obj
 0001:00034dac       ?m_Finalize@Class_System_Threading_WaitHandle@@SIXPAU1@@Z 02035dac f   VolMgr.obj
 0001:00034df4       ?m__ctor@Class_System_Threading_WaitHandle@@SIXPAU1@@Z 02035df4 f   VolMgr.obj
 0001:00034e10       ?g_Verify@Struct_System_GCs_PageManager_UnusedBlockHeader@@SIXPAU1@@Z 02035e10 f   VolMgr.obj
 0001:000350b8       ?m_StructCopy@Struct_System_GCs_PageManager_UnusedBlockHeader@@SIXPAU1@0@Z 020360b8 f   VolMgr.obj
 0001:00035110       ?m_StructCopy@Struct_System_GCs_PageManager_UnusedBlockHeader@@SIXPAU1@PAU1@@Z 02036110 f   VolMgr.obj
 0001:00035218       ?g_Remove@Struct_System_GCs_PageManager_UnusedBlockHeader@@SIPAUuintPtr@@PAU1@@Z 02036218 f   VolMgr.obj
 0001:000352e0       ?g_InsertNext@Struct_System_GCs_PageManager_UnusedBlockHeader@@SIXPAU1@0@Z 020362e0 f   VolMgr.obj
 0001:0003533c       ?g_Initialize@Struct_System_GCs_PageManager_UnusedBlockHeader@@SIXPAU1@PAUuintPtr@@@Z 0203633c f   VolMgr.obj
 0001:000353c0       ?m_Equals@Struct_System_GCs_PageManager_UnusedBlockHeader@@SI_NPAU1@PAUClass_System_Object@@@Z 020363c0 f   VolMgr.obj
 0001:00035444       ?m_Equals@Struct_System_GCs_PageManager_UnusedBlockHeader@@SI_NPAUClass_System_GCs_PageManager_UnusedBlockHeader@@PAUClass_System_Object@@@Z 02036444 f   VolMgr.obj
 0001:00035470       ?m_Verify@Class_System_GCs_Verifier_GenericStackVerifier@@SIXPAU1@PAUClass_System_GCs_NonNullReferenceVisitor@@PAUClass_System_Threading_Thread@@@Z 02036470 f   VolMgr.obj
 0001:000354a0       ?m__ctor@Class_System_GCs_Verifier_GenericStackVerifier@@SIXPAU1@@Z 020364a0 f   VolMgr.obj
 0001:000354c4       ?m__ctor@Class_System_GCs_Verifier_StackVerifier@@SIXPAU1@@Z 020364c4 f   VolMgr.obj
 0001:000354e0       ?g_SetPageTableEntryImpl@Class_System_GCs_CentralPT@@SIXPAUuintPtr@@I@Z 020364e0 f   VolMgr.obj
 0001:00035510       ?g_PageTableEntryImpl@Class_System_GCs_CentralPT@@SIIPAUuintPtr@@@Z 02036510 f   VolMgr.obj
 0001:0003553c       ?m__ctor@Class_System_GCs_CentralPT@@SIXPAU1@@Z 0203653c f   VolMgr.obj
 0001:00035554       ?m_HeadMatches@Class_Microsoft_Singularity_Channels_ESet$_2$LMicrosoft_Singularity_Io_VolumeManagerContract_Exp_Microsoft_Singularity_Io_VolumeManagerContract_Ready$G@@SI_NPAU1@HPA_NPAPAUClass_System_Object@@@Z 02036554 f   VolMgr.obj
 0001:000356cc       ?m_GetWaitHandle@Class_Microsoft_Singularity_Channels_ESet$_2$LMicrosoft_Singularity_Io_VolumeManagerContract_Exp_Microsoft_Singularity_Io_VolumeManagerContract_Ready$G@@SI?AUStruct_Microsoft_Singularity_V1_Threads_SyncHandle@@PAU1@@Z 020366cc f   VolMgr.obj
 0001:00035738       ?m_GetFreshNode@Class_Microsoft_Singularity_Channels_ESet$_2$LMicrosoft_Singularity_Io_VolumeManagerContract_Exp_Microsoft_Singularity_Io_VolumeManagerContract_Ready$G@@SIPAUClass_Microsoft_Singularity_Channels_ESet$_2$LMicrosoft_Singularity_Io_VolumeManagerContract_Exp_Microsoft_Singularity_Io_VolumeManagerContract_Ready$G_Node@@PAU1@PAUStruct_Microsoft_Singularity_Io_VolumeManagerContract_Exp@@0@Z 02036738 f   VolMgr.obj
 0001:000357dc       ?m_get$_NextScanStart@Class_Microsoft_Singularity_Channels_ESet$_2$LMicrosoft_Singularity_Io_VolumeManagerContract_Exp_Microsoft_Singularity_Io_VolumeManagerContract_Ready$G@@SIPAUClass_Microsoft_Singularity_Channels_ESet$_2$LMicrosoft_Singularity_Io_VolumeManagerContract_Exp_Microsoft_Singularity_Io_VolumeManagerContract_Ready$G_Node@@PAU1@@Z 020367dc f   VolMgr.obj
 0001:00035844       ?m_Extract@Class_Microsoft_Singularity_Channels_ESet$_2$LMicrosoft_Singularity_Io_VolumeManagerContract_Exp_Microsoft_Singularity_Io_VolumeManagerContract_Ready$G@@SIPAUStruct_Microsoft_Singularity_Io_VolumeManagerContract_Exp@@PAU1@PAUClass_System_Object@@@Z 02036844 f   VolMgr.obj
 0001:000358fc       ?m_Dispose@Class_Microsoft_Singularity_Channels_ESet$_2$LMicrosoft_Singularity_Io_VolumeManagerContract_Exp_Microsoft_Singularity_Io_VolumeManagerContract_Ready$G@@SIXPAU1@@Z 020368fc f   VolMgr.obj
 0001:000359e8       ?m_Add@Class_Microsoft_Singularity_Channels_ESet$_2$LMicrosoft_Singularity_Io_VolumeManagerContract_Exp_Microsoft_Singularity_Io_VolumeManagerContract_Ready$G@@SIXPAU1@PAUStruct_Microsoft_Singularity_Io_VolumeManagerContract_Exp@@@Z 020369e8 f   VolMgr.obj
 0001:00035a18       ?m__ctor@Class_Microsoft_Singularity_Channels_ESet$_2$LMicrosoft_Singularity_Io_VolumeManagerContract_Exp_Microsoft_Singularity_Io_VolumeManagerContract_Ready$G@@SIXPAU1@@Z 02036a18 f   VolMgr.obj
 0001:00035aa4       ?m_StructCopy@Struct_System_UpdateLog_Entry@@SIXPAU1@0@Z 02036aa4 f   VolMgr.obj
 0001:00035af0       ?m_StructCopy@Struct_System_UpdateLog_Entry@@SIXPAU1@PAU1@@Z 02036af0 f   VolMgr.obj
 0001:00035bd4       ?m_Equals@Struct_System_UpdateLog_Entry@@SI_NPAU1@PAUClass_System_Object@@@Z 02036bd4 f   VolMgr.obj
 0001:00035ca8       ?m_Equals@Struct_System_UpdateLog_Entry@@SI_NPAUClass_System_UpdateLog_Entry@@PAUClass_System_Object@@@Z 02036ca8 f   VolMgr.obj
 0001:00035cd4       ?g_WalkStackFrame@Class_System_GCs_CallStack@@SI_NPAPAPAUuintPtr@@0PAUStruct_System_GCs_CalleeSaveLocations@@PAPAU2@PAUClass_System_GCs_NonNullReferenceVisitor@@3UStruct_System_GCs_CompressedFrameDescriptor@@PAUStruct_System_GCs_CallStack_TransitionRecord@@PAUClass_System_Threading_Thread@@@Z 02036cd4 f   VolMgr.obj
 0001:0003667c       ?g_VisitIfNotContext@Class_System_GCs_CallStack@@SIXPAUClass_System_Threading_Thread@@PAUClass_System_GCs_NonNullReferenceVisitor@@PAPAUuintPtr@@@Z 0203767c f   VolMgr.obj
 0001:000366d8       ?g_SkipUnlinkStackFrame@Class_System_GCs_CallStack@@SIPAUuintPtr@@PAPAPAU2@0@Z 020376d8 f   VolMgr.obj
 0001:0003670c       ?g_SkipLinkStackStubFrame@Class_System_GCs_CallStack@@SIPAUuintPtr@@PAPAPAU2@0@Z 0203770c f   VolMgr.obj
 0001:0003674c       ?g_SkipLinkStackFrame@Class_System_GCs_CallStack@@SIPAUuintPtr@@PAPAPAU2@0@Z 0203774c f   VolMgr.obj
 0001:0003678c       ?g_ScanStackSegment@Class_System_GCs_CallStack@@SIIPAUStruct_System_GCs_CalleeSaveLocations@@PAUuintPtr@@PAPAU3@2PAUStruct_System_GCs_CallStack_TransitionRecord@@PAUClass_System_GCs_NonNullReferenceVisitor@@4PAUClass_System_Threading_Thread@@@Z 0203778c f   VolMgr.obj
 0001:000369f4       ?g_ScanStacks@Class_System_GCs_CallStack@@SIHPAUClass_System_GCs_NonNullReferenceVisitor@@0@Z 020379f4 f   VolMgr.obj
 0001:00036aa8       ?g_ScanStack@Class_System_GCs_CallStack@@SIIPAUClass_System_Threading_Thread@@PAUClass_System_GCs_NonNullReferenceVisitor@@1@Z 02037aa8 f   VolMgr.obj
 0001:00036cac       ?g_Initialize@Class_System_GCs_CallStack@@SIXXZ 02037cac f   VolMgr.obj
 0001:00036e1c       ?g_FrameContainsTransitionRecord@Class_System_GCs_CallStack@@SI_NPAPAUuintPtr@@0PAUStruct_System_GCs_CallStack_TransitionRecord@@@Z 02037e1c f   VolMgr.obj
 0001:00036e74       ?g_CountBits@Class_System_GCs_CallStack@@SIHPAUuintPtr@@@Z 02037e74 f   VolMgr.obj
 0001:00036edc       ?g_CallSiteTableNumber@Class_System_GCs_CallStack@@SIHPAUuintPtr@@@Z 02037edc f   VolMgr.obj
 0001:00036fe4       ?g_CallSiteSetNumber@Class_System_GCs_CallStack@@SIHPAUuintPtr@@H@Z 02037fe4 f   VolMgr.obj
 0001:000370f0       ?m__ctor@Class_System_GCs_CallStack@@SIXPAU1@@Z 020380f0 f   VolMgr.obj
 0001:0003710c       ?g_StableState@Class_Microsoft_Singularity_Directory_ServiceProviderContract@@SIHPAUStruct_Microsoft_Singularity_Channels_StateStack@@@Z 0203810c f   VolMgr.obj
 0001:00037168       ?g_NewChannel@Class_Microsoft_Singularity_Directory_ServiceProviderContract@@SIXPAPAUStruct_Microsoft_Singularity_Directory_ServiceProviderContract_Imp@@PAPAUStruct_Microsoft_Singularity_Directory_ServiceProviderContract_Exp@@@Z 02038168 f   VolMgr.obj
 0001:00037204       ?g_CanonicalState@Class_Microsoft_Singularity_Directory_ServiceProviderContract@@SIHH@Z 02038204 f   VolMgr.obj
 0001:0003724c       ?m__ctor@Class_Microsoft_Singularity_Directory_ServiceProviderContract@@SIXPAU1@@Z 0203824c f   VolMgr.obj
 0001:00037264       ?m__ctor@Class_System_UpdateLog_LogChunk@@SIXPAU1@PAUClassVector_Struct_System_UpdateLog_Entry@@0@Z 02038264 f   VolMgr.obj
 0001:000372ac       ?m_StructCopy@Struct_System_GCs_SegregatedFreeList_PageSeparation@@SIXPAU1@0@Z 020382ac f   VolMgr.obj
 0001:000372fc       ?m_StructCopy@Struct_System_GCs_SegregatedFreeList_PageSeparation@@SIXPAU1@PAU1@@Z 020382fc f   VolMgr.obj
 0001:000373ec       ?m_Equals@Struct_System_GCs_SegregatedFreeList_PageSeparation@@SI_NPAU1@PAUClass_System_Object@@@Z 020383ec f   VolMgr.obj
 0001:000375ac       ?m_Equals@Struct_System_GCs_SegregatedFreeList_PageSeparation@@SI_NPAUClass_System_GCs_SegregatedFreeList_PageSeparation@@PAUClass_System_Object@@@Z 020385ac f   VolMgr.obj
 0001:000375d8       ?m_VisitReferenceFields@Class_System_GCs_MarkSweepCollector_MarkReferenceVisitor@@SIPAUuintPtr@@PAU1@PAU2@PAUClass_System_VTable@@@Z 020385d8 f   VolMgr.obj
 0001:00037d74       ?m_VisitReferenceFields@Class_System_GCs_MarkSweepCollector_MarkReferenceVisitor@@SIPAUuintPtr@@PAU1@PAUClass_System_Object@@@Z 02038d74 f   VolMgr.obj
 0001:00037ddc       ?m_Visit@Class_System_GCs_MarkSweepCollector_MarkReferenceVisitor@@SIXPAU1@PAPAUuintPtr@@@Z 02038ddc f   VolMgr.obj
 0001:000380d8       ?m_ProcessScheduledObjects@Class_System_GCs_MarkSweepCollector_MarkReferenceVisitor@@SIXPAU1@@Z 020390d8 f   VolMgr.obj
 0001:00038184       ?m_Filter@Class_System_GCs_MarkSweepCollector_MarkReferenceVisitor@@SIXPAU1@PAPAUuintPtr@@PAUStruct_System_GCs_ReferenceVisitor_ObjectDescriptor@@@Z 02039184 f   VolMgr.obj
 0001:000381bc       ?m_Cleanup@Class_System_GCs_MarkSweepCollector_MarkReferenceVisitor@@SIXPAU1@@Z 020391bc f   VolMgr.obj
 0001:000381f4       ?m__ctor@Class_System_GCs_MarkSweepCollector_MarkReferenceVisitor@@SIXPAU1@@Z 020391f4 f   VolMgr.obj
 0001:00038218       ?m_StructCopy@Struct_System_GCs_BumpAllocator@@SIXPAU1@0@Z 02039218 f   VolMgr.obj
 0001:00038270       ?m_StructCopy@Struct_System_GCs_BumpAllocator@@SIXPAU1@PAU1@@Z 02039270 f   VolMgr.obj
 0001:00038378       ?m_Equals@Struct_System_GCs_BumpAllocator@@SI_NPAU1@PAUClass_System_Object@@@Z 02039378 f   VolMgr.obj
 0001:00038450       ?m_Equals@Struct_System_GCs_BumpAllocator@@SI_NPAUClass_System_GCs_BumpAllocator@@PAUClass_System_Object@@@Z 02039450 f   VolMgr.obj
 0001:0003847c       ?m__ctor@Class_Microsoft_Bartok_Runtime_Constants@@SIXPAU1@@Z 0203947c f   VolMgr.obj
 0001:000384c8       ?g__cctor@Class_Microsoft_Bartok_Runtime_Constants@@SIXXZ 020394c8 f   VolMgr.obj
 0001:00038668       ?m_get$_SystemId@Class_Microsoft_Singularity_Services_VolumeManager_Volume@@SIEPAU1@@Z 02039668 f   VolMgr.obj
 0001:0003869c       ?m_get$_StartSector@Class_Microsoft_Singularity_Services_VolumeManager_Volume@@SI_KPAU1@@Z 0203969c f   VolMgr.obj
 0001:000386fc       ?m_get$_SectorCount@Class_Microsoft_Singularity_Services_VolumeManager_Volume@@SI_KPAU1@@Z 020396fc f   VolMgr.obj
 0001:0003875c       ?m_DetachClientChannel@Class_Microsoft_Singularity_Services_VolumeManager_Volume@@SIPAUStruct_Microsoft_Singularity_Directory_ServiceProviderContract_Exp@@PAU1@@Z 0203975c f   VolMgr.obj
 0001:000387e8       ?m_AttachClientChannel@Class_Microsoft_Singularity_Services_VolumeManager_Volume@@SIXPAU1@PAUStruct_Microsoft_Singularity_Directory_ServiceProviderContract_Exp@@@Z 020397e8 f   VolMgr.obj
 0001:00038888       ?m__ctor@Class_Microsoft_Singularity_Services_VolumeManager_Volume@@SIXPAU1@PAUClass_Microsoft_Singularity_Services_VolumeManager_Disk@@HPAUClass_System_String@@PAPAUStruct_Microsoft_Singularity_Directory_ServiceProviderContract_Exp@@@Z 02039888 f   VolMgr.obj
 0001:00038b68       ?g__cctor@Class_Microsoft_Singularity_Services_VolumeManager_Volume@@SIXXZ 02039b68 f   VolMgr.obj
 0001:00038bd8       ?m__ctor@Class_System_Runtime_CompilerServices_NoBarriersAttribute@@SIXPAU1@@Z 02039bd8 f   VolMgr.obj
 0001:00038bfc       ?g_ToString2@Class_Microsoft_Singularity_Bitter@@SIPAUClass_System_String@@PA_W@Z 02039bfc f   VolMgr.obj
 0001:00038c58       ?g_ToString2@Class_Microsoft_Singularity_Bitter@@SIPAUClass_System_String@@PA_WHH@Z 02039c58 f   VolMgr.obj
 0001:00038d8c       ?g_FromString2@Class_Microsoft_Singularity_Bitter@@SIPA_WPAUClass_System_String@@@Z 02039d8c f   VolMgr.obj
 0001:00038dd8       ?g_FromString2@Class_Microsoft_Singularity_Bitter@@SIPA_WPAUClass_System_String@@HH@Z 02039dd8 f   VolMgr.obj
 0001:00038f08       ?m__ctor@Class_Microsoft_Singularity_Bitter@@SIXPAU1@@Z 02039f08 f   VolMgr.obj
 0001:00038f20       ?g_Allocate@Class_Microsoft_Singularity_Channels_ChannelHeap@@SIPAUvoid@@PAUClass_System_Type@@@Z 02039f20 f   VolMgr.obj
 0001:00039008       ?m__ctor@Class_Microsoft_Singularity_Channels_ChannelHeap@@SIXPAU1@@Z 0203a008 f   VolMgr.obj
 0001:00039020       ?m_StructCopy@Struct_Microsoft_Singularity_Directory_DirectoryServiceContract_AckCreateAndBindFile@@SIXPAU1@0@Z 0203a020 f   VolMgr.obj
 0001:0003903c       ?m_StructCopy@Struct_Microsoft_Singularity_Directory_DirectoryServiceContract_AckCreateAndBindFile@@SIXPAU1@PAU1@@Z 0203a03c f   VolMgr.obj
 0001:00039090       ?m_Equals@Struct_Microsoft_Singularity_Directory_DirectoryServiceContract_AckCreateAndBindFile@@SI_NPAU1@PAUClass_System_Object@@@Z 0203a090 f   VolMgr.obj
 0001:000390c8       ?m_Equals@Struct_Microsoft_Singularity_Directory_DirectoryServiceContract_AckCreateAndBindFile@@SI_NPAUClass_Microsoft_Singularity_Directory_DirectoryServiceContract_AckCreateAndBindFile@@PAUClass_System_Object@@@Z 0203a0c8 f   VolMgr.obj
 0001:000390f4       ?g_StringSize@Class_System_GCs_ObjectLayout@@SIPAUuintPtr@@PAUClass_System_VTable@@I@Z 0203a0f4 f   VolMgr.obj
 0001:00039164       ?g_Sizeof@Class_System_GCs_ObjectLayout@@SIPAUuintPtr@@PAUClass_System_Object@@@Z 0203a164 f   VolMgr.obj
 0001:000391a0       ?g_ObjectSize@Class_System_GCs_ObjectLayout@@SIPAUuintPtr@@PAU2@PAUClass_System_VTable@@@Z 0203a1a0 f   VolMgr.obj
 0001:0003925c       ?g_ObjectSize@Class_System_GCs_ObjectLayout@@SIPAUuintPtr@@PAUClass_System_VTable@@@Z 0203a25c f   VolMgr.obj
 0001:000392c8       ?g_ArraySize@Class_System_GCs_ObjectLayout@@SIPAUuintPtr@@PAUClass_System_VTable@@I@Z 0203a2c8 f   VolMgr.obj
 0001:00039340       ?m__ctor@Class_System_GCs_ObjectLayout@@SIXPAU1@@Z 0203a340 f   VolMgr.obj
 0001:00039358       ?m__ctor@Class_System_LocalDataStoreMgr@@SIXPAU1@@Z 0203a358 f   VolMgr.obj
 0001:000393e8       ?m_MoveNext@Class_System_Collections_ArrayList_ArrayListEnumeratorSimple@@SI_NPAU1@@Z 0203a3e8 f   VolMgr.obj
 0001:0003948c       ?m_get$_Current@Class_System_Collections_ArrayList_ArrayListEnumeratorSimple@@SIPAUClass_System_Object@@PAU1@@Z 0203a48c f   VolMgr.obj
 0001:0003951c       ?m__ctor@Class_System_Collections_ArrayList_ArrayListEnumeratorSimple@@SIXPAU1@PAUClass_System_Collections_ArrayList@@@Z 0203a51c f   VolMgr.obj
 0001:00039560       ?g_StableState@Class_Microsoft_Singularity_Directory_DirectoryServiceContract@@SIHPAUStruct_Microsoft_Singularity_Channels_StateStack@@@Z 0203a560 f   VolMgr.obj
 0001:00039804       ?m__ctor@Class_Microsoft_Singularity_Directory_DirectoryServiceContract@@SIXPAU1@@Z 0203a804 f   VolMgr.obj
 0001:0003981c       ?m_StructCopy@Struct_Microsoft_Singularity_V1_Services_SharedHeapService@@SIXPAU1@0@Z 0203a81c f   VolMgr.obj
 0001:00039838       ?m_StructCopy@Struct_Microsoft_Singularity_V1_Services_SharedHeapService@@SIXPAU1@PAU1@@Z 0203a838 f   VolMgr.obj
 0001:0003988c       ?g_GetType@Struct_Microsoft_Singularity_V1_Services_SharedHeapService@@SIPAUuintPtr@@PAUStruct_Microsoft_Singularity_V1_Services_SharedHeapService_Allocation@@@Z 0203a88c f   VolMgr.obj
 0001:000398ac       ?g_GetSize@Struct_Microsoft_Singularity_V1_Services_SharedHeapService@@SIPAUuintPtr@@PAUStruct_Microsoft_Singularity_V1_Services_SharedHeapService_Allocation@@@Z 0203a8ac f   VolMgr.obj
 0001:000398cc       ?g_GetData@Struct_Microsoft_Singularity_V1_Services_SharedHeapService@@SIPAUuintPtr@@PAUStruct_Microsoft_Singularity_V1_Services_SharedHeapService_Allocation@@@Z 0203a8cc f   VolMgr.obj
 0001:000398ec       ?m_Equals@Struct_Microsoft_Singularity_V1_Services_SharedHeapService@@SI_NPAU1@PAUClass_System_Object@@@Z 0203a8ec f   VolMgr.obj
 0001:00039924       ?m_Equals@Struct_Microsoft_Singularity_V1_Services_SharedHeapService@@SI_NPAUClass_Microsoft_Singularity_V1_Services_SharedHeapService@@PAUClass_System_Object@@@Z 0203a924 f   VolMgr.obj
 0001:00039950       ?m_StructCopy@Struct_Microsoft_Singularity_Io_DiskDeviceContract_AckGetDiskAttributes@@SIXPAU1@0@Z 0203a950 f   VolMgr.obj
 0001:00039978       ?m_StructCopy@Struct_Microsoft_Singularity_Io_DiskDeviceContract_AckGetDiskAttributes@@SIXPAU1@PAU1@@Z 0203a978 f   VolMgr.obj
 0001:000399f0       ?m_Equals@Struct_Microsoft_Singularity_Io_DiskDeviceContract_AckGetDiskAttributes@@SI_NPAU1@PAUClass_System_Object@@@Z 0203a9f0 f   VolMgr.obj
 0001:00039a90       ?m_Equals@Struct_Microsoft_Singularity_Io_DiskDeviceContract_AckGetDiskAttributes@@SI_NPAUClass_Microsoft_Singularity_Io_DiskDeviceContract_AckGetDiskAttributes@@PAUClass_System_Object@@@Z 0203aa90 f   VolMgr.obj
 0001:00039abc       ?g_WriteLine@Class_Microsoft_Singularity_DebugStub@@SIXPAUClass_System_String@@@Z 0203aabc f   VolMgr.obj
 0001:00039b20       ?g_WriteLine@Class_Microsoft_Singularity_DebugStub@@SIXPAUClass_System_String@@UStruct_System_VarargList@@@Z 0203ab20 f   VolMgr.obj
 0001:00039b88       ?g_WriteLine@Class_Microsoft_Singularity_DebugStub@@SIXPAUClass_System_String@@UStruct_System_ArgIterator@@@Z 0203ab88 f   VolMgr.obj
 0001:00039d80       ?g_Write@Class_Microsoft_Singularity_DebugStub@@SIXPAUClass_System_String@@UStruct_System_VarargList@@@Z 0203ad80 f   VolMgr.obj
 0001:00039de8       ?g_Write@Class_Microsoft_Singularity_DebugStub@@SIXPAUClass_System_String@@UStruct_System_ArgIterator@@@Z 0203ade8 f   VolMgr.obj
 0001:00039e20       ?g_Print@Class_Microsoft_Singularity_DebugStub@@SIXPAUClass_System_String@@@Z 0203ae20 f   VolMgr.obj
 0001:00039e84       ?g_Print@Class_Microsoft_Singularity_DebugStub@@SIXPAUClass_System_String@@UStruct_System_VarargList@@@Z 0203ae84 f   VolMgr.obj
 0001:00039eec       ?g_Print@Class_Microsoft_Singularity_DebugStub@@SIXPAUClass_System_String@@UStruct_System_ArgIterator@@@Z 0203aeec f   VolMgr.obj
 0001:00039f24       ?g_InsertFormat@Class_Microsoft_Singularity_DebugStub@@SIXPA_WPAHHPAUClass_System_String@@UStruct_System_VarargList@@@Z 0203af24 f   VolMgr.obj
 0001:00039fc4       ?g_failAssert@Class_Microsoft_Singularity_DebugStub@@SIXPAUClass_System_String@@@Z 0203afc4 f   VolMgr.obj
 0001:00039fec       ?g_Assert@Class_Microsoft_Singularity_DebugStub@@SIX_N@Z 0203afec f   VolMgr.obj
 0001:0003a01c       ?g_AddToPerfCounter@Class_Microsoft_Singularity_DebugStub@@SI_NI_K@Z 0203b01c f   VolMgr.obj
 0001:0003a054       ?g_AddLineHeader@Class_Microsoft_Singularity_DebugStub@@SIXPA_WPAHH@Z 0203b054 f   VolMgr.obj
 0001:0003a254       ?m__ctor@Class_Microsoft_Singularity_DebugStub@@SIXPAU1@@Z 0203b254 f   VolMgr.obj
 0001:0003a270       ?m_StructCopy@Struct_Microsoft_Singularity_Directory_DirectoryServiceContract_NakGetAttributesReparse@@SIXPAU1@0@Z 0203b270 f   VolMgr.obj
 0001:0003a2b0       ?m_StructCopy@Struct_Microsoft_Singularity_Directory_DirectoryServiceContract_NakGetAttributesReparse@@SIXPAU1@PAU1@@Z 0203b2b0 f   VolMgr.obj
 0001:0003a370       ?m_Equals@Struct_Microsoft_Singularity_Directory_DirectoryServiceContract_NakGetAttributesReparse@@SI_NPAU1@PAUClass_System_Object@@@Z 0203b370 f   VolMgr.obj
 0001:0003a3d8       ?m_Equals@Struct_Microsoft_Singularity_Directory_DirectoryServiceContract_NakGetAttributesReparse@@SI_NPAUClass_Microsoft_Singularity_Directory_DirectoryServiceContract_NakGetAttributesReparse@@PAUClass_System_Object@@@Z 0203b3d8 f   VolMgr.obj
 0001:0003a404       ?m_StructCopy@Struct_Microsoft_Singularity_Io_DiskDeviceContract_Write@@SIXPAU1@0@Z 0203b404 f   VolMgr.obj
 0001:0003a474       ?m_StructCopy@Struct_Microsoft_Singularity_Io_DiskDeviceContract_Write@@SIXPAU1@PAU1@@Z 0203b474 f   VolMgr.obj
 0001:0003a5c4       ?m_Equals@Struct_Microsoft_Singularity_Io_DiskDeviceContract_Write@@SI_NPAU1@PAUClass_System_Object@@@Z 0203b5c4 f   VolMgr.obj
 0001:0003a688       ?m_Equals@Struct_Microsoft_Singularity_Io_DiskDeviceContract_Write@@SI_NPAUClass_Microsoft_Singularity_Io_DiskDeviceContract_Write@@PAUClass_System_Object@@@Z 0203b688 f   VolMgr.obj
 0001:0003a6b4       ?m_StructCopy@Struct_Microsoft_Singularity_Directory_DirectoryServiceContract_AckQueryACL@@SIXPAU1@0@Z 0203b6b4 f   VolMgr.obj
 0001:0003a6e8       ?m_StructCopy@Struct_Microsoft_Singularity_Directory_DirectoryServiceContract_AckQueryACL@@SIXPAU1@PAU1@@Z 0203b6e8 f   VolMgr.obj
 0001:0003a784       ?m_Equals@Struct_Microsoft_Singularity_Directory_DirectoryServiceContract_AckQueryACL@@SI_NPAU1@PAUClass_System_Object@@@Z 0203b784 f   VolMgr.obj
 0001:0003a7e0       ?m_Equals@Struct_Microsoft_Singularity_Directory_DirectoryServiceContract_AckQueryACL@@SI_NPAUClass_Microsoft_Singularity_Directory_DirectoryServiceContract_AckQueryACL@@PAUClass_System_Object@@@Z 0203b7e0 f   VolMgr.obj
 0001:0003a80c       ?m_HeadMatches@Class_Microsoft_Singularity_Channels_EMap$_3$LMicrosoft_Singularity_Directory_ServiceProviderContract_Exp_Microsoft_Singularity_Directory_ServiceProviderContract_Start_optional_Microsoft_Contracts_NonNullType__Microsoft_Singularity_Services_VolumeManager_Volume$G@@SI_NPAU1@HPA_NPAPAUClass_System_Object@@@Z 0203b80c f   VolMgr.obj
 0001:0003a984       ?m_GetWaitHandle@Class_Microsoft_Singularity_Channels_EMap$_3$LMicrosoft_Singularity_Directory_ServiceProviderContract_Exp_Microsoft_Singularity_Directory_ServiceProviderContract_Start_optional_Microsoft_Contracts_NonNullType__Microsoft_Singularity_Services_VolumeManager_Volume$G@@SI?AUStruct_Microsoft_Singularity_V1_Threads_SyncHandle@@PAU1@@Z 0203b984 f   VolMgr.obj
 0001:0003a9f0       ?m_GetFreshNode@Class_Microsoft_Singularity_Channels_EMap$_3$LMicrosoft_Singularity_Directory_ServiceProviderContract_Exp_Microsoft_Singularity_Directory_ServiceProviderContract_Start_optional_Microsoft_Contracts_NonNullType__Microsoft_Singularity_Services_VolumeManager_Volume$G@@SIPAUClass_Microsoft_Singularity_Channels_EMap$_3$LMicrosoft_Singularity_Directory_ServiceProviderContract_Exp_Microsoft_Singularity_Directory_ServiceProviderContract_Start_optional_Microsoft_Contracts_NonNullType__Microsoft_Singularity_Services_VolumeManager_Volume$G_Node@@PAU1@PAUStruct_Microsoft_Singularity_Directory_ServiceProviderContract_Exp@@PAUClass_Microsoft_Singularity_Services_VolumeManager_Volume@@0@Z 0203b9f0 f   VolMgr.obj
 0001:0003aa98       ?m_get$_NextScanStart@Class_Microsoft_Singularity_Channels_EMap$_3$LMicrosoft_Singularity_Directory_ServiceProviderContract_Exp_Microsoft_Singularity_Directory_ServiceProviderContract_Start_optional_Microsoft_Contracts_NonNullType__Microsoft_Singularity_Services_VolumeManager_Volume$G@@SIPAUClass_Microsoft_Singularity_Channels_EMap$_3$LMicrosoft_Singularity_Directory_ServiceProviderContract_Exp_Microsoft_Singularity_Directory_ServiceProviderContract_Start_optional_Microsoft_Contracts_NonNullType__Microsoft_Singularity_Services_VolumeManager_Volume$G_Node@@PAU1@@Z 0203ba98 f   VolMgr.obj
 0001:0003ab00       ?m_Extract@Class_Microsoft_Singularity_Channels_EMap$_3$LMicrosoft_Singularity_Directory_ServiceProviderContract_Exp_Microsoft_Singularity_Directory_ServiceProviderContract_Start_optional_Microsoft_Contracts_NonNullType__Microsoft_Singularity_Services_VolumeManager_Volume$G@@SIPAUStruct_Microsoft_Singularity_Directory_ServiceProviderContract_Exp@@PAU1@PAUClass_System_Object@@PAPAUClass_Microsoft_Singularity_Services_VolumeManager_Volume@@@Z 0203bb00 f   VolMgr.obj
 0001:0003abc0       ?m_Dispose@Class_Microsoft_Singularity_Channels_EMap$_3$LMicrosoft_Singularity_Directory_ServiceProviderContract_Exp_Microsoft_Singularity_Directory_ServiceProviderContract_Start_optional_Microsoft_Contracts_NonNullType__Microsoft_Singularity_Services_VolumeManager_Volume$G@@SIXPAU1@@Z 0203bbc0 f   VolMgr.obj
 0001:0003acd8       ?m_Add@Class_Microsoft_Singularity_Channels_EMap$_3$LMicrosoft_Singularity_Directory_ServiceProviderContract_Exp_Microsoft_Singularity_Directory_ServiceProviderContract_Start_optional_Microsoft_Contracts_NonNullType__Microsoft_Singularity_Services_VolumeManager_Volume$G@@SIXPAU1@PAUStruct_Microsoft_Singularity_Directory_ServiceProviderContract_Exp@@PAUClass_Microsoft_Singularity_Services_VolumeManager_Volume@@@Z 0203bcd8 f   VolMgr.obj
 0001:0003ad0c       ?m__ctor@Class_Microsoft_Singularity_Channels_EMap$_3$LMicrosoft_Singularity_Directory_ServiceProviderContract_Exp_Microsoft_Singularity_Directory_ServiceProviderContract_Start_optional_Microsoft_Contracts_NonNullType__Microsoft_Singularity_Services_VolumeManager_Volume$G@@SIXPAU1@@Z 0203bd0c f   VolMgr.obj
 0001:0003ad98       ?m_StructCopy@Struct_Microsoft_Singularity_Directory_DirectoryServiceContract_NakDeleteDirectory@@SIXPAU1@0@Z 0203bd98 f   VolMgr.obj
 0001:0003adc0       ?m_StructCopy@Struct_Microsoft_Singularity_Directory_DirectoryServiceContract_NakDeleteDirectory@@SIXPAU1@PAU1@@Z 0203bdc0 f   VolMgr.obj
 0001:0003ae38       ?m_Equals@Struct_Microsoft_Singularity_Directory_DirectoryServiceContract_NakDeleteDirectory@@SI_NPAU1@PAUClass_System_Object@@@Z 0203be38 f   VolMgr.obj
 0001:0003aed8       ?m_Equals@Struct_Microsoft_Singularity_Directory_DirectoryServiceContract_NakDeleteDirectory@@SI_NPAUClass_Microsoft_Singularity_Directory_DirectoryServiceContract_NakDeleteDirectory@@PAUClass_System_Object@@@Z 0203bed8 f   VolMgr.obj
 0001:0003af04       ?m_StructCopy@Struct_Microsoft_Singularity_Directory_DirectoryServiceContract_AckDeleteDirectory@@SIXPAU1@0@Z 0203bf04 f   VolMgr.obj
 0001:0003af20       ?m_StructCopy@Struct_Microsoft_Singularity_Directory_DirectoryServiceContract_AckDeleteDirectory@@SIXPAU1@PAU1@@Z 0203bf20 f   VolMgr.obj
 0001:0003af74       ?m_Equals@Struct_Microsoft_Singularity_Directory_DirectoryServiceContract_AckDeleteDirectory@@SI_NPAU1@PAUClass_System_Object@@@Z 0203bf74 f   VolMgr.obj
 0001:0003afac       ?m_Equals@Struct_Microsoft_Singularity_Directory_DirectoryServiceContract_AckDeleteDirectory@@SI_NPAUClass_Microsoft_Singularity_Directory_DirectoryServiceContract_AckDeleteDirectory@@PAUClass_System_Object@@@Z 0203bfac f   VolMgr.obj
 0001:0003afd8       ?m_StructCopy@Struct_Microsoft_Singularity_Directory_DirectoryServiceContract_BeginEnumeration@@SIXPAU1@0@Z 0203bfd8 f   VolMgr.obj
 0001:0003aff4       ?m_StructCopy@Struct_Microsoft_Singularity_Directory_DirectoryServiceContract_BeginEnumeration@@SIXPAU1@PAU1@@Z 0203bff4 f   VolMgr.obj
 0001:0003b048       ?m_Equals@Struct_Microsoft_Singularity_Directory_DirectoryServiceContract_BeginEnumeration@@SI_NPAU1@PAUClass_System_Object@@@Z 0203c048 f   VolMgr.obj
 0001:0003b080       ?m_Equals@Struct_Microsoft_Singularity_Directory_DirectoryServiceContract_BeginEnumeration@@SI_NPAUClass_Microsoft_Singularity_Directory_DirectoryServiceContract_BeginEnumeration@@PAUClass_System_Object@@@Z 0203c080 f   VolMgr.obj
 0001:0003b0ac       ?m__ctor@Class_System_DivideByZeroException@@SIXPAU1@@Z 0203c0ac f   VolMgr.obj
 0001:0003b0d4       ?m__ctor@Class_System_DivideByZeroException@@SIXPAU1@PAUClass_System_String@@@Z 0203c0d4 f   VolMgr.obj
 0001:0003b0fc       ?m__ctor@Class_System_DivideByZeroException@@SIXPAU1@PAUClass_System_String@@PAUClass_System_Exception@@@Z 0203c0fc f   VolMgr.obj
 0001:0003b12c       ?m_StructCopy@Struct_Microsoft_Singularity_Directory_DirectoryServiceContract_AckStoreACL@@SIXPAU1@0@Z 0203c12c f   VolMgr.obj
 0001:0003b148       ?m_StructCopy@Struct_Microsoft_Singularity_Directory_DirectoryServiceContract_AckStoreACL@@SIXPAU1@PAU1@@Z 0203c148 f   VolMgr.obj
 0001:0003b19c       ?m_Equals@Struct_Microsoft_Singularity_Directory_DirectoryServiceContract_AckStoreACL@@SI_NPAU1@PAUClass_System_Object@@@Z 0203c19c f   VolMgr.obj
 0001:0003b1d4       ?m_Equals@Struct_Microsoft_Singularity_Directory_DirectoryServiceContract_AckStoreACL@@SI_NPAUClass_Microsoft_Singularity_Directory_DirectoryServiceContract_AckStoreACL@@PAUClass_System_Object@@@Z 0203c1d4 f   VolMgr.obj
 0001:0003b200       ?m__ctor@Class_System_StackOverflowException@@SIXPAU1@@Z 0203c200 f   VolMgr.obj
 0001:0003b228       ?m__ctor@Class_System_StackOverflowException@@SIXPAU1@PAUClass_System_String@@@Z 0203c228 f   VolMgr.obj
 0001:0003b250       ?m__ctor@Class_System_StackOverflowException@@SIXPAU1@PAUClass_System_String@@PAUClass_System_Exception@@@Z 0203c250 f   VolMgr.obj
 0001:0003b280       ?m_StructCopy@Struct_System_Collections_DictionaryEntry@@SIXPAU1@0@Z 0203c280 f   VolMgr.obj
 0001:0003b2b4       ?m_StructCopy@Struct_System_Collections_DictionaryEntry@@SIXPAU1@PAU1@@Z 0203c2b4 f   VolMgr.obj
 0001:0003b350       ?m_get$_Value@Struct_System_Collections_DictionaryEntry@@SIPAUClass_System_Object@@PAU1@@Z 0203c350 f   VolMgr.obj
 0001:0003b370       ?m_get$_Key@Struct_System_Collections_DictionaryEntry@@SIPAUClass_System_Object@@PAU1@@Z 0203c370 f   VolMgr.obj
 0001:0003b390       ?m_Equals@Struct_System_Collections_DictionaryEntry@@SI_NPAU1@PAUClass_System_Object@@@Z 0203c390 f   VolMgr.obj
 0001:0003b3f8       ?m_Equals@Struct_System_Collections_DictionaryEntry@@SI_NPAUClass_System_Collections_DictionaryEntry@@PAUClass_System_Object@@@Z 0203c3f8 f   VolMgr.obj
 0001:0003b424       ?m__ctor@Struct_System_Collections_DictionaryEntry@@SIXPAU1@PAUClass_System_Object@@1@Z 0203c424 f   VolMgr.obj
 0001:0003b498       ?m__ctor@Class_System_GCs_StopTheWorldGCData@@SIXPAU1@@Z 0203c498 f   VolMgr.obj
 0001:0003b4b0       ?m_StructCopy@Struct_Microsoft_Singularity_Directory_DirectoryServiceContract_AckDeleteFile@@SIXPAU1@0@Z 0203c4b0 f   VolMgr.obj
 0001:0003b4cc       ?m_StructCopy@Struct_Microsoft_Singularity_Directory_DirectoryServiceContract_AckDeleteFile@@SIXPAU1@PAU1@@Z 0203c4cc f   VolMgr.obj
 0001:0003b520       ?m_Equals@Struct_Microsoft_Singularity_Directory_DirectoryServiceContract_AckDeleteFile@@SI_NPAU1@PAUClass_System_Object@@@Z 0203c520 f   VolMgr.obj
 0001:0003b558       ?m_Equals@Struct_Microsoft_Singularity_Directory_DirectoryServiceContract_AckDeleteFile@@SI_NPAUClass_Microsoft_Singularity_Directory_DirectoryServiceContract_AckDeleteFile@@PAUClass_System_Object@@@Z 0203c558 f   VolMgr.obj
 0001:0003b584       ?m_StructCopy@Struct_Microsoft_Singularity_Io_DiskDeviceContract_GetDiskAttributes@@SIXPAU1@0@Z 0203c584 f   VolMgr.obj
 0001:0003b5a0       ?m_StructCopy@Struct_Microsoft_Singularity_Io_DiskDeviceContract_GetDiskAttributes@@SIXPAU1@PAU1@@Z 0203c5a0 f   VolMgr.obj
 0001:0003b5f4       ?m_Equals@Struct_Microsoft_Singularity_Io_DiskDeviceContract_GetDiskAttributes@@SI_NPAU1@PAUClass_System_Object@@@Z 0203c5f4 f   VolMgr.obj
 0001:0003b62c       ?m_Equals@Struct_Microsoft_Singularity_Io_DiskDeviceContract_GetDiskAttributes@@SI_NPAUClass_Microsoft_Singularity_Io_DiskDeviceContract_GetDiskAttributes@@PAUClass_System_Object@@@Z 0203c62c f   VolMgr.obj
 0001:0003b658       ?m__ctor@Class_System_AtomicIsInvalidException@@SIXPAU1@@Z 0203c658 f   VolMgr.obj
 0001:0003b67c       ?m__ctor@Class_System_AtomicException@@SIXPAU1@@Z 0203c67c f   VolMgr.obj
 0001:0003b6a0       ?m_StructCopy@Struct_Microsoft_Singularity_Directory_DirectoryServiceContract_AckRegister@@SIXPAU1@0@Z 0203c6a0 f   VolMgr.obj
 0001:0003b6bc       ?m_StructCopy@Struct_Microsoft_Singularity_Directory_DirectoryServiceContract_AckRegister@@SIXPAU1@PAU1@@Z 0203c6bc f   VolMgr.obj
 0001:0003b710       ?m_Equals@Struct_Microsoft_Singularity_Directory_DirectoryServiceContract_AckRegister@@SI_NPAU1@PAUClass_System_Object@@@Z 0203c710 f   VolMgr.obj
 0001:0003b748       ?m_Equals@Struct_Microsoft_Singularity_Directory_DirectoryServiceContract_AckRegister@@SI_NPAUClass_Microsoft_Singularity_Directory_DirectoryServiceContract_AckRegister@@PAUClass_System_Object@@@Z 0203c748 f   VolMgr.obj
 0001:0003b774       ?m_StructCopy@Struct_Microsoft_Singularity_Directory_DirectoryServiceContract_Imp@@SIXPAU1@0@Z 0203c774 f   VolMgr.obj
 0001:0003bc58       ?m_StructCopy@Struct_Microsoft_Singularity_Directory_DirectoryServiceContract_Imp@@SIXPAU1@PAU1@@Z 0203cc58 f   VolMgr.obj
 0001:0003cb04       ?m_SendRegister@Struct_Microsoft_Singularity_Directory_DirectoryServiceContract_Imp@@SIXPAU1@PA_WPAUStruct_Microsoft_Singularity_Directory_ServiceProviderContract_Imp@@@Z 0203db04 f   VolMgr.obj
 0001:0003cca8       ?m_SendNotify@Struct_Microsoft_Singularity_Directory_DirectoryServiceContract_Imp@@SIXPAU1@PA_W1_NPAUStruct_Microsoft_Singularity_Directory_NotifyContract_Imp@@@Z 0203dca8 f   VolMgr.obj
 0001:0003ce84       ?m_SendBind@Struct_Microsoft_Singularity_Directory_DirectoryServiceContract_Imp@@SIXPAU1@PA_WPAUStruct_Microsoft_Singularity_Directory_ServiceContract_Exp@@@Z 0203de84 f   VolMgr.obj
 0001:0003d028       ?m_RecvNakRegister@Struct_Microsoft_Singularity_Directory_DirectoryServiceContract_Imp@@SIXPAU1@PAPAUStruct_Microsoft_Singularity_Directory_ServiceProviderContract_Imp@@PAUStruct_Microsoft_Singularity_Directory_ErrorCode@@@Z 0203e028 f   VolMgr.obj
 0001:0003d1c4       ?m_RecvNakNotify@Struct_Microsoft_Singularity_Directory_DirectoryServiceContract_Imp@@SIXPAU1@PAPAUStruct_Microsoft_Singularity_Directory_NotifyContract_Imp@@PAUStruct_Microsoft_Singularity_Directory_ErrorCode@@@Z 0203e1c4 f   VolMgr.obj
 0001:0003d360       ?m_RecvNakBind@Struct_Microsoft_Singularity_Directory_DirectoryServiceContract_Imp@@SIXPAU1@PAPAUStruct_Microsoft_Singularity_Directory_ServiceContract_Exp@@PAUStruct_Microsoft_Singularity_Directory_ErrorCode@@@Z 0203e360 f   VolMgr.obj
 0001:0003d4fc       ?m_RecvAckRegister@Struct_Microsoft_Singularity_Directory_DirectoryServiceContract_Imp@@SIXPAU1@@Z 0203e4fc f   VolMgr.obj
 0001:0003d674       ?m_RecvAckNotify@Struct_Microsoft_Singularity_Directory_DirectoryServiceContract_Imp@@SIXPAU1@@Z 0203e674 f   VolMgr.obj
 0001:0003d7ec       ?m_RecvAckBind@Struct_Microsoft_Singularity_Directory_DirectoryServiceContract_Imp@@SIXPAU1@@Z 0203e7ec f   VolMgr.obj
 0001:0003d964       ?m_Peek@Struct_Microsoft_Singularity_Directory_DirectoryServiceContract_Imp@@SIHPAU1@@Z 0203e964 f   VolMgr.obj
 0001:0003e30c       ?m_HeadMatches@Struct_Microsoft_Singularity_Directory_DirectoryServiceContract_Imp@@SI_NPAU1@HPA_NPAPAUClass_System_Object@@@Z 0203f30c f   VolMgr.obj
 0001:0003e3cc       ?m_HeadMatches@Struct_Microsoft_Singularity_Directory_DirectoryServiceContract_Imp@@SI_NPAUClass_Microsoft_Singularity_Directory_DirectoryServiceContract_Imp@@HPA_NPAPAUClass_System_Object@@@Z 0203f3cc f   VolMgr.obj
 0001:0003e404       ?m_Equals@Struct_Microsoft_Singularity_Directory_DirectoryServiceContract_Imp@@SI_NPAU1@PAUClass_System_Object@@@Z 0203f404 f   VolMgr.obj
 0001:0003ff80       ?m_Equals@Struct_Microsoft_Singularity_Directory_DirectoryServiceContract_Imp@@SI_NPAUClass_Microsoft_Singularity_Directory_DirectoryServiceContract_Imp@@PAUClass_System_Object@@@Z 02040f80 f   VolMgr.obj
 0001:0003ffac       ?m_Dispose@Struct_Microsoft_Singularity_Directory_DirectoryServiceContract_Imp@@SIXPAU1@@Z 02040fac f   VolMgr.obj
 0001:0003ffd0       ?m_CurrentState@Struct_Microsoft_Singularity_Directory_DirectoryServiceContract_Imp@@SIPAUClass_System_String@@PAU1@@Z 02040fd0 f   VolMgr.obj
 0001:000402f8       ?m__ctor@Class_Microsoft_Contracts_RequiresException@@SIXPAU1@@Z 020412f8 f   VolMgr.obj
 0001:0004031c       ?m__ctor@Class_Microsoft_Contracts_RequiresException@@SIXPAU1@PAUClass_System_String@@@Z 0204131c f   VolMgr.obj
 0001:00040344       ?m_Visit@Class_System_GCs_Verifier_GenericReferenceVisitor@@SIXPAU1@PAPAUuintPtr@@@Z 02041344 f   VolMgr.obj
 0001:00040648       ?m__ctor@Class_System_GCs_Verifier_GenericReferenceVisitor@@SIXPAU1@@Z 02041648 f   VolMgr.obj
 0001:0004066c       ?m_ToString@intPtr@@SIPAUClass_System_String@@PAPAU1@@Z 0204166c f   VolMgr.obj
 0001:000406a0       ?m_ToString@intPtr@@SIPAUClass_System_String@@PAUClass_System_IntPtr@@@Z 020416a0 f   VolMgr.obj
 0001:000406f4       ?m_GetHashCode@intPtr@@SIHPAPAU1@@Z 020416f4 f   VolMgr.obj
 0001:00040714       ?m_GetHashCode@intPtr@@SIHPAUClass_System_IntPtr@@@Z 02041714 f   VolMgr.obj
 0001:0004073c       ?m_Equals@intPtr@@SI_NPAPAU1@PAUClass_System_Object@@@Z 0204173c f   VolMgr.obj
 0001:00040798       ?m_Equals@intPtr@@SI_NPAUClass_System_IntPtr@@PAUClass_System_Object@@@Z 02041798 f   VolMgr.obj
 0001:000407c4       ?m_StructCopy@Struct_Microsoft_Singularity_Directory_DirectoryServiceContract_NakGetLinkValueReparse@@SIXPAU1@0@Z 020417c4 f   VolMgr.obj
 0001:00040804       ?m_StructCopy@Struct_Microsoft_Singularity_Directory_DirectoryServiceContract_NakGetLinkValueReparse@@SIXPAU1@PAU1@@Z 02041804 f   VolMgr.obj
 0001:000408c4       ?m_Equals@Struct_Microsoft_Singularity_Directory_DirectoryServiceContract_NakGetLinkValueReparse@@SI_NPAU1@PAUClass_System_Object@@@Z 020418c4 f   VolMgr.obj
 0001:0004092c       ?m_Equals@Struct_Microsoft_Singularity_Directory_DirectoryServiceContract_NakGetLinkValueReparse@@SI_NPAUClass_Microsoft_Singularity_Directory_DirectoryServiceContract_NakGetLinkValueReparse@@PAUClass_System_Object@@@Z 0204192c f   VolMgr.obj
 0001:00040958       ?g_VerifyUnusedRegion@Class_System_GCs_PageManager@@SIXPAUuintPtr@@0@Z 02041958 f   VolMgr.obj
 0001:00040fe4       ?g_VerifyUnusedPage@Class_System_GCs_PageManager@@SIXPAUuintPtr@@_N@Z 02041fe4 f   VolMgr.obj
 0001:00041198       ?g_UnlinkUnusedPages@Class_System_GCs_PageManager@@SIPAUuintPtr@@PAU2@@Z 02042198 f   VolMgr.obj
 0001:00041444       ?g_SlotFromCount@Class_System_GCs_PageManager@@SIHPAUuintPtr@@@Z 02042444 f   VolMgr.obj
 0001:00041490       ?g_SetStaticDataPages@Class_System_GCs_PageManager@@SIXPAUuintPtr@@0@Z 02042490 f   VolMgr.obj
 0001:000416b0       ?g_SetPageTypeClean@Class_System_GCs_PageManager@@SIXPAUuintPtr@@0UStruct_System_GCs_PageType@@@Z 020426b0 f   VolMgr.obj
 0001:00041c40       ?g_ReleaseUnusedPages@Class_System_GCs_PageManager@@SIXPAUuintPtr@@0_N@Z 02042c40 f   VolMgr.obj
 0001:00042468       ?g_MarkUnusedPages@Class_System_GCs_PageManager@@SIXPAUClass_System_Threading_Thread@@PAUuintPtr@@1_N@Z 02043468 f   VolMgr.obj
 0001:00042a58       ?g_LinkUnusedPages@Class_System_GCs_PageManager@@SIXPAUuintPtr@@0_N@Z 02043a58 f   VolMgr.obj
 0001:00042f90       ?g_LeaveMutex@Class_System_GCs_PageManager@@SIXPAUClass_System_Threading_Thread@@_N@Z 02043f90 f   VolMgr.obj
 0001:00042fe0       ?g_Initialize@Class_System_GCs_PageManager@@SIXPAUuintPtr@@0@Z 02043fe0 f   VolMgr.obj
 0001:000430d4       ?g_get$_SlowDebug@Class_System_GCs_PageManager@@SI_NXZ 020440d4 f   VolMgr.obj
 0001:000430ec       ?g_get$_AggressiveMemReset@Class_System_GCs_PageManager@@SI_NXZ 020440ec f   VolMgr.obj
 0001:00043104       ?g_FoundOnlyCleanPages@Class_System_GCs_PageManager@@SI_NPAUuintPtr@@@Z 02044104 f   VolMgr.obj
 0001:000431f0       ?g_FinishInitializeThread@Class_System_GCs_PageManager@@SIXXZ 020441f0 f   VolMgr.obj
 0001:00043240       ?g_FindUnusedPages@Class_System_GCs_PageManager@@SIPAUuintPtr@@PAUClass_System_Threading_Thread@@PAU2@UStruct_System_GCs_PageType@@@Z 02044240 f   VolMgr.obj
 0001:00043428       ?g_EnterMutex@Class_System_GCs_PageManager@@SI_NPAUClass_System_Threading_Thread@@@Z 02044428 f   VolMgr.obj
 0001:00043484       ?g_EnsurePages@Class_System_GCs_PageManager@@SIPAUuintPtr@@PAUClass_System_Threading_Thread@@PAU2@UStruct_System_GCs_PageType@@PA_N@Z 02044484 f   VolMgr.obj
 0001:00043948       ?g_CleanFoundPages@Class_System_GCs_PageManager@@SIXPAUuintPtr@@@Z 02044948 f   VolMgr.obj
 0001:00043a44       ?m__ctor@Class_System_GCs_PageManager@@SIXPAU1@@Z 02044a44 f   VolMgr.obj
 0001:00043a5c       ?m_Compare@Class_System_Collections_Comparer@@SIHPAU1@PAUClass_System_Object@@1@Z 02044a5c f   VolMgr.obj
 0001:00043bf0       ?m__ctor@Class_System_Collections_Comparer@@SIXPAU1@@Z 02044bf0 f   VolMgr.obj
 0001:00043c0c       ?g__cctor@Class_System_Collections_Comparer@@SIXXZ 02044c0c f   VolMgr.obj
 0001:00043c4c       ?g_TransferOwnership@Struct_Microsoft_Singularity_Directory_ServiceProviderContract_Imp@@SIXPAUStruct_Microsoft_Singularity_Channels_Endpoint@@PAU1@@Z 02044c4c f   VolMgr.obj
 0001:00043c90       ?m_TransferContentsOwnership@Struct_Microsoft_Singularity_Directory_ServiceProviderContract_Imp@@SIXPAU1@PAUStruct_Microsoft_Singularity_Channels_Endpoint@@@Z 02044c90 f   VolMgr.obj
 0001:00043cbc       ?m_StructCopy@Struct_Microsoft_Singularity_Directory_ServiceProviderContract_Imp@@SIXPAU1@0@Z 02044cbc f   VolMgr.obj
 0001:00043da8       ?m_StructCopy@Struct_Microsoft_Singularity_Directory_ServiceProviderContract_Imp@@SIXPAU1@PAU1@@Z 02044da8 f   VolMgr.obj
 0001:0004406c       ?m_Peek@Struct_Microsoft_Singularity_Directory_ServiceProviderContract_Imp@@SIHPAU1@@Z 0204506c f   VolMgr.obj
 0001:000441a0       ?m_MarshallDeliverNackConnect0@Struct_Microsoft_Singularity_Directory_ServiceProviderContract_Imp@@SIXPAU1@PAUStruct_Microsoft_Singularity_Directory_ServiceContract_Exp@@PAUStruct_Microsoft_Singularity_Channels_Endpoint@@@Z 020451a0 f   VolMgr.obj
 0001:000441f0       ?m_MarshallDeliverAckConnect0@Struct_Microsoft_Singularity_Directory_ServiceProviderContract_Imp@@SIXPAU1@PAUStruct_Microsoft_Singularity_Channels_Endpoint@@@Z 020451f0 f   VolMgr.obj
 0001:0004423c       ?m_MarshallContent@Struct_Microsoft_Singularity_Directory_ServiceProviderContract_Imp@@SIXPAU1@PAEPAUStruct_Microsoft_Singularity_Channels_Endpoint@@1@Z 0204523c f   VolMgr.obj
 0001:0004425c       ?m_InState@Struct_Microsoft_Singularity_Directory_ServiceProviderContract_Imp@@SI_NPAU1@H@Z 0204525c f   VolMgr.obj
 0001:000442ec       ?m_HeadMatches@Struct_Microsoft_Singularity_Directory_ServiceProviderContract_Imp@@SI_NPAU1@HPA_NPAPAUClass_System_Object@@@Z 020452ec f   VolMgr.obj
 0001:000443ac       ?m_HeadMatches@Struct_Microsoft_Singularity_Directory_ServiceProviderContract_Imp@@SI_NPAUClass_Microsoft_Singularity_Directory_ServiceProviderContract_Imp@@HPA_NPAPAUClass_System_Object@@@Z 020453ac f   VolMgr.obj
 0001:000443e4       ?m_Equals@Struct_Microsoft_Singularity_Directory_ServiceProviderContract_Imp@@SI_NPAU1@PAUClass_System_Object@@@Z 020453e4 f   VolMgr.obj
 0001:0004471c       ?m_Equals@Struct_Microsoft_Singularity_Directory_ServiceProviderContract_Imp@@SI_NPAUClass_Microsoft_Singularity_Directory_ServiceProviderContract_Imp@@PAUClass_System_Object@@@Z 0204571c f   VolMgr.obj
 0001:00044748       ?m_Dispose@Struct_Microsoft_Singularity_Directory_ServiceProviderContract_Imp@@SIXPAU1@@Z 02045748 f   VolMgr.obj
 0001:0004476c       ?m_DeliverNackConnect0@Struct_Microsoft_Singularity_Directory_ServiceProviderContract_Imp@@SIXPAU1@PAUStruct_Microsoft_Singularity_Directory_ServiceContract_Exp@@@Z 0204576c f   VolMgr.obj
 0001:000447b4       ?m_DeliverAckConnect0@Struct_Microsoft_Singularity_Directory_ServiceProviderContract_Imp@@SIXPAU1@@Z 020457b4 f   VolMgr.obj
 0001:000447e8       ?m_CurrentState@Struct_Microsoft_Singularity_Directory_ServiceProviderContract_Imp@@SIPAUClass_System_String@@PAU1@@Z 020457e8 f   VolMgr.obj
 0001:00044864       ?m__ctor@Struct_Microsoft_Singularity_Directory_ServiceProviderContract_Imp@@SIXPAU1@H@Z 02045864 f   VolMgr.obj
 0001:00044890       ?m_StructCopy@Struct_Microsoft_Singularity_Directory_DirectoryServiceContract_NakCreateDirectory@@SIXPAU1@0@Z 02045890 f   VolMgr.obj
 0001:000448b8       ?m_StructCopy@Struct_Microsoft_Singularity_Directory_DirectoryServiceContract_NakCreateDirectory@@SIXPAU1@PAU1@@Z 020458b8 f   VolMgr.obj
 0001:00044930       ?m_Equals@Struct_Microsoft_Singularity_Directory_DirectoryServiceContract_NakCreateDirectory@@SI_NPAU1@PAUClass_System_Object@@@Z 02045930 f   VolMgr.obj
 0001:000449d0       ?m_Equals@Struct_Microsoft_Singularity_Directory_DirectoryServiceContract_NakCreateDirectory@@SI_NPAUClass_Microsoft_Singularity_Directory_DirectoryServiceContract_NakCreateDirectory@@PAUClass_System_Object@@@Z 020459d0 f   VolMgr.obj
 0001:000449fc       ?m_StructCopy@Struct_Microsoft_Singularity_V1_Services_DiagnosisService@@SIXPAU1@0@Z 020459fc f   VolMgr.obj
 0001:00044a18       ?m_StructCopy@Struct_Microsoft_Singularity_V1_Services_DiagnosisService@@SIXPAU1@PAU1@@Z 02045a18 f   VolMgr.obj
 0001:00044a6c       ?g_GCProfileSettingsImpl@Struct_Microsoft_Singularity_V1_Services_DiagnosisService@@SIHPA_K0@Z 02045a6c f   VolMgr.obj
 0001:00044af0       ?m_Equals@Struct_Microsoft_Singularity_V1_Services_DiagnosisService@@SI_NPAU1@PAUClass_System_Object@@@Z 02045af0 f   VolMgr.obj
 0001:00044b28       ?m_Equals@Struct_Microsoft_Singularity_V1_Services_DiagnosisService@@SI_NPAUClass_Microsoft_Singularity_V1_Services_DiagnosisService@@PAUClass_System_Object@@@Z 02045b28 f   VolMgr.obj
 0001:00044b54       ?m_StructCopy@Struct_System_GCs_SegregatedFreeList_TempList@@SIXPAU1@0@Z 02045b54 f   VolMgr.obj
 0001:00044b7c       ?m_StructCopy@Struct_System_GCs_SegregatedFreeList_TempList@@SIXPAU1@PAU1@@Z 02045b7c f   VolMgr.obj
 0001:00044bf4       ?m_GetList@Struct_System_GCs_SegregatedFreeList_TempList@@SIPAUuintPtr@@PAU1@@Z 02045bf4 f   VolMgr.obj
 0001:00044c28       ?m_Equals@Struct_System_GCs_SegregatedFreeList_TempList@@SI_NPAU1@PAUClass_System_Object@@@Z 02045c28 f   VolMgr.obj
 0001:00044c70       ?m_Equals@Struct_System_GCs_SegregatedFreeList_TempList@@SI_NPAUClass_System_GCs_SegregatedFreeList_TempList@@PAUClass_System_Object@@@Z 02045c70 f   VolMgr.obj
 0001:00044c9c       ?m_Add@Struct_System_GCs_SegregatedFreeList_TempList@@SIXPAU1@PAUuintPtr@@@Z 02045c9c f   VolMgr.obj
 0001:00044ccc       ?m__ctor@Class_System_Runtime_CompilerServices_ForceInlineAttribute@@SIXPAU1@@Z 02045ccc f   VolMgr.obj
 0001:00044cf0       ?m_ToString@bartok_char@@SIPAUClass_System_String@@PA_W@Z 02045cf0 f   VolMgr.obj
 0001:00044d14       ?m_ToString@bartok_char@@SIPAUClass_System_String@@PAUClass_System_Char@@@Z 02045d14 f   VolMgr.obj
 0001:00044d3c       ?g_ToString@bartok_char@@SIPAUClass_System_String@@_W@Z 02045d3c f   VolMgr.obj
 0001:00044d74       ?m_GetHashCode@bartok_char@@SIHPA_W@Z 02045d74 f   VolMgr.obj
 0001:00044da8       ?m_GetHashCode@bartok_char@@SIHPAUClass_System_Char@@@Z 02045da8 f   VolMgr.obj
 0001:00044dd0       ?m_Equals@bartok_char@@SI_NPA_WPAUClass_System_Object@@@Z 02045dd0 f   VolMgr.obj
 0001:00044e34       ?m_Equals@bartok_char@@SI_NPAUClass_System_Char@@PAUClass_System_Object@@@Z 02045e34 f   VolMgr.obj
 0001:00044e60       ?m_CompareTo@bartok_char@@SIHPA_WPAUClass_System_Object@@@Z 02045e60 f   VolMgr.obj
 0001:00044eec       ?m_CompareTo@bartok_char@@SIHPAUClass_System_Char@@PAUClass_System_Object@@@Z 02045eec f   VolMgr.obj
 0001:00044f18       ?m_StructCopy@Struct_Microsoft_Singularity_Directory_DirectoryServiceContract_DeleteLink@@SIXPAU1@0@Z 02045f18 f   VolMgr.obj
 0001:00044f40       ?m_StructCopy@Struct_Microsoft_Singularity_Directory_DirectoryServiceContract_DeleteLink@@SIXPAU1@PAU1@@Z 02045f40 f   VolMgr.obj
 0001:00044fb8       ?m_Equals@Struct_Microsoft_Singularity_Directory_DirectoryServiceContract_DeleteLink@@SI_NPAU1@PAUClass_System_Object@@@Z 02045fb8 f   VolMgr.obj
 0001:00045000       ?m_Equals@Struct_Microsoft_Singularity_Directory_DirectoryServiceContract_DeleteLink@@SI_NPAUClass_Microsoft_Singularity_Directory_DirectoryServiceContract_DeleteLink@@PAUClass_System_Object@@@Z 02046000 f   VolMgr.obj
 0001:0004502c       ?g_Assert@Class_System_Diagnostics_Debug@@SIX_N@Z 0204602c f   VolMgr.obj
 0001:00045050       ?g_Assert@Class_System_Diagnostics_Debug@@SIX_NPAUClass_System_String@@@Z 02046050 f   VolMgr.obj
 0001:00045078       ?m__ctor@Class_System_Diagnostics_Debug@@SIXPAU1@@Z 02046078 f   VolMgr.obj
 0001:00045090       ?m_GetHandle@Class_Microsoft_Singularity_Eventing_EventingStorage@@SIPAUuintPtr@@PAU1@@Z 02046090 f   VolMgr.obj
 0001:000450b0       ?m_GetController@Class_Microsoft_Singularity_Eventing_EventingStorage@@SIPAUClass_Microsoft_Singularity_Eventing_Controller@@PAU1@@Z 020460b0 f   VolMgr.obj
 0001:000450e4       ?g_CreateStorageFromHandle@Class_Microsoft_Singularity_Eventing_EventingStorage@@SIPAU1@PAUuintPtr@@@Z 020460e4 f   VolMgr.obj
 0001:0004515c       ?g_CreateLocalStorage@Class_Microsoft_Singularity_Eventing_EventingStorage@@SIPAU1@II@Z 0204615c f   VolMgr.obj
 0001:000451dc       ?m_AddBuffer@Class_Microsoft_Singularity_Eventing_EventingStorage@@SI_NPAU1@_K@Z 020461dc f   VolMgr.obj
 0001:000451fc       ?m__ctor@Class_Microsoft_Singularity_Eventing_EventingStorage@@SIXPAU1@@Z 020461fc f   VolMgr.obj
 0001:00045218       ?m_StructCopy@Struct_System_UpdateEnlistmentLogWriter@@SIXPAU1@0@Z 02046218 f   VolMgr.obj
 0001:0004524c       ?m_StructCopy@Struct_System_UpdateEnlistmentLogWriter@@SIXPAU1@PAU1@@Z 0204624c f   VolMgr.obj
 0001:000452e8       ?m_Equals@Struct_System_UpdateEnlistmentLogWriter@@SI_NPAU1@PAUClass_System_Object@@@Z 020462e8 f   VolMgr.obj
 0001:00045344       ?m_Equals@Struct_System_UpdateEnlistmentLogWriter@@SI_NPAUClass_System_UpdateEnlistmentLogWriter@@PAUClass_System_Object@@@Z 02046344 f   VolMgr.obj
 0001:00045370       ?m_StructCopy@Struct_System_Delegate_NativeDelegateRecord@@SIXPAU1@0@Z 02046370 f   VolMgr.obj
 0001:000453a4       ?m_StructCopy@Struct_System_Delegate_NativeDelegateRecord@@SIXPAU1@PAU1@@Z 020463a4 f   VolMgr.obj
 0001:00045440       ?m_Equals@Struct_System_Delegate_NativeDelegateRecord@@SI_NPAU1@PAUClass_System_Object@@@Z 02046440 f   VolMgr.obj
 0001:000454a0       ?m_Equals@Struct_System_Delegate_NativeDelegateRecord@@SI_NPAUClass_System_Delegate_NativeDelegateRecord@@PAUClass_System_Object@@@Z 020464a0 f   VolMgr.obj
 0001:000454cc       ?m_Delegate@Struct_System_Delegate_NativeDelegateRecord@@SIPAUClass_System_Delegate@@PAU1@@Z 020464cc f   VolMgr.obj
 0001:000454fc       ?m_Register@Class_Microsoft_Singularity_Services_VolumeManager_VolMgr@@SIPAUClass_Microsoft_Singularity_Services_VolumeManager_Disk@@PAU1@PA_W@Z 020464fc f   VolMgr.obj
 0001:00045694       ?m_Finalize@Class_Microsoft_Singularity_Services_VolumeManager_VolMgr@@SIXPAU1@@Z 02046694 f   VolMgr.obj
 0001:000456d0       ?m_CreateVolume@Class_Microsoft_Singularity_Services_VolumeManager_VolMgr@@SIPAUClass_Microsoft_Singularity_Services_VolumeManager_Volume@@PAU1@PAUClass_Microsoft_Singularity_Services_VolumeManager_Disk@@HPAPAUStruct_Microsoft_Singularity_Directory_ServiceProviderContract_Exp@@@Z 020466d0 f   VolMgr.obj
 0001:000457d4       ?m__ctor@Class_Microsoft_Singularity_Services_VolumeManager_VolMgr@@SIXPAU1@@Z 020467d4 f   VolMgr.obj
 0001:00045844       ?m__ctor@Class_System_FormatException@@SIXPAU1@@Z 02046844 f   VolMgr.obj
 0001:0004586c       ?m__ctor@Class_System_FormatException@@SIXPAU1@PAUClass_System_String@@@Z 0204686c f   VolMgr.obj
 0001:00045894       ?m_StructCopy@Struct_Microsoft_Singularity_Directory_DirectoryServiceContract_NakGetLinkValue@@SIXPAU1@0@Z 02046894 f   VolMgr.obj
 0001:000458bc       ?m_StructCopy@Struct_Microsoft_Singularity_Directory_DirectoryServiceContract_NakGetLinkValue@@SIXPAU1@PAU1@@Z 020468bc f   VolMgr.obj
 0001:00045934       ?m_Equals@Struct_Microsoft_Singularity_Directory_DirectoryServiceContract_NakGetLinkValue@@SI_NPAU1@PAUClass_System_Object@@@Z 02046934 f   VolMgr.obj
 0001:000459d4       ?m_Equals@Struct_Microsoft_Singularity_Directory_DirectoryServiceContract_NakGetLinkValue@@SI_NPAUClass_Microsoft_Singularity_Directory_DirectoryServiceContract_NakGetLinkValue@@PAUClass_System_Object@@@Z 020469d4 f   VolMgr.obj
 0001:00045a00       ?m_System_Collections_IEnumerator_get$_Current@Class_System_CharEnumerator@@SIPAUClass_System_Object@@PAU1@@Z 02046a00 f   VolMgr.obj
 0001:00045aa0       ?m_MoveNext@Class_System_CharEnumerator@@SI_NPAU1@@Z 02046aa0 f   VolMgr.obj
 0001:00045b10       ?m__ctor@Class_System_CharEnumerator@@SIXPAU1@PAUClass_System_String@@@Z 02046b10 f   VolMgr.obj
 0001:00045b40       ?m_StructCopy@Struct_Microsoft_Singularity_Directory_DirectoryServiceContract_NakStoreACLReparse@@SIXPAU1@0@Z 02046b40 f   VolMgr.obj
 0001:00045b80       ?m_StructCopy@Struct_Microsoft_Singularity_Directory_DirectoryServiceContract_NakStoreACLReparse@@SIXPAU1@PAU1@@Z 02046b80 f   VolMgr.obj
 0001:00045c40       ?m_Equals@Struct_Microsoft_Singularity_Directory_DirectoryServiceContract_NakStoreACLReparse@@SI_NPAU1@PAUClass_System_Object@@@Z 02046c40 f   VolMgr.obj
 0001:00045ca8       ?m_Equals@Struct_Microsoft_Singularity_Directory_DirectoryServiceContract_NakStoreACLReparse@@SI_NPAUClass_Microsoft_Singularity_Directory_DirectoryServiceContract_NakStoreACLReparse@@PAUClass_System_Object@@@Z 02046ca8 f   VolMgr.obj
 0001:00045cd4       ?m_StructCopy@Struct_Microsoft_Singularity_Io_DiskDeviceContract_AckWrite@@SIXPAU1@0@Z 02046cd4 f   VolMgr.obj
 0001:00045cfc       ?m_StructCopy@Struct_Microsoft_Singularity_Io_DiskDeviceContract_AckWrite@@SIXPAU1@PAU1@@Z 02046cfc f   VolMgr.obj
 0001:00045d74       ?m_Equals@Struct_Microsoft_Singularity_Io_DiskDeviceContract_AckWrite@@SI_NPAU1@PAUClass_System_Object@@@Z 02046d74 f   VolMgr.obj
 0001:00045dbc       ?m_Equals@Struct_Microsoft_Singularity_Io_DiskDeviceContract_AckWrite@@SI_NPAUClass_Microsoft_Singularity_Io_DiskDeviceContract_AckWrite@@PAUClass_System_Object@@@Z 02046dbc f   VolMgr.obj
 0001:00045de8       ?m_VisitSmallPageEnd@Class_System_GCs_MarkSweepCollector_SweepVisitor@@SIXPAU1@@Z 02046de8 f   VolMgr.obj
 0001:00045e14       ?m_VisitSmall@Class_System_GCs_MarkSweepCollector_SweepVisitor@@SIXPAU1@PAUClass_System_Object@@PAUuintPtr@@@Z 02046e14 f   VolMgr.obj
 0001:00045e60       ?m_VisitLarge@Class_System_GCs_MarkSweepCollector_SweepVisitor@@SIPAUuintPtr@@PAU1@PAUClass_System_Object@@@Z 02046e60 f   VolMgr.obj
 0001:00045ee8       ?m__ctor@Class_System_GCs_MarkSweepCollector_SweepVisitor@@SIXPAU1@@Z 02046ee8 f   VolMgr.obj
 0001:00045f0c       ?m_VisitSmallPageEnd@Class_System_GCs_SegregatedFreeList_ObjectVisitor@@SIXPAU1@@Z 02046f0c f   VolMgr.obj
 0001:00045f28       ?m_VisitSmall@Class_System_GCs_SegregatedFreeList_ObjectVisitor@@SIXPAU1@PAUClass_System_Object@@PAUuintPtr@@@Z 02046f28 f   VolMgr.obj
 0001:00045f54       ?m_VisitLarge@Class_System_GCs_SegregatedFreeList_ObjectVisitor@@SIPAUuintPtr@@PAU1@PAUClass_System_Object@@@Z 02046f54 f   VolMgr.obj
 0001:00045f80       ?m_Visit@Class_System_GCs_SegregatedFreeList_ObjectVisitor@@SIPAUuintPtr@@PAU1@PAUClass_System_Object@@@Z 02046f80 f   VolMgr.obj
 0001:00045fac       ?m_get$_Continue@Class_System_GCs_SegregatedFreeList_ObjectVisitor@@SI_NPAU1@@Z 02046fac f   VolMgr.obj
 0001:00045fc8       ?m__ctor@Class_System_GCs_SegregatedFreeList_ObjectVisitor@@SIXPAU1@@Z 02046fc8 f   VolMgr.obj
 0001:00045fec       ?m_MoveNext@Class_System_Collections_SortedList_SortedListEnumerator@@SI_NPAU1@@Z 02046fec f   VolMgr.obj
 0001:000460b0       ?m_get$_Current@Class_System_Collections_SortedList_SortedListEnumerator@@SIPAUClass_System_Object@@PAU1@@Z 020470b0 f   VolMgr.obj
 0001:00046178       ?m__ctor@Class_System_Collections_SortedList_SortedListEnumerator@@SIXPAU1@PAUClass_System_Collections_SortedList@@HHH@Z 02047178 f   VolMgr.obj
 0001:000461e0       ?m__ctor@Class_System_Reflection_AssemblyName@@SIXPAU1@@Z 020471e0 f   VolMgr.obj
 0001:000461fc       ?m_InvokeStaticStub@Class_System_GCs_ProfileObjectsDelegate@@SIXPAU1@PAUClass_System_GCs_SegregatedFreeList_ObjectVisitor@@@Z 020471fc f   VolMgr.obj
 0001:0004622c       ?m_Invoke@Class_System_GCs_ProfileObjectsDelegate@@SIXPAU1@PAUClass_System_GCs_SegregatedFreeList_ObjectVisitor@@@Z 0204722c f   VolMgr.obj
 0001:00046288       ?m_EndInvoke@Class_System_GCs_ProfileObjectsDelegate@@SIXPAU1@PAUClass_System_IAsyncResult@@@Z 02047288 f   VolMgr.obj
 0001:000462a4       ?m_BeginInvoke@Class_System_GCs_ProfileObjectsDelegate@@SIPAUClass_System_IAsyncResult@@PAU1@PAUClass_System_GCs_SegregatedFreeList_ObjectVisitor@@PAUClass_System_AsyncCallback@@PAUClass_System_Object@@@Z 020472a4 f   VolMgr.obj
 0001:000462c4       ?m__ctor@Class_System_GCs_ProfileObjectsDelegate@@SIXPAU1@PAUClass_System_Object@@PAUintPtr@@@Z 020472c4 f   VolMgr.obj
 0001:00046328       ?g_LittleEndianToHost@Class_Microsoft_Singularity_Io_ByteOrder@@SIII@Z 02047328 f   VolMgr.obj
 0001:00046348       ?g_HostToLittleEndian@Class_Microsoft_Singularity_Io_ByteOrder@@SIII@Z 02047348 f   VolMgr.obj
 0001:00046368       ?m__ctor@Class_Microsoft_Singularity_Io_ByteOrder@@SIXPAU1@@Z 02047368 f   VolMgr.obj
 0001:00046380       ?m_ToString@Class_System_Text_StringBuilder@@SIPAUClass_System_String@@PAU1@@Z 02047380 f   VolMgr.obj
 0001:0004642c       ?m_ReplaceString@Class_System_Text_StringBuilder@@SIXPAU1@HPAUClass_System_String@@@Z 0204742c f   VolMgr.obj
 0001:00046470       ?m_NeedsAllocation@Class_System_Text_StringBuilder@@SI_NPAU1@PAUClass_System_String@@H@Z 02047470 f   VolMgr.obj
 0001:000464a4       ?g_InternalGetCurrentThread@Class_System_Text_StringBuilder@@SIHXZ 020474a4 f   VolMgr.obj
 0001:000464c8       ?m_GetThreadSafeString@Class_System_Text_StringBuilder@@SIPAUClass_System_String@@PAU1@PAH@Z 020474c8 f   VolMgr.obj
 0001:0004652c       ?m_GetNewString@Class_System_Text_StringBuilder@@SIPAUClass_System_String@@PAU1@PAU2@H@Z 0204752c f   VolMgr.obj
 0001:00046620       ?g_FormatError@Class_System_Text_StringBuilder@@SIXXZ 02047620 f   VolMgr.obj
 0001:0004665c       ?m_AppendFormat@Class_System_Text_StringBuilder@@SIPAU1@PAU1@PAUClass_System_String@@PAUClassVector_Class_System_Object@@@Z 0204765c f   VolMgr.obj
 0001:00046ef4       ?m_Append@Class_System_Text_StringBuilder@@SIPAU1@PAU1@PAUClassVector_bartok_char@@HH@Z 02047ef4 f   VolMgr.obj
 0001:0004711c       ?m_Append@Class_System_Text_StringBuilder@@SIPAU1@PAU1@H@Z 0204811c f   VolMgr.obj
 0001:0004714c       ?m_Append@Class_System_Text_StringBuilder@@SIPAU1@PAU1@PAUClass_System_String@@@Z 0204814c f   VolMgr.obj
 0001:0004727c       ?m_Append@Class_System_Text_StringBuilder@@SIPAU1@PAU1@_W@Z 0204827c f   VolMgr.obj
 0001:00047380       ?m_Append@Class_System_Text_StringBuilder@@SIPAU1@PAU1@_WH@Z 02048380 f   VolMgr.obj
 0001:000474e4       ?m__ctor@Class_System_Text_StringBuilder@@SIXPAU1@@Z 020484e4 f   VolMgr.obj
 0001:0004750c       ?m__ctor@Class_System_Text_StringBuilder@@SIXPAU1@H@Z 0204850c f   VolMgr.obj
 0001:000475ac       ?m_StructCopy@Struct_Microsoft_Singularity_V1_Services_DebugService@@SIXPAU1@0@Z 020485ac f   VolMgr.obj
 0001:000475c8       ?m_StructCopy@Struct_Microsoft_Singularity_V1_Services_DebugService@@SIXPAU1@PAU1@@Z 020485c8 f   VolMgr.obj
 0001:0004761c       ?g_PrintBegin@Struct_Microsoft_Singularity_V1_Services_DebugService@@SIXPAPA_WPAH@Z 0204861c f   VolMgr.obj
 0001:00047690       ?m_Equals@Struct_Microsoft_Singularity_V1_Services_DebugService@@SI_NPAU1@PAUClass_System_Object@@@Z 02048690 f   VolMgr.obj
 0001:000476c8       ?m_Equals@Struct_Microsoft_Singularity_V1_Services_DebugService@@SI_NPAUClass_Microsoft_Singularity_V1_Services_DebugService@@PAUClass_System_Object@@@Z 020486c8 f   VolMgr.obj
 0001:000476f4       ?m__ctor@Class_System_Threading_SynchronizationLockException@@SIXPAU1@@Z 020486f4 f   VolMgr.obj
 0001:0004771c       ?m__ctor@Class_System_Threading_SynchronizationLockException@@SIXPAU1@PAUClass_System_String@@@Z 0204871c f   VolMgr.obj
 0001:00047744       ?m_StructCopy@Struct_System_UpdateLog_Location@@SIXPAU1@0@Z 02048744 f   VolMgr.obj
 0001:00047778       ?m_StructCopy@Struct_System_UpdateLog_Location@@SIXPAU1@PAU1@@Z 02048778 f   VolMgr.obj
 0001:00047814       ?m_Equals@Struct_System_UpdateLog_Location@@SI_NPAU1@PAUClass_System_Object@@@Z 02048814 f   VolMgr.obj
 0001:00047874       ?m_Equals@Struct_System_UpdateLog_Location@@SI_NPAUClass_System_UpdateLog_Location@@PAUClass_System_Object@@@Z 02048874 f   VolMgr.obj
 0001:000478a0       ?m__ctor@Struct_System_UpdateLog_Location@@SIXPAU1@PAUClass_System_UpdateLog_LogChunk@@H@Z 020488a0 f   VolMgr.obj
 0001:000478d0       ?m_StructCopy@Struct_Microsoft_Singularity_Isal_IX_CR4@@SIXPAU1@0@Z 020488d0 f   VolMgr.obj
 0001:000478ec       ?m_StructCopy@Struct_Microsoft_Singularity_Isal_IX_CR4@@SIXPAU1@PAU1@@Z 020488ec f   VolMgr.obj
 0001:00047940       ?m_Equals@Struct_Microsoft_Singularity_Isal_IX_CR4@@SI_NPAU1@PAUClass_System_Object@@@Z 02048940 f   VolMgr.obj
 0001:00047978       ?m_Equals@Struct_Microsoft_Singularity_Isal_IX_CR4@@SI_NPAUClass_Microsoft_Singularity_Isal_IX_CR4@@PAUClass_System_Object@@@Z 02048978 f   VolMgr.obj
 0001:000479a4       ?m__ctor@Class_System_VTable_ClassConstructorLock@@SIXPAU1@@Z 020489a4 f   VolMgr.obj
 0001:000479c0       ?m_StructCopy@Struct_Microsoft_Singularity_Isal_IX_CR0@@SIXPAU1@0@Z 020489c0 f   VolMgr.obj
 0001:000479dc       ?m_StructCopy@Struct_Microsoft_Singularity_Isal_IX_CR0@@SIXPAU1@PAU1@@Z 020489dc f   VolMgr.obj
 0001:00047a30       ?m_Equals@Struct_Microsoft_Singularity_Isal_IX_CR0@@SI_NPAU1@PAUClass_System_Object@@@Z 02048a30 f   VolMgr.obj
 0001:00047a68       ?m_Equals@Struct_Microsoft_Singularity_Isal_IX_CR0@@SI_NPAUClass_Microsoft_Singularity_Isal_IX_CR0@@PAUClass_System_Object@@@Z 02048a68 f   VolMgr.obj
 0001:00047a94       ?m_StructCopy@Struct_Microsoft_Singularity_Isal_IX_CR3@@SIXPAU1@0@Z 02048a94 f   VolMgr.obj
 0001:00047ab0       ?m_StructCopy@Struct_Microsoft_Singularity_Isal_IX_CR3@@SIXPAU1@PAU1@@Z 02048ab0 f   VolMgr.obj
 0001:00047b04       ?m_Equals@Struct_Microsoft_Singularity_Isal_IX_CR3@@SI_NPAU1@PAUClass_System_Object@@@Z 02048b04 f   VolMgr.obj
 0001:00047b3c       ?m_Equals@Struct_Microsoft_Singularity_Isal_IX_CR3@@SI_NPAUClass_Microsoft_Singularity_Isal_IX_CR3@@PAUClass_System_Object@@@Z 02048b3c f   VolMgr.obj
 0001:00047b68       ?m_FieldOffset@Class_System_GCs_Barrier_ZeroFieldsVisitor@@SIXPAU1@PAUuintPtr@@PAUStruct_System_GCs_ReferenceVisitor_ObjectDescriptor@@@Z 02048b68 f   VolMgr.obj
 0001:00047c04       ?m__ctor@Class_System_GCs_Barrier_ZeroFieldsVisitor@@SIXPAU1@@Z 02048c04 f   VolMgr.obj
 0001:00047c28       ?m_StructCopy@Struct_Microsoft_Singularity_Eventing_QualityOfService@@SIXPAU1@0@Z 02048c28 f   VolMgr.obj
 0001:00047c74       ?m_StructCopy@Struct_Microsoft_Singularity_Eventing_QualityOfService@@SIXPAU1@PAU1@@Z 02048c74 f   VolMgr.obj
 0001:00047d58       ?m_Equals@Struct_Microsoft_Singularity_Eventing_QualityOfService@@SI_NPAU1@PAUClass_System_Object@@@Z 02048d58 f   VolMgr.obj
 0001:00047dd0       ?m_Equals@Struct_Microsoft_Singularity_Eventing_QualityOfService@@SI_NPAUClass_Microsoft_Singularity_Eventing_QualityOfService@@PAUClass_System_Object@@@Z 02048dd0 f   VolMgr.obj
 0001:00047dfc       ?m_StructCopy@Struct_Microsoft_Singularity_Directory_DirectoryServiceContract_EndEnumeration@@SIXPAU1@0@Z 02048dfc f   VolMgr.obj
 0001:00047e18       ?m_StructCopy@Struct_Microsoft_Singularity_Directory_DirectoryServiceContract_EndEnumeration@@SIXPAU1@PAU1@@Z 02048e18 f   VolMgr.obj
 0001:00047e6c       ?m_Equals@Struct_Microsoft_Singularity_Directory_DirectoryServiceContract_EndEnumeration@@SI_NPAU1@PAUClass_System_Object@@@Z 02048e6c f   VolMgr.obj
 0001:00047ea4       ?m_Equals@Struct_Microsoft_Singularity_Directory_DirectoryServiceContract_EndEnumeration@@SI_NPAUClass_Microsoft_Singularity_Directory_DirectoryServiceContract_EndEnumeration@@PAUClass_System_Object@@@Z 02048ea4 f   VolMgr.obj
 0001:00047ed0       ?m_Visit@Class_System_GCs_MemoryAccounting_RuntimeTypeMapper@@SIPAUuintPtr@@PAU1@PAUClass_System_Object@@@Z 02048ed0 f   VolMgr.obj
 0001:00047eec       ?m_Initialize@Class_System_GCs_MemoryAccounting_RuntimeTypeMapper@@SIXPAU1@_NPAUClassVector_Struct_System_GCs_MemoryAccounting_RuntimeTypeAccounting@@@Z 02048eec f   VolMgr.obj
 0001:00047f0c       ?m__ctor@Class_System_GCs_MemoryAccounting_RuntimeTypeMapper@@SIXPAU1@@Z 02048f0c f   VolMgr.obj
 0001:00047f24       ?m_StructCopy@Struct_Microsoft_Singularity_Isal_IX_MmxContext@@SIXPAU1@0@Z 02048f24 f   VolMgr.obj
 0001:0004826c       ?m_StructCopy@Struct_Microsoft_Singularity_Isal_IX_MmxContext@@SIXPAU1@PAU1@@Z 0204926c f   VolMgr.obj
 0001:00048c44       ?m_Equals@Struct_Microsoft_Singularity_Isal_IX_MmxContext@@SI_NPAU1@PAUClass_System_Object@@@Z 02049c44 f   VolMgr.obj
 0001:0004a064       ?m_Equals@Struct_Microsoft_Singularity_Isal_IX_MmxContext@@SI_NPAUClass_Microsoft_Singularity_Isal_IX_MmxContext@@PAUClass_System_Object@@@Z 0204b064 f   VolMgr.obj
 0001:0004a090       ?m_TryAcquire@Struct_System_Threading_SpinLockBase@@SI_NPAU1@H@Z 0204b090 f   VolMgr.obj
 0001:0004a0e8       ?m_StructCopy@Struct_System_Threading_SpinLockBase@@SIXPAU1@0@Z 0204b0e8 f   VolMgr.obj
 0001:0004a11c       ?m_StructCopy@Struct_System_Threading_SpinLockBase@@SIXPAU1@PAU1@@Z 0204b11c f   VolMgr.obj
 0001:0004a1b8       ?m_SpinToAcquire@Struct_System_Threading_SpinLockBase@@SIXPAU1@H@Z 0204b1b8 f   VolMgr.obj
 0001:0004a29c       ?m_Release@Struct_System_Threading_SpinLockBase@@SIXPAU1@H@Z 0204b29c f   VolMgr.obj
 0001:0004a2dc       ?m_get$_Type@Struct_System_Threading_SpinLockBase@@SIHPAU1@@Z 0204b2dc f   VolMgr.obj
 0001:0004a2fc       ?m_Equals@Struct_System_Threading_SpinLockBase@@SI_NPAU1@PAUClass_System_Object@@@Z 0204b2fc f   VolMgr.obj
 0001:0004a358       ?m_Equals@Struct_System_Threading_SpinLockBase@@SI_NPAUClass_System_Threading_SpinLockBase@@PAUClass_System_Object@@@Z 0204b358 f   VolMgr.obj
 0001:0004a384       ?m_Acquire@Struct_System_Threading_SpinLockBase@@SIXPAU1@H@Z 0204b384 f   VolMgr.obj
 0001:0004a400       ?m__ctor@Class_Microsoft_Contracts_NullException@@SIXPAU1@@Z 0204b400 f   VolMgr.obj
 0001:0004a424       ?m__ctor@Class_Microsoft_Contracts_ContractException@@SIXPAU1@@Z 0204b424 f   VolMgr.obj
 0001:0004a448       ?m__ctor@Class_Microsoft_Contracts_ContractException@@SIXPAU1@PAUClass_System_String@@@Z 0204b448 f   VolMgr.obj
 0001:0004a470       ?m_StructCopy@Struct_Microsoft_Singularity_Io_VolumeManagerContract_Exp@@SIXPAU1@0@Z 0204b470 f   VolMgr.obj
 0001:0004a570       ?m_StructCopy@Struct_Microsoft_Singularity_Io_VolumeManagerContract_Exp@@SIXPAU1@PAU1@@Z 0204b570 f   VolMgr.obj
 0001:0004a870       ?m_SendSuccess@Struct_Microsoft_Singularity_Io_VolumeManagerContract_Exp@@SIXPAU1@@Z 0204b870 f   VolMgr.obj
 0001:0004a964       ?m_SendNakRegisterDisk@Struct_Microsoft_Singularity_Io_VolumeManagerContract_Exp@@SIXPAU1@@Z 0204b964 f   VolMgr.obj
 0001:0004aa58       ?m_SendConnect@Struct_Microsoft_Singularity_Io_VolumeManagerContract_Exp@@SIXPAU1@PAUStruct_Microsoft_Singularity_Io_DiskDeviceContract_Exp@@E_K2@Z 0204ba58 f   VolMgr.obj
 0001:0004ac10       ?m_SendAckRegisterDisk@Struct_Microsoft_Singularity_Io_VolumeManagerContract_Exp@@SIXPAU1@@Z 0204bc10 f   VolMgr.obj
 0001:0004ad04       ?m_Release@Struct_Microsoft_Singularity_Io_VolumeManagerContract_Exp@@SIXPAU1@@Z 0204bd04 f   VolMgr.obj
 0001:0004ad20       ?m_RecvRegisterDisk@Struct_Microsoft_Singularity_Io_VolumeManagerContract_Exp@@SIXPAU1@PAPA_W@Z 0204bd20 f   VolMgr.obj
 0001:0004aea8       ?m_RecvNakConnect@Struct_Microsoft_Singularity_Io_VolumeManagerContract_Exp@@SIXPAU1@PAPAUStruct_Microsoft_Singularity_Io_DiskDeviceContract_Exp@@@Z 0204bea8 f   VolMgr.obj
 0001:0004b030       ?m_RecvAckConnect@Struct_Microsoft_Singularity_Io_VolumeManagerContract_Exp@@SIXPAU1@@Z 0204c030 f   VolMgr.obj
 0001:0004b1a8       ?m_Peek@Struct_Microsoft_Singularity_Io_VolumeManagerContract_Exp@@SIHPAU1@@Z 0204c1a8 f   VolMgr.obj
 0001:0004b43c       ?m_InState@Struct_Microsoft_Singularity_Io_VolumeManagerContract_Exp@@SI_NPAU1@H@Z 0204c43c f   VolMgr.obj
 0001:0004b4cc       ?m_HeadMatches@Struct_Microsoft_Singularity_Io_VolumeManagerContract_Exp@@SI_NPAU1@HPA_NPAPAUClass_System_Object@@@Z 0204c4cc f   VolMgr.obj
 0001:0004b58c       ?m_HeadMatches@Struct_Microsoft_Singularity_Io_VolumeManagerContract_Exp@@SI_NPAUClass_Microsoft_Singularity_Io_VolumeManagerContract_Exp@@HPA_NPAPAUClass_System_Object@@@Z 0204c58c f   VolMgr.obj
 0001:0004b5c4       ?m_Equals@Struct_Microsoft_Singularity_Io_VolumeManagerContract_Exp@@SI_NPAU1@PAUClass_System_Object@@@Z 0204c5c4 f   VolMgr.obj
 0001:0004b960       ?m_Equals@Struct_Microsoft_Singularity_Io_VolumeManagerContract_Exp@@SI_NPAUClass_Microsoft_Singularity_Io_VolumeManagerContract_Exp@@PAUClass_System_Object@@@Z 0204c960 f   VolMgr.obj
 0001:0004b98c       ?m_Dispose@Struct_Microsoft_Singularity_Io_VolumeManagerContract_Exp@@SIXPAU1@@Z 0204c98c f   VolMgr.obj
 0001:0004b9b0       ?m_CurrentState@Struct_Microsoft_Singularity_Io_VolumeManagerContract_Exp@@SIPAUClass_System_String@@PAU1@@Z 0204c9b0 f   VolMgr.obj
 0001:0004ba88       ?m_Acquire@Struct_Microsoft_Singularity_Io_VolumeManagerContract_Exp@@SIXPAU1@@Z 0204ca88 f   VolMgr.obj
 0001:0004baa4       ?m_StructCopy@Struct_Microsoft_Singularity_Eventing_ArrayType@@SIXPAU1@0@Z 0204caa4 f   VolMgr.obj
 0001:0004baf4       ?m_StructCopy@Struct_Microsoft_Singularity_Eventing_ArrayType@@SIXPAU1@PAU1@@Z 0204caf4 f   VolMgr.obj
 0001:0004bbe4       ?m_Equals@Struct_Microsoft_Singularity_Eventing_ArrayType@@SI_NPAU1@PAUClass_System_Object@@@Z 0204cbe4 f   VolMgr.obj
 0001:0004bc60       ?m_Equals@Struct_Microsoft_Singularity_Eventing_ArrayType@@SI_NPAUClass_Microsoft_Singularity_Eventing_ArrayType@@PAUClass_System_Object@@@Z 0204cc60 f   VolMgr.obj
 0001:0004bc8c       ?m_VisitReferenceFields@Class_System_GCs_MarkSweepCollector_MarkAndProcessReferenceVisitor@@SIPAUuintPtr@@PAU1@PAUClass_System_Object@@@Z 0204cc8c f   VolMgr.obj
 0001:0004bcf4       ?m_Visit@Class_System_GCs_MarkSweepCollector_MarkAndProcessReferenceVisitor@@SIXPAU1@PAPAUuintPtr@@@Z 0204ccf4 f   VolMgr.obj
 0001:0004bd2c       ?m__ctor@Class_System_GCs_MarkSweepCollector_MarkAndProcessReferenceVisitor@@SIXPAU1@@Z 0204cd2c f   VolMgr.obj
 0001:0004bd50       ?g_visitAllObjects@Class_System_GCs_MemoryAccounting@@SIXPAUClass_System_GCs_ObjectLayout_ObjectVisitor@@PAUuintPtr@@1@Z 0204cd50 f   VolMgr.obj
 0001:0004c0b4       ?g_TotalNumPages@Class_System_GCs_MemoryAccounting@@SIIUStruct_System_GCs_PageType@@@Z 0204d0b4 f   VolMgr.obj
 0001:0004c208       ?g_ReportStackDetails@Class_System_GCs_MemoryAccounting@@SIXXZ 0204d208 f   VolMgr.obj
 0001:0004c614       ?g_ReportNonGCDetails@Class_System_GCs_MemoryAccounting@@SIXXZ 0204d614 f   VolMgr.obj
 0001:0004c8ac       ?g_ReportHeapDetails@Class_System_GCs_MemoryAccounting@@SIXXZ 0204d8ac f   VolMgr.obj
 0001:0004d1f8       ?g_Report@Class_System_GCs_MemoryAccounting@@SIXUStruct_Microsoft_Bartok_Runtime_GCType@@@Z 0204e1f8 f   VolMgr.obj
 0001:0004d3b8       ?g_assertRuntimeTypeHeaders@Class_System_GCs_MemoryAccounting@@SIXPAUuintPtr@@0@Z 0204e3b8 f   VolMgr.obj
 0001:0004d3e8       ?m__ctor@Class_System_GCs_MemoryAccounting@@SIXPAU1@@Z 0204e3e8 f   VolMgr.obj
 0001:0004d400       ?m__ctor@Class_System_GCs_SegregatedFreeList_PartialFreePageVisitor@@SIXPAU1@@Z 0204e400 f   VolMgr.obj
 0001:0004d41c       ?m_StructCopy@Struct_Microsoft_Singularity_Io_DiskDeviceContract_AckRead@@SIXPAU1@0@Z 0204e41c f   VolMgr.obj
 0001:0004d444       ?m_StructCopy@Struct_Microsoft_Singularity_Io_DiskDeviceContract_AckRead@@SIXPAU1@PAU1@@Z 0204e444 f   VolMgr.obj
 0001:0004d4bc       ?m_Equals@Struct_Microsoft_Singularity_Io_DiskDeviceContract_AckRead@@SI_NPAU1@PAUClass_System_Object@@@Z 0204e4bc f   VolMgr.obj
 0001:0004d504       ?m_Equals@Struct_Microsoft_Singularity_Io_DiskDeviceContract_AckRead@@SI_NPAUClass_Microsoft_Singularity_Io_DiskDeviceContract_AckRead@@PAUClass_System_Object@@@Z 0204e504 f   VolMgr.obj
 0001:0004d530       ?m_FieldOffset@Class_System_GCs_Barrier_SlowZeroFieldsVisitor@@SIXPAU1@PAUuintPtr@@PAUStruct_System_GCs_ReferenceVisitor_ObjectDescriptor@@@Z 0204e530 f   VolMgr.obj
 0001:0004d61c       ?m__ctor@Class_System_GCs_Barrier_SlowZeroFieldsVisitor@@SIXPAU1@@Z 0204e61c f   VolMgr.obj
 0001:0004d640       ?m_RegisterController@Class_Microsoft_Singularity_Eventing_SystemControllerProxy@@SI_NPAU1@@Z 0204e640 f   VolMgr.obj
 0001:0004d6fc       ?g_DebugPrintLogEntry@Class_Microsoft_Singularity_Eventing_SystemControllerProxy@@SI_NPAUuintPtr@@@Z 0204e6fc f   VolMgr.obj
 0001:0004d72c       ?m__ctor@Class_Microsoft_Singularity_Eventing_SystemControllerProxy@@SIXPAU1@@Z 0204e72c f   VolMgr.obj
 0001:0004d750       ?g__cctor@Class_Microsoft_Singularity_Eventing_SystemControllerProxy@@SIXXZ 0204e750 f   VolMgr.obj
 0001:0004d778       ?m_StructCopy@Struct_Microsoft_Singularity_Directory_DirectoryServiceContract_Deregister@@SIXPAU1@0@Z 0204e778 f   VolMgr.obj
 0001:0004d7a0       ?m_StructCopy@Struct_Microsoft_Singularity_Directory_DirectoryServiceContract_Deregister@@SIXPAU1@PAU1@@Z 0204e7a0 f   VolMgr.obj
 0001:0004d818       ?m_Equals@Struct_Microsoft_Singularity_Directory_DirectoryServiceContract_Deregister@@SI_NPAU1@PAUClass_System_Object@@@Z 0204e818 f   VolMgr.obj
 0001:0004d860       ?m_Equals@Struct_Microsoft_Singularity_Directory_DirectoryServiceContract_Deregister@@SI_NPAUClass_Microsoft_Singularity_Directory_DirectoryServiceContract_Deregister@@PAUClass_System_Object@@@Z 0204e860 f   VolMgr.obj
 0001:0004d88c       ?m_StructCopy@Struct_Microsoft_Singularity_Directory_DirectoryServiceContract_NakCreateAndBindFile@@SIXPAU1@0@Z 0204e88c f   VolMgr.obj
 0001:0004d8c0       ?m_StructCopy@Struct_Microsoft_Singularity_Directory_DirectoryServiceContract_NakCreateAndBindFile@@SIXPAU1@PAU1@@Z 0204e8c0 f   VolMgr.obj
 0001:0004d95c       ?m_Equals@Struct_Microsoft_Singularity_Directory_DirectoryServiceContract_NakCreateAndBindFile@@SI_NPAU1@PAUClass_System_Object@@@Z 0204e95c f   VolMgr.obj
 0001:0004da10       ?m_Equals@Struct_Microsoft_Singularity_Directory_DirectoryServiceContract_NakCreateAndBindFile@@SI_NPAUClass_Microsoft_Singularity_Directory_DirectoryServiceContract_NakCreateAndBindFile@@PAUClass_System_Object@@@Z 0204ea10 f   VolMgr.obj
 0001:0004da3c       ?g_Create@Class_Microsoft_Singularity_Eventing_ControllerLogger@@SIPAU1@PAUClass_System_String@@PAUClass_Microsoft_Singularity_Eventing_EventingStorage@@@Z 0204ea3c f   VolMgr.obj
 0001:0004dab0       ?m__ctor@Class_Microsoft_Singularity_Eventing_ControllerLogger@@SIXPAU1@PAUClass_System_String@@PAUClass_Microsoft_Singularity_Eventing_EventingStorage@@I@Z 0204eab0 f   VolMgr.obj
 0001:0004dae4       ?m_StructCopy@Struct_Microsoft_Singularity_Directory_DirectoryServiceContract_GetLinkValue@@SIXPAU1@0@Z 0204eae4 f   VolMgr.obj
 0001:0004db0c       ?m_StructCopy@Struct_Microsoft_Singularity_Directory_DirectoryServiceContract_GetLinkValue@@SIXPAU1@PAU1@@Z 0204eb0c f   VolMgr.obj
 0001:0004db84       ?m_Equals@Struct_Microsoft_Singularity_Directory_DirectoryServiceContract_GetLinkValue@@SI_NPAU1@PAUClass_System_Object@@@Z 0204eb84 f   VolMgr.obj
 0001:0004dbcc       ?m_Equals@Struct_Microsoft_Singularity_Directory_DirectoryServiceContract_GetLinkValue@@SI_NPAUClass_Microsoft_Singularity_Directory_DirectoryServiceContract_GetLinkValue@@PAUClass_System_Object@@@Z 0204ebcc f   VolMgr.obj
 0001:0004dbf8       ?m_StructCopy@Struct_Microsoft_Singularity_Isal_IX_DescriptorTable@@SIXPAU1@0@Z 0204ebf8 f   VolMgr.obj
 0001:0004dc34       ?m_StructCopy@Struct_Microsoft_Singularity_Isal_IX_DescriptorTable@@SIXPAU1@PAU1@@Z 0204ec34 f   VolMgr.obj
 0001:0004dce8       ?m_Equals@Struct_Microsoft_Singularity_Isal_IX_DescriptorTable@@SI_NPAU1@PAUClass_System_Object@@@Z 0204ece8 f   VolMgr.obj
 0001:0004de60       ?m_Equals@Struct_Microsoft_Singularity_Isal_IX_DescriptorTable@@SI_NPAUClass_Microsoft_Singularity_Isal_IX_DescriptorTable@@PAUClass_System_Object@@@Z 0204ee60 f   VolMgr.obj
 0001:0004de8c       ?g_volMgrPump@Class_Microsoft_Singularity_Services_VolumeManager_VolumeManager@@SIXPAUStruct_Microsoft_Singularity_Directory_ServiceProviderContract_Exp@@PAUClass_Microsoft_Singularity_Services_VolumeManager_VolMgr@@@Z 0204ee8c f   VolMgr.obj
 0001:0004e890       ?g_NotifyPump@Class_Microsoft_Singularity_Services_VolumeManager_VolumeManager@@SIXXZ 0204f890 f   VolMgr.obj
 0001:0004eaa4       ?g_Main@Class_Microsoft_Singularity_Services_VolumeManager_VolumeManager@@SIHPAUClassVector_Class_System_String@@@Z 0204faa4 f   VolMgr.obj
 0001:0004efe0       ?m__ctor@Class_Microsoft_Singularity_Services_VolumeManager_VolumeManager@@SIXPAU1@@Z 0204ffe0 f   VolMgr.obj
 0001:0004eff8       ?g__cctor@Class_Microsoft_Singularity_Services_VolumeManager_VolumeManager@@SIXXZ 0204fff8 f   VolMgr.obj
 0001:0004f200       ?m__ctor@Class_System_Runtime_CompilerServices_SelfPointAttribute@@SIXPAU1@@Z 02050200 f   VolMgr.obj
 0001:0004f224       ?m_StructCopy@Struct_Microsoft_Singularity_Directory_DirectoryServiceContract_NakNotify@@SIXPAU1@0@Z 02050224 f   VolMgr.obj
 0001:0004f258       ?m_StructCopy@Struct_Microsoft_Singularity_Directory_DirectoryServiceContract_NakNotify@@SIXPAU1@PAU1@@Z 02050258 f   VolMgr.obj
 0001:0004f2f4       ?m_Equals@Struct_Microsoft_Singularity_Directory_DirectoryServiceContract_NakNotify@@SI_NPAU1@PAUClass_System_Object@@@Z 020502f4 f   VolMgr.obj
 0001:0004f3a4       ?m_Equals@Struct_Microsoft_Singularity_Directory_DirectoryServiceContract_NakNotify@@SI_NPAUClass_Microsoft_Singularity_Directory_DirectoryServiceContract_NakNotify@@PAUClass_System_Object@@@Z 020503a4 f   VolMgr.obj
 0001:0004f3d0       ?m_StructCopy@Struct_System_GCs_FrameDescriptor@@SIXPAU1@0@Z 020503d0 f   VolMgr.obj
 0001:0004f470       ?m_StructCopy@Struct_System_GCs_FrameDescriptor@@SIXPAU1@PAU1@@Z 02050470 f   VolMgr.obj
 0001:0004f650       ?m_Equals@Struct_System_GCs_FrameDescriptor@@SI_NPAU1@PAUClass_System_Object@@@Z 02050650 f   VolMgr.obj
 0001:0004f728       ?m_Equals@Struct_System_GCs_FrameDescriptor@@SI_NPAUClass_System_GCs_FrameDescriptor@@PAUClass_System_Object@@@Z 02050728 f   VolMgr.obj
 0001:0004f754       ?m__ctor@Struct_System_GCs_FrameDescriptor@@SIXPAU1@UStruct_System_GCs_CompressedFrameDescriptor@@@Z 02050754 f   VolMgr.obj
 0001:0004f9b4       ?m_VisitReferenceFields@Class_System_GCs_Barrier_CopyFieldsVisitor@@SIXPAU1@PAUClass_System_VTable@@PAUuintPtr@@2@Z 020509b4 f   VolMgr.obj
 0001:00050284       ?m_VisitReferenceFields@Class_System_GCs_Barrier_CopyFieldsVisitor@@SIXPAU1@PAUClass_System_VTable@@PAUuintPtr@@2H@Z 02051284 f   VolMgr.obj
 0001:00050450       ?m_FieldOffset@Class_System_GCs_Barrier_CopyFieldsVisitor@@SIXPAU1@PAUuintPtr@@PAUStruct_System_GCs_ReferenceVisitor_ObjectDescriptor@@@Z 02051450 f   VolMgr.obj
 0001:00050544       ?m__ctor@Class_System_GCs_Barrier_CopyFieldsVisitor@@SIXPAU1@@Z 02051544 f   VolMgr.obj
 0001:00050568       ?m_VisitReferenceFields@Class_System_GCs_OffsetReferenceVisitor@@SIPAUuintPtr@@PAU1@PAU2@PAUClass_System_VTable@@@Z 02051568 f   VolMgr.obj
 0001:00050d04       ?m_Filter@Class_System_GCs_OffsetReferenceVisitor@@SIXPAU1@PAPAUuintPtr@@PAUStruct_System_GCs_ReferenceVisitor_ObjectDescriptor@@@Z 02051d04 f   VolMgr.obj
 0001:00050d54       ?m__ctor@Class_System_GCs_OffsetReferenceVisitor@@SIXPAU1@@Z 02051d54 f   VolMgr.obj
 0001:00050d78       ?m_StructCopy@Struct_Microsoft_Singularity_Directory_DirectoryServiceContract_CreateAndBindFile@@SIXPAU1@0@Z 02051d78 f   VolMgr.obj
 0001:00050dac       ?m_StructCopy@Struct_Microsoft_Singularity_Directory_DirectoryServiceContract_CreateAndBindFile@@SIXPAU1@PAU1@@Z 02051dac f   VolMgr.obj
 0001:00050e48       ?m_Equals@Struct_Microsoft_Singularity_Directory_DirectoryServiceContract_CreateAndBindFile@@SI_NPAU1@PAUClass_System_Object@@@Z 02051e48 f   VolMgr.obj
 0001:00050ea4       ?m_Equals@Struct_Microsoft_Singularity_Directory_DirectoryServiceContract_CreateAndBindFile@@SI_NPAUClass_Microsoft_Singularity_Directory_DirectoryServiceContract_CreateAndBindFile@@PAUClass_System_Object@@@Z 02051ea4 f   VolMgr.obj
 0001:00050ed0       ?m_StructCopy@Struct_Microsoft_Singularity_Isal_IX_EFlagsShift@@SIXPAU1@0@Z 02051ed0 f   VolMgr.obj
 0001:00050eec       ?m_StructCopy@Struct_Microsoft_Singularity_Isal_IX_EFlagsShift@@SIXPAU1@PAU1@@Z 02051eec f   VolMgr.obj
 0001:00050f40       ?m_Equals@Struct_Microsoft_Singularity_Isal_IX_EFlagsShift@@SI_NPAU1@PAUClass_System_Object@@@Z 02051f40 f   VolMgr.obj
 0001:00050f78       ?m_Equals@Struct_Microsoft_Singularity_Isal_IX_EFlagsShift@@SI_NPAUClass_Microsoft_Singularity_Isal_IX_EFlagsShift@@PAUClass_System_Object@@@Z 02051f78 f   VolMgr.obj
 0001:00050fa4       ?m_StructCopy@Struct_Microsoft_Singularity_Directory_DirectoryServiceContract_EnumerationEntries@@SIXPAU1@0@Z 02051fa4 f   VolMgr.obj
 0001:00050fd8       ?m_StructCopy@Struct_Microsoft_Singularity_Directory_DirectoryServiceContract_EnumerationEntries@@SIXPAU1@PAU1@@Z 02051fd8 f   VolMgr.obj
 0001:00051074       ?m_Equals@Struct_Microsoft_Singularity_Directory_DirectoryServiceContract_EnumerationEntries@@SI_NPAU1@PAUClass_System_Object@@@Z 02052074 f   VolMgr.obj
 0001:000510d0       ?m_Equals@Struct_Microsoft_Singularity_Directory_DirectoryServiceContract_EnumerationEntries@@SI_NPAUClass_Microsoft_Singularity_Directory_DirectoryServiceContract_EnumerationEntries@@PAUClass_System_Object@@@Z 020520d0 f   VolMgr.obj
 0001:000510fc       ?m_MoveNext@Class_System_Array_ArrayEnumerator@@SI_NPAU1@@Z 020520fc f   VolMgr.obj
 0001:00051154       ?m_IncArray@Class_System_Array_ArrayEnumerator@@SIXPAU1@@Z 02052154 f   VolMgr.obj
 0001:00051294       ?m_get$_Current@Class_System_Array_ArrayEnumerator@@SIPAUClass_System_Object@@PAU1@@Z 02052294 f   VolMgr.obj
 0001:00051324       ?m__ctor@Class_System_Array_ArrayEnumerator@@SIXPAU1@PAUClass_System_Array@@HH@Z 02052324 f   VolMgr.obj
 0001:00051440       ?m__ctor@Class_System_Runtime_CompilerServices_NoStackOverflowCheckAttribute@@SIXPAU1@@Z 02052440 f   VolMgr.obj
 0001:00051464       ?m_StructCopy@Struct_System_GCs_CalleeSaveLocations_RegLocation@@SIXPAU1@0@Z 02052464 f   VolMgr.obj
 0001:000514a4       ?m_StructCopy@Struct_System_GCs_CalleeSaveLocations_RegLocation@@SIXPAU1@PAU1@@Z 020524a4 f   VolMgr.obj
 0001:00051564       ?m_SetCalleeReg@Struct_System_GCs_CalleeSaveLocations_RegLocation@@SIXPAU1@PAPAUuintPtr@@@Z 02052564 f   VolMgr.obj
 0001:000515a4       ?m_ScanLiveReg@Struct_System_GCs_CalleeSaveLocations_RegLocation@@SIXPAU1@IPAUClass_System_GCs_NonNullReferenceVisitor@@@Z 020525a4 f   VolMgr.obj
 0001:00051654       ?m_PopFrameReg@Struct_System_GCs_CalleeSaveLocations_RegLocation@@SIXPAU1@PAPAPAUuintPtr@@@Z 02052654 f   VolMgr.obj
 0001:0005170c       ?m_Equals@Struct_System_GCs_CalleeSaveLocations_RegLocation@@SI_NPAU1@PAUClass_System_Object@@@Z 0205270c f   VolMgr.obj
 0001:00051774       ?m_Equals@Struct_System_GCs_CalleeSaveLocations_RegLocation@@SI_NPAUClass_System_GCs_CalleeSaveLocations_RegLocation@@PAUClass_System_Object@@@Z 02052774 f   VolMgr.obj
 0001:000517a0       ?m_ClearFrameReg@Struct_System_GCs_CalleeSaveLocations_RegLocation@@SIXPAU1@@Z 020527a0 f   VolMgr.obj
 0001:00051820       ?m_ClearCalleeReg@Struct_System_GCs_CalleeSaveLocations_RegLocation@@SIXPAU1@@Z 02052820 f   VolMgr.obj
 0001:0005189c       ?m_StructCopy@Struct_Microsoft_Singularity_Directory_DirectoryServiceContract_NakRegisterReparse@@SIXPAU1@0@Z 0205289c f   VolMgr.obj
 0001:000518e8       ?m_StructCopy@Struct_Microsoft_Singularity_Directory_DirectoryServiceContract_NakRegisterReparse@@SIXPAU1@PAU1@@Z 020528e8 f   VolMgr.obj
 0001:000519cc       ?m_Equals@Struct_Microsoft_Singularity_Directory_DirectoryServiceContract_NakRegisterReparse@@SI_NPAU1@PAUClass_System_Object@@@Z 020529cc f   VolMgr.obj
 0001:00051a44       ?m_Equals@Struct_Microsoft_Singularity_Directory_DirectoryServiceContract_NakRegisterReparse@@SI_NPAUClass_Microsoft_Singularity_Directory_DirectoryServiceContract_NakRegisterReparse@@PAUClass_System_Object@@@Z 02052a44 f   VolMgr.obj
 0001:00051a70       ?m_ToString@uint64@@SIPAUClass_System_String@@PA_K@Z 02052a70 f   VolMgr.obj
 0001:00051a98       ?m_ToString@uint64@@SIPAUClass_System_String@@PA_KPAU2@@Z 02052a98 f   VolMgr.obj
 0001:00051aec       ?m_ToString@uint64@@SIPAUClass_System_String@@PAUClass_System_UInt64@@@Z 02052aec f   VolMgr.obj
 0001:00051b14       ?m_ToString@uint64@@SIPAUClass_System_String@@PAUClass_System_UInt64@@PAU2@@Z 02052b14 f   VolMgr.obj
 0001:00051b40       ?m_GetHashCode@uint64@@SIHPA_K@Z 02052b40 f   VolMgr.obj
 0001:00051b74       ?m_GetHashCode@uint64@@SIHPAUClass_System_UInt64@@@Z 02052b74 f   VolMgr.obj
 0001:00051b9c       ?m_Equals@uint64@@SI_NPA_KPAUClass_System_Object@@@Z 02052b9c f   VolMgr.obj
 0001:00051c0c       ?m_Equals@uint64@@SI_NPAUClass_System_UInt64@@PAUClass_System_Object@@@Z 02052c0c f   VolMgr.obj
 0001:00051c38       ?m_CompareTo@uint64@@SIHPA_KPAUClass_System_Object@@@Z 02052c38 f   VolMgr.obj
 0001:00051d2c       ?m_CompareTo@uint64@@SIHPAUClass_System_UInt64@@PAUClass_System_Object@@@Z 02052d2c f   VolMgr.obj
 0001:00051d58       ?m__ctor@Class_System_Threading_HandleCreateException@@SIXPAU1@@Z 02052d58 f   VolMgr.obj
 0001:00051d80       ?m_ToString@Struct_System_SchedulerTime@@SIPAUClass_System_String@@PAU1@@Z 02052d80 f   VolMgr.obj
 0001:00051ea0       ?m_ToString@Struct_System_SchedulerTime@@SIPAUClass_System_String@@PAUClass_System_SchedulerTime@@@Z 02052ea0 f   VolMgr.obj
 0001:00051ee8       ?m_StructCopy@Struct_System_SchedulerTime@@SIXPAU1@0@Z 02052ee8 f   VolMgr.obj
 0001:00051f1c       ?m_StructCopy@Struct_System_SchedulerTime@@SIXPAU1@PAU1@@Z 02052f1c f   VolMgr.obj
 0001:00051fb8       ?m_GetHashCode@Struct_System_SchedulerTime@@SIHPAU1@@Z 02052fb8 f   VolMgr.obj
 0001:00051fe4       ?m_GetHashCode@Struct_System_SchedulerTime@@SIHPAUClass_System_SchedulerTime@@@Z 02052fe4 f   VolMgr.obj
 0001:0005202c       ?m_get$_TotalDays@Struct_System_SchedulerTime@@SI_JPAU1@@Z 0205302c f   VolMgr.obj
 0001:00052064       ?m_get$_Second@Struct_System_SchedulerTime@@SIHPAU1@@Z 02053064 f   VolMgr.obj
 0001:000520a4       ?m_get$_Minute@Struct_System_SchedulerTime@@SIHPAU1@@Z 020530a4 f   VolMgr.obj
 0001:000520e4       ?m_get$_Hour@Struct_System_SchedulerTime@@SIHPAU1@@Z 020530e4 f   VolMgr.obj
 0001:00052124       ?m_Equals@Struct_System_SchedulerTime@@SI_NPAU1@PAUClass_System_Object@@@Z 02053124 f   VolMgr.obj
 0001:0005219c       ?m_Equals@Struct_System_SchedulerTime@@SI_NPAUClass_System_SchedulerTime@@PAUClass_System_Object@@@Z 0205319c f   VolMgr.obj
 0001:000521e8       ?m_CompareTo@Struct_System_SchedulerTime@@SIHPAU1@PAUClass_System_Object@@@Z 020531e8 f   VolMgr.obj
 0001:000522d4       ?m_CompareTo@Struct_System_SchedulerTime@@SIHPAUClass_System_SchedulerTime@@PAUClass_System_Object@@@Z 020532d4 f   VolMgr.obj
 0001:00052320       ?m__ctor@Struct_System_SchedulerTime@@SIXPAU1@_J@Z 02053320 f   VolMgr.obj
 0001:000523b0       ?g__cctor@Struct_System_SchedulerTime@@SIXXZ 020533b0 f   VolMgr.obj
 0001:0005242c       ?m_StructCopy@Struct_Microsoft_Singularity_Directory_NotifyContract_Exp@@SIXPAU1@0@Z 0205342c f   VolMgr.obj
 0001:00052524       ?m_StructCopy@Struct_Microsoft_Singularity_Directory_NotifyContract_Exp@@SIXPAU1@PAU1@@Z 02053524 f   VolMgr.obj
 0001:0005280c       ?m_SendAckChangeNotification@Struct_Microsoft_Singularity_Directory_NotifyContract_Exp@@SIXPAU1@@Z 0205380c f   VolMgr.obj
 0001:00052900       ?m_Release@Struct_Microsoft_Singularity_Directory_NotifyContract_Exp@@SIXPAU1@@Z 02053900 f   VolMgr.obj
 0001:0005291c       ?m_RecvChangeNotification@Struct_Microsoft_Singularity_Directory_NotifyContract_Exp@@SIXPAU1@PAPA_WPAUStruct_Microsoft_Singularity_Directory_NotifyType@@@Z 0205391c f   VolMgr.obj
 0001:00052ab8       ?m_RecvBegin@Struct_Microsoft_Singularity_Directory_NotifyContract_Exp@@SIXPAU1@@Z 02053ab8 f   VolMgr.obj
 0001:00052c30       ?m_Peek@Struct_Microsoft_Singularity_Directory_NotifyContract_Exp@@SIHPAU1@@Z 02053c30 f   VolMgr.obj
 0001:00052dd8       ?m_HeadMatches@Struct_Microsoft_Singularity_Directory_NotifyContract_Exp@@SI_NPAU1@HPA_NPAPAUClass_System_Object@@@Z 02053dd8 f   VolMgr.obj
 0001:00052e98       ?m_HeadMatches@Struct_Microsoft_Singularity_Directory_NotifyContract_Exp@@SI_NPAUClass_Microsoft_Singularity_Directory_NotifyContract_Exp@@HPA_NPAPAUClass_System_Object@@@Z 02053e98 f   VolMgr.obj
 0001:00052ed0       ?m_Equals@Struct_Microsoft_Singularity_Directory_NotifyContract_Exp@@SI_NPAU1@PAUClass_System_Object@@@Z 02053ed0 f   VolMgr.obj
 0001:0005322c       ?m_Equals@Struct_Microsoft_Singularity_Directory_NotifyContract_Exp@@SI_NPAUClass_Microsoft_Singularity_Directory_NotifyContract_Exp@@PAUClass_System_Object@@@Z 0205422c f   VolMgr.obj
 0001:00053258       ?m_Dispose@Struct_Microsoft_Singularity_Directory_NotifyContract_Exp@@SIXPAU1@@Z 02054258 f   VolMgr.obj
 0001:0005327c       ?m_CurrentState@Struct_Microsoft_Singularity_Directory_NotifyContract_Exp@@SIPAUClass_System_String@@PAU1@@Z 0205427c f   VolMgr.obj
 0001:00053308       ?m_Acquire@Struct_Microsoft_Singularity_Directory_NotifyContract_Exp@@SIXPAU1@@Z 02054308 f   VolMgr.obj
 0001:00053324       ?m__ctor@Struct_Microsoft_Singularity_Directory_NotifyContract_Exp@@SIXPAU1@H@Z 02054324 f   VolMgr.obj
 0001:00053350       ?m_StructCopy@Struct_Microsoft_Singularity_V1_Services_StackService@@SIXPAU1@0@Z 02054350 f   VolMgr.obj
 0001:0005336c       ?m_StructCopy@Struct_Microsoft_Singularity_V1_Services_StackService@@SIXPAU1@PAU1@@Z 0205436c f   VolMgr.obj
 0001:000533c0       ?g_FreeStackSegment@Struct_Microsoft_Singularity_V1_Services_StackService@@SIXXZ 020543c0 f   VolMgr.obj
 0001:000533d0       ?m_Equals@Struct_Microsoft_Singularity_V1_Services_StackService@@SI_NPAU1@PAUClass_System_Object@@@Z 020543d0 f   VolMgr.obj
 0001:00053408       ?m_Equals@Struct_Microsoft_Singularity_V1_Services_StackService@@SI_NPAUClass_Microsoft_Singularity_V1_Services_StackService@@PAUClass_System_Object@@@Z 02054408 f   VolMgr.obj
 0001:00053434       ?g_AllocateStackSegment@Struct_Microsoft_Singularity_V1_Services_StackService@@SIPAUuintPtr@@PAU2@@Z 02054434 f   VolMgr.obj
 0001:0005347c       ?m__ctor@Class_System_UpdateEnlistmentLog_LogChunk@@SIXPAU1@PAUClassVector_Struct_System_UpdateEnlistmentLog_Entry@@0@Z 0205447c f   VolMgr.obj
 0001:000534b8       ?m_StructCopy@Struct_Microsoft_Singularity_Io_DiskDeviceContract_AckNoOp@@SIXPAU1@0@Z 020544b8 f   VolMgr.obj
 0001:000534d4       ?m_StructCopy@Struct_Microsoft_Singularity_Io_DiskDeviceContract_AckNoOp@@SIXPAU1@PAU1@@Z 020544d4 f   VolMgr.obj
 0001:00053528       ?m_Equals@Struct_Microsoft_Singularity_Io_DiskDeviceContract_AckNoOp@@SI_NPAU1@PAUClass_System_Object@@@Z 02054528 f   VolMgr.obj
 0001:00053560       ?m_Equals@Struct_Microsoft_Singularity_Io_DiskDeviceContract_AckNoOp@@SI_NPAUClass_Microsoft_Singularity_Io_DiskDeviceContract_AckNoOp@@PAUClass_System_Object@@@Z 02054560 f   VolMgr.obj
 0001:0005358c       ?m__ctor@Class_System_UndoLog@@SIXPAU1@@Z 0205458c f   VolMgr.obj
 0001:000535bc       ?m_StructCopy@Struct_Microsoft_Singularity_Directory_DirectoryServiceContract_NakNotifyReparse@@SIXPAU1@0@Z 020545bc f   VolMgr.obj
 0001:00053608       ?m_StructCopy@Struct_Microsoft_Singularity_Directory_DirectoryServiceContract_NakNotifyReparse@@SIXPAU1@PAU1@@Z 02054608 f   VolMgr.obj
 0001:000536ec       ?m_Equals@Struct_Microsoft_Singularity_Directory_DirectoryServiceContract_NakNotifyReparse@@SI_NPAU1@PAUClass_System_Object@@@Z 020546ec f   VolMgr.obj
 0001:00053764       ?m_Equals@Struct_Microsoft_Singularity_Directory_DirectoryServiceContract_NakNotifyReparse@@SI_NPAUClass_Microsoft_Singularity_Directory_DirectoryServiceContract_NakNotifyReparse@@PAUClass_System_Object@@@Z 02054764 f   VolMgr.obj
 0001:00053790       ?m_ToString@float64@@SIPAUClass_System_String@@PAN@Z 02054790 f   VolMgr.obj
 0001:000537b8       ?m_ToString@float64@@SIPAUClass_System_String@@PANPAU2@@Z 020547b8 f   VolMgr.obj
 0001:00053804       ?m_ToString@float64@@SIPAUClass_System_String@@PAUClass_System_Double@@@Z 02054804 f   VolMgr.obj
 0001:0005382c       ?m_ToString@float64@@SIPAUClass_System_String@@PAUClass_System_Double@@PAU2@@Z 0205482c f   VolMgr.obj
 0001:00053858       ?g_IsNaN@float64@@SI_NN@Z  02054858 f   VolMgr.obj
 0001:00053908       ?m_GetHashCode@float64@@SIHPAN@Z 02054908 f   VolMgr.obj
 0001:00053974       ?m_GetHashCode@float64@@SIHPAUClass_System_Double@@@Z 02054974 f   VolMgr.obj
 0001:0005399c       ?m_Equals@float64@@SI_NPANPAUClass_System_Object@@@Z 0205499c f   VolMgr.obj
 0001:00053a44       ?m_Equals@float64@@SI_NPAUClass_System_Double@@PAUClass_System_Object@@@Z 02054a44 f   VolMgr.obj
 0001:00053a70       ?m_CompareTo@float64@@SIHPANPAUClass_System_Object@@@Z 02054a70 f   VolMgr.obj
 0001:00053bb4       ?m_CompareTo@float64@@SIHPAUClass_System_Double@@PAUClass_System_Object@@@Z 02054bb4 f   VolMgr.obj
 0001:00053be0       ?m_StructCopy@Struct_Microsoft_Singularity_Io_DiskDeviceContract_AckReadPerf@@SIXPAU1@0@Z 02054be0 f   VolMgr.obj
 0001:00053c2c       ?m_StructCopy@Struct_Microsoft_Singularity_Io_DiskDeviceContract_AckReadPerf@@SIXPAU1@PAU1@@Z 02054c2c f   VolMgr.obj
 0001:00053d10       ?m_Equals@Struct_Microsoft_Singularity_Io_DiskDeviceContract_AckReadPerf@@SI_NPAU1@PAUClass_System_Object@@@Z 02054d10 f   VolMgr.obj
 0001:00053da8       ?m_Equals@Struct_Microsoft_Singularity_Io_DiskDeviceContract_AckReadPerf@@SI_NPAUClass_Microsoft_Singularity_Io_DiskDeviceContract_AckReadPerf@@PAUClass_System_Object@@@Z 02054da8 f   VolMgr.obj
 0001:00053dd4       ?m_WriteImpl@Class_System_GCs_Barrier@@SIXPAU1@PAPAUuintPtr@@PAU2@H@Z 02054dd4 f   VolMgr.obj
 0001:00053dfc       ?m_WriteImpl@Class_System_GCs_Barrier@@SIXPAU1@PAPAUuintPtr@@PAUClass_System_Object@@H@Z 02054dfc f   VolMgr.obj
 0001:00053e24       ?m_WriteImpl@Class_System_GCs_Barrier@@SIXPAU1@PAUClass_System_Object@@PAPAUuintPtr@@PAU3@H@Z 02054e24 f   VolMgr.obj
 0001:00053e5c       ?m_WriteImpl@Class_System_GCs_Barrier@@SIXPAU1@PAUClass_System_Object@@PAPAUuintPtr@@1H@Z 02054e5c f   VolMgr.obj
 0001:00053e94       ?m_WriteImpl@Class_System_GCs_Barrier@@SIXPAU1@PAUClass_System_Object@@PAUuintPtr@@2H@Z 02054e94 f   VolMgr.obj
 0001:00053ed8       ?m_WriteImpl@Class_System_GCs_Barrier@@SIXPAU1@PAUClass_System_Object@@PAUuintPtr@@1H@Z 02054ed8 f   VolMgr.obj
 0001:00053f1c       ?m_WeakRefWriteImpl@Class_System_GCs_Barrier@@SIPAUuintPtr@@PAU1@PAUClass_System_Object@@H@Z 02054f1c f   VolMgr.obj
 0001:00053f40       ?g_WeakRefWrite@Class_System_GCs_Barrier@@SIPAUuintPtr@@PAUClass_System_Object@@H@Z 02054f40 f   VolMgr.obj
 0001:00053f78       ?m_WeakRefReadImpl@Class_System_GCs_Barrier@@SIPAUClass_System_Object@@PAU1@PAUuintPtr@@H@Z 02054f78 f   VolMgr.obj
 0001:00053f9c       ?g_WeakRefRead@Class_System_GCs_Barrier@@SIPAUClass_System_Object@@PAUuintPtr@@H@Z 02054f9c f   VolMgr.obj
 0001:00053fd4       ?m_StoreIndirectImpl@Class_System_GCs_Barrier@@SIXPAU1@PAPAUuintPtr@@PAUClass_System_Object@@H@Z 02054fd4 f   VolMgr.obj
 0001:0005400c       ?g_StoreIndirect@Class_System_GCs_Barrier@@SIXPAPAUuintPtr@@PAUClass_System_Object@@H@Z 0205500c f   VolMgr.obj
 0001:0005404c       ?m_ReadUIntPtrImpl@Class_System_GCs_Barrier@@SIPAUuintPtr@@PAU1@PAUClass_System_Object@@PAU2@H@Z 0205504c f   VolMgr.obj
 0001:00054088       ?m_ReadObjImpl@Class_System_GCs_Barrier@@SIPAUClass_System_Object@@PAU1@PAPAUuintPtr@@H@Z 02055088 f   VolMgr.obj
 0001:000540ac       ?m_ReadObjImpl@Class_System_GCs_Barrier@@SIPAUClass_System_Object@@PAU1@PAU2@PAPAUuintPtr@@H@Z 020550ac f   VolMgr.obj
 0001:000540e8       ?m_ReadObjImpl@Class_System_GCs_Barrier@@SIPAUClass_System_Object@@PAU1@PAU2@PAUuintPtr@@H@Z 020550e8 f   VolMgr.obj
 0001:00054128       ?m_ReadImpl@Class_System_GCs_Barrier@@SIPAUuintPtr@@PAU1@PAPAU2@H@Z 02055128 f   VolMgr.obj
 0001:0005414c       ?m_ReadImpl@Class_System_GCs_Barrier@@SIPAUuintPtr@@PAU1@PAUClass_System_Object@@PAPAU2@H@Z 0205514c f   VolMgr.obj
 0001:00054184       ?g_MyInitObject@Class_System_GCs_Barrier@@SIXPAUClass_System_Object@@PAUClass_System_VTable@@@Z 02055184 f   VolMgr.obj
 0001:000541b0       ?g_MemZeroBarrierSlow@Class_System_GCs_Barrier@@SIXPAUClass_System_Object@@PAUuintPtr@@1@Z 020551b0 f   VolMgr.obj
 0001:00054210       ?g_MemCopyBarrierSlow@Class_System_GCs_Barrier@@SIXPAUClass_System_Object@@PAUuintPtr@@011@Z 02055210 f   VolMgr.obj
 0001:00054294       ?m_InitObjectImpl@Class_System_GCs_Barrier@@SIXPAU1@PAUClass_System_Object@@PAUClass_System_VTable@@@Z 02055294 f   VolMgr.obj
 0001:000542c4       ?g_InitObject@Class_System_GCs_Barrier@@SIXPAUClass_System_Object@@PAUClass_System_VTable@@@Z 020552c4 f   VolMgr.obj
 0001:000542f8       ?g_Initialize@Class_System_GCs_Barrier@@SIXXZ 020552f8 f   VolMgr.obj
 0001:00054490       ?g_IndexedDataPtr@Class_System_GCs_Barrier@@SIPAUuintPtr@@PAUClass_System_Array@@@Z 02055490 f   VolMgr.obj
 0001:000544d0       ?m_ForwardImpl@Class_System_GCs_Barrier@@SIPAUClass_System_Object@@PAU1@PAU2@H@Z 020554d0 f   VolMgr.obj
 0001:000544f4       ?m_CopyStructWithBarrier@Class_System_GCs_Barrier@@SIXPAU1@PAUClass_System_VTable@@PAUuintPtr@@2@Z 020554f4 f   VolMgr.obj
 0001:0005452c       ?m_CopyStructNoBarrier@Class_System_GCs_Barrier@@SIXPAU1@PAUClass_System_VTable@@PAUuintPtr@@2@Z 0205552c f   VolMgr.obj
 0001:00054590       ?m_CopyStructImpl@Class_System_GCs_Barrier@@SIXPAU1@PAUClass_System_Object@@1PAUClass_System_VTable@@PAUuintPtr@@3@Z 02055590 f   VolMgr.obj
 0001:000545c8       ?g_CopyStruct@Class_System_GCs_Barrier@@SIXPAUClass_System_Object@@0PAUClass_System_VTable@@PAUuintPtr@@2@Z 020555c8 f   VolMgr.obj
 0001:00054604       ?g_BootstrapInitObjectImpl@Class_System_GCs_Barrier@@SIXPAUClass_System_Object@@PAUClass_System_VTable@@@Z 02055604 f   VolMgr.obj
 0001:00054630       ?g_BootstrapInitObject@Class_System_GCs_Barrier@@SIXPAUClass_System_Object@@PAUClass_System_VTable@@@Z 02055630 f   VolMgr.obj
 0001:00054658       ?m_ArrayCopyWithBarrier@Class_System_GCs_Barrier@@SIXPAU1@PAUClass_System_Array@@H1HH@Z 02055658 f   VolMgr.obj
 0001:00054794       ?m_ArrayCopyNoBarrier@Class_System_GCs_Barrier@@SIXPAU1@PAUClass_System_Array@@H1HH@Z 02055794 f   VolMgr.obj
 0001:0005489c       ?m_ArrayCopyImpl@Class_System_GCs_Barrier@@SIXPAU1@PAUClass_System_Array@@H1HH@Z 0205589c f   VolMgr.obj
 0001:000549d8       ?g_ArrayCopy@Class_System_GCs_Barrier@@SIXPAUClass_System_Array@@H0HH@Z 020559d8 f   VolMgr.obj
 0001:00054a14       ?m__ctor@Class_System_GCs_Barrier@@SIXPAU1@@Z 02055a14 f   VolMgr.obj
 0001:00054a30       ?m_System_Collections_IEnumerable_GetEnumerator@Class_System_Collections_SortedList@@SIPAUClass_System_Collections_IEnumerator@@PAU1@@Z 02055a30 f   VolMgr.obj
 0001:00054a84       ?m_set$_Capacity@Class_System_Collections_SortedList@@SIXPAU1@H@Z 02055a84 f   VolMgr.obj
 0001:00054ba0       ?m_Insert@Class_System_Collections_SortedList@@SIXPAU1@HPAUClass_System_Object@@1@Z 02055ba0 f   VolMgr.obj
 0001:00054ca4       ?m_get$_Count@Class_System_Collections_SortedList@@SIHPAU1@@Z 02055ca4 f   VolMgr.obj
 0001:00054cc4       ?m_EnsureCapacity@Class_System_Collections_SortedList@@SIXPAU1@H@Z 02055cc4 f   VolMgr.obj
 0001:00054d24       ?m_Clear@Class_System_Collections_SortedList@@SIXPAU1@@Z 02055d24 f   VolMgr.obj
 0001:00054d80       ?m_Add@Class_System_Collections_SortedList@@SIXPAU1@PAUClass_System_Object@@1@Z 02055d80 f   VolMgr.obj
 0001:00054e68       ?m__ctor@Class_System_Collections_SortedList@@SIXPAU1@@Z 02055e68 f   VolMgr.obj
 0001:00054ed0       ?m_StructCopy@Struct_Microsoft_Singularity_Directory_ServiceProviderContract_Exp@@SIXPAU1@0@Z 02055ed0 f   VolMgr.obj
 0001:00054fac       ?m_StructCopy@Struct_Microsoft_Singularity_Directory_ServiceProviderContract_Exp@@SIXPAU1@PAU1@@Z 02055fac f   VolMgr.obj
 0001:00055240       ?m_SendNackConnect@Struct_Microsoft_Singularity_Directory_ServiceProviderContract_Exp@@SIXPAU1@PAUStruct_Microsoft_Singularity_Directory_ServiceContract_Exp@@@Z 02056240 f   VolMgr.obj
 0001:000553c0       ?m_SendAckConnect@Struct_Microsoft_Singularity_Directory_ServiceProviderContract_Exp@@SIXPAU1@@Z 020563c0 f   VolMgr.obj
 0001:000554b4       ?m_Release@Struct_Microsoft_Singularity_Directory_ServiceProviderContract_Exp@@SIXPAU1@@Z 020564b4 f   VolMgr.obj
 0001:000554d0       ?m_RecvConnect@Struct_Microsoft_Singularity_Directory_ServiceProviderContract_Exp@@SIXPAU1@PAPAUStruct_Microsoft_Singularity_Directory_ServiceContract_Exp@@@Z 020564d0 f   VolMgr.obj
 0001:00055658       ?m_Peek@Struct_Microsoft_Singularity_Directory_ServiceProviderContract_Exp@@SIHPAU1@@Z 02056658 f   VolMgr.obj
 0001:0005578c       ?m_InState@Struct_Microsoft_Singularity_Directory_ServiceProviderContract_Exp@@SI_NPAU1@H@Z 0205678c f   VolMgr.obj
 0001:0005581c       ?m_HeadMatches@Struct_Microsoft_Singularity_Directory_ServiceProviderContract_Exp@@SI_NPAU1@HPA_NPAPAUClass_System_Object@@@Z 0205681c f   VolMgr.obj
 0001:000558dc       ?m_HeadMatches@Struct_Microsoft_Singularity_Directory_ServiceProviderContract_Exp@@SI_NPAUClass_Microsoft_Singularity_Directory_ServiceProviderContract_Exp@@HPA_NPAPAUClass_System_Object@@@Z 020568dc f   VolMgr.obj
 0001:00055914       ?m_Equals@Struct_Microsoft_Singularity_Directory_ServiceProviderContract_Exp@@SI_NPAU1@PAUClass_System_Object@@@Z 02056914 f   VolMgr.obj
 0001:00055bf0       ?m_Equals@Struct_Microsoft_Singularity_Directory_ServiceProviderContract_Exp@@SI_NPAUClass_Microsoft_Singularity_Directory_ServiceProviderContract_Exp@@PAUClass_System_Object@@@Z 02056bf0 f   VolMgr.obj
 0001:00055c1c       ?m_Dispose@Struct_Microsoft_Singularity_Directory_ServiceProviderContract_Exp@@SIXPAU1@@Z 02056c1c f   VolMgr.obj
 0001:00055c40       ?m_CurrentState@Struct_Microsoft_Singularity_Directory_ServiceProviderContract_Exp@@SIPAUClass_System_String@@PAU1@@Z 02056c40 f   VolMgr.obj
 0001:00055cbc       ?m_Acquire@Struct_Microsoft_Singularity_Directory_ServiceProviderContract_Exp@@SIXPAU1@@Z 02056cbc f   VolMgr.obj
 0001:00055cd8       ?m__ctor@Struct_Microsoft_Singularity_Directory_ServiceProviderContract_Exp@@SIXPAU1@H@Z 02056cd8 f   VolMgr.obj
 0001:00055d04       ?m_VisitObjects@Class_System_GCs_MarkSweepCollector@@SIXPAU1@PAUClass_System_GCs_ObjectLayout_ObjectVisitor@@PAUuintPtr@@2@Z 02056d04 f   VolMgr.obj
 0001:000566ac       ?m_VerifyHeap@Class_System_GCs_MarkSweepCollector@@SIXPAU1@_N@Z 020576ac f   VolMgr.obj
 0001:000566d8       ?m_NewThreadNotification@Class_System_GCs_MarkSweepCollector@@SIXPAU1@PAUClass_System_Threading_Thread@@_N@Z 020576d8 f   VolMgr.obj
 0001:00056714       ?g_IsPossiblyObject@Class_System_GCs_MarkSweepCollector@@SI_NPAUClass_System_Object@@@Z 02057714 f   VolMgr.obj
 0001:00056800       ?g_Initialize@Class_System_GCs_MarkSweepCollector@@SIXXZ 02057800 f   VolMgr.obj
 0001:0005691c       ?m_get$_TotalMemory@Class_System_GCs_MarkSweepCollector@@SI_JPAU1@@Z 0205791c f   VolMgr.obj
 0001:00056940       ?m_get$_MinGeneration@Class_System_GCs_MarkSweepCollector@@SIHPAU1@@Z 02057940 f   VolMgr.obj
 0001:00056960       ?m_get$_MaxGeneration@Class_System_GCs_MarkSweepCollector@@SIHPAU1@@Z 02057960 f   VolMgr.obj
 0001:00056980       ?m_get$_IsOnTheFlyCollector@Class_System_GCs_MarkSweepCollector@@SI_NPAU1@@Z 02057980 f   VolMgr.obj
 0001:0005699c       ?m_FindObjectAddr@Class_System_GCs_MarkSweepCollector@@SIPAUuintPtr@@PAU1@PAU2@@Z 0205799c f   VolMgr.obj
 0001:000569c0       ?m_EnableHeap@Class_System_GCs_MarkSweepCollector@@SIXPAU1@@Z 020579c0 f   VolMgr.obj
 0001:000569dc       ?m_DestructHeap@Class_System_GCs_MarkSweepCollector@@SIXPAU1@@Z 020579dc f   VolMgr.obj
 0001:00056b0c       ?m_DeadThreadNotification@Class_System_GCs_MarkSweepCollector@@SIXPAU1@PAUClass_System_Threading_Thread@@@Z 02057b0c f   VolMgr.obj
 0001:00056b3c       ?m_CreateObject@Class_System_GCs_MarkSweepCollector@@SIXPAU1@PAUClass_System_Object@@PAUClass_System_VTable@@PAUClass_System_Threading_Thread@@@Z 02057b3c f   VolMgr.obj
 0001:00056b84       ?m_CollectStopped@Class_System_GCs_MarkSweepCollector@@SIXPAU1@HH@Z 02057b84 f   VolMgr.obj
 0001:00057928       ?m_AllocateObjectMemorySlow@Class_System_GCs_MarkSweepCollector@@SIPAUuintPtr@@PAU1@PAU2@IPAUClass_System_Threading_Thread@@@Z 02058928 f   VolMgr.obj
 0001:000579c0       ?m_AllocateObjectMemory@Class_System_GCs_MarkSweepCollector@@SIPAUuintPtr@@PAU1@PAU2@IPAUClass_System_Threading_Thread@@@Z 020589c0 f   VolMgr.obj
 0001:00057d8c       ?m__ctor@Class_System_GCs_MarkSweepCollector@@SIXPAU1@@Z 02058d8c f   VolMgr.obj
 0001:00057db0       ?m_ThreadDormantGCNotification@Class_System_GCs_StopTheWorldCollector@@SIXPAU1@H@Z 02058db0 f   VolMgr.obj
 0001:00057df8       ?m_StopTheWorld@Class_System_GCs_StopTheWorldCollector@@SIXPAU1@@Z 02058df8 f   VolMgr.obj
 0001:00057ec0       ?g_set$_CurrentPhase@Class_System_GCs_StopTheWorldCollector@@SIXUStruct_System_GCs_StopTheWorldPhase@@@Z 02058ec0 f   VolMgr.obj
 0001:00057ee4       ?g_set$_collectorThreadIndex@Class_System_GCs_StopTheWorldCollector@@SIXH@Z 02058ee4 f   VolMgr.obj
 0001:00057f08       ?m_ResumeTheWorld@Class_System_GCs_StopTheWorldCollector@@SIXPAU1@@Z 02058f08 f   VolMgr.obj
 0001:00057f4c       ?m_PerformCollection@Class_System_GCs_StopTheWorldCollector@@SIXPAU1@HH@Z 02058f4c f   VolMgr.obj
 0001:000585ec       ?m_NewThreadNotification@Class_System_GCs_StopTheWorldCollector@@SIXPAU1@PAUClass_System_Threading_Thread@@_N@Z 020595ec f   VolMgr.obj
 0001:000586c8       ?g_Initialize@Class_System_GCs_StopTheWorldCollector@@SIXXZ 020596c8 f   VolMgr.obj
 0001:000586f0       ?m_get$_IsOnTheFlyCollector@Class_System_GCs_StopTheWorldCollector@@SI_NPAU1@@Z 020596f0 f   VolMgr.obj
 0001:0005870c       ?g_get$_CurrentPhase@Class_System_GCs_StopTheWorldCollector@@SI?AUStruct_System_GCs_StopTheWorldPhase@@XZ 0205970c f   VolMgr.obj
 0001:00058724       ?g_get$_collectorThreadIndex@Class_System_GCs_StopTheWorldCollector@@SIHXZ 02059724 f   VolMgr.obj
 0001:0005873c       ?m_EnableHeap@Class_System_GCs_StopTheWorldCollector@@SIXPAU1@@Z 0205973c f   VolMgr.obj
 0001:00058780       ?m_DeadThreadNotification@Class_System_GCs_StopTheWorldCollector@@SIXPAU1@PAUClass_System_Threading_Thread@@@Z 02059780 f   VolMgr.obj
 0001:000587b0       ?m_CollectStoppable@Class_System_GCs_StopTheWorldCollector@@SIXPAU1@HH@Z 020597b0 f   VolMgr.obj
 0001:00058d68       ?m_Collect@Class_System_GCs_StopTheWorldCollector@@SIXPAU1@PAUClass_System_Threading_Thread@@H@Z 02059d68 f   VolMgr.obj
 0001:00058dd0       ?m_CheckForNeededGCWork@Class_System_GCs_StopTheWorldCollector@@SIXPAU1@PAUClass_System_Threading_Thread@@@Z 02059dd0 f   VolMgr.obj
 0001:00058e24       ?m__ctor@Class_System_GCs_StopTheWorldCollector@@SIXPAU1@@Z 02059e24 f   VolMgr.obj
 0001:00058e48       ?g_VisitSmallObjects@Struct_System_GCs_SegregatedFreeList@@SIXPAUuintPtr@@PAUClass_System_GCs_SegregatedFreeList_ObjectVisitor@@@Z 02059e48 f   VolMgr.obj
 0001:0005942c       ?g_VisitObjects@Struct_System_GCs_SegregatedFreeList@@SIXPAUuintPtr@@0PAUClass_System_GCs_SegregatedFreeList_ObjectVisitor@@@Z 0205a42c f   VolMgr.obj
 0001:00059ba0       ?g_VisitObjects@Struct_System_GCs_SegregatedFreeList@@SIXPAUuintPtr@@0PAUClass_System_GCs_ObjectLayout_ObjectVisitor@@@Z 0205aba0 f   VolMgr.obj
 0001:0005a368       ?g_VisitLargeObject@Struct_System_GCs_SegregatedFreeList@@SIPAUuintPtr@@PAU2@PAUClass_System_GCs_SegregatedFreeList_ObjectVisitor@@@Z 0205b368 f   VolMgr.obj
 0001:0005a614       ?g_VisitAllObjects@Struct_System_GCs_SegregatedFreeList@@SIXPAUClass_System_GCs_SegregatedFreeList_ObjectVisitor@@@Z 0205b614 f   VolMgr.obj
 0001:0005adac       ?g_VerifySimpleList@Struct_System_GCs_SegregatedFreeList@@SIPAUStruct_System_GCs_SegregatedFreeList_PageHeader@@PAU2@@Z 0205bdac f   VolMgr.obj
 0001:0005ae90       ?g_SubSmallPage@Struct_System_GCs_SegregatedFreeList@@SIXPAUStruct_System_GCs_SegregatedFreeList_PageHeader@@@Z 0205be90 f   VolMgr.obj
 0001:0005af3c       ?g_SubSmallBytes@Struct_System_GCs_SegregatedFreeList@@SIXPAUuintPtr@@@Z 0205bf3c f   VolMgr.obj
 0001:0005af68       ?g_SubLargePages@Struct_System_GCs_SegregatedFreeList@@SIXPAUuintPtr@@@Z 0205bf68 f   VolMgr.obj
 0001:0005af94       ?m_StructCopy@Struct_System_GCs_SegregatedFreeList@@SIXPAU1@0@Z 0205bf94 f   VolMgr.obj
 0001:0005afc8       ?m_StructCopy@Struct_System_GCs_SegregatedFreeList@@SIXPAU1@PAU1@@Z 0205bfc8 f   VolMgr.obj
 0001:0005b064       ?g_SplitList@Struct_System_GCs_SegregatedFreeList@@SI_NPAUStruct_System_GCs_SegregatedFreeList_PageHeader@@HHPAUClass_System_GCs_SegregatedFreeList_PartialFreePageVisitor@@PAUStruct_System_GCs_SegregatedFreeList_PageSeparation@@@Z 0205c064 f   VolMgr.obj
 0001:0005b504       ?m_ReleaseLocalPage@Struct_System_GCs_SegregatedFreeList@@SIXPAU1@I@Z 0205c504 f   VolMgr.obj
 0001:0005b6d8       ?g_RecycleGlobalPagesPhase2@Struct_System_GCs_SegregatedFreeList@@SIXPAUClass_System_GCs_SegregatedFreeList_PartialFreePageVisitor@@@Z 0205c6d8 f   VolMgr.obj
 0001:0005ba94       ?g_RecycleGlobalPagesPhase2@Struct_System_GCs_SegregatedFreeList@@SIXXZ 0205ca94 f   VolMgr.obj
 0001:0005bab4       ?g_RecycleGlobalPagesPhase1@Struct_System_GCs_SegregatedFreeList@@SIXPAUClass_System_GCs_SegregatedFreeList_PartialFreePageVisitor@@@Z 0205cab4 f   VolMgr.obj
 0001:0005bcdc       ?g_RecycleGlobalPagesPhase1@Struct_System_GCs_SegregatedFreeList@@SIXXZ 0205ccdc f   VolMgr.obj
 0001:0005bcfc       ?g_RecycleGlobalPages@Struct_System_GCs_SegregatedFreeList@@SIXXZ 0205ccfc f   VolMgr.obj
 0001:0005bd1c       ?g_NewThreadNotification@Struct_System_GCs_SegregatedFreeList@@SIXPAUClass_System_Threading_Thread@@_N@Z 0205cd1c f   VolMgr.obj
 0001:0005bdfc       ?m_NewLocalPage@Struct_System_GCs_SegregatedFreeList@@SIPAUStruct_System_GCs_SegregatedFreeList_PageHeader@@PAU1@IPAUClass_System_Threading_Thread@@@Z 0205cdfc f   VolMgr.obj
 0001:0005c180       ?g_MixinThread@Struct_System_GCs_SegregatedFreeList@@SIPAUClass_System_Threading_Thread@@PAU2@@Z 0205d180 f   VolMgr.obj
 0001:0005c19c       ?g_Initialize@Struct_System_GCs_SegregatedFreeList@@SIXXZ 0205d19c f   VolMgr.obj
 0001:0005c26c       ?g_GetSizeClass@Struct_System_GCs_SegregatedFreeList@@SIIPAUuintPtr@@@Z 0205d26c f   VolMgr.obj
 0001:0005c2fc       ?m_GetLocalPage@Struct_System_GCs_SegregatedFreeList@@SIPAUStruct_System_GCs_SegregatedFreeList_PageHeader@@PAU1@IPAUClass_System_Threading_Thread@@@Z 0205d2fc f   VolMgr.obj
 0001:0005c384       ?g_GetCellSize@Struct_System_GCs_SegregatedFreeList@@SIII@Z 0205d384 f   VolMgr.obj
 0001:0005c42c       ?g_get$_TotalBytes@Struct_System_GCs_SegregatedFreeList@@SIPAUuintPtr@@XZ 0205d42c f   VolMgr.obj
 0001:0005c45c       ?g_get$_SIZE$_CLASSES@Struct_System_GCs_SegregatedFreeList@@SIIXZ 0205d45c f   VolMgr.obj
 0001:0005c480       ?g_get$_LazyMemClear@Struct_System_GCs_SegregatedFreeList@@SI_NXZ 0205d480 f   VolMgr.obj
 0001:0005c498       ?g_get$_LargeBytes@Struct_System_GCs_SegregatedFreeList@@SIPAUuintPtr@@XZ 0205d498 f   VolMgr.obj
 0001:0005c4d4       ?g_get$_LARGE$_OBJECT$_THRESHOLD@Struct_System_GCs_SegregatedFreeList@@SIPAUuintPtr@@XZ 0205d4d4 f   VolMgr.obj
 0001:0005c4f4       ?g_get$_fVerifyLists@Struct_System_GCs_SegregatedFreeList@@SI_NXZ 0205d4f4 f   VolMgr.obj
 0001:0005c50c       ?g_get$_EagerMemClear@Struct_System_GCs_SegregatedFreeList@@SI_NXZ 0205d50c f   VolMgr.obj
 0001:0005c524       ?g_get$_BLOCK$_SIZE@Struct_System_GCs_SegregatedFreeList@@SIHXZ 0205d524 f   VolMgr.obj
 0001:0005c548       ?g_FreeSmallList@Struct_System_GCs_SegregatedFreeList@@SIXPAUStruct_System_GCs_SegregatedFreeList_TempList@@@Z 0205d548 f   VolMgr.obj
 0001:0005c70c       ?g_FreeListContains@Struct_System_GCs_SegregatedFreeList@@SI_NPAUuintPtr@@0@Z 0205d70c f   VolMgr.obj
 0001:0005c75c       ?g_FreeLarge@Struct_System_GCs_SegregatedFreeList@@SIXPAUClass_System_Object@@@Z 0205d75c f   VolMgr.obj
 0001:0005cb68       ?g_FindSmallCell@Struct_System_GCs_SegregatedFreeList@@SIPAUuintPtr@@PAU2@@Z 0205db68 f   VolMgr.obj
 0001:0005cc78       ?g_FindSmall@Struct_System_GCs_SegregatedFreeList@@SIPAUuintPtr@@PAU2@@Z 0205dc78 f   VolMgr.obj
 0001:0005cd3c       ?g_FindLarge@Struct_System_GCs_SegregatedFreeList@@SIPAUuintPtr@@PAU2@@Z 0205dd3c f   VolMgr.obj
 0001:0005cfc0       ?g_Find@Struct_System_GCs_SegregatedFreeList@@SIPAUuintPtr@@PAU2@@Z 0205dfc0 f   VolMgr.obj
 0001:0005d0e0       ?m_Equals@Struct_System_GCs_SegregatedFreeList@@SI_NPAU1@PAUClass_System_Object@@@Z 0205e0e0 f   VolMgr.obj
 0001:0005d148       ?m_Equals@Struct_System_GCs_SegregatedFreeList@@SI_NPAUClass_System_GCs_SegregatedFreeList@@PAUClass_System_Object@@@Z 0205e148 f   VolMgr.obj
 0001:0005d174       ?g_DoLazyMemClear@Struct_System_GCs_SegregatedFreeList@@SIXPAUuintPtr@@I@Z 0205e174 f   VolMgr.obj
 0001:0005d1b8       ?g_DeadThreadNotification@Struct_System_GCs_SegregatedFreeList@@SIXPAUClass_System_Threading_Thread@@@Z 0205e1b8 f   VolMgr.obj
 0001:0005d250       ?g_CountListElements@Struct_System_GCs_SegregatedFreeList@@SIHPAUuintPtr@@@Z 0205e250 f   VolMgr.obj
 0001:0005d388       ?g_CompilerAllocateMarkSweep@Struct_System_GCs_SegregatedFreeList@@SIPAUClass_System_Object@@PAUClass_System_VTable@@PAUClass_System_Threading_Thread@@PAUuintPtr@@I@Z 0205e388 f   VolMgr.obj
 0001:0005d6d4       ?g_CommitFreedData@Struct_System_GCs_SegregatedFreeList@@SIXXZ 0205e6d4 f   VolMgr.obj
 0001:0005d73c       ?g_AtomicSwitchChains@Struct_System_GCs_SegregatedFreeList@@SIPAUStruct_System_GCs_SegregatedFreeList_PageHeader@@PAPAUuintPtr@@PAU2@@Z 0205e73c f   VolMgr.obj
 0001:0005d760       ?g_AtomicPushIncrementList@Struct_System_GCs_SegregatedFreeList@@SIXPAPAUuintPtr@@UStruct_System_GCs_SegregatedFreeList_PageHeaderList@@@Z 0205e760 f   VolMgr.obj
 0001:0005d7fc       ?g_AtomicPushDecrementList@Struct_System_GCs_SegregatedFreeList@@SIPAUStruct_System_GCs_SegregatedFreeList_PageHeader@@PAPAUuintPtr@@UStruct_System_GCs_SegregatedFreeList_PageHeaderList@@@Z 0205e7fc f   VolMgr.obj
 0001:0005d898       ?g_AtomicPush@Struct_System_GCs_SegregatedFreeList@@SIXPAPAUuintPtr@@PAUStruct_System_GCs_SegregatedFreeList_PageHeader@@@Z 0205e898 f   VolMgr.obj
 0001:0005d8f8       ?g_AtomicPopChain@Struct_System_GCs_SegregatedFreeList@@SIPAUStruct_System_GCs_SegregatedFreeList_PageHeader@@PAPAUuintPtr@@@Z 0205e8f8 f   VolMgr.obj
 0001:0005d91c       ?g_AtomicPop@Struct_System_GCs_SegregatedFreeList@@SIPAUStruct_System_GCs_SegregatedFreeList_PageHeader@@PAPAUuintPtr@@@Z 0205e91c f   VolMgr.obj
 0001:0005d980       ?g_AtomicAdd@Struct_System_GCs_SegregatedFreeList@@SIXPAHH@Z 0205e980 f   VolMgr.obj
 0001:0005d9d8       ?m_AllocateSmallSlow@Struct_System_GCs_SegregatedFreeList@@SIPAUuintPtr@@PAU1@IPAUClass_System_Threading_Thread@@@Z 0205e9d8 f   VolMgr.obj
 0001:0005dc88       ?m_AllocateSmallFast@Struct_System_GCs_SegregatedFreeList@@SIPAUuintPtr@@PAU1@I@Z 0205ec88 f   VolMgr.obj
 0001:0005dcec       ?m_AllocateSmall@Struct_System_GCs_SegregatedFreeList@@SIPAUuintPtr@@PAU1@IPAUClass_System_Threading_Thread@@@Z 0205ecec f   VolMgr.obj
 0001:0005dd5c       ?m_AllocateSlow@Struct_System_GCs_SegregatedFreeList@@SIPAUuintPtr@@PAU1@PAU2@IPAUClass_System_Threading_Thread@@@Z 0205ed5c f   VolMgr.obj
 0001:0005e080       ?g_AllocateSlow@Struct_System_GCs_SegregatedFreeList@@SIPAUuintPtr@@PAUClass_System_Threading_Thread@@PAU2@I@Z 0205f080 f   VolMgr.obj
 0001:0005e0d4       ?g_AllocateLarge@Struct_System_GCs_SegregatedFreeList@@SIPAUuintPtr@@IPAU2@PAUClass_System_Threading_Thread@@@Z 0205f0d4 f   VolMgr.obj
 0001:0005e730       ?m_AllocateFast@Struct_System_GCs_SegregatedFreeList@@SIPAUuintPtr@@PAU1@PAU2@I@Z 0205f730 f   VolMgr.obj
 0001:0005ea58       ?g_AllocateFast@Struct_System_GCs_SegregatedFreeList@@SIPAUuintPtr@@PAUClass_System_Threading_Thread@@PAU2@I@Z 0205fa58 f   VolMgr.obj
 0001:0005ede4       ?g_AddSmallPage@Struct_System_GCs_SegregatedFreeList@@SIXPAUStruct_System_GCs_SegregatedFreeList_PageHeader@@@Z 0205fde4 f   VolMgr.obj
 0001:0005ee98       ?g_AddSmallBytes@Struct_System_GCs_SegregatedFreeList@@SIXPAUuintPtr@@@Z 0205fe98 f   VolMgr.obj
 0001:0005eecc       ?g_AddLargePages@Struct_System_GCs_SegregatedFreeList@@SIXPAUuintPtr@@@Z 0205fecc f   VolMgr.obj
 0001:0005ef28       ?m_VerifyTailedList@Struct_System_GCs_SegregatedFreeList_PageHeaderList@@SIXPAU1@@Z 0205ff28 f   VolMgr.obj
 0001:0005efcc       ?m_StructCopy@Struct_System_GCs_SegregatedFreeList_PageHeaderList@@SIXPAU1@0@Z 0205ffcc f   VolMgr.obj
 0001:0005f000       ?m_StructCopy@Struct_System_GCs_SegregatedFreeList_PageHeaderList@@SIXPAU1@PAU1@@Z 02060000 f   VolMgr.obj
 0001:0005f09c       ?m_RemoveHead@Struct_System_GCs_SegregatedFreeList_PageHeaderList@@SIPAUStruct_System_GCs_SegregatedFreeList_PageHeader@@PAU1@@Z 0206009c f   VolMgr.obj
 0001:0005f0d4       ?m_get$_IsEmpty@Struct_System_GCs_SegregatedFreeList_PageHeaderList@@SI_NPAU1@@Z 020600d4 f   VolMgr.obj
 0001:0005f0f8       ?m_Equals@Struct_System_GCs_SegregatedFreeList_PageHeaderList@@SI_NPAU1@PAUClass_System_Object@@@Z 020600f8 f   VolMgr.obj
 0001:0005f154       ?m_Equals@Struct_System_GCs_SegregatedFreeList_PageHeaderList@@SI_NPAUClass_System_GCs_SegregatedFreeList_PageHeaderList@@PAUClass_System_Object@@@Z 02060154 f   VolMgr.obj
 0001:0005f180       ?m_Append@Struct_System_GCs_SegregatedFreeList_PageHeaderList@@SIXPAU1@PAUStruct_System_GCs_SegregatedFreeList_PageHeader@@@Z 02060180 f   VolMgr.obj
 0001:0005f1f0       ?m_Append@Struct_System_GCs_SegregatedFreeList_PageHeaderList@@SIXPAU1@U1@@Z 020601f0 f   VolMgr.obj
 0001:0005f254       ?m_StructCopy@Struct_Microsoft_Singularity_Directory_DirectoryServiceContract_NakCreateLinkReparse@@SIXPAU1@0@Z 02060254 f   VolMgr.obj
 0001:0005f294       ?m_StructCopy@Struct_Microsoft_Singularity_Directory_DirectoryServiceContract_NakCreateLinkReparse@@SIXPAU1@PAU1@@Z 02060294 f   VolMgr.obj
 0001:0005f354       ?m_Equals@Struct_Microsoft_Singularity_Directory_DirectoryServiceContract_NakCreateLinkReparse@@SI_NPAU1@PAUClass_System_Object@@@Z 02060354 f   VolMgr.obj
 0001:0005f3bc       ?m_Equals@Struct_Microsoft_Singularity_Directory_DirectoryServiceContract_NakCreateLinkReparse@@SI_NPAUClass_Microsoft_Singularity_Directory_DirectoryServiceContract_NakCreateLinkReparse@@PAUClass_System_Object@@@Z 020603bc f   VolMgr.obj
 0001:0005f3e8       ?g_UncheckedCopyUInt8Up@Class_System_ArrayHelper@@SIXPAUClassVector_uint8@@H0HH@Z 020603e8 f   VolMgr.obj
 0001:0005f494       ?g_UncheckedCopyUInt8Down@Class_System_ArrayHelper@@SIXPAUClassVector_uint8@@H0HH@Z 02060494 f   VolMgr.obj
 0001:0005f558       ?g_UncheckedCopyUInt64Up@Class_System_ArrayHelper@@SIXPAUClassVector_uint64@@H0HH@Z 02060558 f   VolMgr.obj
 0001:0005f620       ?g_UncheckedCopyUInt64Down@Class_System_ArrayHelper@@SIXPAUClassVector_uint64@@H0HH@Z 02060620 f   VolMgr.obj
 0001:0005f700       ?g_UncheckedCopyUInt32Down@Class_System_ArrayHelper@@SIXPAUClassVector_uint32@@H0HH@Z 02060700 f   VolMgr.obj
 0001:0005f7c4       ?g_UncheckedCopyUInt16Up@Class_System_ArrayHelper@@SIXPAUClassVector_uint16@@H0HH@Z 020607c4 f   VolMgr.obj
 0001:0005f874       ?g_UncheckedCopyUInt16Down@Class_System_ArrayHelper@@SIXPAUClassVector_uint16@@H0HH@Z 02060874 f   VolMgr.obj
 0001:0005f93c       ?g_UncheckedCopyInt8Up@Class_System_ArrayHelper@@SIXPAUClassVector_int8@@H0HH@Z 0206093c f   VolMgr.obj
 0001:0005f9e8       ?g_UncheckedCopyInt8Down@Class_System_ArrayHelper@@SIXPAUClassVector_int8@@H0HH@Z 020609e8 f   VolMgr.obj
 0001:0005faac       ?g_UncheckedCopyInt64Up@Class_System_ArrayHelper@@SIXPAUClassVector_int64@@H0HH@Z 02060aac f   VolMgr.obj
 0001:0005fb74       ?g_UncheckedCopyInt64Down@Class_System_ArrayHelper@@SIXPAUClassVector_int64@@H0HH@Z 02060b74 f   VolMgr.obj
 0001:0005fc54       ?g_UncheckedCopyInt32Down@Class_System_ArrayHelper@@SIXPAUClassVector_int32@@H0HH@Z 02060c54 f   VolMgr.obj
 0001:0005fd18       ?g_UncheckedCopyInt16Up@Class_System_ArrayHelper@@SIXPAUClassVector_int16@@H0HH@Z 02060d18 f   VolMgr.obj
 0001:0005fdc8       ?g_UncheckedCopyInt16Down@Class_System_ArrayHelper@@SIXPAUClassVector_int16@@H0HH@Z 02060dc8 f   VolMgr.obj
 0001:0005fe90       ?g_UncheckedCopyFloat64Up@Class_System_ArrayHelper@@SIXPAUClassVector_float64@@H0HH@Z 02060e90 f   VolMgr.obj
 0001:0005ff3c       ?g_UncheckedCopyFloat64Down@Class_System_ArrayHelper@@SIXPAUClassVector_float64@@H0HH@Z 02060f3c f   VolMgr.obj
 0001:00060000       ?g_UncheckedCopyFloat32Up@Class_System_ArrayHelper@@SIXPAUClassVector_float32@@H0HH@Z 02061000 f   VolMgr.obj
 0001:000600ac       ?g_UncheckedCopyFloat32Down@Class_System_ArrayHelper@@SIXPAUClassVector_float32@@H0HH@Z 020610ac f   VolMgr.obj
 0001:00060170       ?g_UncheckedCopyCharUp@Class_System_ArrayHelper@@SIXPAUClassVector_bartok_char@@H0HH@Z 02061170 f   VolMgr.obj
 0001:00060220       ?g_UncheckedCopyCharDown@Class_System_ArrayHelper@@SIXPAUClassVector_bartok_char@@H0HH@Z 02061220 f   VolMgr.obj
 0001:000602e8       ?g_UncheckedCopyBoolUp@Class_System_ArrayHelper@@SIXPAUClassVector_bool@@H0HH@Z 020612e8 f   VolMgr.obj
 0001:00060394       ?g_UncheckedCopyBoolDown@Class_System_ArrayHelper@@SIXPAUClassVector_bool@@H0HH@Z 02061394 f   VolMgr.obj
 0001:00060458       ?g_CopyUInt8Up@Class_System_ArrayHelper@@SIXPAUClassVector_uint8@@H0HH@Z 02061458 f   VolMgr.obj
 0001:00060504       ?g_CopyUInt8Down@Class_System_ArrayHelper@@SIXPAUClassVector_uint8@@H0HH@Z 02061504 f   VolMgr.obj
 0001:000605c8       ?g_CopyUInt64Up@Class_System_ArrayHelper@@SIXPAUClassVector_uint64@@H0HH@Z 020615c8 f   VolMgr.obj
 0001:00060690       ?g_CopyUInt64Down@Class_System_ArrayHelper@@SIXPAUClassVector_uint64@@H0HH@Z 02061690 f   VolMgr.obj
 0001:00060770       ?g_CopyUInt32Up@Class_System_ArrayHelper@@SIXPAUClassVector_uint32@@H0HH@Z 02061770 f   VolMgr.obj
 0001:0006081c       ?g_CopyUInt32Down@Class_System_ArrayHelper@@SIXPAUClassVector_uint32@@H0HH@Z 0206181c f   VolMgr.obj
 0001:000608e0       ?g_CopyUInt16Up@Class_System_ArrayHelper@@SIXPAUClassVector_uint16@@H0HH@Z 020618e0 f   VolMgr.obj
 0001:00060990       ?g_CopyUInt16Down@Class_System_ArrayHelper@@SIXPAUClassVector_uint16@@H0HH@Z 02061990 f   VolMgr.obj
 0001:00060a58       ?g_CopyInt8Up@Class_System_ArrayHelper@@SIXPAUClassVector_int8@@H0HH@Z 02061a58 f   VolMgr.obj
 0001:00060b04       ?g_CopyInt8Down@Class_System_ArrayHelper@@SIXPAUClassVector_int8@@H0HH@Z 02061b04 f   VolMgr.obj
 0001:00060bc8       ?g_CopyInt64Up@Class_System_ArrayHelper@@SIXPAUClassVector_int64@@H0HH@Z 02061bc8 f   VolMgr.obj
 0001:00060c90       ?g_CopyInt64Down@Class_System_ArrayHelper@@SIXPAUClassVector_int64@@H0HH@Z 02061c90 f   VolMgr.obj
 0001:00060d70       ?g_CopyInt32Up@Class_System_ArrayHelper@@SIXPAUClassVector_int32@@H0HH@Z 02061d70 f   VolMgr.obj
 0001:00060e1c       ?g_CopyInt32Down@Class_System_ArrayHelper@@SIXPAUClassVector_int32@@H0HH@Z 02061e1c f   VolMgr.obj
 0001:00060ee0       ?g_CopyInt16Up@Class_System_ArrayHelper@@SIXPAUClassVector_int16@@H0HH@Z 02061ee0 f   VolMgr.obj
 0001:00060f90       ?g_CopyInt16Down@Class_System_ArrayHelper@@SIXPAUClassVector_int16@@H0HH@Z 02061f90 f   VolMgr.obj
 0001:00061058       ?g_CopyFloat64Up@Class_System_ArrayHelper@@SIXPAUClassVector_float64@@H0HH@Z 02062058 f   VolMgr.obj
 0001:00061104       ?g_CopyFloat64Down@Class_System_ArrayHelper@@SIXPAUClassVector_float64@@H0HH@Z 02062104 f   VolMgr.obj
 0001:000611c8       ?g_CopyFloat32Up@Class_System_ArrayHelper@@SIXPAUClassVector_float32@@H0HH@Z 020621c8 f   VolMgr.obj
 0001:00061274       ?g_CopyFloat32Down@Class_System_ArrayHelper@@SIXPAUClassVector_float32@@H0HH@Z 02062274 f   VolMgr.obj
 0001:00061338       ?g_CopyCharUp@Class_System_ArrayHelper@@SIXPAUClassVector_bartok_char@@H0HH@Z 02062338 f   VolMgr.obj
 0001:000613e8       ?g_CopyCharDown@Class_System_ArrayHelper@@SIXPAUClassVector_bartok_char@@H0HH@Z 020623e8 f   VolMgr.obj
 0001:000614b0       ?g_CopyBoolUp@Class_System_ArrayHelper@@SIXPAUClassVector_bool@@H0HH@Z 020624b0 f   VolMgr.obj
 0001:0006155c       ?g_CopyBoolDown@Class_System_ArrayHelper@@SIXPAUClassVector_bool@@H0HH@Z 0206255c f   VolMgr.obj
 0001:00061620       ?m__ctor@Class_System_ArrayHelper@@SIXPAU1@@Z 02062620 f   VolMgr.obj
 0001:0006163c       ?m__ctor@Class_System_Reflection_Assembly@@SIXPAU1@@Z 0206263c f   VolMgr.obj
 0001:00061658       ?g__cctor@Class_System_Reflection_Assembly@@SIXXZ 02062658 f   VolMgr.obj
 0001:0006166c       ?m_set$_Target@Class_System_EMU@@SIXPAU1@PAUClass_System_Object@@@Z 0206266c f   VolMgr.obj
 0001:000616b0       ?m_set$_NextShadow@Class_System_EMU@@SIXPAU1@0@Z 020626b0 f   VolMgr.obj
 0001:000616d8       ?m_set$_Monitor@Class_System_EMU@@SIXPAU1@PAUClass_System_Threading_Monitor@@@Z 020626d8 f   VolMgr.obj
 0001:00061700       ?m_set$_HashCode@Class_System_EMU@@SIXPAU1@H@Z 02062700 f   VolMgr.obj
 0001:00061728       ?m_Register@Class_System_EMU@@SIXPAU1@@Z 02062728 f   VolMgr.obj
 0001:000617b0       ?m_IsMonitor@Class_System_EMU@@SI_NPAU1@@Z 020627b0 f   VolMgr.obj
 0001:000617d8       ?m_get$_Target@Class_System_EMU@@SIPAUClass_System_Object@@PAU1@@Z 020627d8 f   VolMgr.obj
 0001:0006181c       ?m_get$_NextShadow@Class_System_EMU@@SIPAU1@PAU1@@Z 0206281c f   VolMgr.obj
 0001:00061840       ?m_get$_Next@Class_System_EMU@@SIPAU1@PAU1@@Z 02062840 f   VolMgr.obj
 0001:00061864       ?m_get$_Monitor@Class_System_EMU@@SIPAUClass_System_Threading_Monitor@@PAU1@@Z 02062864 f   VolMgr.obj
 0001:0006189c       ?m_get$_HashCode@Class_System_EMU@@SIHPAU1@@Z 0206289c f   VolMgr.obj
 0001:000618bc       ?g_FromAddress@Class_System_EMU@@SIPAU1@PAUuintPtr@@@Z 020628bc f   VolMgr.obj
 0001:000618d8       ?m__ctor@Class_System_EMU@@SIXPAU1@@Z 020628d8 f   VolMgr.obj
 0001:000618f4       ?m_StructCopy@Struct_Microsoft_Singularity_Io_VolumeManagerContract_AckRegisterDisk@@SIXPAU1@0@Z 020628f4 f   VolMgr.obj
 0001:00061910       ?m_StructCopy@Struct_Microsoft_Singularity_Io_VolumeManagerContract_AckRegisterDisk@@SIXPAU1@PAU1@@Z 02062910 f   VolMgr.obj
 0001:00061964       ?m_MarshallContent@Struct_Microsoft_Singularity_Io_VolumeManagerContract_AckRegisterDisk@@SIXPAU1@PAEPAUStruct_Microsoft_Singularity_Channels_Endpoint@@1PAH@Z 02062964 f   VolMgr.obj
 0001:00061984       ?m_MarshallAll@Struct_Microsoft_Singularity_Io_VolumeManagerContract_AckRegisterDisk@@SIXPAU1@PAEPAUStruct_Microsoft_Singularity_Channels_Endpoint@@PAH@Z 02062984 f   VolMgr.obj
 0001:000619dc       ?m_Equals@Struct_Microsoft_Singularity_Io_VolumeManagerContract_AckRegisterDisk@@SI_NPAU1@PAUClass_System_Object@@@Z 020629dc f   VolMgr.obj
 0001:00061a14       ?m_Equals@Struct_Microsoft_Singularity_Io_VolumeManagerContract_AckRegisterDisk@@SI_NPAUClass_Microsoft_Singularity_Io_VolumeManagerContract_AckRegisterDisk@@PAUClass_System_Object@@@Z 02062a14 f   VolMgr.obj
 0001:00061a40       ?m_InvokeStaticStub@Class_System_GCs_ProfileRootsDelegate@@SIXPAU1@PAUClass_System_GCs_NonNullReferenceVisitor@@@Z 02062a40 f   VolMgr.obj
 0001:00061a70       ?m_Invoke@Class_System_GCs_ProfileRootsDelegate@@SIXPAU1@PAUClass_System_GCs_NonNullReferenceVisitor@@@Z 02062a70 f   VolMgr.obj
 0001:00061acc       ?m_EndInvoke@Class_System_GCs_ProfileRootsDelegate@@SIXPAU1@PAUClass_System_IAsyncResult@@@Z 02062acc f   VolMgr.obj
 0001:00061ae8       ?m_BeginInvoke@Class_System_GCs_ProfileRootsDelegate@@SIPAUClass_System_IAsyncResult@@PAU1@PAUClass_System_GCs_NonNullReferenceVisitor@@PAUClass_System_AsyncCallback@@PAUClass_System_Object@@@Z 02062ae8 f   VolMgr.obj
 0001:00061b08       ?m__ctor@Class_System_GCs_ProfileRootsDelegate@@SIXPAU1@PAUClass_System_Object@@PAUintPtr@@@Z 02062b08 f   VolMgr.obj
 0001:00061b6c       ?m_StructCopy@Struct_Microsoft_Singularity_V1_Threads_ContainerHandle@@SIXPAU1@0@Z 02062b6c f   VolMgr.obj
 0001:00061b94       ?m_StructCopy@Struct_Microsoft_Singularity_V1_Threads_ContainerHandle@@SIXPAU1@PAU1@@Z 02062b94 f   VolMgr.obj
 0001:00061c0c       ?m_Equals@Struct_Microsoft_Singularity_V1_Threads_ContainerHandle@@SI_NPAU1@PAUClass_System_Object@@@Z 02062c0c f   VolMgr.obj
 0001:00061c54       ?m_Equals@Struct_Microsoft_Singularity_V1_Threads_ContainerHandle@@SI_NPAUClass_Microsoft_Singularity_V1_Threads_ContainerHandle@@PAUClass_System_Object@@@Z 02062c54 f   VolMgr.obj
 0001:00061c80       ?m_Visit@Class_System_GCs_GCProfiler_OneObjectVisitor@@SIXPAU1@PAPAUuintPtr@@@Z 02062c80 f   VolMgr.obj
 0001:00061cac       ?m__ctor@Class_System_GCs_GCProfiler_OneObjectVisitor@@SIXPAU1@PAUClass_System_GCs_GCProfiler@@@Z 02062cac f   VolMgr.obj
 0001:00061cdc       ?g_WriterIsValid@Class_System_UpdateLog@@SI_NUStruct_System_UpdateLogWriter@@@Z 02062cdc f   VolMgr.obj
 0001:00061cfc       ?m_VisitWeakRefs@Class_System_UpdateLog@@SIXPAU1@PAUClass_System_TryAllManager@@PAUClass_System_GCs_DirectReferenceVisitor@@@Z 02062cfc f   VolMgr.obj
 0001:000621b8       ?m_VisitStrongRefs@Class_System_UpdateLog@@SIXPAU1@PAUClass_System_TryAllManager@@PAUClass_System_GCs_DirectReferenceVisitor@@@Z 020631b8 f   VolMgr.obj
 0001:000623dc       ?g_SyncFromWriter@Class_System_UpdateLog@@SIXPAUClass_System_TryAllManager@@@Z 020633dc f   VolMgr.obj
 0001:00062460       ?g_InitWriter@Class_System_UpdateLog@@SIXPAUClass_System_TryAllManager@@@Z 02063460 f   VolMgr.obj
 0001:000624dc       ?m_get$_CurrentLocation@Class_System_UpdateLog@@SI?AUStruct_System_UpdateLog_Location@@PAU1@@Z 020634dc f   VolMgr.obj
 0001:00062570       ?m_AddrToIndex@Class_System_UpdateLog@@SIIPAU1@PAUStruct_System_UpdateLog_Entry@@@Z 02063570 f   VolMgr.obj
 0001:00062600       ?m_AddrOfEntry@Class_System_UpdateLog@@SIPAUStruct_System_UpdateLog_Entry@@PAU1@H@Z 02063600 f   VolMgr.obj
 0001:000626a0       ?m__ctor@Class_System_UpdateLog@@SIXPAU1@@Z 020636a0 f   VolMgr.obj
 0001:00062704       ?m_ScanRoots@Class_System_GCs_GCProfiler@@SIXPAU1@@Z 02063704 f   VolMgr.obj
 0001:00062730       ?m_ScanObjects@Class_System_GCs_GCProfiler@@SIXPAU1@@Z 02063730 f   VolMgr.obj
 0001:0006275c       ?m_NotifyShutdown@Class_System_GCs_GCProfiler@@SIXPAU1@@Z 0206375c f   VolMgr.obj
 0001:00062780       ?m_NotifyPreGC@Class_System_GCs_GCProfiler@@SIXPAU1@H@Z 02063780 f   VolMgr.obj
 0001:000627ac       ?m_NotifyPostGC@Class_System_GCs_GCProfiler@@SIXPAU1@PAUClass_System_GCs_ProfileRootsDelegate@@PAUClass_System_GCs_ProfileObjectsDelegate@@@Z 020637ac f   VolMgr.obj
 0001:000627e8       ?m_NotifyAllocation@Class_System_GCs_GCProfiler@@SIXPAU1@PAUuintPtr@@PAUClass_System_Type@@1@Z 020637e8 f   VolMgr.obj
 0001:0006281c       ?m__ctor@Class_System_GCs_GCProfiler@@SIXPAU1@@Z 0206381c f   VolMgr.obj
 0001:0006288c       ?g_StableState@Class_Microsoft_Singularity_Directory_FileContract@@SIHPAUStruct_Microsoft_Singularity_Channels_StateStack@@@Z 0206388c f   VolMgr.obj
 0001:00062908       ?m__ctor@Class_Microsoft_Singularity_Directory_FileContract@@SIXPAU1@@Z 02063908 f   VolMgr.obj
 0001:00062920       ?m_StructCopy@Struct_Microsoft_Singularity_Directory_NotifyContract_Begin@@SIXPAU1@0@Z 02063920 f   VolMgr.obj
 0001:0006293c       ?m_StructCopy@Struct_Microsoft_Singularity_Directory_NotifyContract_Begin@@SIXPAU1@PAU1@@Z 0206393c f   VolMgr.obj
 0001:00062990       ?m_Equals@Struct_Microsoft_Singularity_Directory_NotifyContract_Begin@@SI_NPAU1@PAUClass_System_Object@@@Z 02063990 f   VolMgr.obj
 0001:000629c8       ?m_Equals@Struct_Microsoft_Singularity_Directory_NotifyContract_Begin@@SI_NPAUClass_Microsoft_Singularity_Directory_NotifyContract_Begin@@PAUClass_System_Object@@@Z 020639c8 f   VolMgr.obj
 0001:000629f4       ?m_StructCopy@Struct_System_GCs_UnmanagedPageList@@SIXPAU1@0@Z 020639f4 f   VolMgr.obj
 0001:00062a28       ?m_StructCopy@Struct_System_GCs_UnmanagedPageList@@SIXPAU1@PAU1@@Z 02063a28 f   VolMgr.obj
 0001:00062ac4       ?g_SetNext@Struct_System_GCs_UnmanagedPageList@@SIXPAUuintPtr@@0@Z 02063ac4 f   VolMgr.obj
 0001:00062ae8       ?m_RemoveHead@Struct_System_GCs_UnmanagedPageList@@SIPAUuintPtr@@PAU1@@Z 02063ae8 f   VolMgr.obj
 0001:00062b54       ?g_ReleaseStandbyPages@Struct_System_GCs_UnmanagedPageList@@SIXXZ 02063b54 f   VolMgr.obj
 0001:00062c18       ?g_Next@Struct_System_GCs_UnmanagedPageList@@SIPAUuintPtr@@PAU2@@Z 02063c18 f   VolMgr.obj
 0001:00062c38       ?m_get$_IsEmpty@Struct_System_GCs_UnmanagedPageList@@SI_NPAU1@@Z 02063c38 f   VolMgr.obj
 0001:00062c5c       ?g_FirstPageAddr@Struct_System_GCs_UnmanagedPageList@@SIPAPAUuintPtr@@PAU2@@Z 02063c5c f   VolMgr.obj
 0001:00062c7c       ?m_Equals@Struct_System_GCs_UnmanagedPageList@@SI_NPAU1@PAUClass_System_Object@@@Z 02063c7c f   VolMgr.obj
 0001:00062cd8       ?m_Equals@Struct_System_GCs_UnmanagedPageList@@SI_NPAUClass_System_GCs_UnmanagedPageList@@PAUClass_System_Object@@@Z 02063cd8 f   VolMgr.obj
 0001:00062d04       ?g_EndPageAddr@Struct_System_GCs_UnmanagedPageList@@SIPAPAUuintPtr@@PAU2@@Z 02063d04 f   VolMgr.obj
 0001:00062d40       ?m_AddHead@Struct_System_GCs_UnmanagedPageList@@SIXPAU1@PAUuintPtr@@@Z 02063d40 f   VolMgr.obj
 0001:00062d84       ?m_StructCopy@Struct_Microsoft_Singularity_Monitoring_LogEntry@@SIXPAU1@0@Z 02063d84 f   VolMgr.obj
 0001:00062e60       ?m_StructCopy@Struct_Microsoft_Singularity_Monitoring_LogEntry@@SIXPAU1@PAU1@@Z 02063e60 f   VolMgr.obj
 0001:000630f4       ?m_Equals@Struct_Microsoft_Singularity_Monitoring_LogEntry@@SI_NPAU1@PAUClass_System_Object@@@Z 020640f4 f   VolMgr.obj
 0001:0006323c       ?m_Equals@Struct_Microsoft_Singularity_Monitoring_LogEntry@@SI_NPAUClass_Microsoft_Singularity_Monitoring_LogEntry@@PAUClass_System_Object@@@Z 0206423c f   VolMgr.obj
 0001:00063268       ?g_NewClientEndpoint@Class_Microsoft_Singularity_Directory_DirectoryService@@SIPAUStruct_Microsoft_Singularity_Directory_DirectoryServiceContract_Imp@@XZ 02064268 f   VolMgr.obj
 0001:000632dc       ?m__ctor@Class_Microsoft_Singularity_Directory_DirectoryService@@SIXPAU1@@Z 020642dc f   VolMgr.obj
 0001:000632f4       ?g_IntToString@Class_System_ParseNumbers@@SIPAUClass_System_String@@HHH_WH@Z 020642f4 f   VolMgr.obj
 0001:00063700       ?m__ctor@Class_System_ParseNumbers@@SIXPAU1@@Z 02064700 f   VolMgr.obj
 0001:00063718       ?g__cctor@Class_System_ParseNumbers@@SIXXZ 02064718 f   VolMgr.obj
 0001:00063740       ?m_StructCopy@Struct_Microsoft_Singularity_Directory_DirectoryServiceContract_NakCreateDirectoryReparse@@SIXPAU1@0@Z 02064740 f   VolMgr.obj
 0001:00063780       ?m_StructCopy@Struct_Microsoft_Singularity_Directory_DirectoryServiceContract_NakCreateDirectoryReparse@@SIXPAU1@PAU1@@Z 02064780 f   VolMgr.obj
 0001:00063840       ?m_Equals@Struct_Microsoft_Singularity_Directory_DirectoryServiceContract_NakCreateDirectoryReparse@@SI_NPAU1@PAUClass_System_Object@@@Z 02064840 f   VolMgr.obj
 0001:000638a8       ?m_Equals@Struct_Microsoft_Singularity_Directory_DirectoryServiceContract_NakCreateDirectoryReparse@@SI_NPAUClass_Microsoft_Singularity_Directory_DirectoryServiceContract_NakCreateDirectoryReparse@@PAUClass_System_Object@@@Z 020648a8 f   VolMgr.obj
 0001:000638d4       ?m_ToString@uint16@@SIPAUClass_System_String@@PAG@Z 020648d4 f   VolMgr.obj
 0001:000638fc       ?m_ToString@uint16@@SIPAUClass_System_String@@PAGPAU2@@Z 020648fc f   VolMgr.obj
 0001:00063948       ?m_ToString@uint16@@SIPAUClass_System_String@@PAUClass_System_UInt16@@@Z 02064948 f   VolMgr.obj
 0001:00063970       ?m_ToString@uint16@@SIPAUClass_System_String@@PAUClass_System_UInt16@@PAU2@@Z 02064970 f   VolMgr.obj
 0001:0006399c       ?m_GetHashCode@uint16@@SIHPAG@Z 0206499c f   VolMgr.obj
 0001:000639c0       ?m_GetHashCode@uint16@@SIHPAUClass_System_UInt16@@@Z 020649c0 f   VolMgr.obj
 0001:000639e8       ?m_Equals@uint16@@SI_NPAGPAUClass_System_Object@@@Z 020649e8 f   VolMgr.obj
 0001:00063a4c       ?m_Equals@uint16@@SI_NPAUClass_System_UInt16@@PAUClass_System_Object@@@Z 02064a4c f   VolMgr.obj
 0001:00063a78       ?m_CompareTo@uint16@@SIHPAGPAUClass_System_Object@@@Z 02064a78 f   VolMgr.obj
 0001:00063b04       ?m_CompareTo@uint16@@SIHPAUClass_System_UInt16@@PAUClass_System_Object@@@Z 02064b04 f   VolMgr.obj
 0001:00063b30       ?g_Process@Class_System_WeakReference@@SIXPAUClass_System_GCs_DirectReferenceVisitor@@_N1@Z 02064b30 f   VolMgr.obj
 0001:00063c68       ?m__ctor@Class_System_WeakReference@@SIXPAU1@@Z 02064c68 f   VolMgr.obj
 0001:00063c84       ?g__cctor@Class_System_WeakReference@@SIXXZ 02064c84 f   VolMgr.obj
 0001:00063cc4       ?g_IsInUserMode@Class_Microsoft_Singularity_Isal_Isa@@SI_NXZ 02064cc4 f   VolMgr.obj
 0001:00063ce8       ?g_GetStackReturnAddresses@Class_Microsoft_Singularity_Isal_Isa@@SIIPAUClassVector_uintPtr@@@Z 02064ce8 f   VolMgr.obj
 0001:00063dc4       ?g_get$_StackLimit@Class_Microsoft_Singularity_Isal_Isa@@SIPAUuintPtr@@XZ 02064dc4 f   VolMgr.obj
 0001:00063de4       ?g_get$_IsRunningOnInterruptStack@Class_Microsoft_Singularity_Isal_Isa@@SI_NXZ 02064de4 f   VolMgr.obj
 0001:00063e18       ?m__ctor@Class_Microsoft_Singularity_Isal_Isa@@SIXPAU1@@Z 02064e18 f   VolMgr.obj
 0001:00063e34       ?m_StructCopy@Struct_Microsoft_Singularity_V1_Threads_SyncHandle@@SIXPAU1@0@Z 02064e34 f   VolMgr.obj
 0001:00063e5c       ?m_StructCopy@Struct_Microsoft_Singularity_V1_Threads_SyncHandle@@SIXPAU1@PAU1@@Z 02064e5c f   VolMgr.obj
 0001:00063ed4       ?g_op$_Implicit@Struct_Microsoft_Singularity_V1_Threads_SyncHandle@@SI?AU1@UStruct_Microsoft_Singularity_V1_Threads_MutexHandle@@@Z 02064ed4 f   VolMgr.obj
 0001:00063f04       ?g_op$_Implicit@Struct_Microsoft_Singularity_V1_Threads_SyncHandle@@SI?AU1@UStruct_Microsoft_Singularity_V1_Threads_ManualResetEventHandle@@@Z 02064f04 f   VolMgr.obj
 0001:00063f34       ?g_op$_Implicit@Struct_Microsoft_Singularity_V1_Threads_SyncHandle@@SI?AU1@UStruct_Microsoft_Singularity_V1_Threads_AutoResetEventHandle@@@Z 02064f34 f   VolMgr.obj
 0001:00063f64       ?m_Equals@Struct_Microsoft_Singularity_V1_Threads_SyncHandle@@SI_NPAU1@PAUClass_System_Object@@@Z 02064f64 f   VolMgr.obj
 0001:00063fac       ?m_Equals@Struct_Microsoft_Singularity_V1_Threads_SyncHandle@@SI_NPAUClass_Microsoft_Singularity_V1_Threads_SyncHandle@@PAUClass_System_Object@@@Z 02064fac f   VolMgr.obj
 0001:00063fd8       ?m__ctor@Struct_Microsoft_Singularity_V1_Threads_SyncHandle@@SIXPAU1@PAUuintPtr@@@Z 02064fd8 f   VolMgr.obj
 0001:00063ffc       ?g_Min@Class_System_Math@@SIIII@Z 02064ffc f   VolMgr.obj
 0001:0006402c       ?m__ctor@Class_System_Math@@SIXPAU1@@Z 0206502c f   VolMgr.obj
 0001:00064048       ?g__cctor@Class_System_Math@@SIXXZ 02065048 f   VolMgr.obj
 0001:00064088       ?m_StructCopy@Struct_Microsoft_Singularity_Directory_DirectoryServiceContract_NakCreateFileReparse@@SIXPAU1@0@Z 02065088 f   VolMgr.obj
 0001:000640c8       ?m_StructCopy@Struct_Microsoft_Singularity_Directory_DirectoryServiceContract_NakCreateFileReparse@@SIXPAU1@PAU1@@Z 020650c8 f   VolMgr.obj
 0001:00064188       ?m_Equals@Struct_Microsoft_Singularity_Directory_DirectoryServiceContract_NakCreateFileReparse@@SI_NPAU1@PAUClass_System_Object@@@Z 02065188 f   VolMgr.obj
 0001:000641f0       ?m_Equals@Struct_Microsoft_Singularity_Directory_DirectoryServiceContract_NakCreateFileReparse@@SI_NPAUClass_Microsoft_Singularity_Directory_DirectoryServiceContract_NakCreateFileReparse@@PAUClass_System_Object@@@Z 020651f0 f   VolMgr.obj
 0001:0006421c       ?m_TransferContentsOwnership@Struct_Microsoft_Singularity_Io_DeviceContract_Exp@@SIXPAU1@PAUStruct_Microsoft_Singularity_Channels_Endpoint@@@Z 0206521c f   VolMgr.obj
 0001:00064248       ?m_StructCopy@Struct_Microsoft_Singularity_Io_DeviceContract_Exp@@SIXPAU1@0@Z 02065248 f   VolMgr.obj
 0001:00064314       ?m_StructCopy@Struct_Microsoft_Singularity_Io_DeviceContract_Exp@@SIXPAU1@PAU1@@Z 02065314 f   VolMgr.obj
 0001:00064578       ?m_Peek@Struct_Microsoft_Singularity_Io_DeviceContract_Exp@@SIHPAU1@@Z 02065578 f   VolMgr.obj
 0001:00064640       ?m_HeadMatches@Struct_Microsoft_Singularity_Io_DeviceContract_Exp@@SI_NPAU1@HPA_NPAPAUClass_System_Object@@@Z 02065640 f   VolMgr.obj
 0001:00064700       ?m_HeadMatches@Struct_Microsoft_Singularity_Io_DeviceContract_Exp@@SI_NPAUClass_Microsoft_Singularity_Io_DeviceContract_Exp@@HPA_NPAPAUClass_System_Object@@@Z 02065700 f   VolMgr.obj
 0001:00064738       ?m_Equals@Struct_Microsoft_Singularity_Io_DeviceContract_Exp@@SI_NPAU1@PAUClass_System_Object@@@Z 02065738 f   VolMgr.obj
 0001:000649b0       ?m_Equals@Struct_Microsoft_Singularity_Io_DeviceContract_Exp@@SI_NPAUClass_Microsoft_Singularity_Io_DeviceContract_Exp@@PAUClass_System_Object@@@Z 020659b0 f   VolMgr.obj
 0001:000649dc       ?m__ctor@Struct_Microsoft_Singularity_Io_DeviceContract_Exp@@SIXPAU1@H@Z 020659dc f   VolMgr.obj
 0001:00064a08       ?m_HeadMatches@Class_Microsoft_Singularity_Channels_EMap$_3$LMicrosoft_Singularity_Io_VolumeManagerContract_Exp_Microsoft_Singularity_Io_VolumeManagerContract_Accept_optional_Microsoft_Contracts_NonNullType__Microsoft_Singularity_Services_VolumeManager_Volume$G@@SI_NPAU1@HPA_NPAPAUClass_System_Object@@@Z 02065a08 f   VolMgr.obj
 0001:00064b80       ?m_GetWaitHandle@Class_Microsoft_Singularity_Channels_EMap$_3$LMicrosoft_Singularity_Io_VolumeManagerContract_Exp_Microsoft_Singularity_Io_VolumeManagerContract_Accept_optional_Microsoft_Contracts_NonNullType__Microsoft_Singularity_Services_VolumeManager_Volume$G@@SI?AUStruct_Microsoft_Singularity_V1_Threads_SyncHandle@@PAU1@@Z 02065b80 f   VolMgr.obj
 0001:00064bec       ?m_GetFreshNode@Class_Microsoft_Singularity_Channels_EMap$_3$LMicrosoft_Singularity_Io_VolumeManagerContract_Exp_Microsoft_Singularity_Io_VolumeManagerContract_Accept_optional_Microsoft_Contracts_NonNullType__Microsoft_Singularity_Services_VolumeManager_Volume$G@@SIPAUClass_Microsoft_Singularity_Channels_EMap$_3$LMicrosoft_Singularity_Io_VolumeManagerContract_Exp_Microsoft_Singularity_Io_VolumeManagerContract_Accept_optional_Microsoft_Contracts_NonNullType__Microsoft_Singularity_Services_VolumeManager_Volume$G_Node@@PAU1@PAUStruct_Microsoft_Singularity_Io_VolumeManagerContract_Exp@@PAUClass_Microsoft_Singularity_Services_VolumeManager_Volume@@0@Z 02065bec f   VolMgr.obj
 0001:00064c94       ?m_get$_NextScanStart@Class_Microsoft_Singularity_Channels_EMap$_3$LMicrosoft_Singularity_Io_VolumeManagerContract_Exp_Microsoft_Singularity_Io_VolumeManagerContract_Accept_optional_Microsoft_Contracts_NonNullType__Microsoft_Singularity_Services_VolumeManager_Volume$G@@SIPAUClass_Microsoft_Singularity_Channels_EMap$_3$LMicrosoft_Singularity_Io_VolumeManagerContract_Exp_Microsoft_Singularity_Io_VolumeManagerContract_Accept_optional_Microsoft_Contracts_NonNullType__Microsoft_Singularity_Services_VolumeManager_Volume$G_Node@@PAU1@@Z 02065c94 f   VolMgr.obj
 0001:00064cfc       ?m_Extract@Class_Microsoft_Singularity_Channels_EMap$_3$LMicrosoft_Singularity_Io_VolumeManagerContract_Exp_Microsoft_Singularity_Io_VolumeManagerContract_Accept_optional_Microsoft_Contracts_NonNullType__Microsoft_Singularity_Services_VolumeManager_Volume$G@@SIPAUStruct_Microsoft_Singularity_Io_VolumeManagerContract_Exp@@PAU1@PAUClass_System_Object@@PAPAUClass_Microsoft_Singularity_Services_VolumeManager_Volume@@@Z 02065cfc f   VolMgr.obj
 0001:00064dbc       ?m_Dispose@Class_Microsoft_Singularity_Channels_EMap$_3$LMicrosoft_Singularity_Io_VolumeManagerContract_Exp_Microsoft_Singularity_Io_VolumeManagerContract_Accept_optional_Microsoft_Contracts_NonNullType__Microsoft_Singularity_Services_VolumeManager_Volume$G@@SIXPAU1@@Z 02065dbc f   VolMgr.obj
 0001:00064ed4       ?m_Add@Class_Microsoft_Singularity_Channels_EMap$_3$LMicrosoft_Singularity_Io_VolumeManagerContract_Exp_Microsoft_Singularity_Io_VolumeManagerContract_Accept_optional_Microsoft_Contracts_NonNullType__Microsoft_Singularity_Services_VolumeManager_Volume$G@@SIXPAU1@PAUStruct_Microsoft_Singularity_Io_VolumeManagerContract_Exp@@PAUClass_Microsoft_Singularity_Services_VolumeManager_Volume@@@Z 02065ed4 f   VolMgr.obj
 0001:00064f08       ?m__ctor@Class_Microsoft_Singularity_Channels_EMap$_3$LMicrosoft_Singularity_Io_VolumeManagerContract_Exp_Microsoft_Singularity_Io_VolumeManagerContract_Accept_optional_Microsoft_Contracts_NonNullType__Microsoft_Singularity_Services_VolumeManager_Volume$G@@SIXPAU1@@Z 02065f08 f   VolMgr.obj
 0001:00064f94       ?m_StructCopy@Struct_Microsoft_Singularity_Directory_DirectoryServiceContract_NakGetAttributes@@SIXPAU1@0@Z 02065f94 f   VolMgr.obj
 0001:00064fbc       ?m_StructCopy@Struct_Microsoft_Singularity_Directory_DirectoryServiceContract_NakGetAttributes@@SIXPAU1@PAU1@@Z 02065fbc f   VolMgr.obj
 0001:00065034       ?m_Equals@Struct_Microsoft_Singularity_Directory_DirectoryServiceContract_NakGetAttributes@@SI_NPAU1@PAUClass_System_Object@@@Z 02066034 f   VolMgr.obj
 0001:000650d4       ?m_Equals@Struct_Microsoft_Singularity_Directory_DirectoryServiceContract_NakGetAttributes@@SI_NPAUClass_Microsoft_Singularity_Directory_DirectoryServiceContract_NakGetAttributes@@PAUClass_System_Object@@@Z 020660d4 f   VolMgr.obj
 0001:00065100       ?m_HeadMatches@Class_SurrogateMicrosoft_Singularity_Directory_NotifyContract_Exp@@SI_NPAU1@HPA_NPAPAUClass_System_Object@@@Z 02066100 f   VolMgr.obj
 0001:00065134       ?m_GetWaitHandle@Class_SurrogateMicrosoft_Singularity_Directory_NotifyContract_Exp@@SI?AUStruct_Microsoft_Singularity_V1_Threads_SyncHandle@@PAU1@@Z 02066134 f   VolMgr.obj
 0001:00065158       ?g__ctor@Class_SurrogateMicrosoft_Singularity_Directory_NotifyContract_Exp@@SIXPAU1@PAUStruct_Microsoft_Singularity_Directory_NotifyContract_Exp@@@Z 02066158 f   VolMgr.obj
 0001:00065180       ?m_StructCopy@Struct_Microsoft_Singularity_V1_Threads_AutoResetEventHandle@@SIXPAU1@0@Z 02066180 f   VolMgr.obj
 0001:000651a8       ?m_StructCopy@Struct_Microsoft_Singularity_V1_Threads_AutoResetEventHandle@@SIXPAU1@PAU1@@Z 020661a8 f   VolMgr.obj
 0001:00065220       ?m_Equals@Struct_Microsoft_Singularity_V1_Threads_AutoResetEventHandle@@SI_NPAU1@PAUClass_System_Object@@@Z 02066220 f   VolMgr.obj
 0001:00065268       ?m_Equals@Struct_Microsoft_Singularity_V1_Threads_AutoResetEventHandle@@SI_NPAUClass_Microsoft_Singularity_V1_Threads_AutoResetEventHandle@@PAUClass_System_Object@@@Z 02066268 f   VolMgr.obj
 0001:00065294       ?g_Create@Struct_Microsoft_Singularity_V1_Threads_AutoResetEventHandle@@SI_N_NPAU1@@Z 02066294 f   VolMgr.obj
 0001:000652e0       ?g_UInt64BitsToDouble@Class_System_BitConverter@@SIN_K@Z 020662e0 f   VolMgr.obj
 0001:00065304       ?g_SingleToUInt32Bits@Class_System_BitConverter@@SIIM@Z 02066304 f   VolMgr.obj
 0001:00065320       ?g_GetBytes@Class_System_BitConverter@@SIPAUClassVector_uint8@@F@Z 02066320 f   VolMgr.obj
 0001:00065368       ?g_GetBytes@Class_System_BitConverter@@SIXFPAUClassVector_uint8@@H@Z 02066368 f   VolMgr.obj
 0001:0006542c       ?g_DoubleToUInt64Bits@Class_System_BitConverter@@SI_KN@Z 0206642c f   VolMgr.obj
 0001:0006544c       ?m__ctor@Class_System_BitConverter@@SIXPAU1@@Z 0206644c f   VolMgr.obj
 0001:00065468       ?g__cctor@Class_System_BitConverter@@SIXXZ 02066468 f   VolMgr.obj
 0001:000654bc       ?m__ctor@Class_System_TypeInfo@@SIXPAU1@@Z 020664bc f   VolMgr.obj
 0001:000654d4       ?g__cctor@Class_System_TypeInfo@@SIXXZ 020664d4 f   VolMgr.obj
 0001:000656d0       ?m_StructCopy@Struct_Microsoft_Singularity_Directory_ServiceProviderContract_NackConnect@@SIXPAU1@0@Z 020666d0 f   VolMgr.obj
 0001:000656f8       ?m_StructCopy@Struct_Microsoft_Singularity_Directory_ServiceProviderContract_NackConnect@@SIXPAU1@PAU1@@Z 020666f8 f   VolMgr.obj
 0001:00065770       ?m_MarshallContent@Struct_Microsoft_Singularity_Directory_ServiceProviderContract_NackConnect@@SIXPAU1@PAEPAUStruct_Microsoft_Singularity_Channels_Endpoint@@1PAH@Z 02066770 f   VolMgr.obj
 0001:000657f4       ?m_MarshallAll@Struct_Microsoft_Singularity_Directory_ServiceProviderContract_NackConnect@@SIXPAU1@PAEPAUStruct_Microsoft_Singularity_Channels_Endpoint@@PAH@Z 020667f4 f   VolMgr.obj
 0001:0006584c       ?m_Equals@Struct_Microsoft_Singularity_Directory_ServiceProviderContract_NackConnect@@SI_NPAU1@PAUClass_System_Object@@@Z 0206684c f   VolMgr.obj
 0001:00065894       ?m_Equals@Struct_Microsoft_Singularity_Directory_ServiceProviderContract_NackConnect@@SI_NPAUClass_Microsoft_Singularity_Directory_ServiceProviderContract_NackConnect@@PAUClass_System_Object@@@Z 02066894 f   VolMgr.obj
 0001:000658c0       ?m_UnRegisterSource@Class_Microsoft_Singularity_Eventing_Controller@@SIXPAU1@PAUClass_Microsoft_Singularity_Eventing_EventSource@@@Z 020668c0 f   VolMgr.obj
 0001:000658dc       ?m_RegisterSource@Class_Microsoft_Singularity_Eventing_Controller@@SI_NPAU1@PAUClass_Microsoft_Singularity_Eventing_EventSource@@@Z 020668dc f   VolMgr.obj
 0001:000658fc       ?m_RegisterController@Class_Microsoft_Singularity_Eventing_Controller@@SI_NPAU1@@Z 020668fc f   VolMgr.obj
 0001:00065918       ?g_InitializeSystem@Class_Microsoft_Singularity_Eventing_Controller@@SIXXZ 02066918 f   VolMgr.obj
 0001:00065a04       ?m_Initialize@Class_Microsoft_Singularity_Eventing_Controller@@SIXPAU1@@Z 02066a04 f   VolMgr.obj
 0001:00065a50       ?g_GetSystemController@Class_Microsoft_Singularity_Eventing_Controller@@SIPAU1@XZ 02066a50 f   VolMgr.obj
 0001:00065a68       ?g_GetLocalController@Class_Microsoft_Singularity_Eventing_Controller@@SIPAUClass_Microsoft_Singularity_Eventing_LocalController@@XZ 02066a68 f   VolMgr.obj
 0001:00065a80       ?g_Finalize@Class_Microsoft_Singularity_Eventing_Controller@@SIXXZ 02066a80 f   VolMgr.obj
 0001:00065a9c       ?m__ctor@Class_Microsoft_Singularity_Eventing_Controller@@SIXPAU1@@Z 02066a9c f   VolMgr.obj
 0001:00065ab8       ?g__cctor@Class_Microsoft_Singularity_Eventing_Controller@@SIXXZ 02066ab8 f   VolMgr.obj
 0001:00065acc       ?m_StructCopy@Struct_Microsoft_Singularity_Directory_DirectoryServiceContract_QueryACL@@SIXPAU1@0@Z 02066acc f   VolMgr.obj
 0001:00065b00       ?m_StructCopy@Struct_Microsoft_Singularity_Directory_DirectoryServiceContract_QueryACL@@SIXPAU1@PAU1@@Z 02066b00 f   VolMgr.obj
 0001:00065b9c       ?m_Equals@Struct_Microsoft_Singularity_Directory_DirectoryServiceContract_QueryACL@@SI_NPAU1@PAUClass_System_Object@@@Z 02066b9c f   VolMgr.obj
 0001:00065bf8       ?m_Equals@Struct_Microsoft_Singularity_Directory_DirectoryServiceContract_QueryACL@@SI_NPAUClass_Microsoft_Singularity_Directory_DirectoryServiceContract_QueryACL@@PAUClass_System_Object@@@Z 02066bf8 f   VolMgr.obj
 0001:00065c24       ?m__ctor@Class_Microsoft_Singularity_Monitoring@@SIXPAU1@@Z 02066c24 f   VolMgr.obj
 0001:00065c40       ?m_StructCopy@Struct_Microsoft_Singularity_Isal_IX_Gdte@@SIXPAU1@0@Z 02066c40 f   VolMgr.obj
 0001:00065ca8       ?m_StructCopy@Struct_Microsoft_Singularity_Isal_IX_Gdte@@SIXPAU1@PAU1@@Z 02066ca8 f   VolMgr.obj
 0001:00065de0       ?m_Equals@Struct_Microsoft_Singularity_Isal_IX_Gdte@@SI_NPAU1@PAUClass_System_Object@@@Z 02066de0 f   VolMgr.obj
 0001:00065e78       ?m_Equals@Struct_Microsoft_Singularity_Isal_IX_Gdte@@SI_NPAUClass_Microsoft_Singularity_Isal_IX_Gdte@@PAUClass_System_Object@@@Z 02066e78 f   VolMgr.obj
 0001:00065ea4       ?m_StructCopy@Struct_Microsoft_Singularity_V1_Services_DeliveryHandle@@SIXPAU1@0@Z 02066ea4 f   VolMgr.obj
 0001:00065ecc       ?m_StructCopy@Struct_Microsoft_Singularity_V1_Services_DeliveryHandle@@SIXPAU1@PAU1@@Z 02066ecc f   VolMgr.obj
 0001:00065f44       ?m_Equals@Struct_Microsoft_Singularity_V1_Services_DeliveryHandle@@SI_NPAU1@PAUClass_System_Object@@@Z 02066f44 f   VolMgr.obj
 0001:00065f8c       ?m_Equals@Struct_Microsoft_Singularity_V1_Services_DeliveryHandle@@SI_NPAUClass_Microsoft_Singularity_V1_Services_DeliveryHandle@@PAUClass_System_Object@@@Z 02066f8c f   VolMgr.obj
 0001:00065fb8       ?m_StructCopy@Struct_Microsoft_Singularity_Directory_DirectoryServiceContract_NakCreateFile@@SIXPAU1@0@Z 02066fb8 f   VolMgr.obj
 0001:00065fe0       ?m_StructCopy@Struct_Microsoft_Singularity_Directory_DirectoryServiceContract_NakCreateFile@@SIXPAU1@PAU1@@Z 02066fe0 f   VolMgr.obj
 0001:00066058       ?m_Equals@Struct_Microsoft_Singularity_Directory_DirectoryServiceContract_NakCreateFile@@SI_NPAU1@PAUClass_System_Object@@@Z 02067058 f   VolMgr.obj
 0001:000660f8       ?m_Equals@Struct_Microsoft_Singularity_Directory_DirectoryServiceContract_NakCreateFile@@SI_NPAUClass_Microsoft_Singularity_Directory_DirectoryServiceContract_NakCreateFile@@PAUClass_System_Object@@@Z 020670f8 f   VolMgr.obj
 0001:00066124       ?m__ctor@Class_System_InvalidCastException@@SIXPAU1@@Z 02067124 f   VolMgr.obj
 0001:0006614c       ?m__ctor@Class_System_InvalidCastException@@SIXPAU1@PAUClass_System_String@@@Z 0206714c f   VolMgr.obj
 0001:00066174       ?m__ctor@Class_System_InvalidCastException@@SIXPAU1@PAUClass_System_String@@PAUClass_System_Exception@@@Z 02067174 f   VolMgr.obj
 0001:000661a4       ?m_StructCopy@Struct_System_GCs_MemoryAccounting_RuntimeTypeAccounting@@SIXPAU1@0@Z 020671a4 f   VolMgr.obj
 0001:000661f4       ?m_StructCopy@Struct_System_GCs_MemoryAccounting_RuntimeTypeAccounting@@SIXPAU1@PAU1@@Z 020671f4 f   VolMgr.obj
 0001:000662e4       ?m_Equals@Struct_System_GCs_MemoryAccounting_RuntimeTypeAccounting@@SI_NPAU1@PAUClass_System_Object@@@Z 020672e4 f   VolMgr.obj
 0001:000663c4       ?m_Equals@Struct_System_GCs_MemoryAccounting_RuntimeTypeAccounting@@SI_NPAUClass_System_GCs_MemoryAccounting_RuntimeTypeAccounting@@PAUClass_System_Object@@@Z 020673c4 f   VolMgr.obj
 0001:000663f0       ?m_StructCopy@Struct_Microsoft_Singularity_Services_VolumeManager_PartitionDescriptor@@SIXPAU1@0@Z 020673f0 f   VolMgr.obj
 0001:00066484       ?m_StructCopy@Struct_Microsoft_Singularity_Services_VolumeManager_PartitionDescriptor@@SIXPAU1@PAU1@@Z 02067484 f   VolMgr.obj
 0001:00066640       ?m_set$_StartSector@Struct_Microsoft_Singularity_Services_VolumeManager_PartitionDescriptor@@SIXPAU1@I@Z 02067640 f   VolMgr.obj
 0001:0006666c       ?g_GetChsSector@Struct_Microsoft_Singularity_Services_VolumeManager_PartitionDescriptor@@SIEE@Z 0206766c f   VolMgr.obj
 0001:000666a4       ?g_GetChsCylinder@Struct_Microsoft_Singularity_Services_VolumeManager_PartitionDescriptor@@SIGEE@Z 020676a4 f   VolMgr.obj
 0001:000666fc       ?m_get$_TotalSector@Struct_Microsoft_Singularity_Services_VolumeManager_PartitionDescriptor@@SIIPAU1@@Z 020676fc f   VolMgr.obj
 0001:0006673c       ?m_get$_StartSector@Struct_Microsoft_Singularity_Services_VolumeManager_PartitionDescriptor@@SIIPAU1@@Z 0206773c f   VolMgr.obj
 0001:0006677c       ?m_get$_ChsStartSector@Struct_Microsoft_Singularity_Services_VolumeManager_PartitionDescriptor@@SIEPAU1@@Z 0206777c f   VolMgr.obj
 0001:000667b4       ?m_get$_ChsStartHead@Struct_Microsoft_Singularity_Services_VolumeManager_PartitionDescriptor@@SIEPAU1@@Z 020677b4 f   VolMgr.obj
 0001:000667e8       ?m_get$_ChsStartCylinder@Struct_Microsoft_Singularity_Services_VolumeManager_PartitionDescriptor@@SIGPAU1@@Z 020677e8 f   VolMgr.obj
 0001:00066830       ?m_get$_ChsEndSector@Struct_Microsoft_Singularity_Services_VolumeManager_PartitionDescriptor@@SIEPAU1@@Z 02067830 f   VolMgr.obj
 0001:00066868       ?m_get$_ChsEndHead@Struct_Microsoft_Singularity_Services_VolumeManager_PartitionDescriptor@@SIEPAU1@@Z 02067868 f   VolMgr.obj
 0001:0006689c       ?m_get$_ChsEndCylinder@Struct_Microsoft_Singularity_Services_VolumeManager_PartitionDescriptor@@SIGPAU1@@Z 0206789c f   VolMgr.obj
 0001:000668e4       ?m_Equals@Struct_Microsoft_Singularity_Services_VolumeManager_PartitionDescriptor@@SI_NPAU1@PAUClass_System_Object@@@Z 020678e4 f   VolMgr.obj
 0001:000669ac       ?m_Equals@Struct_Microsoft_Singularity_Services_VolumeManager_PartitionDescriptor@@SI_NPAUClass_Microsoft_Singularity_Services_VolumeManager_PartitionDescriptor@@PAUClass_System_Object@@@Z 020679ac f   VolMgr.obj
 0001:000669d8       ?m__ctor@Class_System_NotSupportedException@@SIXPAU1@@Z 020679d8 f   VolMgr.obj
 0001:00066a00       ?m__ctor@Class_System_NotSupportedException@@SIXPAU1@PAUClass_System_String@@@Z 02067a00 f   VolMgr.obj
 0001:00066a28       ?g_ReadSector@Class_Microsoft_Singularity_Services_VolumeManager_Disk@@SIPAEPAUStruct_Microsoft_Singularity_Io_DiskDeviceContract_Imp@@_K@Z 02067a28 f   VolMgr.obj
 0001:00066bac       ?g_ParseMasterBootRecord@Class_Microsoft_Singularity_Services_VolumeManager_Disk@@SIPAUClass_System_Collections_ArrayList@@PAUStruct_Microsoft_Singularity_Io_DiskDeviceContract_Imp@@PAE@Z 02067bac f   VolMgr.obj
 0001:0006763c       ?g_ParseExtendedPartition@Class_Microsoft_Singularity_Services_VolumeManager_Disk@@SIXPAUStruct_Microsoft_Singularity_Io_DiskDeviceContract_Imp@@PAUStruct_Microsoft_Singularity_Services_VolumeManager_PartitionDescriptor@@PAEPAUClass_System_Collections_ArrayList@@@Z 0206863c f   VolMgr.obj
 0001:0006795c       ?m_OpenDisk@Class_Microsoft_Singularity_Services_VolumeManager_Disk@@SIPAUStruct_Microsoft_Singularity_Io_DiskDeviceContract_Imp@@PAU1@PAUClass_System_String@@@Z 0206895c f   VolMgr.obj
 0001:00067e10       ?m_MakeTRef@Class_Microsoft_Singularity_Services_VolumeManager_Disk@@SIXPAU1@PAUStruct_Microsoft_Singularity_Io_VolumeManagerContract_Exp@@@Z 02068e10 f   VolMgr.obj
 0001:00067eb0       ?m_Initialize@Class_Microsoft_Singularity_Services_VolumeManager_Disk@@SI_NPAU1@PAUClass_System_String@@@Z 02068eb0 f   VolMgr.obj
 0001:00068010       ?m_GetPartition@Class_Microsoft_Singularity_Services_VolumeManager_Disk@@SI_NPAU1@HPAUStruct_Microsoft_Singularity_Services_VolumeManager_PartitionDescriptor@@@Z 02069010 f   VolMgr.obj
 0001:00068150       ?m_get$_PartitionCount@Class_Microsoft_Singularity_Services_VolumeManager_Disk@@SIHPAU1@@Z 02069150 f   VolMgr.obj
 0001:0006819c       ?g_FetchAndParseExtendedPartition@Class_Microsoft_Singularity_Services_VolumeManager_Disk@@SIXPAUStruct_Microsoft_Singularity_Io_DiskDeviceContract_Imp@@PAUStruct_Microsoft_Singularity_Services_VolumeManager_PartitionDescriptor@@PAUClass_System_Collections_ArrayList@@@Z 0206919c f   VolMgr.obj
 0001:00068330       ?m_AcquireTRef@Class_Microsoft_Singularity_Services_VolumeManager_Disk@@SIPAUStruct_Microsoft_Singularity_Io_VolumeManagerContract_Exp@@PAU1@@Z 02069330 f   VolMgr.obj
 0001:000683c0       ?m__ctor@Class_Microsoft_Singularity_Services_VolumeManager_Disk@@SIXPAU1@@Z 020693c0 f   VolMgr.obj
 0001:000683dc       ?g__cctor@Class_Microsoft_Singularity_Services_VolumeManager_Disk@@SIXXZ 020693dc f   VolMgr.obj
 0001:000684f0       ?g_LoopInvariant@Class_Microsoft_Contracts_AssertHelpers@@SIXPAUClass_System_String@@0@Z 020694f0 f   VolMgr.obj
 0001:0006850c       ?g_AssertStatement@Class_Microsoft_Contracts_AssertHelpers@@SIXPAUClass_System_String@@0@Z 0206950c f   VolMgr.obj
 0001:00068528       ?g_Assert@Class_Microsoft_Contracts_AssertHelpers@@SIX_N@Z 02069528 f   VolMgr.obj
 0001:0006856c       ?m__ctor@Class_Microsoft_Contracts_AssertHelpers@@SIXPAU1@@Z 0206956c f   VolMgr.obj
 0001:00068584       ?m_Finalize@Class__VolMgr_Microsoft_Singularity_Channels_TRef$_2$LMicrosoft_Singularity_Directory_ServiceProviderContract_Exp_Microsoft_Singularity_Directory_ServiceProviderContract_Ack$G@@SIXPAU1@@Z 02069584 f   VolMgr.obj
 0001:00068610       ?m_Acquire@Class__VolMgr_Microsoft_Singularity_Channels_TRef$_2$LMicrosoft_Singularity_Directory_ServiceProviderContract_Exp_Microsoft_Singularity_Directory_ServiceProviderContract_Ack$G@@SIPAUStruct_Microsoft_Singularity_Directory_ServiceProviderContract_Exp@@PAU1@@Z 02069610 f   VolMgr.obj
 0001:000686ac       ?m__ctor@Class__VolMgr_Microsoft_Singularity_Channels_TRef$_2$LMicrosoft_Singularity_Directory_ServiceProviderContract_Exp_Microsoft_Singularity_Directory_ServiceProviderContract_Ack$G@@SIXPAU1@PAUStruct_Microsoft_Singularity_Directory_ServiceProviderContract_Exp@@@Z 020696ac f   VolMgr.obj
 0001:00068750       ?m_ToString@int32@@SIPAUClass_System_String@@PAH@Z 02069750 f   VolMgr.obj
 0001:00068778       ?m_ToString@int32@@SIPAUClass_System_String@@PAHPAU2@@Z 02069778 f   VolMgr.obj
 0001:000687c0       ?m_ToString@int32@@SIPAUClass_System_String@@PAUClass_System_Int32@@@Z 020697c0 f   VolMgr.obj
 0001:000687e8       ?m_ToString@int32@@SIPAUClass_System_String@@PAUClass_System_Int32@@PAU2@@Z 020697e8 f   VolMgr.obj
 0001:00068814       ?m_GetHashCode@int32@@SIHPAH@Z 02069814 f   VolMgr.obj
 0001:00068834       ?m_GetHashCode@int32@@SIHPAUClass_System_Int32@@@Z 02069834 f   VolMgr.obj
 0001:0006885c       ?m_Equals@int32@@SI_NPAHPAUClass_System_Object@@@Z 0206985c f   VolMgr.obj
 0001:000688b8       ?m_Equals@int32@@SI_NPAUClass_System_Int32@@PAUClass_System_Object@@@Z 020698b8 f   VolMgr.obj
 0001:000688e4       ?m_CompareTo@int32@@SIHPAHPAUClass_System_Object@@@Z 020698e4 f   VolMgr.obj
 0001:00068994       ?m_CompareTo@int32@@SIHPAUClass_System_Int32@@PAUClass_System_Object@@@Z 02069994 f   VolMgr.obj
 0001:000689c0       ?m_StructCopy@Struct_Microsoft_Singularity_Isal_IX_Gdte64@@SIXPAU1@0@Z 020699c0 f   VolMgr.obj
 0001:00068a40       ?m_StructCopy@Struct_Microsoft_Singularity_Isal_IX_Gdte64@@SIXPAU1@PAU1@@Z 02069a40 f   VolMgr.obj
 0001:00068bc0       ?m_Equals@Struct_Microsoft_Singularity_Isal_IX_Gdte64@@SI_NPAU1@PAUClass_System_Object@@@Z 02069bc0 f   VolMgr.obj
 0001:00068c70       ?m_Equals@Struct_Microsoft_Singularity_Isal_IX_Gdte64@@SI_NPAUClass_Microsoft_Singularity_Isal_IX_Gdte64@@PAUClass_System_Object@@@Z 02069c70 f   VolMgr.obj
 0001:00068c9c       ?m_Release@Class__VolMgr_Microsoft_Singularity_Channels_TRef$_2$LMicrosoft_Singularity_Directory_NotifyContract_Exp_Microsoft_Singularity_Directory_NotifyContract_Start$G@@SIXPAU1@PAUStruct_Microsoft_Singularity_Directory_NotifyContract_Exp@@@Z 02069c9c f   VolMgr.obj
 0001:00068d20       ?m_Finalize@Class__VolMgr_Microsoft_Singularity_Channels_TRef$_2$LMicrosoft_Singularity_Directory_NotifyContract_Exp_Microsoft_Singularity_Directory_NotifyContract_Start$G@@SIXPAU1@@Z 02069d20 f   VolMgr.obj
 0001:00068dac       ?m_Acquire@Class__VolMgr_Microsoft_Singularity_Channels_TRef$_2$LMicrosoft_Singularity_Directory_NotifyContract_Exp_Microsoft_Singularity_Directory_NotifyContract_Start$G@@SIPAUStruct_Microsoft_Singularity_Directory_NotifyContract_Exp@@PAU1@@Z 02069dac f   VolMgr.obj
 0001:00068e48       ?m__ctor@Class__VolMgr_Microsoft_Singularity_Channels_TRef$_2$LMicrosoft_Singularity_Directory_NotifyContract_Exp_Microsoft_Singularity_Directory_NotifyContract_Start$G@@SIXPAU1@PAUStruct_Microsoft_Singularity_Directory_NotifyContract_Exp@@@Z 02069e48 f   VolMgr.obj
 0001:00068eec       ?m__ctor@Class_System_ApplicationException@@SIXPAU1@@Z 02069eec f   VolMgr.obj
 0001:00068f14       ?m__ctor@Class_System_ApplicationException@@SIXPAU1@PAUClass_System_String@@@Z 02069f14 f   VolMgr.obj
 0001:00068f3c       ?m_StructCopy@Struct_Microsoft_Singularity_Memory_PhysicalAddress@@SIXPAU1@0@Z 02069f3c f   VolMgr.obj
 0001:00068f70       ?m_StructCopy@Struct_Microsoft_Singularity_Memory_PhysicalAddress@@SIXPAU1@PAU1@@Z 02069f70 f   VolMgr.obj
 0001:0006900c       ?g_op$_Equality@Struct_Microsoft_Singularity_Memory_PhysicalAddress@@SI_NU1@0@Z 0206a00c f   VolMgr.obj
 0001:00069054       ?m_GetHashCode@Struct_Microsoft_Singularity_Memory_PhysicalAddress@@SIHPAU1@@Z 0206a054 f   VolMgr.obj
 0001:00069078       ?m_GetHashCode@Struct_Microsoft_Singularity_Memory_PhysicalAddress@@SIHPAUClass_Microsoft_Singularity_Memory_PhysicalAddress@@@Z 0206a078 f   VolMgr.obj
 0001:000690a0       ?m_get$_Value@Struct_Microsoft_Singularity_Memory_PhysicalAddress@@SI_KPAU1@@Z 0206a0a0 f   VolMgr.obj
 0001:000690c4       ?m_Equals@Struct_Microsoft_Singularity_Memory_PhysicalAddress@@SI_NPAU1@PAUClass_System_Object@@@Z 0206a0c4 f   VolMgr.obj
 0001:00069158       ?m_Equals@Struct_Microsoft_Singularity_Memory_PhysicalAddress@@SI_NPAUClass_Microsoft_Singularity_Memory_PhysicalAddress@@PAUClass_System_Object@@@Z 0206a158 f   VolMgr.obj
 0001:00069184       ?m__ctor@Struct_Microsoft_Singularity_Memory_PhysicalAddress@@SIXPAU1@PAUuintPtr@@@Z 0206a184 f   VolMgr.obj
 0001:000691b4       ?m_Visit@Class_System_GCs_MemoryAccounting_RuntimeTypeReckoner@@SIPAUuintPtr@@PAU1@PAUClass_System_Object@@@Z 0206a1b4 f   VolMgr.obj
 0001:000691d0       ?m_Initialize@Class_System_GCs_MemoryAccounting_RuntimeTypeReckoner@@SIXPAU1@_N@Z 0206a1d0 f   VolMgr.obj
 0001:000691ec       ?m__ctor@Class_System_GCs_MemoryAccounting_RuntimeTypeReckoner@@SIXPAU1@@Z 0206a1ec f   VolMgr.obj
 0001:00069204       ?g_get$_NullMessage@Class_System_ArgumentNullException@@SIPAUClass_System_String@@XZ 0206a204 f   VolMgr.obj
 0001:00069230       ?m__ctor@Class_System_ArgumentNullException@@SIXPAU1@@Z 0206a230 f   VolMgr.obj
 0001:00069258       ?m__ctor@Class_System_ArgumentNullException@@SIXPAU1@PAUClass_System_String@@@Z 0206a258 f   VolMgr.obj
 0001:00069288       ?m__ctor@Class_System_ArgumentNullException@@SIXPAU1@PAUClass_System_String@@1@Z 0206a288 f   VolMgr.obj
 0001:000692b8       ?g__cctor@Class_System_ArgumentNullException@@SIXXZ 0206a2b8 f   VolMgr.obj
 0001:000692cc       ?m__ctor@Class_System_OverflowException@@SIXPAU1@@Z 0206a2cc f   VolMgr.obj
 0001:000692f4       ?m__ctor@Class_System_OverflowException@@SIXPAU1@PAUClass_System_String@@@Z 0206a2f4 f   VolMgr.obj
 0001:0006931c       ?m__ctor@Class_System_OverflowException@@SIXPAU1@PAUClass_System_String@@PAUClass_System_Exception@@@Z 0206a31c f   VolMgr.obj
 0001:0006934c       ?m__ctor@Class_System_ArithmeticException@@SIXPAU1@@Z 0206a34c f   VolMgr.obj
 0001:00069374       ?m__ctor@Class_System_ArithmeticException@@SIXPAU1@PAUClass_System_String@@@Z 0206a374 f   VolMgr.obj
 0001:0006939c       ?m__ctor@Class_System_ArithmeticException@@SIXPAU1@PAUClass_System_String@@PAUClass_System_Exception@@@Z 0206a39c f   VolMgr.obj
 0001:000693cc       ?m_StructCopy@Struct_Microsoft_Singularity_Directory_DirectoryServiceContract_AckCreateLink@@SIXPAU1@0@Z 0206a3cc f   VolMgr.obj
 0001:000693e8       ?m_StructCopy@Struct_Microsoft_Singularity_Directory_DirectoryServiceContract_AckCreateLink@@SIXPAU1@PAU1@@Z 0206a3e8 f   VolMgr.obj
 0001:0006943c       ?m_Equals@Struct_Microsoft_Singularity_Directory_DirectoryServiceContract_AckCreateLink@@SI_NPAU1@PAUClass_System_Object@@@Z 0206a43c f   VolMgr.obj
 0001:00069474       ?m_Equals@Struct_Microsoft_Singularity_Directory_DirectoryServiceContract_AckCreateLink@@SI_NPAUClass_Microsoft_Singularity_Directory_DirectoryServiceContract_AckCreateLink@@PAUClass_System_Object@@@Z 0206a474 f   VolMgr.obj
 0001:000694a0       ?m_System_Collections_IEnumerable_GetEnumerator@Class_System_Collections_Hashtable@@SIPAUClass_System_Collections_IEnumerator@@PAU1@@Z 0206a4a0 f   VolMgr.obj
 0001:000694e4       ?m_set$_Item@Class_System_Collections_Hashtable@@SIXPAU1@PAUClass_System_Object@@1@Z 0206a4e4 f   VolMgr.obj
 0001:00069514       ?m_set$_hcp@Class_System_Collections_Hashtable@@SIXPAU1@PAUClass_System_Collections_IHashCodeProvider@@@Z 0206a514 f   VolMgr.obj
 0001:0006953c       ?m_set$_comparer@Class_System_Collections_Hashtable@@SIXPAU1@PAUClass_System_Collections_IComparer@@@Z 0206a53c f   VolMgr.obj
 0001:00069564       ?m_Remove@Class_System_Collections_Hashtable@@SIXPAU1@PAUClass_System_Object@@@Z 0206a564 f   VolMgr.obj
 0001:000697a4       ?m_rehash@Class_System_Collections_Hashtable@@SIXPAU1@@Z 0206a7a4 f   VolMgr.obj
 0001:000697d0       ?m_rehash@Class_System_Collections_Hashtable@@SIXPAU1@H@Z 0206a7d0 f   VolMgr.obj
 0001:00069930       ?m_putEntry@Class_System_Collections_Hashtable@@SIXPAU1@PAUClassVector_Struct_System_Collections_Hashtable_bucket@@PAUClass_System_Object@@2H@Z 0206a930 f   VolMgr.obj
 0001:00069a38       ?m_KeyEquals@Class_System_Collections_Hashtable@@SI_NPAU1@PAUClass_System_Object@@1@Z 0206aa38 f   VolMgr.obj
 0001:00069ab0       ?m_Insert@Class_System_Collections_Hashtable@@SIXPAU1@PAUClass_System_Object@@1_N@Z 0206aab0 f   VolMgr.obj
 0001:00069efc       ?m_InitHash@Class_System_Collections_Hashtable@@SIIPAU1@PAUClass_System_Object@@HPAI2@Z 0206aefc f   VolMgr.obj
 0001:00069f68       ?m_GetPrime@Class_System_Collections_Hashtable@@SIHPAU1@H@Z 0206af68 f   VolMgr.obj
 0001:0006a02c       ?m_GetHash@Class_System_Collections_Hashtable@@SIHPAU1@PAUClass_System_Object@@@Z 0206b02c f   VolMgr.obj
 0001:0006a094       ?m_GetEnumerator@Class_System_Collections_Hashtable@@SIPAUClass_System_Collections_IDictionaryEnumerator@@PAU1@@Z 0206b094 f   VolMgr.obj
 0001:0006a0d8       ?m_get$_Item@Class_System_Collections_Hashtable@@SIPAUClass_System_Object@@PAU1@PAU2@@Z 0206b0d8 f   VolMgr.obj
 0001:0006a2c4       ?m_get$_hcp@Class_System_Collections_Hashtable@@SIPAUClass_System_Collections_IHashCodeProvider@@PAU1@@Z 0206b2c4 f   VolMgr.obj
 0001:0006a2e4       ?m_get$_comparer@Class_System_Collections_Hashtable@@SIPAUClass_System_Collections_IComparer@@PAU1@@Z 0206b2e4 f   VolMgr.obj
 0001:0006a304       ?m_expand@Class_System_Collections_Hashtable@@SIXPAU1@@Z 0206b304 f   VolMgr.obj
 0001:0006a340       ?m__ctor@Class_System_Collections_Hashtable@@SIXPAU1@@Z 0206b340 f   VolMgr.obj
 0001:0006a368       ?m__ctor@Class_System_Collections_Hashtable@@SIXPAU1@HH@Z 0206b368 f   VolMgr.obj
 0001:0006a39c       ?m__ctor@Class_System_Collections_Hashtable@@SIXPAU1@HHPAUClass_System_Collections_IHashCodeProvider@@PAUClass_System_Collections_IComparer@@@Z 0206b39c f   VolMgr.obj
 0001:0006a520       ?g__cctor@Class_System_Collections_Hashtable@@SIXXZ 0206b520 f   VolMgr.obj
 0001:0006a534       ?m_StructCopy@Struct_Microsoft_Singularity_Io_DiskDeviceContract_NoSystemId@@SIXPAU1@0@Z 0206b534 f   VolMgr.obj
 0001:0006a550       ?m_StructCopy@Struct_Microsoft_Singularity_Io_DiskDeviceContract_NoSystemId@@SIXPAU1@PAU1@@Z 0206b550 f   VolMgr.obj
 0001:0006a5a4       ?m_Equals@Struct_Microsoft_Singularity_Io_DiskDeviceContract_NoSystemId@@SI_NPAU1@PAUClass_System_Object@@@Z 0206b5a4 f   VolMgr.obj
 0001:0006a5dc       ?m_Equals@Struct_Microsoft_Singularity_Io_DiskDeviceContract_NoSystemId@@SI_NPAUClass_Microsoft_Singularity_Io_DiskDeviceContract_NoSystemId@@PAUClass_System_Object@@@Z 0206b5dc f   VolMgr.obj
 0001:0006a608       ?m_StructCopy@Struct_Microsoft_Singularity_V1_Services_PlatformService@@SIXPAU1@0@Z 0206b608 f   VolMgr.obj
 0001:0006a624       ?m_StructCopy@Struct_Microsoft_Singularity_V1_Services_PlatformService@@SIXPAU1@PAU1@@Z 0206b624 f   VolMgr.obj
 0001:0006a678       ?m_Equals@Struct_Microsoft_Singularity_V1_Services_PlatformService@@SI_NPAU1@PAUClass_System_Object@@@Z 0206b678 f   VolMgr.obj
 0001:0006a6b0       ?m_Equals@Struct_Microsoft_Singularity_V1_Services_PlatformService@@SI_NPAUClass_Microsoft_Singularity_V1_Services_PlatformService@@PAUClass_System_Object@@@Z 0206b6b0 f   VolMgr.obj
 0001:0006a6dc       ?m_Push@Class_System_Collections_Stack@@SIXPAU1@PAUClass_System_Object@@@Z 0206b6dc f   VolMgr.obj
 0001:0006a788       ?m_Pop@Class_System_Collections_Stack@@SIPAUClass_System_Object@@PAU1@@Z 0206b788 f   VolMgr.obj
 0001:0006a820       ?m_GetEnumerator@Class_System_Collections_Stack@@SIPAUClass_System_Collections_IEnumerator@@PAU1@@Z 0206b820 f   VolMgr.obj
 0001:0006a864       ?m_get$_Count@Class_System_Collections_Stack@@SIHPAU1@@Z 0206b864 f   VolMgr.obj
 0001:0006a884       ?m__ctor@Class_System_Collections_Stack@@SIXPAU1@@Z 0206b884 f   VolMgr.obj
 0001:0006a8c8       ?m_ThreadStartNotification@Class_System_GCs_BaseCollector@@SIXPAU1@H@Z 0206b8c8 f   VolMgr.obj
 0001:0006a8e4       ?m_ThreadDormantGCNotification@Class_System_GCs_BaseCollector@@SIXPAU1@H@Z 0206b8e4 f   VolMgr.obj
 0001:0006a900       ?g_StartGCCycle@Class_System_GCs_BaseCollector@@SIXXZ 0206b900 f   VolMgr.obj
 0001:0006a94c       ?m_Shutdown@Class_System_GCs_BaseCollector@@SIXPAU1@@Z 0206b94c f   VolMgr.obj
 0001:0006a968       ?m_SetProfiler@Class_System_GCs_BaseCollector@@SIXPAU1@PAUClass_System_GCs_GCProfiler@@@Z 0206b968 f   VolMgr.obj
 0001:0006aa18       ?g_RegisterPause@Class_System_GCs_BaseCollector@@SIXH@Z 0206ba18 f   VolMgr.obj
 0001:0006aab0       ?m_RegisterHeapSize@Class_System_GCs_BaseCollector@@SIXPAU1@_K@Z 0206bab0 f   VolMgr.obj
 0001:0006aacc       ?m_ProfileScanRoots@Class_System_GCs_BaseCollector@@SIXPAU1@PAUClass_System_GCs_NonNullReferenceVisitor@@@Z 0206bacc f   VolMgr.obj
 0001:0006ab10       ?m_ProfileScanObjects@Class_System_GCs_BaseCollector@@SIXPAU1@PAUClass_System_GCs_SegregatedFreeList_ObjectVisitor@@@Z 0206bb10 f   VolMgr.obj
 0001:0006b2b0       ?m_ProfileAllocation@Class_System_GCs_BaseCollector@@SIXPAU1@PAUClass_System_Object@@@Z 0206c2b0 f   VolMgr.obj
 0001:0006b35c       ?m_PrintGCTiming@Class_System_GCs_BaseCollector@@SIXPAU1@@Z 0206c35c f   VolMgr.obj
 0001:0006b404       ?m_PrintAllocations@Class_System_GCs_BaseCollector@@SIXPAU1@@Z 0206c404 f   VolMgr.obj
 0001:0006b420       ?m_NewThreadNotification@Class_System_GCs_BaseCollector@@SIXPAU1@PAUClass_System_Threading_Thread@@_N@Z 0206c420 f   VolMgr.obj
 0001:0006b44c       ?g_NewBytesSinceGCExceeds@Class_System_GCs_BaseCollector@@SI_NPAUuintPtr@@@Z 0206c44c f   VolMgr.obj
 0001:0006b474       ?g_IncrementNewBytesSinceGC@Class_System_GCs_BaseCollector@@SIXPAUuintPtr@@@Z 0206c474 f   VolMgr.obj
 0001:0006b4a0       ?g_get$_DebugNewBytesSinceGC@Class_System_GCs_BaseCollector@@SIPAUuintPtr@@XZ 0206c4a0 f   VolMgr.obj
 0001:0006b4b8       ?m_DestructHeap@Class_System_GCs_BaseCollector@@SIXPAU1@@Z 0206c4b8 f   VolMgr.obj
 0001:0006b4f4       ?m_DeadThreadNotification@Class_System_GCs_BaseCollector@@SIXPAU1@PAUClass_System_Threading_Thread@@@Z 0206c4f4 f   VolMgr.obj
 0001:0006b510       ?m_CreateObject@Class_System_GCs_BaseCollector@@SIXPAU1@PAUClass_System_Object@@PAUClass_System_VTable@@PAUClass_System_Threading_Thread@@@Z 0206c510 f   VolMgr.obj
 0001:0006b548       ?g_AllThreadRendezvous@Class_System_GCs_BaseCollector@@SIXH@Z 0206c548 f   VolMgr.obj
 0001:0006b8d4       ?g_AllThreadRelease@Class_System_GCs_BaseCollector@@SIXH@Z 0206c8d4 f   VolMgr.obj
 0001:0006bcc0       ?m_AllocateVector@Class_System_GCs_BaseCollector@@SIPAUClass_System_Array@@PAU1@PAUClass_System_VTable@@HPAUClass_System_Threading_Thread@@@Z 0206ccc0 f   VolMgr.obj
 0001:0006bd60       ?m_AllocateString@Class_System_GCs_BaseCollector@@SIPAUClass_System_String@@PAU1@HPAUClass_System_Threading_Thread@@@Z 0206cd60 f   VolMgr.obj
 0001:0006be1c       ?m_AllocateObject@Class_System_GCs_BaseCollector@@SIPAUClass_System_Object@@PAU1@PAUClass_System_VTable@@PAUuintPtr@@IPAUClass_System_Threading_Thread@@@Z 0206ce1c f   VolMgr.obj
 0001:0006be94       ?m_AllocateObject@Class_System_GCs_BaseCollector@@SIPAUClass_System_Object@@PAU1@PAUClass_System_VTable@@PAUClass_System_Threading_Thread@@@Z 0206ce94 f   VolMgr.obj
 0001:0006bedc       ?m__ctor@Class_System_GCs_BaseCollector@@SIXPAU1@@Z 0206cedc f   VolMgr.obj
 0001:0006bf00       ?m_SetProfiler@Class_System_GCs_Collector@@SIXPAU1@PAUClass_System_GCs_GCProfiler@@@Z 0206cf00 f   VolMgr.obj
 0001:0006bf1c       ?m_ProfileAllocation@Class_System_GCs_Collector@@SIXPAU1@PAUClass_System_Object@@@Z 0206cf1c f   VolMgr.obj
 0001:0006bf38       ?m__ctor@Class_System_GCs_Collector@@SIXPAU1@@Z 0206cf38 f   VolMgr.obj
 0001:0006bf54       ?m_StructCopy@Struct_Microsoft_Singularity_Directory_DirectoryServiceContract_NakBind@@SIXPAU1@0@Z 0206cf54 f   VolMgr.obj
 0001:0006bf88       ?m_StructCopy@Struct_Microsoft_Singularity_Directory_DirectoryServiceContract_NakBind@@SIXPAU1@PAU1@@Z 0206cf88 f   VolMgr.obj
 0001:0006c024       ?m_Equals@Struct_Microsoft_Singularity_Directory_DirectoryServiceContract_NakBind@@SI_NPAU1@PAUClass_System_Object@@@Z 0206d024 f   VolMgr.obj
 0001:0006c0d8       ?m_Equals@Struct_Microsoft_Singularity_Directory_DirectoryServiceContract_NakBind@@SI_NPAUClass_Microsoft_Singularity_Directory_DirectoryServiceContract_NakBind@@PAUClass_System_Object@@@Z 0206d0d8 f   VolMgr.obj
 0001:0006c104       ?m_StructCopy@Struct_Microsoft_Singularity_Io_DiskDeviceContract_SystemId@@SIXPAU1@0@Z 0206d104 f   VolMgr.obj
 0001:0006c12c       ?m_StructCopy@Struct_Microsoft_Singularity_Io_DiskDeviceContract_SystemId@@SIXPAU1@PAU1@@Z 0206d12c f   VolMgr.obj
 0001:0006c1a4       ?m_Equals@Struct_Microsoft_Singularity_Io_DiskDeviceContract_SystemId@@SI_NPAU1@PAUClass_System_Object@@@Z 0206d1a4 f   VolMgr.obj
 0001:0006c1ec       ?m_Equals@Struct_Microsoft_Singularity_Io_DiskDeviceContract_SystemId@@SI_NPAUClass_Microsoft_Singularity_Io_DiskDeviceContract_SystemId@@PAUClass_System_Object@@@Z 0206d1ec f   VolMgr.obj
 0001:0006c218       ?m_Register@Class_Microsoft_Singularity_Eventing_EventSource@@SI_NPAU1@@Z 0206d218 f   VolMgr.obj
 0001:0006c250       ?m_Finalize@Class_Microsoft_Singularity_Eventing_EventSource@@SIXPAU1@@Z 0206d250 f   VolMgr.obj
 0001:0006c298       ?m__ctor@Class_Microsoft_Singularity_Eventing_EventSource@@SIXPAU1@@Z 0206d298 f   VolMgr.obj
 0001:0006c2bc       ?m__ctor@Class_Microsoft_Singularity_Eventing_EventSource@@SIXPAU1@PAUClass_System_String@@PAUClass_Microsoft_Singularity_Eventing_EventingStorage@@I@Z 0206d2bc f   VolMgr.obj
 0001:0006c33c       ?m__ctor@Class_Microsoft_Singularity_Eventing_EventSource@@SIXPAU1@PAUClass_Microsoft_Singularity_Eventing_Controller@@PAUClass_System_String@@PAUuintPtr@@@Z 0206d33c f   VolMgr.obj
 0001:0006c390       ?m__ctor@Class_System_Runtime_CompilerServices_ExternalEntryPointAttribute@@SIXPAU1@@Z 0206d390 f   VolMgr.obj
 0001:0006c3b4       ?g_IsInst@Class_Microsoft_Singularity_Channels_ExHeap@@SI_NPAUvoid@@PAUClass_System_Type@@@Z 0206d3b4 f   VolMgr.obj
 0001:0006c43c       ?g_IndirectToData@Class_Microsoft_Singularity_Channels_ExHeap@@SIPAUvoid@@PAU2@@Z 0206d43c f   VolMgr.obj
 0001:0006c4f8       ?g_GetSize@Class_Microsoft_Singularity_Channels_ExHeap@@SIPAUuintPtr@@PAUvoid@@@Z 0206d4f8 f   VolMgr.obj
 0001:0006c56c       ?g_Free@Class_Microsoft_Singularity_Channels_ExHeap@@SIXPAUvoid@@@Z 0206d56c f   VolMgr.obj
 0001:0006c628       ?g_AllocateVector@Class_Microsoft_Singularity_Channels_ExHeap@@SIPAUvoid@@PAUClass_System_Type@@H@Z 0206d628 f   VolMgr.obj
 0001:0006c768       ?m__ctor@Class_Microsoft_Singularity_Channels_ExHeap@@SIXPAU1@@Z 0206d768 f   VolMgr.obj
 0001:0006c780       ?m__ctor@Class_Microsoft_SingSharp_CustomAllocator@@SIXPAU1@@Z 0206d780 f   VolMgr.obj
 0001:0006c798       ?m_StructCopy@Struct_Microsoft_Singularity_Io_DiskDeviceContract_GetDeviceName@@SIXPAU1@0@Z 0206d798 f   VolMgr.obj
 0001:0006c7b4       ?m_StructCopy@Struct_Microsoft_Singularity_Io_DiskDeviceContract_GetDeviceName@@SIXPAU1@PAU1@@Z 0206d7b4 f   VolMgr.obj
 0001:0006c808       ?m_Equals@Struct_Microsoft_Singularity_Io_DiskDeviceContract_GetDeviceName@@SI_NPAU1@PAUClass_System_Object@@@Z 0206d808 f   VolMgr.obj
 0001:0006c840       ?m_Equals@Struct_Microsoft_Singularity_Io_DiskDeviceContract_GetDeviceName@@SI_NPAUClass_Microsoft_Singularity_Io_DiskDeviceContract_GetDeviceName@@PAUClass_System_Object@@@Z 0206d840 f   VolMgr.obj
 0001:0006c86c       ?m_StructCopy@Struct_Microsoft_Singularity_Io_DiskDeviceContract_Read@@SIXPAU1@0@Z 0206d86c f   VolMgr.obj
 0001:0006c8dc       ?m_StructCopy@Struct_Microsoft_Singularity_Io_DiskDeviceContract_Read@@SIXPAU1@PAU1@@Z 0206d8dc f   VolMgr.obj
 0001:0006ca2c       ?m_MarshallContent@Struct_Microsoft_Singularity_Io_DiskDeviceContract_Read@@SIXPAU1@PAEPAUStruct_Microsoft_Singularity_Channels_Endpoint@@1PAH@Z 0206da2c f   VolMgr.obj
 0001:0006cad4       ?m_MarshallAll@Struct_Microsoft_Singularity_Io_DiskDeviceContract_Read@@SIXPAU1@PAEPAUStruct_Microsoft_Singularity_Channels_Endpoint@@PAH@Z 0206dad4 f   VolMgr.obj
 0001:0006cb2c       ?m_Equals@Struct_Microsoft_Singularity_Io_DiskDeviceContract_Read@@SI_NPAU1@PAUClass_System_Object@@@Z 0206db2c f   VolMgr.obj
 0001:0006cbf0       ?m_Equals@Struct_Microsoft_Singularity_Io_DiskDeviceContract_Read@@SI_NPAUClass_Microsoft_Singularity_Io_DiskDeviceContract_Read@@PAUClass_System_Object@@@Z 0206dbf0 f   VolMgr.obj
 0001:0006cc1c       ?g_DoCallback@Class_Microsoft_Singularity_Isal_Isa_ICallback@@SIPAUuintPtr@@PAU1@PAU2@@Z 0206dc1c f   VolMgr.obj
 0001:0006cc54       ?m__ctor@Class_Microsoft_Singularity_Isal_Isa_ICallback@@SIXPAU1@@Z 0206dc54 f   VolMgr.obj
 0001:0006cc70       ?m_Visit@Struct_System_STMWord@@SIXPAU1@PAUClass_System_GCs_DirectReferenceVisitor@@@Z 0206dc70 f   VolMgr.obj
 0001:0006cd08       ?m_ToString@Struct_System_STMWord@@SIPAUClass_System_String@@PAU1@@Z 0206dd08 f   VolMgr.obj
 0001:0006ce0c       ?m_ToString@Struct_System_STMWord@@SIPAUClass_System_String@@PAUClass_System_STMWord@@@Z 0206de0c f   VolMgr.obj
 0001:0006ce34       ?m_StructCopy@Struct_System_STMWord@@SIXPAU1@0@Z 0206de34 f   VolMgr.obj
 0001:0006ce5c       ?m_StructCopy@Struct_System_STMWord@@SIXPAU1@PAU1@@Z 0206de5c f   VolMgr.obj
 0001:0006ced4       ?m_IsQuiescent@Struct_System_STMWord@@SI_NPAU1@@Z 0206ded4 f   VolMgr.obj
 0001:0006cefc       ?m_IsOwned@Struct_System_STMWord@@SI_NPAU1@@Z 0206defc f   VolMgr.obj
 0001:0006cf24       ?m_GetPayload@Struct_System_STMWord@@SIPAUuintPtr@@PAU1@@Z 0206df24 f   VolMgr.obj
 0001:0006cf48       ?m_GetOwnersVersion@Struct_System_STMWord@@SI?AU1@PAU1@@Z 0206df48 f   VolMgr.obj
 0001:0006cfac       ?m_GetOwner@Struct_System_STMWord@@SIPAUClass_System_TryAllManager@@PAU1@@Z 0206dfac f   VolMgr.obj
 0001:0006d010       ?m_Equals@Struct_System_STMWord@@SI_NPAU1@PAUClass_System_Object@@@Z 0206e010 f   VolMgr.obj
 0001:0006d058       ?m_Equals@Struct_System_STMWord@@SI_NPAUClass_System_STMWord@@PAUClass_System_Object@@@Z 0206e058 f   VolMgr.obj
 0001:0006d084       ?m_Eq@Struct_System_STMWord@@SI_NPAU1@U1@@Z 0206e084 f   VolMgr.obj
 0001:0006d0b0       ?m_Eq@Struct_System_STMWord@@SI_NPAU1@UStruct_System_MultiUseWord_STMSnapshot@@@Z 0206e0b0 f   VolMgr.obj
 0001:0006d1a4       ?m__ctor@Struct_System_STMWord@@SIXPAU1@PAUuintPtr@@@Z 0206e1a4 f   VolMgr.obj
 0001:0006d1c8       ?m__ctor@Struct_System_STMWord@@SIXPAU1@PAUuintPtr@@_N@Z 0206e1c8 f   VolMgr.obj
 0001:0006d21c       ?m_StructCopy@Struct_Microsoft_Singularity_Isal_CpuRecord@@SIXPAU1@0@Z 0206e21c f   VolMgr.obj
 0001:0006d294       ?m_StructCopy@Struct_Microsoft_Singularity_Isal_CpuRecord@@SIXPAU1@PAU1@@Z 0206e294 f   VolMgr.obj
 0001:0006d3fc       ?m_Equals@Struct_Microsoft_Singularity_Isal_CpuRecord@@SI_NPAU1@PAUClass_System_Object@@@Z 0206e3fc f   VolMgr.obj
 0001:0006d578       ?m_Equals@Struct_Microsoft_Singularity_Isal_CpuRecord@@SI_NPAUClass_Microsoft_Singularity_Isal_CpuRecord@@PAUClass_System_Object@@@Z 0206e578 f   VolMgr.obj
 0001:0006d5a4       ?g_VisitWeakRefsPhase2@Class_System_TryAllManager@@SIXPAU1@PAUClass_System_GCs_DirectReferenceVisitor@@@Z 0206e5a4 f   VolMgr.obj
 0001:0006d61c       ?g_VisitWeakRefsPhase1@Class_System_TryAllManager@@SIXPAU1@PAUClass_System_GCs_DirectReferenceVisitor@@@Z 0206e61c f   VolMgr.obj
 0001:0006d660       ?g_VisitWeakRefs@Class_System_TryAllManager@@SIXPAUClass_System_GCs_DirectReferenceVisitor@@@Z 0206e660 f   VolMgr.obj
 0001:0006d68c       ?g_VisitStrongRefs@Class_System_TryAllManager@@SIXPAU1@PAUClass_System_GCs_DirectReferenceVisitor@@@Z 0206e68c f   VolMgr.obj
 0001:0006d6d8       ?g_VisitStrongRefs@Class_System_TryAllManager@@SIXPAUClass_System_GCs_DirectReferenceVisitor@@@Z 0206e6d8 f   VolMgr.obj
 0001:0006d704       ?m_startNestedTryAllHelper@Class_System_TryAllManager@@SIXPAU1@_NH@Z 0206e704 f   VolMgr.obj
 0001:0006d91c       ?m_Shake@Class_System_TryAllManager@@SIXPAU1@_N@Z 0206e91c f   VolMgr.obj
 0001:0006d938       ?g_SetDuringGC@Class_System_TryAllManager@@SIX_N@Z 0206e938 f   VolMgr.obj
 0001:0006d954       ?g_ReplenishTokens@Class_System_TryAllManager@@SIXXZ 0206e954 f   VolMgr.obj
 0001:0006da2c       ?g_RemoveCache@Class_System_TryAllManager@@SIXPAU1@@Z 0206ea2c f   VolMgr.obj
 0001:0006da50       ?g_ReadBarrier@Class_System_TryAllManager@@SIPAUClass_System_Object@@PAUClass_System_GCs_DirectReferenceVisitor@@PAU2@@Z 0206ea50 f   VolMgr.obj
 0001:0006dab0       ?g_PreGCHookTryAll@Class_System_TryAllManager@@SIXXZ 0206eab0 f   VolMgr.obj
 0001:0006dad4       ?g_PostGCHookTryAll@Class_System_TryAllManager@@SIXXZ 0206ead4 f   VolMgr.obj
 0001:0006daf8       ?m_InitLocallyAllocatedSTMWords@Class_System_TryAllManager@@SIXPAU1@@Z 0206eaf8 f   VolMgr.obj
 0001:0006dc70       ?g_EnsureCache@Class_System_TryAllManager@@SIXPAU1@@Z 0206ec70 f   VolMgr.obj
 0001:0006dccc       ?g_DumpPerCallSiteStats@Class_System_TryAllManager@@SIXXZ 0206eccc f   VolMgr.obj
 0001:0006dce0       ?g_doVisitWeakRefs@Class_System_TryAllManager@@SIXPAUClass_System_GCs_DirectReferenceVisitor@@@Z 0206ece0 f   VolMgr.obj
 0001:0006de28       ?g_doVisitStrongRefs@Class_System_TryAllManager@@SIXPAUClass_System_GCs_DirectReferenceVisitor@@@Z 0206ee28 f   VolMgr.obj
 0001:0006df00       ?g_doPreGCHook@Class_System_TryAllManager@@SIXXZ 0206ef00 f   VolMgr.obj
 0001:0006dfec       ?g_doPostGCHook@Class_System_TryAllManager@@SIXXZ 0206efec f   VolMgr.obj
 0001:0006e268       ?m_becomeInvalid@Class_System_TryAllManager@@SIXPAU1@_N@Z 0206f268 f   VolMgr.obj
 0001:0006e2e0       ?m_AllocLocallyAllocatedSTMWords@Class_System_TryAllManager@@SIXPAU1@@Z 0206f2e0 f   VolMgr.obj
 0001:0006e390       ?m__ctor@Class_System_TryAllManager@@SIXPAU1@@Z 0206f390 f   VolMgr.obj
 0001:0006e75c       ?g__cctor@Class_System_TryAllManager@@SIXXZ 0206f75c f   VolMgr.obj
 0001:0006e78c       ?m__ctor@Class_System_Globalization_CultureInfo@@SIXPAU1@@Z 0206f78c f   VolMgr.obj
 0001:0006e7a8       ?g__cctor@Class_System_Globalization_CultureInfo@@SIXXZ 0206f7a8 f   VolMgr.obj
 0001:0006ecb0       ?m_StructCopy@Struct_Microsoft_Singularity_Io_DiskDeviceContract_AckGetSectorCount@@SIXPAU1@0@Z 0206fcb0 f   VolMgr.obj
 0001:0006ece4       ?m_StructCopy@Struct_Microsoft_Singularity_Io_DiskDeviceContract_AckGetSectorCount@@SIXPAU1@PAU1@@Z 0206fce4 f   VolMgr.obj
 0001:0006ed80       ?m_Equals@Struct_Microsoft_Singularity_Io_DiskDeviceContract_AckGetSectorCount@@SI_NPAU1@PAUClass_System_Object@@@Z 0206fd80 f   VolMgr.obj
 0001:0006edec       ?m_Equals@Struct_Microsoft_Singularity_Io_DiskDeviceContract_AckGetSectorCount@@SI_NPAUClass_Microsoft_Singularity_Io_DiskDeviceContract_AckGetSectorCount@@PAUClass_System_Object@@@Z 0206fdec f   VolMgr.obj
 0001:0006ee18       ?m_StructCopy@Struct_Microsoft_Singularity_Directory_DirectoryServiceContract_NakDeleteFile@@SIXPAU1@0@Z 0206fe18 f   VolMgr.obj
 0001:0006ee40       ?m_StructCopy@Struct_Microsoft_Singularity_Directory_DirectoryServiceContract_NakDeleteFile@@SIXPAU1@PAU1@@Z 0206fe40 f   VolMgr.obj
 0001:0006eeb8       ?m_Equals@Struct_Microsoft_Singularity_Directory_DirectoryServiceContract_NakDeleteFile@@SI_NPAU1@PAUClass_System_Object@@@Z 0206feb8 f   VolMgr.obj
 0001:0006ef58       ?m_Equals@Struct_Microsoft_Singularity_Directory_DirectoryServiceContract_NakDeleteFile@@SI_NPAUClass_Microsoft_Singularity_Directory_DirectoryServiceContract_NakDeleteFile@@PAUClass_System_Object@@@Z 0206ff58 f   VolMgr.obj
 0001:0006ef84       ?m_Visit@Class_System_GCs_MarkSweepCollector_ThreadMarkReferenceVisitor@@SIXPAU1@PAPAUuintPtr@@@Z 0206ff84 f   VolMgr.obj
 0001:0006f374       ?m__ctor@Class_System_GCs_MarkSweepCollector_ThreadMarkReferenceVisitor@@SIXPAU1@@Z 02070374 f   VolMgr.obj
 0001:0006f398       ?m_VisitReferenceFields@Class_System_GCs_NonNullReferenceVisitor@@SIPAUuintPtr@@PAU1@PAU2@PAUClass_System_VTable@@@Z 02070398 f   VolMgr.obj
 0001:0006fb34       ?m_VisitReferenceFields@Class_System_GCs_NonNullReferenceVisitor@@SIPAUuintPtr@@PAU1@PAUClass_System_Object@@@Z 02070b34 f   VolMgr.obj
 0001:0006fb80       ?m_Filter@Class_System_GCs_NonNullReferenceVisitor@@SIXPAU1@PAPAUuintPtr@@PAUStruct_System_GCs_ReferenceVisitor_ObjectDescriptor@@@Z 02070b80 f   VolMgr.obj
 0001:0006fbb8       ?m__ctor@Class_System_GCs_NonNullReferenceVisitor@@SIXPAU1@@Z 02070bb8 f   VolMgr.obj
 0001:0006fbdc       ?m__ctor@Class_System_GCs_DirectReferenceVisitor@@SIXPAU1@@Z 02070bdc f   VolMgr.obj
 0001:0006fc00       ?m_VisitReferenceFieldsTemplateNoInline@Class_System_GCs_ReferenceVisitor@@SIPAUuintPtr@@PAU1@PAUStruct_System_GCs_ReferenceVisitor_ObjectDescriptor@@@Z 02070c00 f   VolMgr.obj
 0001:000701ec       ?m_VisitReferenceFieldsTemplate@Class_System_GCs_ReferenceVisitor@@SIPAUuintPtr@@PAU1@PAUStruct_System_GCs_ReferenceVisitor_ObjectDescriptor@@@Z 020711ec f   VolMgr.obj
 0001:00070700       ?m_VisitReferenceFieldsTemplate@Class_System_GCs_ReferenceVisitor@@SIXPAU1@PAUStruct_System_GCs_ReferenceVisitor_ObjectDescriptor@@H@Z 02071700 f   VolMgr.obj
 0001:000708ec       ?m_VisitReferenceFields@Class_System_GCs_ReferenceVisitor@@SIPAUuintPtr@@PAU1@PAUClass_System_Object@@@Z 020718ec f   VolMgr.obj
 0001:00070938       ?m__ctor@Class_System_GCs_ReferenceVisitor@@SIXPAU1@@Z 02071938 f   VolMgr.obj
 0001:00070954       ?g_WaitForGCEvent@Class_System_Threading_Thread@@SI_NH@Z 02071954 f   VolMgr.obj
 0001:000709a4       ?g_VisitBootstrapData@Class_System_Threading_Thread@@SIXPAUClass_System_GCs_ReferenceVisitor@@@Z 020719a4 f   VolMgr.obj
 0001:000709e0       ?g_ThreadStub@Class_System_Threading_Thread@@SIXH@Z 020719e0 f   VolMgr.obj
 0001:00070e58       ?m_Start@Class_System_Threading_Thread@@SIXPAU1@@Z 02071e58 f   VolMgr.obj
 0001:00070f5c       ?g_SignalGCEvent@Class_System_Threading_Thread@@SIXH@Z 02071f5c f   VolMgr.obj
 0001:00070fb4       ?m_SetIgnoredByJoinAll@Class_System_Threading_Thread@@SIXPAU1@@Z 02071fb4 f   VolMgr.obj
 0001:00070fd4       ?m_set$_DebugName@Class_System_Threading_Thread@@SIXPAU1@PAUClass_System_String@@@Z 02071fd4 f   VolMgr.obj
 0001:00070ffc       ?g_RemoveThread@Class_System_Threading_Thread@@SIXH@Z 02071ffc f   VolMgr.obj
 0001:000710b0       ?m_PushSelectSyncHandles@Class_System_Threading_Thread@@SIXPAU1@PAUClassVector_Struct_Microsoft_Singularity_V1_Threads_SyncHandle@@@Z 020720b0 f   VolMgr.obj
 0001:00071128       ?m_PushSelectObjects@Class_System_Threading_Thread@@SIXPAU1@PAUClassVector_Class_Microsoft_Singularity_Channels_ISelectable@@@Z 02072128 f   VolMgr.obj
 0001:0007119c       ?m_PushSelectBools@Class_System_Threading_Thread@@SIXPAU1@PAUClassVector_bool@@@Z 0207219c f   VolMgr.obj
 0001:000711c8       ?m_PopSelectSyncHandles@Class_System_Threading_Thread@@SIPAUClassVector_Struct_Microsoft_Singularity_V1_Threads_SyncHandle@@PAU1@H@Z 020721c8 f   VolMgr.obj
 0001:0007127c       ?m_PopSelectObjects@Class_System_Threading_Thread@@SIPAUClassVector_Class_Microsoft_Singularity_Channels_ISelectable@@PAU1@H@Z 0207227c f   VolMgr.obj
 0001:00071330       ?m_PopSelectBools@Class_System_Threading_Thread@@SIPAUClassVector_bool@@PAU1@H@Z 02072330 f   VolMgr.obj
 0001:000713e4       ?m_NotifySpinLockReleased@Class_System_Threading_Thread@@SIXPAU1@H@Z 020723e4 f   VolMgr.obj
 0001:00071400       ?m_NotifySpinLockAboutToAcquire@Class_System_Threading_Thread@@SIXPAU1@H@Z 02072400 f   VolMgr.obj
 0001:0007141c       ?g_NotifyServiceThreads@Class_System_Threading_Thread@@SIXXZ 0207241c f   VolMgr.obj
 0001:00071514       ?g_JoinAll@Class_System_Threading_Thread@@SI_NXZ 02072514 f   VolMgr.obj
 0001:00071678       ?m_Join@Class_System_Threading_Thread@@SIXPAU1@@Z 02072678 f   VolMgr.obj
 0001:000716d8       ?m_Join@Class_System_Threading_Thread@@SI_NPAU1@UStruct_System_SchedulerTime@@@Z 020726d8 f   VolMgr.obj
 0001:00071744       ?m_GetThreadId@Class_System_Threading_Thread@@SIHPAU1@@Z 02072744 f   VolMgr.obj
 0001:00071764       ?g_GetCurrentThreadNative@Class_System_Threading_Thread@@SIPAU1@XZ 02072764 f   VolMgr.obj
 0001:0007177c       ?g_GetCurrentThreadIndex@Class_System_Threading_Thread@@SIHXZ 0207277c f   VolMgr.obj
 0001:00071798       ?m_get$_DebugName@Class_System_Threading_Thread@@SIPAUClass_System_String@@PAU1@@Z 02072798 f   VolMgr.obj
 0001:000717b8       ?g_get$_CurrentThread@Class_System_Threading_Thread@@SIPAU1@XZ 020727b8 f   VolMgr.obj
 0001:000717d0       ?g_FinishInitializeThread@Class_System_Threading_Thread@@SIXXZ 020727d0 f   VolMgr.obj
 0001:00071940       ?m_Finalize@Class_System_Threading_Thread@@SIXPAU1@@Z 02072940 f   VolMgr.obj
 0001:000719a4       ?g_CheckKernelProcessBoundary@Class_System_Threading_Thread@@SIPAUuintPtr@@PAU2@0PAUClass_System_Exception@@@Z 020729a4 f   VolMgr.obj
 0001:00071a58       ?g_AddThread@Class_System_Threading_Thread@@SI_NH@Z 02072a58 f   VolMgr.obj
 0001:00071b2c       ?m__ctor@Class_System_Threading_Thread@@SIXPAU1@@Z 02072b2c f   VolMgr.obj
 0001:00071b48       ?m__ctor@Class_System_Threading_Thread@@SIXPAU1@PAUClass_System_Threading_ThreadStart@@@Z 02072b48 f   VolMgr.obj
 0001:00071e54       ?g__cctor@Class_System_Threading_Thread@@SIXXZ 02072e54 f   VolMgr.obj
 0001:00071f10       ?m_Top@Struct_Microsoft_Singularity_Channels_StateStack@@SIHPAU1@@Z 02072f10 f   VolMgr.obj
 0001:00071f50       ?m_StructCopy@Struct_Microsoft_Singularity_Channels_StateStack@@SIXPAU1@0@Z 02072f50 f   VolMgr.obj
 0001:00071f78       ?m_StructCopy@Struct_Microsoft_Singularity_Channels_StateStack@@SIXPAU1@PAU1@@Z 02072f78 f   VolMgr.obj
 0001:00071ff0       ?m_Set@Struct_Microsoft_Singularity_Channels_StateStack@@SIXPAU1@H@Z 02072ff0 f   VolMgr.obj
 0001:00072028       ?m_Equals@Struct_Microsoft_Singularity_Channels_StateStack@@SI_NPAU1@PAUClass_System_Object@@@Z 02073028 f   VolMgr.obj
 0001:00072070       ?m_Equals@Struct_Microsoft_Singularity_Channels_StateStack@@SI_NPAUClass_Microsoft_Singularity_Channels_StateStack@@PAUClass_System_Object@@@Z 02073070 f   VolMgr.obj
 0001:0007209c       ?m__ctor@Struct_Microsoft_Singularity_Channels_StateStack@@SIXPAU1@H@Z 0207309c f   VolMgr.obj
 0001:000720c8       ?m_ToString@Struct_System_StackHeight@@SIPAUClass_System_String@@PAU1@@Z 020730c8 f   VolMgr.obj
 0001:00072124       ?m_ToString@Struct_System_StackHeight@@SIPAUClass_System_String@@PAUClass_System_StackHeight@@@Z 02073124 f   VolMgr.obj
 0001:0007214c       ?m_StructCopy@Struct_System_StackHeight@@SIXPAU1@0@Z 0207314c f   VolMgr.obj
 0001:00072174       ?m_StructCopy@Struct_System_StackHeight@@SIXPAU1@PAU1@@Z 02073174 f   VolMgr.obj
 0001:000721ec       ?m_Equals@Struct_System_StackHeight@@SI_NPAU1@PAUClass_System_Object@@@Z 020731ec f   VolMgr.obj
 0001:00072234       ?m_Equals@Struct_System_StackHeight@@SI_NPAUClass_System_StackHeight@@PAUClass_System_Object@@@Z 02073234 f   VolMgr.obj
 0001:00072260       ?g_VisitWeakRefs@Struct_System_MultiUseWord@@SIXPAUClass_System_GCs_DirectReferenceVisitor@@_N@Z 02073260 f   VolMgr.obj
 0001:000723cc       ?g_VisitStrongRefsNonRC@Struct_System_MultiUseWord@@SIXPAUClass_System_GCs_DirectReferenceVisitor@@_N@Z 020733cc f   VolMgr.obj
 0001:00072594       ?g_VisitStrongRefs@Struct_System_MultiUseWord@@SIXPAUClass_System_GCs_DirectReferenceVisitor@@_N@Z 02073594 f   VolMgr.obj
 0001:000725bc       ?m_StructCopy@Struct_System_MultiUseWord@@SIXPAU1@0@Z 020735bc f   VolMgr.obj
 0001:000725e4       ?m_StructCopy@Struct_System_MultiUseWord@@SIXPAU1@PAU1@@Z 020735e4 f   VolMgr.obj
 0001:0007265c       ?g_SetValForObject@Struct_System_MultiUseWord@@SIXPAUClass_System_Object@@PAUuintPtr@@@Z 0207365c f   VolMgr.obj
 0001:0007269c       ?g_SetForObject@Struct_System_MultiUseWord@@SIXPAUClass_System_Object@@U1@@Z 0207369c f   VolMgr.obj
 0001:000726cc       ?g_PreGCHook@Struct_System_MultiUseWord@@SIX_N@Z 020736cc f   VolMgr.obj
 0001:000726f0       ?g_PreGCHook@Struct_System_MultiUseWord@@SIX_N0@Z 020736f0 f   VolMgr.obj
 0001:00072780       ?g_PostGCHook@Struct_System_MultiUseWord@@SIX_N@Z 02073780 f   VolMgr.obj
 0001:00072a10       ?g_PostGCHook@Struct_System_MultiUseWord@@SIXXZ 02073a10 f   VolMgr.obj
 0001:00072a2c       ?g_Occasionally@Struct_System_MultiUseWord@@SI_NXZ 02073a2c f   VolMgr.obj
 0001:00072a50       ?m_IsUnused@Struct_System_MultiUseWord@@SI_NPAU1@@Z 02073a50 f   VolMgr.obj
 0001:00072a80       ?m_IsMonitor@Struct_System_MultiUseWord@@SI_NPAU1@@Z 02073a80 f   VolMgr.obj
 0001:00072ab4       ?m_IsMarked@Struct_System_MultiUseWord@@SI_NPAU1@@Z 02073ab4 f   VolMgr.obj
 0001:00072af4       ?g_IsMarked@Struct_System_MultiUseWord@@SI_NPAUClass_System_Object@@@Z 02073af4 f   VolMgr.obj
 0001:00072b34       ?m_IsInflated@Struct_System_MultiUseWord@@SI_NPAU1@@Z 02073b34 f   VolMgr.obj
 0001:00072b68       ?g_Inflate@Struct_System_MultiUseWord@@SIXPAUClass_System_Object@@@Z 02073b68 f   VolMgr.obj
 0001:00072d88       ?g_IncrementMonitorEMUAllocCount@Struct_System_MultiUseWord@@SIXXZ 02073d88 f   VolMgr.obj
 0001:00072da8       ?g_IncrementInflationToCount@Struct_System_MultiUseWord@@SIXI@Z 02073da8 f   VolMgr.obj
 0001:00072e04       ?g_IncrementInflationFromCount@Struct_System_MultiUseWord@@SIXI@Z 02073e04 f   VolMgr.obj
 0001:00072e60       ?g_IncrementFullEMUAllocCount@Struct_System_MultiUseWord@@SIXXZ 02073e60 f   VolMgr.obj
 0001:00072e80       ?g_IncrementDeadEMUsCount@Struct_System_MultiUseWord@@SIXXZ 02073e80 f   VolMgr.obj
 0001:00072ea0       ?g_IncrementAbandonedEMUsCount@Struct_System_MultiUseWord@@SIXXZ 02073ea0 f   VolMgr.obj
 0001:00072ec0       ?m_GetTag@Struct_System_MultiUseWord@@SIIPAU1@@Z 02073ec0 f   VolMgr.obj
 0001:00072ef4       ?m_GetRefPayload@Struct_System_MultiUseWord@@SIPAUClass_System_Object@@PAU1@@Z 02073ef4 f   VolMgr.obj
 0001:00072f98       ?m_GetPayload@Struct_System_MultiUseWord@@SIPAUuintPtr@@PAU1@@Z 02073f98 f   VolMgr.obj
 0001:00072fd8       ?g_GetMonitorSlow@Struct_System_MultiUseWord@@SIPAUClass_System_Threading_Monitor@@PAUClass_System_Object@@U1@@Z 02073fd8 f   VolMgr.obj
 0001:000731d4       ?g_GetMonitor@Struct_System_MultiUseWord@@SIPAUClass_System_Threading_Monitor@@PAUClass_System_Object@@@Z 020741d4 f   VolMgr.obj
 0001:000732a8       ?g_GetHashCodeSlow@Struct_System_MultiUseWord@@SIHPAUClass_System_Object@@U1@@Z 020742a8 f   VolMgr.obj
 0001:00073418       ?g_GetHashCode@Struct_System_MultiUseWord@@SIHPAUClass_System_Object@@@Z 02074418 f   VolMgr.obj
 0001:000734b0       ?g_GetForObject@Struct_System_MultiUseWord@@SI?AU1@PAUClass_System_Object@@@Z 020744b0 f   VolMgr.obj
 0001:000734f4       ?m_GetEMURefPayload@Struct_System_MultiUseWord@@SIPAUClass_System_EMU@@PAU1@@Z 020744f4 f   VolMgr.obj
 0001:00073580       ?g_get$_PAYLOAD$_MASK@Struct_System_MultiUseWord@@SIPAUuintPtr@@XZ 02074580 f   VolMgr.obj
 0001:00073598       ?g_get$_MARK$_BIT$_MASK@Struct_System_MultiUseWord@@SIPAUuintPtr@@XZ 02074598 f   VolMgr.obj
 0001:000735b0       ?m_Equals@Struct_System_MultiUseWord@@SI_NPAU1@PAUClass_System_Object@@@Z 020745b0 f   VolMgr.obj
 0001:000735f8       ?m_Equals@Struct_System_MultiUseWord@@SI_NPAUClass_System_MultiUseWord@@PAUClass_System_Object@@@Z 020745f8 f   VolMgr.obj
 0001:00073624       ?m_Eq@Struct_System_MultiUseWord@@SI_NPAU1@U1@@Z 02074624 f   VolMgr.obj
 0001:00073650       ?g_DumpTables@Struct_System_MultiUseWord@@SIXXZ 02074650 f   VolMgr.obj
 0001:00073ca0       ?g_ComputeEmuCount@Struct_System_MultiUseWord@@SIX_N@Z 02074ca0 f   VolMgr.obj
 0001:00073d38       ?g_CompareExchangeForObject@Struct_System_MultiUseWord@@SIPAUuintPtr@@PAUClass_System_Object@@PAU2@1@Z 02074d38 f   VolMgr.obj
 0001:00073d94       ?g_CompareExchangeForObject@Struct_System_MultiUseWord@@SI?AU1@PAUClass_System_Object@@U1@1@Z 02074d94 f   VolMgr.obj
 0001:00073de8       ?g_CollectFromThreads@Struct_System_MultiUseWord@@SIX_N@Z 02074de8 f   VolMgr.obj
 0001:00073e84       ?g_CollectFromThread@Struct_System_MultiUseWord@@SIXPAUClass_System_Threading_Thread@@@Z 02074e84 f   VolMgr.obj
 0001:00073f14       ?g_CollectFromPreviousCollections@Struct_System_MultiUseWord@@SIX_N@Z 02074f14 f   VolMgr.obj
 0001:00073f5c       ?g_ChooseHashCode@Struct_System_MultiUseWord@@SIHPAUClass_System_Object@@@Z 02074f5c f   VolMgr.obj
 0001:00073fac       ?m__ctor@Struct_System_MultiUseWord@@SIXPAU1@PAUuintPtr@@@Z 02074fac f   VolMgr.obj
 0001:00073fd0       ?m__ctor@Struct_System_MultiUseWord@@SIXPAU1@IPAUuintPtr@@@Z 02074fd0 f   VolMgr.obj
 0001:0007402c       ?m__ctor@Struct_System_MultiUseWord@@SIXPAU1@IPAUClass_System_Object@@@Z 0207502c f   VolMgr.obj
 0001:000740fc       ?g__cctor@Struct_System_MultiUseWord@@SIXXZ 020750fc f   VolMgr.obj
 0001:00074138       ?g_TransferOwnership@Struct_Microsoft_Singularity_Directory_ServiceContract_Exp@@SIXPAUStruct_Microsoft_Singularity_Channels_Endpoint@@PAU1@@Z 02075138 f   VolMgr.obj
 0001:0007417c       ?m_TransferContentsOwnership@Struct_Microsoft_Singularity_Directory_ServiceContract_Exp@@SIXPAU1@PAUStruct_Microsoft_Singularity_Channels_Endpoint@@@Z 0207517c f   VolMgr.obj
 0001:000741a8       ?m_StructCopy@Struct_Microsoft_Singularity_Directory_ServiceContract_Exp@@SIXPAU1@0@Z 020751a8 f   VolMgr.obj
 0001:00074274       ?m_StructCopy@Struct_Microsoft_Singularity_Directory_ServiceContract_Exp@@SIXPAU1@PAU1@@Z 02075274 f   VolMgr.obj
 0001:000744d8       ?m_Peek@Struct_Microsoft_Singularity_Directory_ServiceContract_Exp@@SIHPAU1@@Z 020754d8 f   VolMgr.obj
 0001:000745a0       ?m_MarshallContent@Struct_Microsoft_Singularity_Directory_ServiceContract_Exp@@SIXPAU1@PAEPAUStruct_Microsoft_Singularity_Channels_Endpoint@@1@Z 020755a0 f   VolMgr.obj
 0001:000745c0       ?m_InState@Struct_Microsoft_Singularity_Directory_ServiceContract_Exp@@SI_NPAU1@H@Z 020755c0 f   VolMgr.obj
 0001:00074650       ?m_HeadMatches@Struct_Microsoft_Singularity_Directory_ServiceContract_Exp@@SI_NPAU1@HPA_NPAPAUClass_System_Object@@@Z 02075650 f   VolMgr.obj
 0001:00074710       ?m_HeadMatches@Struct_Microsoft_Singularity_Directory_ServiceContract_Exp@@SI_NPAUClass_Microsoft_Singularity_Directory_ServiceContract_Exp@@HPA_NPAPAUClass_System_Object@@@Z 02075710 f   VolMgr.obj
 0001:00074748       ?m_Equals@Struct_Microsoft_Singularity_Directory_ServiceContract_Exp@@SI_NPAU1@PAUClass_System_Object@@@Z 02075748 f   VolMgr.obj
 0001:000749c0       ?m_Equals@Struct_Microsoft_Singularity_Directory_ServiceContract_Exp@@SI_NPAUClass_Microsoft_Singularity_Directory_ServiceContract_Exp@@PAUClass_System_Object@@@Z 020759c0 f   VolMgr.obj
 0001:000749ec       ?m_Dispose@Struct_Microsoft_Singularity_Directory_ServiceContract_Exp@@SIXPAU1@@Z 020759ec f   VolMgr.obj
 0001:00074a10       ?m_CurrentState@Struct_Microsoft_Singularity_Directory_ServiceContract_Exp@@SIPAUClass_System_String@@PAU1@@Z 02075a10 f   VolMgr.obj
 0001:00074a8c       ?m__ctor@Struct_Microsoft_Singularity_Directory_ServiceContract_Exp@@SIXPAU1@H@Z 02075a8c f   VolMgr.obj
 0001:00074ab8       ?m__ctor@Class_System_ArrayTypeMismatchException@@SIXPAU1@@Z 02075ab8 f   VolMgr.obj
 0001:00074ae0       ?m__ctor@Class_System_ArrayTypeMismatchException@@SIXPAU1@PAUClass_System_String@@@Z 02075ae0 f   VolMgr.obj
 0001:00074b08       ?m_ToString@float32@@SIPAUClass_System_String@@PAM@Z 02075b08 f   VolMgr.obj
 0001:00074b30       ?m_ToString@float32@@SIPAUClass_System_String@@PAMPAU2@@Z 02075b30 f   VolMgr.obj
 0001:00074b7c       ?m_ToString@float32@@SIPAUClass_System_String@@PAUClass_System_Single@@@Z 02075b7c f   VolMgr.obj
 0001:00074ba4       ?m_ToString@float32@@SIPAUClass_System_String@@PAUClass_System_Single@@PAU2@@Z 02075ba4 f   VolMgr.obj
 0001:00074bd0       ?g_IsNaN@float32@@SI_NM@Z  02075bd0 f   VolMgr.obj
 0001:00074c68       ?m_GetHashCode@float32@@SIHPAM@Z 02075c68 f   VolMgr.obj
 0001:00074c9c       ?m_GetHashCode@float32@@SIHPAUClass_System_Single@@@Z 02075c9c f   VolMgr.obj
 0001:00074cc4       ?m_Equals@float32@@SI_NPAMPAUClass_System_Object@@@Z 02075cc4 f   VolMgr.obj
 0001:00074d6c       ?m_Equals@float32@@SI_NPAUClass_System_Single@@PAUClass_System_Object@@@Z 02075d6c f   VolMgr.obj
 0001:00074d98       ?m_CompareTo@float32@@SIHPAMPAUClass_System_Object@@@Z 02075d98 f   VolMgr.obj
 0001:00074edc       ?m_CompareTo@float32@@SIHPAUClass_System_Single@@PAUClass_System_Object@@@Z 02075edc f   VolMgr.obj
 0001:00074f08       ?m_StructCopy@Struct_System_GCs_CalleeSaveRegisters@@SIXPAU1@0@Z 02075f08 f   VolMgr.obj
 0001:00074f54       ?m_StructCopy@Struct_System_GCs_CalleeSaveRegisters@@SIXPAU1@PAU1@@Z 02075f54 f   VolMgr.obj
 0001:00075038       ?m_GetFramePointer@Struct_System_GCs_CalleeSaveRegisters@@SIPAUuintPtr@@PAU1@@Z 02076038 f   VolMgr.obj
 0001:00075058       ?m_Equals@Struct_System_GCs_CalleeSaveRegisters@@SI_NPAU1@PAUClass_System_Object@@@Z 02076058 f   VolMgr.obj
 0001:000750d0       ?m_Equals@Struct_System_GCs_CalleeSaveRegisters@@SI_NPAUClass_System_GCs_CalleeSaveRegisters@@PAUClass_System_Object@@@Z 020760d0 f   VolMgr.obj
 0001:000750fc       ?m_DebugTrace@Struct_System_GCs_CalleeSaveRegisters@@SIXPAU1@@Z 020760fc f   VolMgr.obj
 0001:00075118       ?g_Type@Class_System_GCs_PageTable@@SI?AUStruct_System_GCs_PageType@@PAUuintPtr@@@Z 02076118 f   VolMgr.obj
 0001:00075188       ?g_SetType@Class_System_GCs_PageTable@@SIXPAUuintPtr@@0UStruct_System_GCs_PageType@@@Z 02076188 f   VolMgr.obj
 0001:00075260       ?g_SetType@Class_System_GCs_PageTable@@SIXPAUuintPtr@@UStruct_System_GCs_PageType@@@Z 02076260 f   VolMgr.obj
 0001:000752fc       ?g_SetProcessTag@Class_System_GCs_PageTable@@SIXPAUuintPtr@@0I@Z 020762fc f   VolMgr.obj
 0001:000753d0       ?g_SetProcessTag@Class_System_GCs_PageTable@@SIXPAUuintPtr@@I@Z 020763d0 f   VolMgr.obj
 0001:00075478       ?g_SetProcess@Class_System_GCs_PageTable@@SIXPAUuintPtr@@0@Z 02076478 f   VolMgr.obj
 0001:0007557c       ?g_SetPageTableEntry@Class_System_GCs_PageTable@@SIXPAUuintPtr@@I@Z 0207657c f   VolMgr.obj
 0001:000755ac       ?g_SetExtra@Class_System_GCs_PageTable@@SIXPAUuintPtr@@I@Z 020765ac f   VolMgr.obj
 0001:0007565c       ?g_RegionSize@Class_System_GCs_PageTable@@SIPAUuintPtr@@PAU2@@Z 0207665c f   VolMgr.obj
 0001:00075688       ?g_ProcessTag@Class_System_GCs_PageTable@@SIIPAUuintPtr@@@Z 02076688 f   VolMgr.obj
 0001:000756f8       ?g_Process@Class_System_GCs_PageTable@@SIGPAUuintPtr@@@Z 020766f8 f   VolMgr.obj
 0001:00075768       ?g_PageTableEntry@Class_System_GCs_PageTable@@SIIPAUuintPtr@@@Z 02076768 f   VolMgr.obj
 0001:000757a0       ?g_PagePad@Class_System_GCs_PageTable@@SIPAUuintPtr@@PAU2@@Z 020767a0 f   VolMgr.obj
 0001:0007581c       ?g_PageCount@Class_System_GCs_PageTable@@SIPAUuintPtr@@PAU2@@Z 0207681c f   VolMgr.obj
 0001:0007587c       ?g_PageAligned@Class_System_GCs_PageTable@@SI_NPAUuintPtr@@@Z 0207687c f   VolMgr.obj
 0001:000758d0       ?g_PageAlign@Class_System_GCs_PageTable@@SIPAUuintPtr@@PAU2@@Z 020768d0 f   VolMgr.obj
 0001:0007592c       ?g_PageAddr@Class_System_GCs_PageTable@@SIPAUuintPtr@@PAU2@@Z 0207692c f   VolMgr.obj
 0001:00075960       ?g_Page@Class_System_GCs_PageTable@@SIPAUuintPtr@@PAU2@@Z 02076960 f   VolMgr.obj
 0001:000759c0       ?g_MyType@Class_System_GCs_PageTable@@SI?AUStruct_System_GCs_PageType@@PAUuintPtr@@@Z 020769c0 f   VolMgr.obj
 0001:00075a50       ?g_IsUnusedPageType@Class_System_GCs_PageTable@@SI_NUStruct_System_GCs_PageType@@@Z 02076a50 f   VolMgr.obj
 0001:00075a84       ?g_IsUnusedPage@Class_System_GCs_PageTable@@SI_NPAUuintPtr@@@Z 02076a84 f   VolMgr.obj
 0001:00075b20       ?g_IsStackPage@Class_System_GCs_PageTable@@SI_NUStruct_System_GCs_PageType@@@Z 02076b20 f   VolMgr.obj
 0001:00075b44       ?g_IsSharedPage@Class_System_GCs_PageTable@@SI_NUStruct_System_GCs_PageType@@@Z 02076b44 f   VolMgr.obj
 0001:00075b68       ?g_IsNonGcPage@Class_System_GCs_PageTable@@SI_NUStruct_System_GCs_PageType@@@Z 02076b68 f   VolMgr.obj
 0001:00075b8c       ?g_IsMyPage@Class_System_GCs_PageTable@@SI_NPAUuintPtr@@@Z 02076b8c f   VolMgr.obj
 0001:00075c10       ?g_IsMyGcPage@Class_System_GCs_PageTable@@SI_NPAUuintPtr@@@Z 02076c10 f   VolMgr.obj
 0001:00075d2c       ?g_IsKernelPage@Class_System_GCs_PageTable@@SI_NPAUuintPtr@@@Z 02076d2c f   VolMgr.obj
 0001:00075db0       ?g_IsGcPage@Class_System_GCs_PageTable@@SI_NPAUuintPtr@@@Z 02076db0 f   VolMgr.obj
 0001:00075e40       ?g_IsGcPage@Class_System_GCs_PageTable@@SI_NUStruct_System_GCs_PageType@@@Z 02076e40 f   VolMgr.obj
 0001:00075e68       ?g_IsForeignAddr@Class_System_GCs_PageTable@@SI_NPAUuintPtr@@@Z 02076e68 f   VolMgr.obj
 0001:00075ea8       ?g_IsAddrOnPage@Class_System_GCs_PageTable@@SI_NPAUuintPtr@@0@Z 02076ea8 f   VolMgr.obj
 0001:00075ee8       ?g_Initialize@Class_System_GCs_PageTable@@SIXXZ 02076ee8 f   VolMgr.obj
 0001:00075f78       ?g_get$_PageSize@Class_System_GCs_PageTable@@SIPAUuintPtr@@XZ 02076f78 f   VolMgr.obj
 0001:00075fa0       ?g_get$_PageMask@Class_System_GCs_PageTable@@SIPAUuintPtr@@XZ 02076fa0 f   VolMgr.obj
 0001:00075fd8       ?g_get$_PageBits@Class_System_GCs_PageTable@@SIEXZ 02076fd8 f   VolMgr.obj
 0001:00075ff0       ?g_get$_PageAlignMask@Class_System_GCs_PageTable@@SIPAUuintPtr@@XZ 02076ff0 f   VolMgr.obj
 0001:00076038       ?g_Extra@Class_System_GCs_PageTable@@SIIPAUuintPtr@@@Z 02077038 f   VolMgr.obj
 0001:000760d4       ?g_Dump@Class_System_GCs_PageTable@@SI_NG@Z 020770d4 f   VolMgr.obj
 0001:000764f0       ?g_Dump@Class_System_GCs_PageTable@@SIXPAUClass_System_String@@@Z 020774f0 f   VolMgr.obj
 0001:00076b70       ?m__ctor@Class_System_GCs_PageTable@@SIXPAU1@@Z 02077b70 f   VolMgr.obj
 0001:00076b8c       ?m__ctor@Class_System_Threading_ThreadQueueItem@@SIXPAU1@PAUClass_System_Threading_Thread@@@Z 02077b8c f   VolMgr.obj
 0001:00076bdc       ?m_ToString@Class_System_Enum@@SIPAUClass_System_String@@PAU1@@Z 02077bdc f   VolMgr.obj
 0001:00076c04       ?m_ToString@Class_System_Enum@@SIPAUClass_System_String@@PAU1@PAU2@@Z 02077c04 f   VolMgr.obj
 0001:00076c64       ?m_GetValue@Class_System_Enum@@SIPAUClass_System_Object@@PAU1@@Z 02077c64 f   VolMgr.obj
 0001:00076ec4       ?m_GetHashCode@Class_System_Enum@@SIHPAU1@@Z 02077ec4 f   VolMgr.obj
 0001:00076eec       ?m_Equals@Class_System_Enum@@SI_NPAU1@PAUClass_System_Object@@@Z 02077eec f   VolMgr.obj
 0001:00076f88       ?m_CompareTo@Class_System_Enum@@SIHPAU1@PAUClass_System_Object@@@Z 02077f88 f   VolMgr.obj
 0001:00076fe8       ?m__ctor@Class_System_Enum@@SIXPAU1@@Z 02077fe8 f   VolMgr.obj
 0001:0007700c       ?m_StructCopy@Struct_Microsoft_Singularity_Isal_IX_EFlags@@SIXPAU1@0@Z 0207800c f   VolMgr.obj
 0001:00077028       ?m_StructCopy@Struct_Microsoft_Singularity_Isal_IX_EFlags@@SIXPAU1@PAU1@@Z 02078028 f   VolMgr.obj
 0001:0007707c       ?m_Equals@Struct_Microsoft_Singularity_Isal_IX_EFlags@@SI_NPAU1@PAUClass_System_Object@@@Z 0207807c f   VolMgr.obj
 0001:000770b4       ?m_Equals@Struct_Microsoft_Singularity_Isal_IX_EFlags@@SI_NPAUClass_Microsoft_Singularity_Isal_IX_EFlags@@PAUClass_System_Object@@@Z 020780b4 f   VolMgr.obj
 0001:000770e0       ?g_RestoreInterrupts@Class_Microsoft_Singularity_PrivilegedGate@@SIX_N@Z 020780e0 f   VolMgr.obj
 0001:00077104       ?g_InterruptsDisabled@Class_Microsoft_Singularity_PrivilegedGate@@SI_NXZ 02078104 f   VolMgr.obj
 0001:0007711c       ?g_DisableInterrupts@Class_Microsoft_Singularity_PrivilegedGate@@SI_NXZ 0207811c f   VolMgr.obj
 0001:00077134       ?m__ctor@Class_Microsoft_Singularity_PrivilegedGate@@SIXPAU1@@Z 02078134 f   VolMgr.obj
 0001:00077150       ?g_TopLevelException@Class_Microsoft_Singularity_AppRuntime@@SIXPAUClass_System_Exception@@@Z 02078150 f   VolMgr.obj
 0001:00077278       ?g_InitializeConsole@Class_Microsoft_Singularity_AppRuntime@@SIXXZ 02078278 f   VolMgr.obj
 0001:0007728c       ?g_get$_AppName@Class_Microsoft_Singularity_AppRuntime@@SIPAUClass_System_String@@XZ 0207828c f   VolMgr.obj
 0001:000772a4       ?g_FinalizeConsole@Class_Microsoft_Singularity_AppRuntime@@SIXXZ 020782a4 f   VolMgr.obj
 0001:000772b8       ?g_AppStart@Class_Microsoft_Singularity_AppRuntime@@SIHPAUClass_System_Type@@@Z 020782b8 f   VolMgr.obj
 0001:00077750       ?m__ctor@Class_Microsoft_Singularity_AppRuntime@@SIXPAU1@@Z 02078750 f   VolMgr.obj
 0001:0007776c       ?m_Finalize@Class__VolMgr_Microsoft_Singularity_Channels_TRef$_2$LMicrosoft_Singularity_Io_VolumeManagerContract_Exp_Microsoft_Singularity_Io_VolumeManagerContract_Accept$G@@SIXPAU1@@Z 0207876c f   VolMgr.obj
 0001:000777f8       ?m_Acquire@Class__VolMgr_Microsoft_Singularity_Channels_TRef$_2$LMicrosoft_Singularity_Io_VolumeManagerContract_Exp_Microsoft_Singularity_Io_VolumeManagerContract_Accept$G@@SIPAUStruct_Microsoft_Singularity_Io_VolumeManagerContract_Exp@@PAU1@@Z 020787f8 f   VolMgr.obj
 0001:00077894       ?m__ctor@Class__VolMgr_Microsoft_Singularity_Channels_TRef$_2$LMicrosoft_Singularity_Io_VolumeManagerContract_Exp_Microsoft_Singularity_Io_VolumeManagerContract_Accept$G@@SIXPAU1@PAUStruct_Microsoft_Singularity_Io_VolumeManagerContract_Exp@@@Z 02078894 f   VolMgr.obj
 0001:00077938       ?m_StructCopy@Struct_Microsoft_Singularity_Directory_DirectoryServiceContract_NakDeleteLink@@SIXPAU1@0@Z 02078938 f   VolMgr.obj
 0001:00077960       ?m_StructCopy@Struct_Microsoft_Singularity_Directory_DirectoryServiceContract_NakDeleteLink@@SIXPAU1@PAU1@@Z 02078960 f   VolMgr.obj
 0001:000779d8       ?m_Equals@Struct_Microsoft_Singularity_Directory_DirectoryServiceContract_NakDeleteLink@@SI_NPAU1@PAUClass_System_Object@@@Z 020789d8 f   VolMgr.obj
 0001:00077a78       ?m_Equals@Struct_Microsoft_Singularity_Directory_DirectoryServiceContract_NakDeleteLink@@SI_NPAUClass_Microsoft_Singularity_Directory_DirectoryServiceContract_NakDeleteLink@@PAUClass_System_Object@@@Z 02078a78 f   VolMgr.obj
 0001:00077aa4       ?m_MoveNext@Class_System_Array_SZArrayEnumerator@@SI_NPAU1@@Z 02078aa4 f   VolMgr.obj
 0001:00077ae8       ?m_get$_Current@Class_System_Array_SZArrayEnumerator@@SIPAUClass_System_Object@@PAU1@@Z 02078ae8 f   VolMgr.obj
 0001:00077b6c       ?m__ctor@Class_System_Array_SZArrayEnumerator@@SIXPAU1@PAUClass_System_Array@@@Z 02078b6c f   VolMgr.obj
 0001:00077be4       ?m_StructCopy@Struct_Microsoft_Singularity_Directory_DirectoryServiceContract_NakDeleteLinkReparse@@SIXPAU1@0@Z 02078be4 f   VolMgr.obj
 0001:00077c24       ?m_StructCopy@Struct_Microsoft_Singularity_Directory_DirectoryServiceContract_NakDeleteLinkReparse@@SIXPAU1@PAU1@@Z 02078c24 f   VolMgr.obj
 0001:00077ce4       ?m_Equals@Struct_Microsoft_Singularity_Directory_DirectoryServiceContract_NakDeleteLinkReparse@@SI_NPAU1@PAUClass_System_Object@@@Z 02078ce4 f   VolMgr.obj
 0001:00077d4c       ?m_Equals@Struct_Microsoft_Singularity_Directory_DirectoryServiceContract_NakDeleteLinkReparse@@SI_NPAUClass_Microsoft_Singularity_Directory_DirectoryServiceContract_NakDeleteLinkReparse@@PAUClass_System_Object@@@Z 02078d4c f   VolMgr.obj
 0001:00077d78       ?g_StableState@Class_Microsoft_Singularity_Io_DeviceContract@@SIHPAUStruct_Microsoft_Singularity_Channels_StateStack@@@Z 02078d78 f   VolMgr.obj
 0001:00077df4       ?m__ctor@Class_Microsoft_Singularity_Io_DeviceContract@@SIXPAU1@@Z 02078df4 f   VolMgr.obj
 0001:00077e0c       ?m_StructCopy@Struct_Microsoft_Singularity_Isal_IX_uint128@@SIXPAU1@0@Z 02078e0c f   VolMgr.obj
 0001:00077e58       ?m_StructCopy@Struct_Microsoft_Singularity_Isal_IX_uint128@@SIXPAU1@PAU1@@Z 02078e58 f   VolMgr.obj
 0001:00077f3c       ?m_Equals@Struct_Microsoft_Singularity_Isal_IX_uint128@@SI_NPAU1@PAUClass_System_Object@@@Z 02078f3c f   VolMgr.obj
 0001:00077fd4       ?m_Equals@Struct_Microsoft_Singularity_Isal_IX_uint128@@SI_NPAUClass_Microsoft_Singularity_Isal_IX_uint128@@PAUClass_System_Object@@@Z 02078fd4 f   VolMgr.obj
 0001:00078000       ?m_StructCopy@Struct_Microsoft_Singularity_Directory_DirectoryServiceContract_CreateFile@@SIXPAU1@0@Z 02079000 f   VolMgr.obj
 0001:00078028       ?m_StructCopy@Struct_Microsoft_Singularity_Directory_DirectoryServiceContract_CreateFile@@SIXPAU1@PAU1@@Z 02079028 f   VolMgr.obj
 0001:000780a0       ?m_Equals@Struct_Microsoft_Singularity_Directory_DirectoryServiceContract_CreateFile@@SI_NPAU1@PAUClass_System_Object@@@Z 020790a0 f   VolMgr.obj
 0001:000780e8       ?m_Equals@Struct_Microsoft_Singularity_Directory_DirectoryServiceContract_CreateFile@@SI_NPAUClass_Microsoft_Singularity_Directory_DirectoryServiceContract_CreateFile@@PAUClass_System_Object@@@Z 020790e8 f   VolMgr.obj
 0001:00078114       ?g_QueryMemory@Class_System_GCs_MemoryManager@@SI_NPAUuintPtr@@PAPAU2@1@Z 02079114 f   VolMgr.obj
 0001:00078144       ?g_Initialize@Class_System_GCs_MemoryManager@@SIXXZ 02079144 f   VolMgr.obj
 0001:00078198       ?g_IgnoreMemoryContents@Class_System_GCs_MemoryManager@@SIXPAUuintPtr@@0@Z 02079198 f   VolMgr.obj
 0001:000781b4       ?g_get$_OperatingSystemCommitSize@Class_System_GCs_MemoryManager@@SIPAUuintPtr@@XZ 020791b4 f   VolMgr.obj
 0001:000781cc       ?g_AllocateMemory@Class_System_GCs_MemoryManager@@SIPAUuintPtr@@PAU2@@Z 020791cc f   VolMgr.obj
 0001:00078264       ?m__ctor@Class_System_GCs_MemoryManager@@SIXPAU1@@Z 02079264 f   VolMgr.obj
 0001:0007827c       ?m__ctor@Class_System_Runtime_CompilerServices_NoInlineAttribute@@SIXPAU1@@Z 0207927c f   VolMgr.obj
 0001:000782a0       ?m__ctor@Class_System_Attribute@@SIXPAU1@@Z 020792a0 f   VolMgr.obj
 0001:000782bc       ?g_StableState@Class_Microsoft_Singularity_Io_VolumeManagerContract@@SIHPAUStruct_Microsoft_Singularity_Channels_StateStack@@@Z 020792bc f   VolMgr.obj
 0001:0007835c       ?g_CanonicalState@Class_Microsoft_Singularity_Io_VolumeManagerContract@@SIHH@Z 0207935c f   VolMgr.obj
 0001:000783c8       ?m__ctor@Class_Microsoft_Singularity_Io_VolumeManagerContract@@SIXPAU1@@Z 020793c8 f   VolMgr.obj
 0001:000783e0       ?g_StableState@Class_Microsoft_Singularity_Directory_ServiceContract@@SIHPAUStruct_Microsoft_Singularity_Channels_StateStack@@@Z 020793e0 f   VolMgr.obj
 0001:0007845c       ?g_CanonicalState@Class_Microsoft_Singularity_Directory_ServiceContract@@SIHH@Z 0207945c f   VolMgr.obj
 0001:000784b4       ?m__ctor@Class_Microsoft_Singularity_Directory_ServiceContract@@SIXPAU1@@Z 020794b4 f   VolMgr.obj
 0001:000784cc       ?m_StructCopy@Struct_System_UpdateEnlistmentLog_Location@@SIXPAU1@0@Z 020794cc f   VolMgr.obj
 0001:00078500       ?m_StructCopy@Struct_System_UpdateEnlistmentLog_Location@@SIXPAU1@PAU1@@Z 02079500 f   VolMgr.obj
 0001:0007859c       ?m_Equals@Struct_System_UpdateEnlistmentLog_Location@@SI_NPAU1@PAUClass_System_Object@@@Z 0207959c f   VolMgr.obj
 0001:000785fc       ?m_Equals@Struct_System_UpdateEnlistmentLog_Location@@SI_NPAUClass_System_UpdateEnlistmentLog_Location@@PAUClass_System_Object@@@Z 020795fc f   VolMgr.obj
 0001:00078628       ?m__ctor@Struct_System_UpdateEnlistmentLog_Location@@SIXPAU1@PAUClass_System_UpdateEnlistmentLog_LogChunk@@H@Z 02079628 f   VolMgr.obj
 0001:00078658       ?m_InvokeStaticStub@Class_System_Threading_ThreadStart@@SIXPAU1@@Z 02079658 f   VolMgr.obj
 0001:00078680       ?m_Invoke@Class_System_Threading_ThreadStart@@SIXPAU1@@Z 02079680 f   VolMgr.obj
 0001:000786d4       ?m_EndInvoke@Class_System_Threading_ThreadStart@@SIXPAU1@PAUClass_System_IAsyncResult@@@Z 020796d4 f   VolMgr.obj
 0001:000786f0       ?m_BeginInvoke@Class_System_Threading_ThreadStart@@SIPAUClass_System_IAsyncResult@@PAU1@PAUClass_System_AsyncCallback@@PAUClass_System_Object@@@Z 020796f0 f   VolMgr.obj
 0001:00078710       ?m__ctor@Class_System_Threading_ThreadStart@@SIXPAU1@PAUClass_System_Object@@PAUintPtr@@@Z 02079710 f   VolMgr.obj
 0001:00078750       ?m_InvocationListEquals@Class_System_MulticastDelegate@@SI_NPAU1@0@Z 02079750 f   VolMgr.obj
 0001:000787c4       ?m_GetHashCode@Class_System_MulticastDelegate@@SIHPAU1@@Z 020797c4 f   VolMgr.obj
 0001:000787e8       ?m_Equals@Class_System_MulticastDelegate@@SI_NPAU1@PAUClass_System_Object@@@Z 020797e8 f   VolMgr.obj
 0001:00078894       ?m__ctor@Class_System_MulticastDelegate@@SIXPAU1@@Z 02079894 f   VolMgr.obj
 0001:000788b8       ?g_SplitIdx@Class_System_Delegate@@SIXHPAH0@Z 020798b8 f   VolMgr.obj
 0001:0007896c       ?g_op$_Equality@Class_System_Delegate@@SI_NPAU1@0@Z 0207996c f   VolMgr.obj
 0001:000789ac       ?m_IsStatic@Class_System_Delegate@@SI_NPAU1@@Z 020799ac f   VolMgr.obj
 0001:000789e4       ?g_IdxToDelegate@Class_System_Delegate@@SIPAU1@H@Z 020799e4 f   VolMgr.obj
 0001:00078a5c       ?m_GetHashCode@Class_System_Delegate@@SIHPAU1@@Z 02079a5c f   VolMgr.obj
 0001:00078aa0       ?m_Equals@Class_System_Delegate@@SI_NPAU1@PAUClass_System_Object@@@Z 02079aa0 f   VolMgr.obj
 0001:00078b60       ?m__ctor@Class_System_Delegate@@SIXPAU1@@Z 02079b60 f   VolMgr.obj
 0001:00078b84       ?g__cctor@Class_System_Delegate@@SIXXZ 02079b84 f   VolMgr.obj
 0001:00078c0c       ?m_StructCopy@Struct_Microsoft_Singularity_Directory_DirectoryServiceContract_ReadEnumeration@@SIXPAU1@0@Z 02079c0c f   VolMgr.obj
 0001:00078c28       ?m_StructCopy@Struct_Microsoft_Singularity_Directory_DirectoryServiceContract_ReadEnumeration@@SIXPAU1@PAU1@@Z 02079c28 f   VolMgr.obj
 0001:00078c7c       ?m_Equals@Struct_Microsoft_Singularity_Directory_DirectoryServiceContract_ReadEnumeration@@SI_NPAU1@PAUClass_System_Object@@@Z 02079c7c f   VolMgr.obj
 0001:00078cb4       ?m_Equals@Struct_Microsoft_Singularity_Directory_DirectoryServiceContract_ReadEnumeration@@SI_NPAUClass_Microsoft_Singularity_Directory_DirectoryServiceContract_ReadEnumeration@@PAUClass_System_Object@@@Z 02079cb4 f   VolMgr.obj
 0001:00078ce0       ?m_StructCopy@Struct_Microsoft_Singularity_Io_DiskDeviceContract_Imp@@SIXPAU1@0@Z 02079ce0 f   VolMgr.obj
 0001:00078e98       ?m_StructCopy@Struct_Microsoft_Singularity_Io_DiskDeviceContract_Imp@@SIXPAU1@PAU1@@Z 02079e98 f   VolMgr.obj
 0001:000793c0       ?m_SendRead@Struct_Microsoft_Singularity_Io_DiskDeviceContract_Imp@@SIXPAU1@PAE_K22@Z 0207a3c0 f   VolMgr.obj
 0001:0007950c       ?m_RecvSuccess@Struct_Microsoft_Singularity_Io_DiskDeviceContract_Imp@@SIXPAU1@@Z 0207a50c f   VolMgr.obj
 0001:00079684       ?m_RecvNakRead@Struct_Microsoft_Singularity_Io_DiskDeviceContract_Imp@@SIXPAU1@@Z 0207a684 f   VolMgr.obj
 0001:000797fc       ?m_RecvAckRead@Struct_Microsoft_Singularity_Io_DiskDeviceContract_Imp@@SIXPAU1@PAPAE@Z 0207a7fc f   VolMgr.obj
 0001:00079984       ?m_Peek@Struct_Microsoft_Singularity_Io_DiskDeviceContract_Imp@@SIHPAU1@@Z 0207a984 f   VolMgr.obj
 0001:00079ed4       ?m_HeadMatches@Struct_Microsoft_Singularity_Io_DiskDeviceContract_Imp@@SI_NPAU1@HPA_NPAPAUClass_System_Object@@@Z 0207aed4 f   VolMgr.obj
 0001:00079f94       ?m_HeadMatches@Struct_Microsoft_Singularity_Io_DiskDeviceContract_Imp@@SI_NPAUClass_Microsoft_Singularity_Io_DiskDeviceContract_Imp@@HPA_NPAPAUClass_System_Object@@@Z 0207af94 f   VolMgr.obj
 0001:00079fcc       ?m_Equals@Struct_Microsoft_Singularity_Io_DiskDeviceContract_Imp@@SI_NPAU1@PAUClass_System_Object@@@Z 0207afcc f   VolMgr.obj
 0001:0007a858       ?m_Equals@Struct_Microsoft_Singularity_Io_DiskDeviceContract_Imp@@SI_NPAUClass_Microsoft_Singularity_Io_DiskDeviceContract_Imp@@PAUClass_System_Object@@@Z 0207b858 f   VolMgr.obj
 0001:0007a884       ?m_Dispose@Struct_Microsoft_Singularity_Io_DiskDeviceContract_Imp@@SIXPAU1@@Z 0207b884 f   VolMgr.obj
 0001:0007a8a8       ?m_CurrentState@Struct_Microsoft_Singularity_Io_DiskDeviceContract_Imp@@SIPAUClass_System_String@@PAU1@@Z 0207b8a8 f   VolMgr.obj
 0001:0007a9ec       ?m__ctor@Struct_Microsoft_Singularity_Io_DiskDeviceContract_Imp@@SIXPAU1@H@Z 0207b9ec f   VolMgr.obj
 0001:0007aa18       ?g_WaitAnyEndpoint@Struct_Microsoft_Singularity_Channels_Endpoint@@SIHPAUClassVector_Struct_Microsoft_Singularity_V1_Threads_SyncHandle@@H@Z 0207ba18 f   VolMgr.obj
 0001:0007aa80       ?m_Wait@Struct_Microsoft_Singularity_Channels_Endpoint@@SIXPAU1@@Z 0207ba80 f   VolMgr.obj
 0001:0007aaa4       ?m_UnlinkFromCollection@Struct_Microsoft_Singularity_Channels_Endpoint@@SIXPAU1@UStruct_Microsoft_Singularity_V1_Threads_AutoResetEventHandle@@@Z 0207baa4 f   VolMgr.obj
 0001:0007aad0       ?m_TransferContentsOwnership@Struct_Microsoft_Singularity_Channels_Endpoint@@SIXPAU1@0@Z 0207bad0 f   VolMgr.obj
 0001:0007ab08       ?m_TransferBlockOwnership@Struct_Microsoft_Singularity_Channels_Endpoint@@SIXPAU1@PAUvoid@@@Z 0207bb08 f   VolMgr.obj
 0001:0007ab60       ?g_ThreadLocalObjectArray@Struct_Microsoft_Singularity_Channels_Endpoint@@SIPAUClassVector_Class_Microsoft_Singularity_Channels_ISelectable@@H@Z 0207bb60 f   VolMgr.obj
 0001:0007abd0       ?m_StructCopy@Struct_Microsoft_Singularity_Channels_Endpoint@@SIXPAU1@0@Z 0207bbd0 f   VolMgr.obj
 0001:0007ac90       ?m_StructCopy@Struct_Microsoft_Singularity_Channels_Endpoint@@SIXPAU1@PAU1@@Z 0207bc90 f   VolMgr.obj
 0001:0007aed0       ?g_Select@Struct_Microsoft_Singularity_Channels_Endpoint@@SIHPAUClassVector_ClassVector_int32@@PAUClassVector_Class_Microsoft_Singularity_Channels_ISelectable@@PAPAUClass_System_Object@@@Z 0207bed0 f   VolMgr.obj
 0001:0007b2b8       ?g_RowMatches@Struct_Microsoft_Singularity_Channels_Endpoint@@SI_NPAUClassVector_Class_Microsoft_Singularity_Channels_ISelectable@@PAUClassVector_int32@@PAPAUClass_System_Object@@PA_N@Z 0207c2b8 f   VolMgr.obj
 0001:0007b3e0       ?m_RetrieveHookInternal@Struct_Microsoft_Singularity_Channels_Endpoint@@SIXPAU1@H@Z 0207c3e0 f   VolMgr.obj
 0001:0007b414       ?g_RetrieveHook@Struct_Microsoft_Singularity_Channels_Endpoint@@SIXPAU1@IH@Z 0207c414 f   VolMgr.obj
 0001:0007b434       ?m_NotifyPeer@Struct_Microsoft_Singularity_Channels_Endpoint@@SIXPAU1@@Z 0207c434 f   VolMgr.obj
 0001:0007b464       ?m_MarshallPointer@Struct_Microsoft_Singularity_Channels_Endpoint@@SIXPAU1@PAEPAPAUvoid@@PAUClass_System_Type@@1H@Z 0207c464 f   VolMgr.obj
 0001:0007b4cc       ?m_MarshallMessage@Struct_Microsoft_Singularity_Channels_Endpoint@@SIXPAU1@PAE1PAHPAUClass_System_Type@@@Z 0207c4cc f   VolMgr.obj
 0001:0007b510       ?m_LinkIntoCollection@Struct_Microsoft_Singularity_Channels_Endpoint@@SIXPAU1@UStruct_Microsoft_Singularity_V1_Threads_AutoResetEventHandle@@@Z 0207c510 f   VolMgr.obj
 0001:0007b53c       ?m_Initialize@Struct_Microsoft_Singularity_Channels_Endpoint@@SIXPAU1@H@Z 0207c53c f   VolMgr.obj
 0001:0007b5c4       ?m_HeadMatches@Struct_Microsoft_Singularity_Channels_Endpoint@@SI_NPAU1@HPA_NPAPAUClass_System_Object@@@Z 0207c5c4 f   VolMgr.obj
 0001:0007b608       ?m_HeadMatches@Struct_Microsoft_Singularity_Channels_Endpoint@@SI_NPAUClass_Microsoft_Singularity_Channels_Endpoint@@HPA_NPAPAUClass_System_Object@@@Z 0207c608 f   VolMgr.obj
 0001:0007b640       ?m_GetWaitHandle@Struct_Microsoft_Singularity_Channels_Endpoint@@SI?AUStruct_Microsoft_Singularity_V1_Threads_SyncHandle@@PAU1@@Z 0207c640 f   VolMgr.obj
 0001:0007b680       ?m_GetWaitHandle@Struct_Microsoft_Singularity_Channels_Endpoint@@SI?AUStruct_Microsoft_Singularity_V1_Threads_SyncHandle@@PAUClass_Microsoft_Singularity_Channels_Endpoint@@@Z 0207c680 f   VolMgr.obj
 0001:0007b6a8       ?m_GetPeer@Struct_Microsoft_Singularity_Channels_Endpoint@@SIPAU1@PAU1@PA_N@Z 0207c6a8 f   VolMgr.obj
 0001:0007b720       ?g_getContractTag@Struct_Microsoft_Singularity_Channels_Endpoint@@SIIPAU1@@Z 0207c720 f   VolMgr.obj
 0001:0007b794       ?m_get$_PeerClosed@Struct_Microsoft_Singularity_Channels_Endpoint@@SI_NPAU1@@Z 0207c794 f   VolMgr.obj
 0001:0007b7cc       ?m_get$_Closed@Struct_Microsoft_Singularity_Channels_Endpoint@@SI_NPAU1@@Z 0207c7cc f   VolMgr.obj
 0001:0007b804       ?m_get$_ChannelID@Struct_Microsoft_Singularity_Channels_Endpoint@@SIHPAU1@@Z 0207c804 f   VolMgr.obj
 0001:0007b844       ?g_FindRowMatch@Struct_Microsoft_Singularity_Channels_Endpoint@@SI_NHPAUClassVector_Class_Microsoft_Singularity_Channels_ISelectable@@PAUClassVector_ClassVector_int32@@PAUClassVector_bool@@PAH3PAPAUClass_System_Object@@@Z 0207c844 f   VolMgr.obj
 0001:0007bb68       ?m_Equals@Struct_Microsoft_Singularity_Channels_Endpoint@@SI_NPAU1@PAUClass_System_Object@@@Z 0207cb68 f   VolMgr.obj
 0001:0007bdd0       ?m_Equals@Struct_Microsoft_Singularity_Channels_Endpoint@@SI_NPAUClass_Microsoft_Singularity_Channels_Endpoint@@PAUClass_System_Object@@@Z 0207cdd0 f   VolMgr.obj
 0001:0007bdfc       ?m_Dispose@Struct_Microsoft_Singularity_Channels_Endpoint@@SIXPAU1@@Z 0207cdfc f   VolMgr.obj
 0001:0007be88       ?m_DeliverHookInternal@Struct_Microsoft_Singularity_Channels_Endpoint@@SIXPAU1@H@Z 0207ce88 f   VolMgr.obj
 0001:0007bebc       ?g_DeliverHook@Struct_Microsoft_Singularity_Channels_Endpoint@@SIXPAU1@IH@Z 0207cebc f   VolMgr.obj
 0001:0007bedc       ?g_Connect@Struct_Microsoft_Singularity_Channels_Endpoint@@SIXPAU1@0@Z 0207cedc f   VolMgr.obj
 0001:0007bf98       ?m__ctor@Struct_Microsoft_Singularity_Channels_Endpoint@@SIXPAU1@H@Z 0207cf98 f   VolMgr.obj
 0001:0007bfc0       ?g_Wait@Struct_Microsoft_Singularity_V1_Services_EndpointCore@@SIXPAU1@@Z 0207cfc0 f   VolMgr.obj
 0001:0007c01c       ?g_UnlinkFromCollection@Struct_Microsoft_Singularity_V1_Services_EndpointCore@@SIXPAU1@UStruct_Microsoft_Singularity_V1_Threads_AutoResetEventHandle@@@Z 0207d01c f   VolMgr.obj
 0001:0007c04c       ?m_StructCopy@Struct_Microsoft_Singularity_V1_Services_EndpointCore@@SIXPAU1@0@Z 0207d04c f   VolMgr.obj
 0001:0007c0e4       ?m_StructCopy@Struct_Microsoft_Singularity_V1_Services_EndpointCore@@SIXPAU1@PAU1@@Z 0207d0e4 f   VolMgr.obj
 0001:0007c2ac       ?g_PeerClosed@Struct_Microsoft_Singularity_V1_Services_EndpointCore@@SI_NPAU1@@Z 0207d2ac f   VolMgr.obj
 0001:0007c308       ?g_LinkIntoCollection@Struct_Microsoft_Singularity_V1_Services_EndpointCore@@SIXPAU1@UStruct_Microsoft_Singularity_V1_Threads_AutoResetEventHandle@@@Z 0207d308 f   VolMgr.obj
 0001:0007c334       ?g_GetWaitHandle@Struct_Microsoft_Singularity_V1_Services_EndpointCore@@SI?AUStruct_Microsoft_Singularity_V1_Threads_SyncHandle@@PAU1@@Z 0207d334 f   VolMgr.obj
 0001:0007c380       ?g_GetPeer@Struct_Microsoft_Singularity_V1_Services_EndpointCore@@SIPAUStruct_Microsoft_Singularity_V1_Services_SharedHeapService_Allocation@@PAU1@PA_N@Z 0207d380 f   VolMgr.obj
 0001:0007c3d0       ?g_GetChannelID@Struct_Microsoft_Singularity_V1_Services_EndpointCore@@SIHPAU1@@Z 0207d3d0 f   VolMgr.obj
 0001:0007c3f0       ?m_Equals@Struct_Microsoft_Singularity_V1_Services_EndpointCore@@SI_NPAU1@PAUClass_System_Object@@@Z 0207d3f0 f   VolMgr.obj
 0001:0007c5d0       ?m_Equals@Struct_Microsoft_Singularity_V1_Services_EndpointCore@@SI_NPAUClass_Microsoft_Singularity_V1_Services_EndpointCore@@PAUClass_System_Object@@@Z 0207d5d0 f   VolMgr.obj
 0001:0007c5fc       ?g_Closed@Struct_Microsoft_Singularity_V1_Services_EndpointCore@@SI_NPAU1@@Z 0207d5fc f   VolMgr.obj
 0001:0007c61c       ?m_Visit@Class_System_GCs_MemoryAccounting_InstanceReckoner@@SIPAUuintPtr@@PAU1@PAUClass_System_Object@@@Z 0207d61c f   VolMgr.obj
 0001:0007c638       ?m_Initialize@Class_System_GCs_MemoryAccounting_InstanceReckoner@@SIXPAU1@PAUClassVector_Struct_System_GCs_MemoryAccounting_RuntimeTypeAccounting@@@Z 0207d638 f   VolMgr.obj
 0001:0007c654       ?m__ctor@Class_System_GCs_MemoryAccounting_InstanceReckoner@@SIXPAU1@@Z 0207d654 f   VolMgr.obj
 0001:0007c66c       ?m_StructCopy@Struct_Microsoft_Singularity_Directory_DirectoryServiceContract_NakDeleteDirectoryReparse@@SIXPAU1@0@Z 0207d66c f   VolMgr.obj
 0001:0007c6ac       ?m_StructCopy@Struct_Microsoft_Singularity_Directory_DirectoryServiceContract_NakDeleteDirectoryReparse@@SIXPAU1@PAU1@@Z 0207d6ac f   VolMgr.obj
 0001:0007c76c       ?m_Equals@Struct_Microsoft_Singularity_Directory_DirectoryServiceContract_NakDeleteDirectoryReparse@@SI_NPAU1@PAUClass_System_Object@@@Z 0207d76c f   VolMgr.obj
 0001:0007c7d4       ?m_Equals@Struct_Microsoft_Singularity_Directory_DirectoryServiceContract_NakDeleteDirectoryReparse@@SI_NPAUClass_Microsoft_Singularity_Directory_DirectoryServiceContract_NakDeleteDirectoryReparse@@PAUClass_System_Object@@@Z 0207d7d4 f   VolMgr.obj
 0001:0007c800       ?m_get$_Message@Class_System_ArgumentException@@SIPAUClass_System_String@@PAU1@@Z 0207d800 f   VolMgr.obj
 0001:0007c884       ?m__ctor@Class_System_ArgumentException@@SIXPAU1@@Z 0207d884 f   VolMgr.obj
 0001:0007c8ac       ?m__ctor@Class_System_ArgumentException@@SIXPAU1@PAUClass_System_String@@@Z 0207d8ac f   VolMgr.obj
 0001:0007c8d4       ?m__ctor@Class_System_ArgumentException@@SIXPAU1@PAUClass_System_String@@1@Z 0207d8d4 f   VolMgr.obj
 0001:0007c908       ?m__ctor@Class_System_SystemException@@SIXPAU1@@Z 0207d908 f   VolMgr.obj
 0001:0007c930       ?m__ctor@Class_System_SystemException@@SIXPAU1@PAUClass_System_String@@@Z 0207d930 f   VolMgr.obj
 0001:0007c958       ?m__ctor@Class_System_SystemException@@SIXPAU1@PAUClass_System_String@@PAUClass_System_Exception@@@Z 0207d958 f   VolMgr.obj
 0001:0007c988       ?m_ToString@Class_System_Exception@@SIPAUClass_System_String@@PAU1@@Z 0207d988 f   VolMgr.obj
 0001:0007c9e8       ?g_IsUnlinkStack@Class_System_Exception@@SI_NPAUuintPtr@@@Z 0207d9e8 f   VolMgr.obj
 0001:0007ca8c       ?m_get$_Message@Class_System_Exception@@SIPAUClass_System_String@@PAU1@@Z 0207da8c f   VolMgr.obj
 0001:0007cab8       ?m_get$_InnerException@Class_System_Exception@@SIPAU1@PAU1@@Z 0207dab8 f   VolMgr.obj
 0001:0007cad8       ?m__ctor@Class_System_Exception@@SIXPAU1@@Z 0207dad8 f   VolMgr.obj
 0001:0007cafc       ?m__ctor@Class_System_Exception@@SIXPAU1@PAUClass_System_String@@@Z 0207dafc f   VolMgr.obj
 0001:0007cb24       ?m__ctor@Class_System_Exception@@SIXPAU1@PAUClass_System_String@@0@Z 0207db24 f   VolMgr.obj
 0001:0007cb54       ?m_StructCopy@Struct_Microsoft_Singularity_Directory_FileContract_Close@@SIXPAU1@0@Z 0207db54 f   VolMgr.obj
 0001:0007cb70       ?m_StructCopy@Struct_Microsoft_Singularity_Directory_FileContract_Close@@SIXPAU1@PAU1@@Z 0207db70 f   VolMgr.obj
 0001:0007cbc4       ?m_Equals@Struct_Microsoft_Singularity_Directory_FileContract_Close@@SI_NPAU1@PAUClass_System_Object@@@Z 0207dbc4 f   VolMgr.obj
 0001:0007cbfc       ?m_Equals@Struct_Microsoft_Singularity_Directory_FileContract_Close@@SI_NPAUClass_Microsoft_Singularity_Directory_FileContract_Close@@PAUClass_System_Object@@@Z 0207dbfc f   VolMgr.obj
 0001:0007cc28       ?g_VectorCopy@Class_System_Array@@SIXPAUClass_System_Object@@H0HH@Z 0207dc28 f   VolMgr.obj
 0001:0007d19c       ?g_UnBoxEachElement@Class_System_Array@@SIXPAU1@H0HH_N@Z 0207e19c f   VolMgr.obj
 0001:0007d4e8       ?g_TrySZBinarySearch@Class_System_Array@@SIHPAU1@HHPAUClass_System_Object@@PAH@Z 0207e4e8 f   VolMgr.obj
 0001:0007d514       ?m_SetValue@Class_System_Array@@SIXPAU1@PAUClass_System_Object@@H@Z 0207e514 f   VolMgr.obj
 0001:0007d578       ?g_PrimitiveWiden@Class_System_Array@@SIXPAU1@H0HH@Z 0207e578 f   VolMgr.obj
 0001:0007d5bc       ?m_InternalSetValueHelper@Class_System_Array@@SIXPAU1@PAEHPAUClass_System_Object@@@Z 0207e5bc f   VolMgr.obj
 0001:0007d7a4       ?m_InternalSetValue@Class_System_Array@@SIXPAU1@PAUClass_System_Object@@HHH@Z 0207e7a4 f   VolMgr.obj
 0001:0007d834       ?m_InternalGetValueHelper@Class_System_Array@@SIPAUClass_System_Object@@PAU1@PAEH@Z 0207e834 f   VolMgr.obj
 0001:0007dc5c       ?m_InternalGetValueEx@Class_System_Array@@SIPAUClass_System_Object@@PAU1@PAUClassVector_int32@@@Z 0207ec5c f   VolMgr.obj
 0001:0007dcd4       ?m_InternalGetValue@Class_System_Array@@SIPAUClass_System_Object@@PAU1@HHH@Z 0207ecd4 f   VolMgr.obj
 0001:0007dd58       ?m_InternalGetOffset@Class_System_Array@@SIHPAU1@PAUClassVector_int32@@@Z 0207ed58 f   VolMgr.obj
 0001:0007debc       ?m_InternalGetOffset@Class_System_Array@@SIHPAU1@HHH@Z 0207eebc f   VolMgr.obj
 0001:0007e070       ?m_InitializeVectorLength@Class_System_Array@@SIXPAU1@H@Z 0207f070 f   VolMgr.obj
 0001:0007e098       ?m_GetValue@Class_System_Array@@SIPAUClass_System_Object@@PAU1@PAUClassVector_int32@@@Z 0207f098 f   VolMgr.obj
 0001:0007e138       ?m_GetValue@Class_System_Array@@SIPAUClass_System_Object@@PAU1@H@Z 0207f138 f   VolMgr.obj
 0001:0007e198       ?m_GetUpperBound@Class_System_Array@@SIHPAU1@H@Z 0207f198 f   VolMgr.obj
 0001:0007e20c       ?m_GetLowerBoundRectangleArray@Class_System_Array@@SIHPAU1@H@Z 0207f20c f   VolMgr.obj
 0001:0007e260       ?m_GetLowerBound@Class_System_Array@@SIHPAU1@H@Z 0207f260 f   VolMgr.obj
 0001:0007e2d0       ?m_GetLengthVector@Class_System_Array@@SIHPAU1@@Z 0207f2d0 f   VolMgr.obj
 0001:0007e2f0       ?m_GetLengthRectangleArray@Class_System_Array@@SIHPAU1@@Z 0207f2f0 f   VolMgr.obj
 0001:0007e310       ?m_GetLengthRectangleArray@Class_System_Array@@SIHPAU1@H@Z 0207f310 f   VolMgr.obj
 0001:0007e364       ?m_GetLength@Class_System_Array@@SIHPAU1@H@Z 0207f364 f   VolMgr.obj
 0001:0007e3a4       ?m_GetFirstElementAddress@Class_System_Array@@SIPAUvoid@@PAU1@PAH@Z 0207f3a4 f   VolMgr.obj
 0001:0007e3e8       ?m_GetEnumerator@Class_System_Array@@SIPAUClass_System_Collections_IEnumerator@@PAU1@@Z 0207f3e8 f   VolMgr.obj
 0001:0007e4a0       ?m_get$_RankRectangleArray@Class_System_Array@@SIHPAU1@@Z 0207f4a0 f   VolMgr.obj
 0001:0007e4c0       ?m_get$_Rank@Class_System_Array@@SIHPAU1@@Z 0207f4c0 f   VolMgr.obj
 0001:0007e4f4       ?m_get$_Length@Class_System_Array@@SIHPAU1@@Z 0207f4f4 f   VolMgr.obj
 0001:0007e52c       ?m_get$_IsVector@Class_System_Array@@SI_NPAU1@@Z 0207f52c f   VolMgr.obj
 0001:0007e56c       ?g_Copy@Class_System_Array@@SIXPAUClassVector_uint64@@H0HH@Z 0207f56c f   VolMgr.obj
 0001:0007e720       ?g_Copy@Class_System_Array@@SIXPAUClassVector_uint32@@H0HH@Z 0207f720 f   VolMgr.obj
 0001:0007e8d4       ?g_Copy@Class_System_Array@@SIXPAUClassVector_uint16@@H0HH@Z 0207f8d4 f   VolMgr.obj
 0001:0007ea88       ?g_Copy@Class_System_Array@@SIXPAUClassVector_float32@@H0HH@Z 0207fa88 f   VolMgr.obj
 0001:0007ec3c       ?g_Copy@Class_System_Array@@SIXPAUClassVector_int8@@H0HH@Z 0207fc3c f   VolMgr.obj
 0001:0007edf0       ?g_Copy@Class_System_Array@@SIXPAUClassVector_Class_System_Object@@H0HH@Z 0207fdf0 f   VolMgr.obj
 0001:0007f024       ?g_Copy@Class_System_Array@@SIXPAUClassVector_int64@@H0HH@Z 02080024 f   VolMgr.obj
 0001:0007f1d8       ?g_Copy@Class_System_Array@@SIXPAUClassVector_int32@@H0HH@Z 020801d8 f   VolMgr.obj
 0001:0007f38c       ?g_Copy@Class_System_Array@@SIXPAUClassVector_int16@@H0HH@Z 0208038c f   VolMgr.obj
 0001:0007f540       ?g_Copy@Class_System_Array@@SIXPAUClassVector_float64@@H0HH@Z 02080540 f   VolMgr.obj
 0001:0007f6f4       ?g_Copy@Class_System_Array@@SIXPAUClassVector_bartok_char@@H0HH@Z 020806f4 f   VolMgr.obj
 0001:0007f8a8       ?g_Copy@Class_System_Array@@SIXPAUClassVector_uint8@@H0HH@Z 020808a8 f   VolMgr.obj
 0001:0007fa5c       ?g_Copy@Class_System_Array@@SIXPAUClassVector_bool@@H0HH@Z 02080a5c f   VolMgr.obj
 0001:0007fc10       ?g_Copy@Class_System_Array@@SIXPAU1@H0HH@Z 02080c10 f   VolMgr.obj
 0001:0008009c       ?g_CastCheckEachElement@Class_System_Array@@SIXPAU1@H0HH@Z 0208109c f   VolMgr.obj
 0001:00080370       ?g_CanAssignArrayType@Class_System_Array@@SI?AUStruct_System_Array_AssignArray@@PAU1@0@Z 02081370 f   VolMgr.obj
 0001:00080554       ?g_BoxEachElement@Class_System_Array@@SIXPAU1@H0HH@Z 02081554 f   VolMgr.obj
 0001:000805d8       ?g_BinarySearch@Class_System_Array@@SIHPAU1@HHPAUClass_System_Object@@PAUClass_System_Collections_IComparer@@@Z 020815d8 f   VolMgr.obj
 0001:000809c0       ?m__ctor@Class_System_Array@@SIXPAU1@@Z 020819c0 f   VolMgr.obj
 0001:000809dc       ?m__ctor@Class_System_GCs_ObjectLayout_ObjectVisitor@@SIXPAU1@@Z 020819dc f   VolMgr.obj
 0001:000809f8       ?m_Unlink@Class_Microsoft_Singularity_Channels_ESet$_2$LMicrosoft_Singularity_Io_VolumeManagerContract_Exp_Microsoft_Singularity_Io_VolumeManagerContract_Ready$G_Node@@SIPAUStruct_Microsoft_Singularity_Io_VolumeManagerContract_Exp@@PAU1@PAUClass_Microsoft_Singularity_Channels_ESet$_2$LMicrosoft_Singularity_Io_VolumeManagerContract_Exp_Microsoft_Singularity_Io_VolumeManagerContract_Ready$G@@@Z 020819f8 f   VolMgr.obj
 0001:00080b0c       ?m_LinkAsNext@Class_Microsoft_Singularity_Channels_ESet$_2$LMicrosoft_Singularity_Io_VolumeManagerContract_Exp_Microsoft_Singularity_Io_VolumeManagerContract_Ready$G_Node@@SIXPAU1@PAUStruct_Microsoft_Singularity_Io_VolumeManagerContract_Exp@@PAUClass_Microsoft_Singularity_Channels_ESet$_2$LMicrosoft_Singularity_Io_VolumeManagerContract_Exp_Microsoft_Singularity_Io_VolumeManagerContract_Ready$G@@@Z 02081b0c f   VolMgr.obj
 0001:00080b88       ?m_Init@Class_Microsoft_Singularity_Channels_ESet$_2$LMicrosoft_Singularity_Io_VolumeManagerContract_Exp_Microsoft_Singularity_Io_VolumeManagerContract_Ready$G_Node@@SIXPAU1@PAUStruct_Microsoft_Singularity_Io_VolumeManagerContract_Exp@@PAUClass_Microsoft_Singularity_Channels_ESet$_2$LMicrosoft_Singularity_Io_VolumeManagerContract_Exp_Microsoft_Singularity_Io_VolumeManagerContract_Ready$G@@@Z 02081b88 f   VolMgr.obj
 0001:00080bb8       ?m__ctor@Class_Microsoft_Singularity_Channels_ESet$_2$LMicrosoft_Singularity_Io_VolumeManagerContract_Exp_Microsoft_Singularity_Io_VolumeManagerContract_Ready$G_Node@@SIXPAU1@PAUStruct_Microsoft_Singularity_Io_VolumeManagerContract_Exp@@PAUClass_Microsoft_Singularity_Channels_ESet$_2$LMicrosoft_Singularity_Io_VolumeManagerContract_Exp_Microsoft_Singularity_Io_VolumeManagerContract_Ready$G@@@Z 02081bb8 f   VolMgr.obj
 0001:00080bfc       ?m__ctor@Class_Microsoft_Singularity_Channels_ESet$_2$LMicrosoft_Singularity_Io_VolumeManagerContract_Exp_Microsoft_Singularity_Io_VolumeManagerContract_Ready$G_Node@@SIXPAU1@PAUClass_Microsoft_Singularity_Channels_ESet$_2$LMicrosoft_Singularity_Io_VolumeManagerContract_Exp_Microsoft_Singularity_Io_VolumeManagerContract_Ready$G@@@Z 02081bfc f   VolMgr.obj
 0001:00080c30       ?m_StructCopy@Struct_System_RuntimeFieldHandle@@SIXPAU1@0@Z 02081c30 f   VolMgr.obj
 0001:00080c58       ?m_StructCopy@Struct_System_RuntimeFieldHandle@@SIXPAU1@PAU1@@Z 02081c58 f   VolMgr.obj
 0001:00080cd0       ?m_Equals@Struct_System_RuntimeFieldHandle@@SI_NPAU1@PAUClass_System_Object@@@Z 02081cd0 f   VolMgr.obj
 0001:00080d18       ?m_Equals@Struct_System_RuntimeFieldHandle@@SI_NPAUClass_System_RuntimeFieldHandle@@PAUClass_System_Object@@@Z 02081d18 f   VolMgr.obj
 0001:00080d44       ?m_StructCopy@Struct_System_GCs_ReferenceVisitor_ObjectDescriptor@@SIXPAU1@0@Z 02081d44 f   VolMgr.obj
 0001:00080da8       ?m_StructCopy@Struct_System_GCs_ReferenceVisitor_ObjectDescriptor@@SIXPAU1@PAU1@@Z 02081da8 f   VolMgr.obj
 0001:00080ed4       ?m_Equals@Struct_System_GCs_ReferenceVisitor_ObjectDescriptor@@SI_NPAU1@PAUClass_System_Object@@@Z 02081ed4 f   VolMgr.obj
 0001:00080f74       ?m_Equals@Struct_System_GCs_ReferenceVisitor_ObjectDescriptor@@SI_NPAUClass_System_GCs_ReferenceVisitor_ObjectDescriptor@@PAUClass_System_Object@@@Z 02081f74 f   VolMgr.obj
 0001:00080fa0       ?m__ctor@Struct_System_GCs_ReferenceVisitor_ObjectDescriptor@@SIXPAU1@PAUClass_System_VTable@@PAUuintPtr@@@Z 02081fa0 f   VolMgr.obj
 0001:00081018       ?m__ctor@Struct_System_GCs_ReferenceVisitor_ObjectDescriptor@@SIXPAU1@PAUClass_System_VTable@@PAUuintPtr@@2@Z 02082018 f   VolMgr.obj
 0001:00081090       ?m__ctor@Struct_System_GCs_ReferenceVisitor_ObjectDescriptor@@SIXPAU1@PAUClass_System_VTable@@PAUuintPtr@@22@Z 02082090 f   VolMgr.obj
 0001:00081108       ?m__ctor@Struct_System_GCs_ReferenceVisitor_ObjectDescriptor@@SIXPAU1@PAUClass_System_VTable@@PAUuintPtr@@22PAUClass_System_Object@@3@Z 02082108 f   VolMgr.obj
 0001:00081160       ?m_ToString@Class_System_ValueType@@SIPAUClass_System_String@@PAU1@@Z 02082160 f   VolMgr.obj
 0001:00081198       ?m_GetHashCode@Class_System_ValueType@@SIHPAU1@@Z 02082198 f   VolMgr.obj
 0001:000811d8       ?m_Equals@Class_System_ValueType@@SI_NPAU1@PAUClass_System_Object@@@Z 020821d8 f   VolMgr.obj
 0001:00081218       ?m__ctor@Class_System_ValueType@@SIXPAU1@@Z 02082218 f   VolMgr.obj
 0001:00081234       ?g_WriteAlignment@Class_System_GCs_Allocator@@SIXPAUuintPtr@@@Z 02082234 f   VolMgr.obj
 0001:00081268       ?g_SkipAlignment@Class_System_GCs_Allocator@@SIPAUuintPtr@@PAU2@@Z 02082268 f   VolMgr.obj
 0001:000812f4       ?g_IsAlignmentMarkerAddr@Class_System_GCs_Allocator@@SI_NPAUuintPtr@@@Z 020822f4 f   VolMgr.obj
 0001:00081328       ?g_IsAlignment@Class_System_GCs_Allocator@@SI_NPAUuintPtr@@@Z 02082328 f   VolMgr.obj
 0001:00081360       ?g_get$_ALIGNMENT$_TOKEN@Class_System_GCs_Allocator@@SIPAUuintPtr@@XZ 02082360 f   VolMgr.obj
 0001:00081378       ?g_AlignedObjectPtr@Class_System_GCs_Allocator@@SIPAUuintPtr@@PAU2@I@Z 02082378 f   VolMgr.obj
 0001:00081430       ?g_AlignedAllocationPtr@Class_System_GCs_Allocator@@SIPAUuintPtr@@PAU2@0I@Z 02082430 f   VolMgr.obj
 0001:000814ec       ?m__ctor@Class_System_GCs_Allocator@@SIXPAU1@@Z 020824ec f   VolMgr.obj
 0001:00081504       ?m_LogTick@Class_Microsoft_Singularity_GCProfilerLogger_ProfilerBuffer@@SIXPAU1@@Z 02082504 f   VolMgr.obj
 0001:000815a8       ?m__ctor@Class_Microsoft_Singularity_GCProfilerLogger_ProfilerBuffer@@SIXPAU1@@Z 020825a8 f   VolMgr.obj
 0001:000815d4       ?g_get$_TickCount@Class_System_Environment@@SIHXZ 020825d4 f   VolMgr.obj
 0001:00081640       ?g_get$_NewLine@Class_System_Environment@@SIPAUClass_System_String@@XZ 02082640 f   VolMgr.obj
 0001:00081658       ?m__ctor@Class_System_Environment@@SIXPAU1@@Z 02082658 f   VolMgr.obj
 0001:00081670       ?g_get$_positiveSign@Class_System_Globalization_NumberFormatInfo@@SIPAUClass_System_String@@XZ 02082670 f   VolMgr.obj
 0001:000816a0       ?g_get$_positiveInfinitySymbol@Class_System_Globalization_NumberFormatInfo@@SIPAUClass_System_String@@XZ 020826a0 f   VolMgr.obj
 0001:000816d0       ?g_get$_percentSymbol@Class_System_Globalization_NumberFormatInfo@@SIPAUClass_System_String@@XZ 020826d0 f   VolMgr.obj
 0001:00081700       ?g_get$_percentPositivePattern@Class_System_Globalization_NumberFormatInfo@@SIHXZ 02082700 f   VolMgr.obj
 0001:00081734       ?g_get$_percentNegativePattern@Class_System_Globalization_NumberFormatInfo@@SIHXZ 02082734 f   VolMgr.obj
 0001:00081768       ?g_get$_percentGroupSizes@Class_System_Globalization_NumberFormatInfo@@SIPAUClassVector_int32@@XZ 02082768 f   VolMgr.obj
 0001:00081798       ?g_get$_percentGroupSeparator@Class_System_Globalization_NumberFormatInfo@@SIPAUClass_System_String@@XZ 02082798 f   VolMgr.obj
 0001:000817c8       ?g_get$_percentDecimalSeparator@Class_System_Globalization_NumberFormatInfo@@SIPAUClass_System_String@@XZ 020827c8 f   VolMgr.obj
 0001:000817f8       ?g_get$_percentDecimalDigits@Class_System_Globalization_NumberFormatInfo@@SIHXZ 020827f8 f   VolMgr.obj
 0001:0008182c       ?g_get$_numberNegativePattern@Class_System_Globalization_NumberFormatInfo@@SIHXZ 0208282c f   VolMgr.obj
 0001:00081860       ?g_get$_numberGroupSizes@Class_System_Globalization_NumberFormatInfo@@SIPAUClassVector_int32@@XZ 02082860 f   VolMgr.obj
 0001:00081890       ?g_get$_numberGroupSeparator@Class_System_Globalization_NumberFormatInfo@@SIPAUClass_System_String@@XZ 02082890 f   VolMgr.obj
 0001:000818c0       ?g_get$_numberDecimalSeparator@Class_System_Globalization_NumberFormatInfo@@SIPAUClass_System_String@@XZ 020828c0 f   VolMgr.obj
 0001:000818f0       ?g_get$_numberDecimalDigits@Class_System_Globalization_NumberFormatInfo@@SIHXZ 020828f0 f   VolMgr.obj
 0001:00081924       ?g_get$_negativeSign@Class_System_Globalization_NumberFormatInfo@@SIPAUClass_System_String@@XZ 02082924 f   VolMgr.obj
 0001:00081954       ?g_get$_negativeInfinitySymbol@Class_System_Globalization_NumberFormatInfo@@SIPAUClass_System_String@@XZ 02082954 f   VolMgr.obj
 0001:00081984       ?g_get$_nanSymbol@Class_System_Globalization_NumberFormatInfo@@SIPAUClass_System_String@@XZ 02082984 f   VolMgr.obj
 0001:000819b4       ?m__ctor@Class_System_Globalization_NumberFormatInfo@@SIXPAU1@@Z 020829b4 f   VolMgr.obj
 0001:000819cc       ?g__cctor@Class_System_Globalization_NumberFormatInfo@@SIXXZ 020829cc f   VolMgr.obj
 0001:000819e0       ?m_ToString@Class_System_RuntimeType@@SIPAUClass_System_String@@PAU1@@Z 020829e0 f   VolMgr.obj
 0001:00081a04       ?m_IsSubclassOf@Class_System_RuntimeType@@SI_NPAU1@PAUClass_System_Type@@@Z 02082a04 f   VolMgr.obj
 0001:00081a6c       ?m_IsPrimitiveImpl@Class_System_RuntimeType@@SI_NPAU1@@Z 02082a6c f   VolMgr.obj
 0001:00081a94       ?m_IsArrayImpl@Class_System_RuntimeType@@SI_NPAU1@@Z 02082a94 f   VolMgr.obj
 0001:00081abc       ?m_InternalGetProperlyQualifiedName@Class_System_RuntimeType@@SIPAUClass_System_String@@PAU1@@Z 02082abc f   VolMgr.obj
 0001:00081ae0       ?g_GetTypeFromHandleImpl@Class_System_RuntimeType@@SIPAUClass_System_Type@@UStruct_System_RuntimeTypeHandle@@@Z 02082ae0 f   VolMgr.obj
 0001:00081b10       ?m_GetSystemType@Class_System_RuntimeType@@SI?AUStruct_Microsoft_Singularity_V1_Types_SystemType@@PAU1@@Z 02082b10 f   VolMgr.obj
 0001:00081c7c       ?m_GetHashCode@Class_System_RuntimeType@@SIHPAU1@@Z 02082c7c f   VolMgr.obj
 0001:00081cb4       ?m_get$_UnderlyingSystemType@Class_System_RuntimeType@@SIPAUClass_System_Type@@PAU1@@Z 02082cb4 f   VolMgr.obj
 0001:00081cd4       ?m_get$_Namespace@Class_System_RuntimeType@@SIPAUClass_System_String@@PAU1@@Z 02082cd4 f   VolMgr.obj
 0001:00081cf4       ?m_get$_Name@Class_System_RuntimeType@@SIPAUClass_System_String@@PAU1@@Z 02082cf4 f   VolMgr.obj
 0001:00081d14       ?m_get$_IsVector@Class_System_RuntimeType@@SI_NPAU1@@Z 02082d14 f   VolMgr.obj
 0001:00081d3c       ?m_get$_IsRectangleArray@Class_System_RuntimeType@@SI_NPAU1@@Z 02082d3c f   VolMgr.obj
 0001:00081d64       ?m_get$_FullName@Class_System_RuntimeType@@SIPAUClass_System_String@@PAU1@@Z 02082d64 f   VolMgr.obj
 0001:00081dc0       ?m_get$_BaseType@Class_System_RuntimeType@@SIPAUClass_System_Type@@PAU1@@Z 02082dc0 f   VolMgr.obj
 0001:00081de0       ?m_AddFullName@Class_System_RuntimeType@@SIXPAU1@PAUClass_System_Text_StringBuilder@@@Z 02082de0 f   VolMgr.obj
 0001:00081e9c       ?m__ctor@Class_System_RuntimeType@@SIXPAU1@@Z 02082e9c f   VolMgr.obj
 0001:00081ed4       ?m_ToString@Class_System_Type@@SIPAUClass_System_String@@PAU1@@Z 02082ed4 f   VolMgr.obj
 0001:00081f04       ?m_IsValueTypeImpl@Class_System_Type@@SI_NPAU1@@Z 02082f04 f   VolMgr.obj
 0001:00081f68       ?m_IsSubclassOf@Class_System_Type@@SI_NPAU1@0@Z 02082f68 f   VolMgr.obj
 0001:00081fd0       ?g_GetTypeFromHandle@Class_System_Type@@SIPAU1@UStruct_System_RuntimeTypeHandle@@@Z 02082fd0 f   VolMgr.obj
 0001:00082018       ?m_GetHashCode@Class_System_Type@@SIHPAU1@@Z 02083018 f   VolMgr.obj
 0001:00082068       ?m_get$_IsValueType@Class_System_Type@@SI_NPAU1@@Z 02083068 f   VolMgr.obj
 0001:00082090       ?m_get$_IsPrimitive@Class_System_Type@@SI_NPAU1@@Z 02083090 f   VolMgr.obj
 0001:000820b8       ?m_get$_IsArray@Class_System_Type@@SI_NPAU1@@Z 020830b8 f   VolMgr.obj
 0001:000820dc       ?m_Equals@Class_System_Type@@SI_NPAU1@0@Z 020830dc f   VolMgr.obj
 0001:00082128       ?m_Equals@Class_System_Type@@SI_NPAU1@PAUClass_System_Object@@@Z 02083128 f   VolMgr.obj
 0001:0008219c       ?m__ctor@Class_System_Type@@SIXPAU1@@Z 0208319c f   VolMgr.obj
 0001:000821b8       ?g__cctor@Class_System_Type@@SIXXZ 020831b8 f   VolMgr.obj
 0001:000821ec       ?g_throwNewStringIndexOutOfRangeException@Class_System_VTable@@SIXXZ 020831ec f   VolMgr.obj
 0001:00082224       ?g_throwNewOverflowException@Class_System_VTable@@SIXXZ 02083224 f   VolMgr.obj
 0001:00082268       ?g_throwNewIndexOutOfRangeException@Class_System_VTable@@SIXXZ 02083268 f   VolMgr.obj
 0001:000822a0       ?g_throwNewDivideByZeroException@Class_System_VTable@@SIXXZ 020832a0 f   VolMgr.obj
 0001:000822d8       ?g_throwNewClassCastException@Class_System_VTable@@SIXXZ 020832d8 f   VolMgr.obj
 0001:00082310       ?g_throwNewArrayTypeMismatchException@Class_System_VTable@@SIXXZ 02083310 f   VolMgr.obj
 0001:00082348       ?g_throwNewArithmeticException@Class_System_VTable@@SIXXZ 02083348 f   VolMgr.obj
 0001:00082380       ?g_throwNewArgumentOutOfRangeException@Class_System_VTable@@SIXXZ 02083380 f   VolMgr.obj
 0001:000823b8       ?g_TerminateByException@Class_System_VTable@@SIXPAUClass_System_Exception@@@Z 020833b8 f   VolMgr.obj
 0001:000825d4       ?g_StartupChecks@Class_System_VTable@@SIXXZ 020835d4 f   VolMgr.obj
 0001:000826ac       ?g_Shutdown@Class_System_VTable@@SIXH@Z 020836ac f   VolMgr.obj
 0001:00082c4c       ?g_Shutdown@Class_System_VTable@@SIXXZ 02083c4c f   VolMgr.obj
 0001:00082c60       ?g_profileInterfaceOffset@Class_System_VTable@@SIXPAU1@PAUClass_System_RuntimeType@@H@Z 02083c60 f   VolMgr.obj
 0001:00082de0       ?g_NotReached@Class_System_VTable@@SIXPAUClass_System_String@@@Z 02083de0 f   VolMgr.obj
 0001:00082e04       ?g_NotReached@Class_System_VTable@@SIXXZ 02083e04 f   VolMgr.obj
 0001:00082e24       ?g_NotImplemented@Class_System_VTable@@SIXPAUClass_System_String@@@Z 02083e24 f   VolMgr.obj
 0001:00082e48       ?g_NotImplemented@Class_System_VTable@@SIXXZ 02083e48 f   VolMgr.obj
 0001:00082e68       ?g_newIsValidAssignment@Class_System_VTable@@SI_NPAU1@0H_N1@Z 02083e68 f   VolMgr.obj
 0001:00082f44       ?g_newIsInstanceOfSimple@Class_System_VTable@@SIPAUClass_System_Object@@PAU1@PAU2@H@Z 02083f44 f   VolMgr.obj
 0001:00082fe4       ?g_newIsInstanceOfNonNullSimple@Class_System_VTable@@SIPAUClass_System_Object@@PAU1@PAU2@H@Z 02083fe4 f   VolMgr.obj
 0001:00083070       ?g_newIsInstanceOfNonNullExact@Class_System_VTable@@SIPAUClass_System_Object@@PAU1@PAU2@H@Z 02084070 f   VolMgr.obj
 0001:000830fc       ?g_newIsInstanceOfNonNullComplex@Class_System_VTable@@SIPAUClass_System_Object@@PAU1@PAU2@H@Z 020840fc f   VolMgr.obj
 0001:00083188       ?g_newIsInstanceOfExact@Class_System_VTable@@SIPAUClass_System_Object@@PAU1@PAU2@H@Z 02084188 f   VolMgr.obj
 0001:00083228       ?g_newIsInstanceOfComplex@Class_System_VTable@@SIPAUClass_System_Object@@PAU1@PAU2@H@Z 02084228 f   VolMgr.obj
 0001:000832c8       ?g_newIsInstanceOf@Class_System_VTable@@SIPAUClass_System_Object@@PAU1@PAU2@H_N22@Z 020842c8 f   VolMgr.obj
 0001:0008335c       ?g_newCheckClassCastSimple@Class_System_VTable@@SIXPAU1@PAUClass_System_Object@@H@Z 0208435c f   VolMgr.obj
 0001:00083438       ?g_newCheckClassCastNonNullSimple@Class_System_VTable@@SIXPAU1@PAUClass_System_Object@@H@Z 02084438 f   VolMgr.obj
 0001:00083508       ?g_newCheckClassCastNonNullExact@Class_System_VTable@@SIXPAU1@PAUClass_System_Object@@H@Z 02084508 f   VolMgr.obj
 0001:000835b8       ?g_newCheckClassCastNonNullComplex@Class_System_VTable@@SIXPAU1@PAUClass_System_Object@@H@Z 020845b8 f   VolMgr.obj
 0001:000836ec       ?g_newCheckClassCastExact@Class_System_VTable@@SIXPAU1@PAUClass_System_Object@@H@Z 020846ec f   VolMgr.obj
 0001:000837ac       ?g_newCheckClassCastComplex@Class_System_VTable@@SIXPAU1@PAUClass_System_Object@@H@Z 020847ac f   VolMgr.obj
 0001:000838f0       ?g_newCheckClassCast@Class_System_VTable@@SIXPAU1@PAUClass_System_Object@@H_N22@Z 020848f0 f   VolMgr.obj
 0001:00083ac4       ?g_mulUnsigned64Bit@Class_System_VTable@@SI_K_K0@Z 02084ac4 f   VolMgr.obj
 0001:00083b88       ?g_isValidAssignmentSlow@Class_System_VTable@@SI_NPAUClass_System_RuntimeType@@0@Z 02084b88 f   VolMgr.obj
 0001:00083d0c       ?g_isValidAssignmentMedium@Class_System_VTable@@SI_NPAUClass_System_RuntimeType@@0@Z 02084d0c f   VolMgr.obj
 0001:00083d60       ?g_isValidAssignmentArray@Class_System_VTable@@SI_NPAUClass_System_RuntimeType@@0@Z 02084d60 f   VolMgr.obj
 0001:00083e94       ?g_isValidAssignment@Class_System_VTable@@SI_NPAUClass_System_RuntimeType@@0@Z 02084e94 f   VolMgr.obj
 0001:00083ed0       ?g_isInstanceOf@Class_System_VTable@@SIPAUClass_System_Object@@PAUClass_System_RuntimeType@@PAU2@@Z 02084ed0 f   VolMgr.obj
 0001:00083f40       ?g_IsExceptionHandler@Class_System_VTable@@SI_NPAUClass_System_Type@@PAUClass_System_Exception@@@Z 02084f40 f   VolMgr.obj
 0001:00083fac       ?g_interfaceOffset@Class_System_VTable@@SIPAUintPtr@@PAU1@PAUClass_System_RuntimeType@@@Z 02084fac f   VolMgr.obj
 0001:00084064       ?g_initTypePrint@Class_System_VTable@@SIXPAUClass_System_RuntimeType@@PAUClass_System_String@@@Z 02085064 f   VolMgr.obj
 0001:00084088       ?g_initType@Class_System_VTable@@SIXPAUClass_System_RuntimeType@@@Z 02085088 f   VolMgr.obj
 0001:0008438c       ?g_InitializeLimitedType@Class_System_VTable@@SIXPAUClass_System_Type@@@Z 0208538c f   VolMgr.obj
 0001:000843b0       ?g_InitializeLimitedType@Class_System_VTable@@SIXPAUClass_System_RuntimeType@@@Z 020853b0 f   VolMgr.obj
 0001:000843e0       ?g_initializeGC@Class_System_VTable@@SIXXZ 020853e0 f   VolMgr.obj
 0001:000844d0       ?g_Initialize@Class_System_VTable@@SIXPAUClass_System_RuntimeType@@@Z 020854d0 f   VolMgr.obj
 0001:00084604       ?g_init@Class_System_VTable@@SIXPAUClass_System_Object@@@Z 02085604 f   VolMgr.obj
 0001:00084620       ?g_get$_fDebug@Class_System_VTable@@SI_NXZ 02085620 f   VolMgr.obj
 0001:00084638       ?g_failAssert@Class_System_VTable@@SIXPAUClass_System_String@@@Z 02085638 f   VolMgr.obj
 0001:000846fc       ?g_EnableLibraryAsserts@Class_System_VTable@@SI_NXZ 020856fc f   VolMgr.obj
 0001:00084714       ?g_doubleToULong@Class_System_VTable@@SI_KN@Z 02085714 f   VolMgr.obj
 0001:000847b0       ?g_Deny@Class_System_VTable@@SIX_N@Z 020857b0 f   VolMgr.obj
 0001:000847f8       ?g_Deny@Class_System_VTable@@SIX_NPAUClass_System_String@@@Z 020857f8 f   VolMgr.obj
 0001:00084840       ?g_DebugPrint@Class_System_VTable@@SIX_J@Z 02085840 f   VolMgr.obj
 0001:000848bc       ?g_DebugPrint@Class_System_VTable@@SIXH@Z 020858bc f   VolMgr.obj
 0001:00084934       ?g_DebugPrint@Class_System_VTable@@SIXPAUClass_System_String@@@Z 02085934 f   VolMgr.obj
 0001:00084958       ?g_DebugPrint@Class_System_VTable@@SIXPAUClass_System_String@@UStruct_System_VarargList@@@Z 02085958 f   VolMgr.obj
 0001:000849c0       ?g_DebugBreak@Class_System_VTable@@SIXXZ 020859c0 f   VolMgr.obj
 0001:000849d8       ?g_checkUnbox@Class_System_VTable@@SIXPAUClass_System_Object@@H@Z 020859d8 f   VolMgr.obj
 0001:00084a34       ?g_checkedDoubleToULong@Class_System_VTable@@SI_KN@Z 02085a34 f   VolMgr.obj
 0001:00084b2c       ?g_checkClassCast@Class_System_VTable@@SIXPAUClass_System_RuntimeType@@PAUClass_System_Object@@@Z 02085b2c f   VolMgr.obj
 0001:00084ba0       ?g_checkArrayStore@Class_System_VTable@@SIXPAUClass_System_Object@@0@Z 02085ba0 f   VolMgr.obj
 0001:00084ca8       ?g_Assert@Class_System_VTable@@SIX_N@Z 02085ca8 f   VolMgr.obj
 0001:00084cec       ?g_Assert@Class_System_VTable@@SIX_NPAUClass_System_String@@@Z 02085cec f   VolMgr.obj
 0001:00084d30       ?m__ctor@Class_System_VTable@@SIXPAU1@@Z 02085d30 f   VolMgr.obj
 0001:00084d4c       ?g__cctor@Class_System_VTable@@SIXXZ 02085d4c f   VolMgr.obj
 0001:00084e20       ?m_ToString@Class_System_Object@@SIPAUClass_System_String@@PAU1@@Z 02085e20 f   VolMgr.obj
 0001:00084e48       ?m_set$_vtable@Class_System_Object@@SIXPAU1@PAUClass_System_VTable@@@Z 02085e48 f   VolMgr.obj
 0001:00084e74       ?m_set$_muw@Class_System_Object@@SIXPAU1@UStruct_System_MultiUseWord@@@Z 02085e74 f   VolMgr.obj
 0001:00084ea8       ?m_GetType@Class_System_Object@@SIPAUClass_System_Type@@PAU1@@Z 02085ea8 f   VolMgr.obj
 0001:00084ee0       ?m_GetHashCode@Class_System_Object@@SIHPAU1@@Z 02085ee0 f   VolMgr.obj
 0001:00084f04       ?m_get$_VTableFieldAddr@Class_System_Object@@SIPAPAUuintPtr@@PAU1@@Z 02085f04 f   VolMgr.obj
 0001:00084f30       ?m_get$_vtable@Class_System_Object@@SIPAUClass_System_VTable@@PAU1@@Z 02085f30 f   VolMgr.obj
 0001:00084f58       ?m_get$_muw@Class_System_Object@@SI?AUStruct_System_MultiUseWord@@PAU1@@Z 02085f58 f   VolMgr.obj
 0001:00084f84       ?m_get$_GcUnmarkedVTable@Class_System_Object@@SIPAUClass_System_VTable@@PAU1@@Z 02085f84 f   VolMgr.obj
 0001:00084fb8       ?m_GcMark@Class_System_Object@@SIPAUuintPtr@@PAU1@@Z 02085fb8 f   VolMgr.obj
 0001:00084ff4       ?m_GcMark@Class_System_Object@@SI_NPAU1@PAUuintPtr@@@Z 02085ff4 f   VolMgr.obj
 0001:00085068       ?m_Finalize@Class_System_Object@@SIXPAU1@@Z 02086068 f   VolMgr.obj
 0001:00085084       ?m_Equals@Class_System_Object@@SI_NPAU1@0@Z 02086084 f   VolMgr.obj
 0001:000850ac       ?m_CompareExchangeMUW@Class_System_Object@@SIPAUuintPtr@@PAU1@PAU2@1@Z 020860ac f   VolMgr.obj
 0001:000850ec       ?m__ctor@Class_System_Object@@SIXPAU1@@Z 020860ec f   VolMgr.obj
 0001:00085110       C:\Users\cc\source\repos\Singularity-OS\base.obj\AppNativeObj\Debug.x86.MarkSweep\VolMgr_superObj_CodeBase 02086110     VolMgr_superObj.obj
 0001:00085110       ?g_Initialize@Class_System_VTable@@SIXXZ 02086110 f   VolMgr_superObj.obj
 0001:00085120       __checkStackOverflow       02086120 f   native.Full:halstack.obj
 0001:00085139       ?c_LinkStackFunctionsBegin@Class_Microsoft_Singularity_Memory_Stacks@@2EA 02086139     native.Full:halstack.obj
 0001:0008513a       ?c_LinkStackBegin@Class_Microsoft_Singularity_Memory_Stacks@@2EA 0208613a     native.Full:halstack.obj
 0001:00085140       LinkStack                  02086140 f   native.Full:halstack.obj
 0001:00085190       ?c_LinkStackLimit@Class_Microsoft_Singularity_Memory_Stacks@@2EA 02086190     native.Full:halstack.obj
 0001:00085191       ?c_UnlinkStackBegin@Class_Microsoft_Singularity_Memory_Stacks@@2EA 02086191     native.Full:halstack.obj
 0001:000851a0       UnlinkStack                020861a0 f   native.Full:halstack.obj
 0001:000851e4       ?c_UnlinkStackLimit@Class_Microsoft_Singularity_Memory_Stacks@@2EA 020861e4     native.Full:halstack.obj
 0001:000851e5       ?c_LinkStackStubsBegin@Class_Microsoft_Singularity_Memory_Stacks@@2EA 020861e5     native.Full:halstack.obj
 0001:000851e8       ?g_LinkStack0@Class_Microsoft_Singularity_Memory_Stacks@@SIXXZ 020861e8     native.Full:halstack.obj
 0001:00085200       ?g_LinkStack4@Class_Microsoft_Singularity_Memory_Stacks@@SIXXZ 02086200     native.Full:halstack.obj
 0001:00085218       ?g_LinkStack8@Class_Microsoft_Singularity_Memory_Stacks@@SIXXZ 02086218     native.Full:halstack.obj
 0001:00085230       ?g_LinkStack12@Class_Microsoft_Singularity_Memory_Stacks@@SIXXZ 02086230     native.Full:halstack.obj
 0001:00085248       ?g_LinkStack16@Class_Microsoft_Singularity_Memory_Stacks@@SIXXZ 02086248     native.Full:halstack.obj
 0001:00085260       ?g_LinkStack20@Class_Microsoft_Singularity_Memory_Stacks@@SIXXZ 02086260     native.Full:halstack.obj
 0001:00085278       ?g_LinkStack24@Class_Microsoft_Singularity_Memory_Stacks@@SIXXZ 02086278     native.Full:halstack.obj
 0001:00085290       ?g_LinkStack28@Class_Microsoft_Singularity_Memory_Stacks@@SIXXZ 02086290     native.Full:halstack.obj
 0001:000852a8       ?g_LinkStack32@Class_Microsoft_Singularity_Memory_Stacks@@SIXXZ 020862a8     native.Full:halstack.obj
 0001:000852c0       ?g_LinkStack36@Class_Microsoft_Singularity_Memory_Stacks@@SIXXZ 020862c0     native.Full:halstack.obj
 0001:000852d8       ?g_LinkStack40@Class_Microsoft_Singularity_Memory_Stacks@@SIXXZ 020862d8     native.Full:halstack.obj
 0001:000852f0       ?g_LinkStack44@Class_Microsoft_Singularity_Memory_Stacks@@SIXXZ 020862f0     native.Full:halstack.obj
 0001:00085308       ?g_LinkStack48@Class_Microsoft_Singularity_Memory_Stacks@@SIXXZ 02086308     native.Full:halstack.obj
 0001:00085320       ?g_LinkStack52@Class_Microsoft_Singularity_Memory_Stacks@@SIXXZ 02086320     native.Full:halstack.obj
 0001:00085338       ?g_LinkStack56@Class_Microsoft_Singularity_Memory_Stacks@@SIXXZ 02086338     native.Full:halstack.obj
 0001:00085350       ?g_LinkStack60@Class_Microsoft_Singularity_Memory_Stacks@@SIXXZ 02086350     native.Full:halstack.obj
 0001:00085368       ?g_LinkStack64@Class_Microsoft_Singularity_Memory_Stacks@@SIXXZ 02086368     native.Full:halstack.obj
 0001:00085380       ?g_LinkStack68@Class_Microsoft_Singularity_Memory_Stacks@@SIXXZ 02086380     native.Full:halstack.obj
 0001:00085398       ?g_LinkStack72@Class_Microsoft_Singularity_Memory_Stacks@@SIXXZ 02086398     native.Full:halstack.obj
 0001:000853b0       ?g_LinkStack76@Class_Microsoft_Singularity_Memory_Stacks@@SIXXZ 020863b0     native.Full:halstack.obj
 0001:000853c8       ?g_LinkStack80@Class_Microsoft_Singularity_Memory_Stacks@@SIXXZ 020863c8     native.Full:halstack.obj
 0001:000853e0       ?g_LinkStack84@Class_Microsoft_Singularity_Memory_Stacks@@SIXXZ 020863e0     native.Full:halstack.obj
 0001:000853f8       ?g_LinkStack88@Class_Microsoft_Singularity_Memory_Stacks@@SIXXZ 020863f8     native.Full:halstack.obj
 0001:00085410       ?g_LinkStack92@Class_Microsoft_Singularity_Memory_Stacks@@SIXXZ 02086410     native.Full:halstack.obj
 0001:00085428       ?g_LinkStack96@Class_Microsoft_Singularity_Memory_Stacks@@SIXXZ 02086428     native.Full:halstack.obj
 0001:00085440       ?g_LinkStack100@Class_Microsoft_Singularity_Memory_Stacks@@SIXXZ 02086440     native.Full:halstack.obj
 0001:00085458       ?g_LinkStack104@Class_Microsoft_Singularity_Memory_Stacks@@SIXXZ 02086458     native.Full:halstack.obj
 0001:00085470       ?g_LinkStack108@Class_Microsoft_Singularity_Memory_Stacks@@SIXXZ 02086470     native.Full:halstack.obj
 0001:00085488       ?g_LinkStack112@Class_Microsoft_Singularity_Memory_Stacks@@SIXXZ 02086488     native.Full:halstack.obj
 0001:000854a0       ?g_LinkStack116@Class_Microsoft_Singularity_Memory_Stacks@@SIXXZ 020864a0     native.Full:halstack.obj
 0001:000854b8       ?g_LinkStack120@Class_Microsoft_Singularity_Memory_Stacks@@SIXXZ 020864b8     native.Full:halstack.obj
 0001:000854d0       ?g_LinkStack124@Class_Microsoft_Singularity_Memory_Stacks@@SIXXZ 020864d0     native.Full:halstack.obj
 0001:000854e8       ?g_LinkStack128@Class_Microsoft_Singularity_Memory_Stacks@@SIXXZ 020864e8     native.Full:halstack.obj
 0001:000854ff       ?c_LinkStackStubsLimit@Class_Microsoft_Singularity_Memory_Stacks@@2EA 020864ff     native.Full:halstack.obj
 0001:00085500       __checkStackLimit          02086500 f   native.Full:halstack.obj
 0001:00085536       ?c_LinkStackFunctionsLimit@Class_Microsoft_Singularity_Memory_Stacks@@2EA 02086536     native.Full:halstack.obj
 0001:00085560       __throwDispatcher          02086560 f   native.Full:lib.obj
 0001:00085580       __throwDispatcherExplicitAddr 02086580 f   native.Full:lib.obj
 0001:00085590       __throwDispatcherExplicitAddrAfterCore 02086590 f   native.Full:lib.obj
 0001:000855a0       __throwDispatcherHandler   020865a0 f   native.Full:lib.obj
 0001:000855b0       __throwDispatcherUnwind    020865b0 f   native.Full:lib.obj
 0001:00085600       __throwDivideByZeroException 02086600 f   native.Full:lib.obj
 0001:00085630       __throwStackOverflowException 02086630 f   native.Full:lib.obj
 0001:00085670       __throwNullReferenceException 02086670 f   native.Full:lib.obj
 0001:000856a0       __throwOverflowException   020866a0 f   native.Full:lib.obj
 0001:000856d0       ?g_doubleToInt@Class_System_VTable@@SIHN@Z 020866d0 f   native.Full:lib.obj
 0001:00085730       ?g_doubleToLong@Class_System_VTable@@SI_JN@Z 02086730 f   native.Full:lib.obj
 0001:000857a0       ?g_floatToInt@Class_System_VTable@@SIHM@Z 020867a0 f   native.Full:lib.obj
 0001:00085800       ?g_floatToLong@Class_System_VTable@@SI_JM@Z 02086800 f   native.Full:lib.obj
 0001:00085880       ?g_checkedDoubleToInt@Class_System_VTable@@SIHN@Z 02086880 f   native.Full:lib.obj
 0001:00085900       ?g_checkedDoubleToLong@Class_System_VTable@@SI_JN@Z 02086900 f   native.Full:lib.obj
 0001:00085980       ?g_checkedFloatToInt@Class_System_VTable@@SIHM@Z 02086980 f   native.Full:lib.obj
 0001:000859f0       ?g_checkedFloatToLong@Class_System_VTable@@SI_JM@Z 020869f0 f   native.Full:lib.obj
 0001:00085a70       ?g_Sin@Class_System_Math@@SINN@Z 02086a70 f   native.Full:lib.obj
 0001:00085a80       ?g_Cos@Class_System_Math@@SINN@Z 02086a80 f   native.Full:lib.obj
 0001:00085a90       ?g_Tan@Class_System_Math@@SINN@Z 02086a90 f   native.Full:lib.obj
 0001:00085aa0       ?g_Atan@Class_System_Math@@SINN@Z 02086aa0 f   native.Full:lib.obj
 0001:00085ab0       ?g_atan2@Class_System_Math@@SINNN@Z 02086ab0 f   native.Full:lib.obj
 0001:00085ac0       ?g_exp@Class_System_Math@@SINN@Z 02086ac0 f   native.Full:lib.obj
 0001:00085ae0       ?g_Log@Class_System_Math@@SINN@Z 02086ae0 f   native.Full:lib.obj
 0001:00085af0       ?g_Ceiling@Class_System_Math@@SINN@Z 02086af0 f   native.Full:lib.obj
 0001:00085b20       ?g_Floor@Class_System_Math@@SINN@Z 02086b20 f   native.Full:lib.obj
 0001:00085b50       ?g_Round@Class_System_Math@@SINN@Z 02086b50 f   native.Full:lib.obj
 0001:00085b60       ?g_abs@Class_System_Math@@SIMM@Z 02086b60 f   native.Full:lib.obj
 0001:00085b70       ?g_abs@Class_System_Math@@SINN@Z 02086b70 f   native.Full:lib.obj
 0001:00085b80       ?g_floatRem@Class_System_VTable@@SIMMM@Z 02086b80 f   native.Full:lib.obj
 0001:00085ba0       ?g_doubleRem@Class_System_VTable@@SINNN@Z 02086ba0 f   native.Full:lib.obj
 0001:00085bc0       ?g_LogFunction@Class_Microsoft_Singularity_GCProfilerLogger_ProfilerBuffer@@SIXIPAUuintPtr@@@Z 02086bc0 f   native.Full:GCTracing.obj
 0001:00085bf0       ?g_LogAllocation@Class_Microsoft_Singularity_GCProfilerLogger_ProfilerBuffer@@SIXHPAUuintPtr@@I@Z 02086bf0 f   native.Full:GCTracing.obj
 0001:00085c30       ?g_LogStack@Class_Microsoft_Singularity_GCProfilerLogger_ProfilerBuffer@@SIXIIPAUuintPtr@@IPAI@Z 02086c30 f   native.Full:GCTracing.obj
 0001:00085c90       ?g_LogInterval@Class_Microsoft_Singularity_GCProfilerLogger_ProfilerBuffer@@SIX_K@Z 02086c90 f   native.Full:GCTracing.obj
 0001:00085cd0       ?g_LogType@Class_Microsoft_Singularity_GCProfilerLogger_ProfilerBuffer@@SIXIPAUClass_System_String@@@Z 02086cd0 f   native.Full:GCTracing.obj
 0001:00085d20       ?g_LogObject@Class_Microsoft_Singularity_GCProfilerLogger_ProfilerBuffer@@SIXIPAPAUuintPtr@@@Z 02086d20 f   native.Full:GCTracing.obj
 0001:00085d70       ?g_LogGenerations@Class_Microsoft_Singularity_GCProfilerLogger_ProfilerBuffer@@SIXHPAH@Z 02086d70 f   native.Full:GCTracing.obj
 0001:00085dc0       ?g_LogRoots@Class_Microsoft_Singularity_GCProfilerLogger_ProfilerBuffer@@SIXIPAPAUuintPtr@@@Z 02086dc0 f   native.Full:GCTracing.obj
 0001:00085e10       ?fail_assert@@YIXPAUClass_System_String@@@Z 02086e10 f   native.Full:ProcessEntry.obj
 0001:00085e30       ?g_CallMain@Class_Microsoft_Singularity_AppRuntime@@SIHPAUClassVector_Class_System_String@@@Z 02086e30 f   native.Full:ProcessEntry.obj
 0001:00085e40       ?g_MainReturnsInt@Class_Microsoft_Singularity_AppRuntime@@SI_NXZ 02086e40 f   native.Full:ProcessEntry.obj
 0001:00085e50       ?g_SetDebuggerPresence@Class_Microsoft_Singularity_AppRuntime@@SIX_N@Z 02086e50 f   native.Full:ProcessEntry.obj
 0001:00085e60       @RuntimeEntryPoint@4       02086e60 f   native.Full:ProcessEntry.obj
 0001:00085ee0       ?g_GetCurrentThread@Class_Microsoft_Singularity_Isal_Isa@@SIPAUStruct_Microsoft_Singularity_Isal_ThreadRecord@@XZ 02086ee0 f   native.Full:isa.obj
 0001:00085ee9       ?g_GetCurrentCpu@Class_Microsoft_Singularity_Isal_Isa@@SIPAUStruct_Microsoft_Singularity_Isal_CpuRecord@@XZ 02086ee9 f   native.Full:isa.obj
 0001:00085ef2       ?g_GetCs@Class_Microsoft_Singularity_Isal_Isa@@SIPAUuintPtr@@XZ 02086ef2 f   native.Full:isa.obj
 0001:00085ef5       ?g_InitFpu@Class_Microsoft_Singularity_Isal_Isa@@SIXXZ 02086ef5 f   native.Full:isa.obj
 0001:00085f03       ?g_ReadFpuStatus@Class_Microsoft_Singularity_Isal_Isa@@Z@@XZ 02086f03 f   native.Full:isa.obj
 0001:00085f0b       ?g_ClearFpuStatus@Class_Microsoft_Singularity_Isal_Isa@@Z@@XZ 02086f0b f   native.Full:isa.obj
 0001:00085f0e       ?g_EnterUserMode@Class_Microsoft_Singularity_Isal_Isa@@SIXXZ 02086f0e f   native.Full:isa.obj
 0001:00085f2a       ?g_GetFramePointer@Class_Microsoft_Singularity_Isal_Isa@@SIPAUuintPtr@@XZ 02086f2a f   native.Full:isa.obj
 0001:00085f30       ?g_GetCycleCount@Class_Microsoft_Singularity_Isal_Isa@@SI_KXZ 02086f30 f   native.Full:isac.obj
 0001:00085f40       ?g_GetFrameReturnAddress@Class_Microsoft_Singularity_Isal_Isa@@SIPAUuintPtr@@PAU2@@Z 02086f40 f   native.Full:isac.obj
 0001:00085f50       ?g_GetFrameCallerFrame@Class_Microsoft_Singularity_Isal_Isa@@SIPAUuintPtr@@PAU2@@Z 02086f50 f   native.Full:isac.obj
 0001:00085f60       ?g_Break@Class_Microsoft_Singularity_DebugStub@@SIXXZ 02086f60 f   native.Full:DebugStub.obj
 0001:00085f70       ?MemoryStorageGetNextGeneration@@YIIPAU_MEMORY_STORAGE@@@Z 02086f70 f   native.Full:MemoryStorage.obj
 0001:00085f80       ?MemoryStorageAdvanceCursor@@YIPAU_MEMORY_HEADER@@PAU_MEMORY_STORAGE@@PAU_MEMORY_ZONE@@G@Z 02086f80 f   native.Full:MemoryStorage.obj
 0001:00086020       ?CaptureStackTrace@@YIIPAPAUuintPtr@@I@Z 02087020 f   native.Full:MemoryStorage.obj
 0001:000860d0       ?InternalLogRecord@@YIPAU_MEMORY_HEADER@@PAUuintPtr@@I0PAXIPAPAXI@Z 020870d0 f   native.Full:MemoryStorage.obj
 0001:00086200       ?InternalLogFixedRecord@@YIPAU_MEMORY_HEADER@@PAUuintPtr@@I0PAXI@Z 02087200 f   native.Full:MemoryStorage.obj
 0001:00086240       ?InternalLogVariableRecord@@YIPAU_MEMORY_HEADER@@_NPAUuintPtr@@I1PAXIHPAUStruct_Microsoft_Singularity_Eventing_ArrayType@@@Z 02087240 f   native.Full:MemoryStorage.obj
 0001:000863a0       ?g_MemoryStorageRegisterBufferImpl@Class_Microsoft_Singularity_Eventing_MemoryStorage@@SIXPAUuintPtr@@PAEI@Z 020873a0 f   native.Full:MemoryStorage.obj
 0001:000864a0       ?g_GetMemoryStorageOveheadImpl@Class_Microsoft_Singularity_Eventing_MemoryStorage@@SIIXZ 020874a0 f   native.Full:MemoryStorage.obj
 0001:000864b0       ?g_MemoryStorageCreateImpl@Class_Microsoft_Singularity_Eventing_MemoryStorage@@SIPAUuintPtr@@IPAEII@Z 020874b0 f   native.Full:MemoryStorage.obj
 0001:00086550       ?g_MoveMemory@Class_System_Buffer@@SIXPAE0H@Z 02087550 f   native.Full:Buffer.obj
 0001:000866b0       ?g_ZeroMemory@Class_System_Buffer@@SIXPAEH@Z 020876b0 f   native.Full:Buffer.obj
 0001:00086750       ?g_DoubleFromDecimal@Struct_System_Decimal@@SIHPAU1@PAN@Z 02087750 f   native.Full:Decimal.obj
 0001:00086760       ?g_DecimalCompare@Struct_System_Decimal@@SIHPAU1@0@Z 02087760 f   native.Full:Decimal.obj
 0001:00086770       __pushStackMark            02087770 f   native.Full:gc.obj
 0001:000867d0       __popStackMark             020877d0 f   native.Full:gc.obj
 0001:00086820       ?g_CollectBodyTransition@Class_System_GC@@SIXPAUClass_System_Threading_Thread@@H@Z 02087820 f   native.Full:gc.obj
 0001:00086880       ?m_UpdateAfterGC@Struct_Microsoft_Singularity_ThreadContext@@SIXPAU1@PAUClass_System_Threading_Thread@@@Z 02087880 f   native.Full:Thread.obj
 0001:00086890       ?m_GetThread@Struct_Microsoft_Singularity_ThreadContext@@SIPAUClass_System_Threading_Thread@@PAU1@@Z 02087890 f   native.Full:Thread.obj
 0001:00086ca0       ?g_ecvt@Class_System_Number@@SI_NNHPAUClassVector_bartok_char@@PAHPA_N@Z 02087ca0 f   native.Full:Number.obj
 0001:00086ff0       ?g_atof@Class_System_Number@@SINPAUClassVector_uint8@@@Z 02087ff0 f   native.Full:Number.obj
 0001:00087000       ?g_Initialize@Class_Microsoft_Singularity_Tracing@@SIXXZ 02088000 f   native.Full:Tracing.obj
 0001:00087020       ?g_Log@Class_Microsoft_Singularity_Tracing@@SIXEPAUClass_System_String@@@Z 02088020 f   native.Full:Tracing.obj
 0001:000870d0       ?g_Log@Class_Microsoft_Singularity_Tracing@@SIXEPAUClass_System_String@@PAUuintPtr@@@Z 020880d0 f   native.Full:Tracing.obj
 0001:00087180       ?g_Log@Class_Microsoft_Singularity_Tracing@@SIXEPAUClass_System_String@@PAUuintPtr@@1@Z 02088180 f   native.Full:Tracing.obj
 0001:00087230       ?g_Log@Class_Microsoft_Singularity_Tracing@@SIXEPAUClass_System_String@@PAUuintPtr@@11@Z 02088230 f   native.Full:Tracing.obj
 0001:000872f0       ?g_Log@Class_Microsoft_Singularity_Tracing@@SIXEPAUClass_System_String@@PAUuintPtr@@111@Z 020882f0 f   native.Full:Tracing.obj
 0001:000873b0       ?g_Log@Class_Microsoft_Singularity_Tracing@@SIXEPAUClass_System_String@@PAUuintPtr@@1111@Z 020883b0 f   native.Full:Tracing.obj
 0001:00087470       ?g_Log@Class_Microsoft_Singularity_Tracing@@SIXEPAUClass_System_String@@0@Z 02088470 f   native.Full:Tracing.obj
 0001:00087540       ?g_Log@Class_Microsoft_Singularity_Tracing@@SIXEPAUClass_System_String@@0PAUuintPtr@@@Z 02088540 f   native.Full:Tracing.obj
 0001:00087610       ?g_Log@Class_Microsoft_Singularity_Tracing@@SIXEPAUClass_System_String@@0PAUuintPtr@@1@Z 02088610 f   native.Full:Tracing.obj
 0001:000876e0       ?g_Log@Class_Microsoft_Singularity_Tracing@@SIXEPAUClass_System_String@@00@Z 020886e0 f   native.Full:Tracing.obj
 0001:000877c0       ?LogExceptionInfo@@YIXPAUuintPtr@@0PAUClass_System_String@@@Z 020887c0 f   native.Full:Tracing.obj
 0001:00087830       ?ConvertToChars@@YIPADPADPA_WH@Z 02088830 f   native.Full:EventController.obj
 0001:00087860       ?g_FetchLocalStorage@Class_Microsoft_Singularity_Eventing_LocalController@@SIPAUuintPtr@@XZ 02088860 f   native.Full:EventController.obj
 0001:00087870       ?g_SetRepositoryStorage@Class_Microsoft_Singularity_Eventing_LocalController@@SI_NPAUuintPtr@@@Z 02088870 f   native.Full:EventController.obj
 0001:00087890       ?g_RegisterStorageImpl@Class_Microsoft_Singularity_Eventing_LocalController@@SI_NPAUuintPtr@@@Z 02088890 f   native.Full:EventController.obj
 0001:000878c0       ?g_UnRegisterStorageImpl@Class_Microsoft_Singularity_Eventing_LocalController@@SIXPAUuintPtr@@@Z 020888c0 f   native.Full:EventController.obj
 0001:000878f0       ?g_AllocateSourceHandleImpl@Class_Microsoft_Singularity_Eventing_LocalController@@SIPAUuintPtr@@PAUClass_System_String@@@Z 020888f0 f   native.Full:EventController.obj
 0001:000879a0       ?g_RegisterSourceStorageImpl@Class_Microsoft_Singularity_Eventing_LocalController@@SIXPAUuintPtr@@0I@Z 020889a0 f   native.Full:EventController.obj
 0001:000879f0       ?g_RegisterActiveSourceImpl@Class_Microsoft_Singularity_Eventing_LocalController@@SIXPAUuintPtr@@00GG@Z 020889f0 f   native.Full:EventController.obj
 0001:00087a50       ?g_UnRegisterSourceImpl@Class_Microsoft_Singularity_Eventing_LocalController@@SIXPAUuintPtr@@@Z 02088a50 f   native.Full:EventController.obj
 0001:00087a90       ?g_GetControllerHandle@Class_Microsoft_Singularity_Eventing_LocalController@@SI_NPAPAUuintPtr@@0@Z 02088a90 f   native.Full:EventController.obj
 0001:00087aa0       ?g_QueryNativeSourceInfo@Class_Microsoft_Singularity_Eventing_LocalController@@SI_NPAUuintPtr@@PAPAU2@PA_WG@Z 02088aa0 f   native.Full:EventController.obj
 0001:00087b10       ?g_QuerySystemSources@Class_Microsoft_Singularity_Eventing_LocalController@@SIHPAPAUuintPtr@@G@Z 02088b10 f   native.Full:EventController.obj
 0001:00087b40       __alldiv                   02088b40 f   native.Full:_lldiv.obj
 0001:00087bf0       __allrem                   02088bf0 f   native.Full:_llrem.obj
 0001:00087cb0       __aulldiv                  02088cb0 f   native.Full:_ulldiv.obj
 0001:00087d20       __aullrem                  02088d20 f   native.Full:_ullrem.obj
 0001:00087da0       __throwDispatcherExplicitAddrAfter 02088da0 f   native.Full:lib.obj
 0001:00087dda       ?g_ZeroPages@Class_System_Buffer@@SIXPAEH@Z 02088dda f   native.Full:lib.obj
 0001:00087e0e       ?g_CopyPages@Class_System_Buffer@@SIXPAE0H@Z 02088e0e f   native.Full:lib.obj
 0001:00087f40       ?ExceptionTableLookup@@YI_KPAUClass_System_Exception@@I@Z 02088f40 f   native.Full:halexn.obj
 0001:00088090       ?GetFieldSize@@YIGG@Z      02089090 f   native.Full:EventDescriptor.obj
 0001:000880f0       ?RegisterFieldDescriptorImplementation@@YIPAU_MEMORY_HEADER@@HPAU1@PAXIGG@Z 020890f0 f   native.Full:EventDescriptor.obj
 0001:00088200       ?RegisterGenericFieldDescriptorImplementation@@YIPAU_MEMORY_HEADER@@HPAU1@PAXIGGPAUuintPtr@@@Z 02089200 f   native.Full:EventDescriptor.obj
 0001:00088320       ?RegisterEnumDescriptorImplementation@@YIPAU_MEMORY_HEADER@@HPAXGG@Z 02089320 f   native.Full:EventDescriptor.obj
 0001:00088390       ?RegisterValueDescriptorImplementation@@YIPAU_MEMORY_HEADER@@HPAU1@PAXI_KE@Z 02089390 f   native.Full:EventDescriptor.obj
 0001:00088460       ?RegisterNativeTypes@@YIXXZ 02089460 f   native.Full:EventDescriptor.obj
 0001:00088dd0       ?g_Initialize@Class_Microsoft_Singularity_Monitoring@@SIXXZ 02089dd0 f   native.Full:Monitoring.obj
 0001:00088df0       ?_cinit@@YAHXZ             02089df0 f   native.Full:CInit.obj
 0001:00088e40       ?InitializeMemoryZone@@YIPAU_MEMORY_ZONE@@PAXGPAUuintPtr@@@Z 02089e40 f   native.Full:ZoneAllocation.obj
 0001:00088eb0       ?MarkZoneFull@@YIXPAU_MEMORY_ZONE@@@Z 02089eb0 f   native.Full:ZoneAllocation.obj
 0001:00088f30       ?MarkZoneCommited@@YIXPAU_MEMORY_ZONE@@@Z 02089f30 f   native.Full:ZoneAllocation.obj
 0001:00088fb0       ?AllocateEventEntry@@YIPAU_MEMORY_HEADER@@PAU_MEMORY_ZONE@@G@Z 02089fb0 f   native.Full:ZoneAllocation.obj
 0001:000890f0       ?CommitEventEntry@@YIXPAU_MEMORY_HEADER@@@Z 0208a0f0 f   native.Full:ZoneAllocation.obj
 0001:000891a0       ?IsZoneCompleted@@YI_NPAU_MEMORY_ZONE@@@Z 0208a1a0 f   native.Full:ZoneAllocation.obj
 0001:000891d0       ?RecycleZone@@YI_NPAU_MEMORY_ZONE@@@Z 0208a1d0 f   native.Full:ZoneAllocation.obj
 0001:000892b0       _memcpy                    0208a2b0 f   native.Full:_memcpy.obj
 0001:000895ed       _memmove                   0208a5ed f   native.Full:_memcpy.obj
 0001:000895f6       ?g_Allocate@Struct_Microsoft_Singularity_V1_Services_EndpointCore@@SIPAUStruct_Microsoft_Singularity_V1_Services_SharedHeapService_Allocation@@IUStruct_Microsoft_Singularity_V1_Types_SystemType@@@Z 0208a5f6 f   singularity.V1.Full:Singularity.V1.dll
 0001:000895fc       ?g_Connect@Struct_Microsoft_Singularity_V1_Services_EndpointCore@@SIXPAUStruct_Microsoft_Singularity_V1_Services_SharedHeapService_Allocation@@00@Z 0208a5fc f   singularity.V1.Full:Singularity.V1.dll
 0001:00089602       ?g_Dispose@Struct_Microsoft_Singularity_V1_Services_EndpointCore@@SI_NPAU1@@Z 0208a602 f   singularity.V1.Full:Singularity.V1.dll
 0001:00089608       ?g_Free@Struct_Microsoft_Singularity_V1_Services_EndpointCore@@SIXPAUStruct_Microsoft_Singularity_V1_Services_SharedHeapService_Allocation@@@Z 0208a608 f   singularity.V1.Full:Singularity.V1.dll
 0001:0008960e       ?g_GetPeerABI@Struct_Microsoft_Singularity_V1_Services_EndpointCore@@SIPAUStruct_Microsoft_Singularity_V1_Services_SharedHeapService_Allocation@@PAU1@PA_N@Z 0208a60e f   singularity.V1.Full:Singularity.V1.dll
 0001:00089614       ?g_MarshallMessage@Struct_Microsoft_Singularity_V1_Services_EndpointCore@@SIXPAU1@PAE1PAHH@Z 0208a614 f   singularity.V1.Full:Singularity.V1.dll
 0001:0008961a       ?g_MarshallPointer@Struct_Microsoft_Singularity_V1_Services_EndpointCore@@SIXPAU1@PAEPAPAEUStruct_Microsoft_Singularity_V1_Types_SystemType@@1H@Z 0208a61a f   singularity.V1.Full:Singularity.V1.dll
 0001:00089620       ?g_NotifyPeer@Struct_Microsoft_Singularity_V1_Services_EndpointCore@@SIXPAU1@@Z 0208a620 f   singularity.V1.Full:Singularity.V1.dll
 0001:00089626       ?g_PeerClosedABI@Struct_Microsoft_Singularity_V1_Services_EndpointCore@@SI_NPAU1@@Z 0208a626 f   singularity.V1.Full:Singularity.V1.dll
 0001:0008962c       ?g_TransferBlockOwnership@Struct_Microsoft_Singularity_V1_Services_EndpointCore@@SIXPAUStruct_Microsoft_Singularity_V1_Services_SharedHeapService_Allocation@@PAU1@@Z 0208a62c f   singularity.V1.Full:Singularity.V1.dll
 0001:00089632       ?g_TransferContentOwnership@Struct_Microsoft_Singularity_V1_Services_EndpointCore@@SIXPAU1@0@Z 0208a632 f   singularity.V1.Full:Singularity.V1.dll
 0001:00089638       ?g_DisableInterrupts@Struct_Microsoft_Singularity_V1_Services_PlatformService@@SI_NXZ 0208a638 f   singularity.V1.Full:Singularity.V1.dll
 0001:0008963e       ?g_InterruptsDisabled@Struct_Microsoft_Singularity_V1_Services_PlatformService@@SI_NXZ 0208a63e f   singularity.V1.Full:Singularity.V1.dll
 0001:00089644       ?g_RestoreInterrupts@Struct_Microsoft_Singularity_V1_Services_PlatformService@@SIX_N@Z 0208a644 f   singularity.V1.Full:Singularity.V1.dll
 0001:0008964a       ?g_CreateImpl@Struct_Microsoft_Singularity_V1_Threads_AutoResetEventHandle@@SI_N_NPAU1@@Z 0208a64a f   singularity.V1.Full:Singularity.V1.dll
 0001:00089650       ?g_Dispose@Struct_Microsoft_Singularity_V1_Threads_AutoResetEventHandle@@SIXU1@@Z 0208a650 f   singularity.V1.Full:Singularity.V1.dll
 0001:00089656       ?g_Set@Struct_Microsoft_Singularity_V1_Threads_AutoResetEventHandle@@SI_NU1@@Z 0208a656 f   singularity.V1.Full:Singularity.V1.dll
 0001:0008965c       ?g_SetNoGC@Struct_Microsoft_Singularity_V1_Threads_AutoResetEventHandle@@SI_NU1@@Z 0208a65c f   singularity.V1.Full:Singularity.V1.dll
 0001:00089662       ?g_WaitAny@Struct_Microsoft_Singularity_V1_Threads_SyncHandle@@SIHPAU1@H@Z 0208a662 f   singularity.V1.Full:Singularity.V1.dll
 0001:00089668       ?g_WaitOne@Struct_Microsoft_Singularity_V1_Threads_SyncHandle@@SI_NU1@UStruct_System_SchedulerTime@@@Z 0208a668 f   singularity.V1.Full:Singularity.V1.dll
 0001:0008966e       ?g_WaitOne@Struct_Microsoft_Singularity_V1_Threads_SyncHandle@@SI_NU1@@Z 0208a66e f   singularity.V1.Full:Singularity.V1.dll
 0001:00089674       ?g_WaitOneNoGC@Struct_Microsoft_Singularity_V1_Threads_SyncHandle@@SI_NU1@@Z 0208a674 f   singularity.V1.Full:Singularity.V1.dll
 0001:0008967a       ?g_AllocateStackSegmentAbi@Struct_Microsoft_Singularity_V1_Services_StackService@@SIPAUuintPtr@@PAU2@@Z 0208a67a f   singularity.V1.Full:Singularity.V1.dll
 0001:00089680       ?g_FreeStackSegmentAbi@Struct_Microsoft_Singularity_V1_Services_StackService@@SIXXZ 0208a680 f   singularity.V1.Full:Singularity.V1.dll
 0001:00089686       ?g_StackOverflowImpl@Struct_Microsoft_Singularity_V1_Services_StackService@@SIXXZ 0208a686 f   singularity.V1.Full:Singularity.V1.dll
 0001:0008968c       ?g_AddToPerfCounter@Struct_Microsoft_Singularity_V1_Services_DebugService@@SI_NI_K@Z 0208a68c f   singularity.V1.Full:Singularity.V1.dll
 0001:00089692       ?g_Break@Struct_Microsoft_Singularity_V1_Services_DebugService@@SIXXZ 0208a692 f   singularity.V1.Full:Singularity.V1.dll
 0001:00089698       ?g_IsDebuggerPresent@Struct_Microsoft_Singularity_V1_Services_DebugService@@SI_NXZ 0208a698 f   singularity.V1.Full:Singularity.V1.dll
 0001:0008969e       ?g_PrintBeginImpl@Struct_Microsoft_Singularity_V1_Services_DebugService@@SIXPAPA_WPAH@Z 0208a69e f   singularity.V1.Full:Singularity.V1.dll
 0001:000896a4       ?g_PrintComplete@Struct_Microsoft_Singularity_V1_Services_DebugService@@SIXPA_WH@Z 0208a6a4 f   singularity.V1.Full:Singularity.V1.dll
 0001:000896aa       ?g_CloseGlobalStorage@Struct_Microsoft_Singularity_V1_Services_DiagnosisService@@SIXPAUuintPtr@@@Z 0208a6aa f   singularity.V1.Full:Singularity.V1.dll
 0001:000896b0       ?g_DebugPrintLogEntry@Struct_Microsoft_Singularity_V1_Services_DiagnosisService@@SI_NPAUuintPtr@@0@Z 0208a6b0 f   singularity.V1.Full:Singularity.V1.dll
 0001:000896b6       ?g_GCProfileSettings@Struct_Microsoft_Singularity_V1_Services_DiagnosisService@@SIHPA_K0@Z 0208a6b6 f   singularity.V1.Full:Singularity.V1.dll
 0001:000896bc       ?g_RegisterEventingController@Struct_Microsoft_Singularity_V1_Services_DiagnosisService@@SI_NPAUuintPtr@@0@Z 0208a6bc f   singularity.V1.Full:Singularity.V1.dll
 0001:000896c2       ?g_Allocate@Struct_Microsoft_Singularity_V1_Services_SharedHeapService@@SIPAUStruct_Microsoft_Singularity_V1_Services_SharedHeapService_Allocation@@PAUuintPtr@@UStruct_Microsoft_Singularity_V1_Types_SystemType@@I@Z 0208a6c2 f   singularity.V1.Full:Singularity.V1.dll
 0001:000896c8       ?g_Free@Struct_Microsoft_Singularity_V1_Services_SharedHeapService@@SI_NPAUStruct_Microsoft_Singularity_V1_Services_SharedHeapService_Allocation@@@Z 0208a6c8 f   singularity.V1.Full:Singularity.V1.dll
 0001:000896ce       ?g_IsSubtype@Struct_Microsoft_Singularity_V1_Types_SystemType@@SI_NPAUStruct_Microsoft_Singularity_V1_Services_SharedHeapService_Allocation@@U1@@Z 0208a6ce f   singularity.V1.Full:Singularity.V1.dll
 0001:000896d4       ?g_Register@Struct_Microsoft_Singularity_V1_Types_SystemType@@SI?AU1@PA_WH_J1U1@@Z 0208a6d4 f   singularity.V1.Full:Singularity.V1.dll
 0001:000896da       ?g_RootSystemType@Struct_Microsoft_Singularity_V1_Types_SystemType@@SI?AU1@XZ 0208a6da f   singularity.V1.Full:Singularity.V1.dll
 0001:000896e0       ?g_CreateImpl@Struct_Microsoft_Singularity_V1_Threads_ThreadHandle@@SI_NHUStruct_Microsoft_Singularity_V1_Threads_ContainerHandle@@PAU1@PAPAUuintPtr@@@Z 0208a6e0 f   singularity.V1.Full:Singularity.V1.dll
 0001:000896e6       ?g_CurrentThread@Struct_Microsoft_Singularity_V1_Threads_ThreadHandle@@SI?AU1@XZ 0208a6e6 f   singularity.V1.Full:Singularity.V1.dll
 0001:000896ec       ?g_Dispose@Struct_Microsoft_Singularity_V1_Threads_ThreadHandle@@SIXU1@@Z 0208a6ec f   singularity.V1.Full:Singularity.V1.dll
 0001:000896f2       ?g_Start@Struct_Microsoft_Singularity_V1_Threads_ThreadHandle@@SIXU1@@Z 0208a6f2 f   singularity.V1.Full:Singularity.V1.dll
 0001:000896f8       ?g_Allocate@Struct_Microsoft_Singularity_V1_Services_PageTableService@@SIPAUuintPtr@@PAU2@@Z 0208a6f8 f   singularity.V1.Full:Singularity.V1.dll
 0001:000896fe       ?g_Free@Struct_Microsoft_Singularity_V1_Services_PageTableService@@SIXPAUuintPtr@@0@Z 0208a6fe f   singularity.V1.Full:Singularity.V1.dll
 0001:00089704       ?g_GetBaseAddress@Struct_Microsoft_Singularity_V1_Services_PageTableService@@SIIXZ 0208a704 f   singularity.V1.Full:Singularity.V1.dll
 0001:0008970a       ?g_GetPageCount@Struct_Microsoft_Singularity_V1_Services_PageTableService@@SIIXZ 0208a70a f   singularity.V1.Full:Singularity.V1.dll
 0001:00089710       ?g_GetPageTable@Struct_Microsoft_Singularity_V1_Services_PageTableService@@SIPAIXZ 0208a710 f   singularity.V1.Full:Singularity.V1.dll
 0001:00089716       ?g_GetProcessTag@Struct_Microsoft_Singularity_V1_Services_PageTableService@@SIIXZ 0208a716 f   singularity.V1.Full:Singularity.V1.dll
 0001:0008971c       ?g_QueryImpl@Struct_Microsoft_Singularity_V1_Services_PageTableService@@SI_NPAUuintPtr@@PAPAU2@1@Z 0208a71c f   singularity.V1.Full:Singularity.V1.dll
 0001:00089722       ?g_GetCurrentProcessId@Struct_Microsoft_Singularity_V1_Services_ProcessService@@SIGXZ 0208a722 f   singularity.V1.Full:Singularity.V1.dll
 0001:00089728       ?g_GetNamespaceEndpoint@Struct_Microsoft_Singularity_V1_Services_ProcessService@@SIPAUStruct_Microsoft_Singularity_V1_Services_SharedHeapService_Allocation@@XZ 0208a728 f   singularity.V1.Full:Singularity.V1.dll
 0001:0008972e       ?g_GetSharedSourceHandlesImpl@Struct_Microsoft_Singularity_V1_Services_ProcessService@@SI_NIPAPAUuintPtr@@00@Z 0208a72e f   singularity.V1.Full:Singularity.V1.dll
 0001:00089734       ?g_GetStartupArg@Struct_Microsoft_Singularity_V1_Services_ProcessService@@SIHHPA_WH@Z 0208a734 f   singularity.V1.Full:Singularity.V1.dll
 0001:0008973a       ?g_GetUpTime@Struct_Microsoft_Singularity_V1_Services_ProcessService@@SI?AUStruct_System_TimeSpan@@XZ 0208a73a f   singularity.V1.Full:Singularity.V1.dll
 0001:00089740       ?g_SetGcPerformanceCounters@Struct_Microsoft_Singularity_V1_Services_ProcessService@@SIXUStruct_System_TimeSpan@@_J@Z 0208a740 f   singularity.V1.Full:Singularity.V1.dll
 0001:00089746       ?g_CreateImpl@Struct_Microsoft_Singularity_V1_Threads_ManualResetEventHandle@@SI_N_NPAU1@@Z 0208a746 f   singularity.V1.Full:Singularity.V1.dll
 0001:0008974c       ?g_Dispose@Struct_Microsoft_Singularity_V1_Threads_ManualResetEventHandle@@SIXU1@@Z 0208a74c f   singularity.V1.Full:Singularity.V1.dll
 0001:00089752       ?g_Reset@Struct_Microsoft_Singularity_V1_Threads_ManualResetEventHandle@@SI_NU1@@Z 0208a752 f   singularity.V1.Full:Singularity.V1.dll
 0001:00089758       ?g_Set@Struct_Microsoft_Singularity_V1_Threads_ManualResetEventHandle@@SI_NU1@@Z 0208a758 f   singularity.V1.Full:Singularity.V1.dll
 0001:0008975e       ?g_CreateImpl@Struct_Microsoft_Singularity_V1_Threads_MutexHandle@@SI_N_NPAU1@@Z 0208a75e f   singularity.V1.Full:Singularity.V1.dll
 0001:00089764       ?g_Dispose@Struct_Microsoft_Singularity_V1_Threads_MutexHandle@@SIXU1@@Z 0208a764 f   singularity.V1.Full:Singularity.V1.dll
 0001:0008976a       ?g_IsOwnedByCurrentThread@Struct_Microsoft_Singularity_V1_Threads_MutexHandle@@SI_NU1@@Z 0208a76a f   singularity.V1.Full:Singularity.V1.dll
 0001:00089770       ?g_Release@Struct_Microsoft_Singularity_V1_Threads_MutexHandle@@SIXU1@@Z 0208a770 f   singularity.V1.Full:Singularity.V1.dll
 0001:00089776       ?g_Print@Struct_Microsoft_Singularity_V1_Services_DebugService@@SIXPA_WH@Z 0208a776 f   singularity.V1.Full:Singularity.V1.dll
 0001:0008977c       ?g_GetProcessorContextOffset@Struct_Microsoft_Singularity_V1_Services_PlatformService@@SIHXZ 0208a77c f   singularity.V1.Full:Singularity.V1.dll
 0001:00089782       ?g_GetThreadContextOffset@Struct_Microsoft_Singularity_V1_Services_PlatformService@@SIHXZ 0208a782 f   singularity.V1.Full:Singularity.V1.dll
 0001:00089788       ?g_SuspendBarrier@Struct_Microsoft_Singularity_V1_Processes_ProcessHandle@@SIXXZ 0208a788 f   singularity.V1.Full:Singularity.V1.dll
 0002:00000000       __imp_?g_Allocate@Struct_Microsoft_Singularity_V1_Services_EndpointCore@@SIPAUStruct_Microsoft_Singularity_V1_Services_SharedHeapService_Allocation@@IUStruct_Microsoft_Singularity_V1_Types_SystemType@@@Z 0208b000     singularity.V1.Full:Singularity.V1.dll
 0002:00000004       __imp_?g_Connect@Struct_Microsoft_Singularity_V1_Services_EndpointCore@@SIXPAUStruct_Microsoft_Singularity_V1_Services_SharedHeapService_Allocation@@00@Z 0208b004     singularity.V1.Full:Singularity.V1.dll
 0002:00000008       __imp_?g_Dispose@Struct_Microsoft_Singularity_V1_Services_EndpointCore@@SI_NPAU1@@Z 0208b008     singularity.V1.Full:Singularity.V1.dll
 0002:0000000c       __imp_?g_Free@Struct_Microsoft_Singularity_V1_Services_EndpointCore@@SIXPAUStruct_Microsoft_Singularity_V1_Services_SharedHeapService_Allocation@@@Z 0208b00c     singularity.V1.Full:Singularity.V1.dll
 0002:00000010       __imp_?g_GetPeerABI@Struct_Microsoft_Singularity_V1_Services_EndpointCore@@SIPAUStruct_Microsoft_Singularity_V1_Services_SharedHeapService_Allocation@@PAU1@PA_N@Z 0208b010     singularity.V1.Full:Singularity.V1.dll
 0002:00000014       __imp_?g_MarshallMessage@Struct_Microsoft_Singularity_V1_Services_EndpointCore@@SIXPAU1@PAE1PAHH@Z 0208b014     singularity.V1.Full:Singularity.V1.dll
 0002:00000018       __imp_?g_MarshallPointer@Struct_Microsoft_Singularity_V1_Services_EndpointCore@@SIXPAU1@PAEPAPAEUStruct_Microsoft_Singularity_V1_Types_SystemType@@1H@Z 0208b018     singularity.V1.Full:Singularity.V1.dll
 0002:0000001c       __imp_?g_NotifyPeer@Struct_Microsoft_Singularity_V1_Services_EndpointCore@@SIXPAU1@@Z 0208b01c     singularity.V1.Full:Singularity.V1.dll
 0002:00000020       __imp_?g_PeerClosedABI@Struct_Microsoft_Singularity_V1_Services_EndpointCore@@SI_NPAU1@@Z 0208b020     singularity.V1.Full:Singularity.V1.dll
 0002:00000024       __imp_?g_TransferBlockOwnership@Struct_Microsoft_Singularity_V1_Services_EndpointCore@@SIXPAUStruct_Microsoft_Singularity_V1_Services_SharedHeapService_Allocation@@PAU1@@Z 0208b024     singularity.V1.Full:Singularity.V1.dll
 0002:00000028       __imp_?g_TransferContentOwnership@Struct_Microsoft_Singularity_V1_Services_EndpointCore@@SIXPAU1@0@Z 0208b028     singularity.V1.Full:Singularity.V1.dll
 0002:0000002c       __imp_?g_DisableInterrupts@Struct_Microsoft_Singularity_V1_Services_PlatformService@@SI_NXZ 0208b02c     singularity.V1.Full:Singularity.V1.dll
 0002:00000030       __imp_?g_InterruptsDisabled@Struct_Microsoft_Singularity_V1_Services_PlatformService@@SI_NXZ 0208b030     singularity.V1.Full:Singularity.V1.dll
 0002:00000034       __imp_?g_RestoreInterrupts@Struct_Microsoft_Singularity_V1_Services_PlatformService@@SIX_N@Z 0208b034     singularity.V1.Full:Singularity.V1.dll
 0002:00000038       __imp_?g_CreateImpl@Struct_Microsoft_Singularity_V1_Threads_AutoResetEventHandle@@SI_N_NPAU1@@Z 0208b038     singularity.V1.Full:Singularity.V1.dll
 0002:0000003c       __imp_?g_Dispose@Struct_Microsoft_Singularity_V1_Threads_AutoResetEventHandle@@SIXU1@@Z 0208b03c     singularity.V1.Full:Singularity.V1.dll
 0002:00000040       __imp_?g_Set@Struct_Microsoft_Singularity_V1_Threads_AutoResetEventHandle@@SI_NU1@@Z 0208b040     singularity.V1.Full:Singularity.V1.dll
 0002:00000044       __imp_?g_SetNoGC@Struct_Microsoft_Singularity_V1_Threads_AutoResetEventHandle@@SI_NU1@@Z 0208b044     singularity.V1.Full:Singularity.V1.dll
 0002:00000048       __imp_?g_WaitAny@Struct_Microsoft_Singularity_V1_Threads_SyncHandle@@SIHPAU1@H@Z 0208b048     singularity.V1.Full:Singularity.V1.dll
 0002:0000004c       __imp_?g_WaitOne@Struct_Microsoft_Singularity_V1_Threads_SyncHandle@@SI_NU1@UStruct_System_SchedulerTime@@@Z 0208b04c     singularity.V1.Full:Singularity.V1.dll
 0002:00000050       __imp_?g_WaitOne@Struct_Microsoft_Singularity_V1_Threads_SyncHandle@@SI_NU1@@Z 0208b050     singularity.V1.Full:Singularity.V1.dll
 0002:00000054       __imp_?g_WaitOneNoGC@Struct_Microsoft_Singularity_V1_Threads_SyncHandle@@SI_NU1@@Z 0208b054     singularity.V1.Full:Singularity.V1.dll
 0002:00000058       __imp_?g_AllocateStackSegmentAbi@Struct_Microsoft_Singularity_V1_Services_StackService@@SIPAUuintPtr@@PAU2@@Z 0208b058     singularity.V1.Full:Singularity.V1.dll
 0002:0000005c       __imp_?g_FreeStackSegmentAbi@Struct_Microsoft_Singularity_V1_Services_StackService@@SIXXZ 0208b05c     singularity.V1.Full:Singularity.V1.dll
 0002:00000060       __imp_?g_StackOverflowImpl@Struct_Microsoft_Singularity_V1_Services_StackService@@SIXXZ 0208b060     singularity.V1.Full:Singularity.V1.dll
 0002:00000064       __imp_?g_AddToPerfCounter@Struct_Microsoft_Singularity_V1_Services_DebugService@@SI_NI_K@Z 0208b064     singularity.V1.Full:Singularity.V1.dll
 0002:00000068       __imp_?g_Break@Struct_Microsoft_Singularity_V1_Services_DebugService@@SIXXZ 0208b068     singularity.V1.Full:Singularity.V1.dll
 0002:0000006c       __imp_?g_IsDebuggerPresent@Struct_Microsoft_Singularity_V1_Services_DebugService@@SI_NXZ 0208b06c     singularity.V1.Full:Singularity.V1.dll
 0002:00000070       __imp_?g_PrintBeginImpl@Struct_Microsoft_Singularity_V1_Services_DebugService@@SIXPAPA_WPAH@Z 0208b070     singularity.V1.Full:Singularity.V1.dll
 0002:00000074       __imp_?g_PrintComplete@Struct_Microsoft_Singularity_V1_Services_DebugService@@SIXPA_WH@Z 0208b074     singularity.V1.Full:Singularity.V1.dll
 0002:00000078       __imp_?g_CloseGlobalStorage@Struct_Microsoft_Singularity_V1_Services_DiagnosisService@@SIXPAUuintPtr@@@Z 0208b078     singularity.V1.Full:Singularity.V1.dll
 0002:0000007c       __imp_?g_DebugPrintLogEntry@Struct_Microsoft_Singularity_V1_Services_DiagnosisService@@SI_NPAUuintPtr@@0@Z 0208b07c     singularity.V1.Full:Singularity.V1.dll
 0002:00000080       __imp_?g_GCProfileSettings@Struct_Microsoft_Singularity_V1_Services_DiagnosisService@@SIHPA_K0@Z 0208b080     singularity.V1.Full:Singularity.V1.dll
 0002:00000084       __imp_?g_RegisterEventingController@Struct_Microsoft_Singularity_V1_Services_DiagnosisService@@SI_NPAUuintPtr@@0@Z 0208b084     singularity.V1.Full:Singularity.V1.dll
 0002:00000088       __imp_?g_Allocate@Struct_Microsoft_Singularity_V1_Services_SharedHeapService@@SIPAUStruct_Microsoft_Singularity_V1_Services_SharedHeapService_Allocation@@PAUuintPtr@@UStruct_Microsoft_Singularity_V1_Types_SystemType@@I@Z 0208b088     singularity.V1.Full:Singularity.V1.dll
 0002:0000008c       __imp_?g_Free@Struct_Microsoft_Singularity_V1_Services_SharedHeapService@@SI_NPAUStruct_Microsoft_Singularity_V1_Services_SharedHeapService_Allocation@@@Z 0208b08c     singularity.V1.Full:Singularity.V1.dll
 0002:00000090       __imp_?g_IsSubtype@Struct_Microsoft_Singularity_V1_Types_SystemType@@SI_NPAUStruct_Microsoft_Singularity_V1_Services_SharedHeapService_Allocation@@U1@@Z 0208b090     singularity.V1.Full:Singularity.V1.dll
 0002:00000094       __imp_?g_Register@Struct_Microsoft_Singularity_V1_Types_SystemType@@SI?AU1@PA_WH_J1U1@@Z 0208b094     singularity.V1.Full:Singularity.V1.dll
 0002:00000098       __imp_?g_RootSystemType@Struct_Microsoft_Singularity_V1_Types_SystemType@@SI?AU1@XZ 0208b098     singularity.V1.Full:Singularity.V1.dll
 0002:0000009c       __imp_?g_CreateImpl@Struct_Microsoft_Singularity_V1_Threads_ThreadHandle@@SI_NHUStruct_Microsoft_Singularity_V1_Threads_ContainerHandle@@PAU1@PAPAUuintPtr@@@Z 0208b09c     singularity.V1.Full:Singularity.V1.dll
 0002:000000a0       __imp_?g_CurrentThread@Struct_Microsoft_Singularity_V1_Threads_ThreadHandle@@SI?AU1@XZ 0208b0a0     singularity.V1.Full:Singularity.V1.dll
 0002:000000a4       __imp_?g_Dispose@Struct_Microsoft_Singularity_V1_Threads_ThreadHandle@@SIXU1@@Z 0208b0a4     singularity.V1.Full:Singularity.V1.dll
 0002:000000a8       __imp_?g_Start@Struct_Microsoft_Singularity_V1_Threads_ThreadHandle@@SIXU1@@Z 0208b0a8     singularity.V1.Full:Singularity.V1.dll
 0002:000000ac       __imp_?g_Allocate@Struct_Microsoft_Singularity_V1_Services_PageTableService@@SIPAUuintPtr@@PAU2@@Z 0208b0ac     singularity.V1.Full:Singularity.V1.dll
 0002:000000b0       __imp_?g_Free@Struct_Microsoft_Singularity_V1_Services_PageTableService@@SIXPAUuintPtr@@0@Z 0208b0b0     singularity.V1.Full:Singularity.V1.dll
 0002:000000b4       __imp_?g_GetBaseAddress@Struct_Microsoft_Singularity_V1_Services_PageTableService@@SIIXZ 0208b0b4     singularity.V1.Full:Singularity.V1.dll
 0002:000000b8       __imp_?g_GetPageCount@Struct_Microsoft_Singularity_V1_Services_PageTableService@@SIIXZ 0208b0b8     singularity.V1.Full:Singularity.V1.dll
 0002:000000bc       __imp_?g_GetPageTable@Struct_Microsoft_Singularity_V1_Services_PageTableService@@SIPAIXZ 0208b0bc     singularity.V1.Full:Singularity.V1.dll
 0002:000000c0       __imp_?g_GetProcessTag@Struct_Microsoft_Singularity_V1_Services_PageTableService@@SIIXZ 0208b0c0     singularity.V1.Full:Singularity.V1.dll
 0002:000000c4       __imp_?g_QueryImpl@Struct_Microsoft_Singularity_V1_Services_PageTableService@@SI_NPAUuintPtr@@PAPAU2@1@Z 0208b0c4     singularity.V1.Full:Singularity.V1.dll
 0002:000000c8       __imp_?g_GetCurrentProcessId@Struct_Microsoft_Singularity_V1_Services_ProcessService@@SIGXZ 0208b0c8     singularity.V1.Full:Singularity.V1.dll
 0002:000000cc       __imp_?g_GetNamespaceEndpoint@Struct_Microsoft_Singularity_V1_Services_ProcessService@@SIPAUStruct_Microsoft_Singularity_V1_Services_SharedHeapService_Allocation@@XZ 0208b0cc     singularity.V1.Full:Singularity.V1.dll
 0002:000000d0       __imp_?g_GetSharedSourceHandlesImpl@Struct_Microsoft_Singularity_V1_Services_ProcessService@@SI_NIPAPAUuintPtr@@00@Z 0208b0d0     singularity.V1.Full:Singularity.V1.dll
 0002:000000d4       __imp_?g_GetStartupArg@Struct_Microsoft_Singularity_V1_Services_ProcessService@@SIHHPA_WH@Z 0208b0d4     singularity.V1.Full:Singularity.V1.dll
 0002:000000d8       __imp_?g_GetUpTime@Struct_Microsoft_Singularity_V1_Services_ProcessService@@SI?AUStruct_System_TimeSpan@@XZ 0208b0d8     singularity.V1.Full:Singularity.V1.dll
 0002:000000dc       __imp_?g_SetGcPerformanceCounters@Struct_Microsoft_Singularity_V1_Services_ProcessService@@SIXUStruct_System_TimeSpan@@_J@Z 0208b0dc     singularity.V1.Full:Singularity.V1.dll
 0002:000000e0       __imp_?g_CreateImpl@Struct_Microsoft_Singularity_V1_Threads_ManualResetEventHandle@@SI_N_NPAU1@@Z 0208b0e0     singularity.V1.Full:Singularity.V1.dll
 0002:000000e4       __imp_?g_Dispose@Struct_Microsoft_Singularity_V1_Threads_ManualResetEventHandle@@SIXU1@@Z 0208b0e4     singularity.V1.Full:Singularity.V1.dll
 0002:000000e8       __imp_?g_Reset@Struct_Microsoft_Singularity_V1_Threads_ManualResetEventHandle@@SI_NU1@@Z 0208b0e8     singularity.V1.Full:Singularity.V1.dll
 0002:000000ec       __imp_?g_Set@Struct_Microsoft_Singularity_V1_Threads_ManualResetEventHandle@@SI_NU1@@Z 0208b0ec     singularity.V1.Full:Singularity.V1.dll
 0002:000000f0       __imp_?g_CreateImpl@Struct_Microsoft_Singularity_V1_Threads_MutexHandle@@SI_N_NPAU1@@Z 0208b0f0     singularity.V1.Full:Singularity.V1.dll
 0002:000000f4       __imp_?g_Dispose@Struct_Microsoft_Singularity_V1_Threads_MutexHandle@@SIXU1@@Z 0208b0f4     singularity.V1.Full:Singularity.V1.dll
 0002:000000f8       __imp_?g_IsOwnedByCurrentThread@Struct_Microsoft_Singularity_V1_Threads_MutexHandle@@SI_NU1@@Z 0208b0f8     singularity.V1.Full:Singularity.V1.dll
 0002:000000fc       __imp_?g_Release@Struct_Microsoft_Singularity_V1_Threads_MutexHandle@@SIXU1@@Z 0208b0fc     singularity.V1.Full:Singularity.V1.dll
 0002:00000100       __imp_?g_Print@Struct_Microsoft_Singularity_V1_Services_DebugService@@SIXPA_WH@Z 0208b100     singularity.V1.Full:Singularity.V1.dll
 0002:00000104       __imp_?g_GetProcessorContextOffset@Struct_Microsoft_Singularity_V1_Services_PlatformService@@SIHXZ 0208b104     singularity.V1.Full:Singularity.V1.dll
 0002:00000108       __imp_?g_GetThreadContextOffset@Struct_Microsoft_Singularity_V1_Services_PlatformService@@SIHXZ 0208b108     singularity.V1.Full:Singularity.V1.dll
 0002:0000010c       __imp_?g_SuspendBarrier@Struct_Microsoft_Singularity_V1_Processes_ProcessHandle@@SIXXZ 0208b10c     singularity.V1.Full:Singularity.V1.dll
 0002:00000110       \177Singularity.V1_NULL_THUNK_DATA 0208b110     singularity.V1.Full:Singularity.V1.dll
 0002:00000140       c_roDataSectionBase@Class_System_GCs_StaticData 0208b140     VolMgr.obj
 0002:00000198       ?brtmain@@3P6IHPAUClassVector_Class_System_String@@@ZA 0208b198     VolMgr.obj
 0002:00000198       ?crtmain@@3P6AHHPAPAD@ZA   0208b198     VolMgr.obj
 0002:00000198       ?crtwmain@@3P6AHHPAPA_W@ZA 0208b198     VolMgr.obj
 0002:0000019c       ?brtmainReturnsInt@@3HA    0208b19c     VolMgr.obj
 0002:000001a0       ?brtmainClass@@3PAUClass_System_RuntimeType@@A 0208b1a0     VolMgr.obj
 0002:000001a4       ?charInput@@3_NA           0208b1a4     VolMgr.obj
 0002:000001a5       ?wcharInput@@3_NA          0208b1a5     VolMgr.obj
 0002:0000063a       c_roDataSectionEnd@Class_System_GCs_StaticData 0208b63a     VolMgr.obj
 0002:00000644       ?c_internedStringConstantsVector@Class_System_String@@2PAUClassVector_Class_System_String@@A 0208b644     VolMgr.obj
 0002:000018c0       ExceptionTable             0208c8c0     VolMgr.obj
 0002:000018cc       ExceptionTableBase         0208c8cc     VolMgr.obj
 0002:00006ccc       ExceptionTableBound        02091ccc     VolMgr.obj
 0002:00006ce0       returnAddressToCallSiteSetNumbers 02091ce0     VolMgr.obj
 0002:0000ce5c       callSiteSetCount           02097e5c     VolMgr.obj
 0002:0000ce60       callSetSiteNumberToIndex   02097e60     VolMgr.obj
 0002:0000ff1c       activationDescriptorTable  0209af1c     VolMgr.obj
 0002:000128fc       staticDataPointerBitMap    0209d8fc     VolMgr.obj
 0002:000140e0       ?c_useLinkedStack@Class_System_VTable@@2_NA 0209f0e0     VolMgr_superObj.obj
 0002:000140f0       ?TableBase@@3PAUTableEntry@@A 0209f0f0     VolMgr_superObj.obj
 0002:000140f8       ?TableBound@@3PAUTableEntry@@A 0209f0f8     VolMgr_superObj.obj
 0002:00014100       ?c_returnAddressToCallSiteSetNumbers@Class_System_GCs_CallStack@@2PAPAIA 0209f100     VolMgr_superObj.obj
 0002:00014104       ?returnAddressToCallSiteSetNumbersArray 0209f104     VolMgr_superObj.obj
 0002:00014108       ?returnAddressToCallSiteSetNumbersArrayEnd 0209f108     VolMgr_superObj.obj
 0002:00014108       ?c_callSiteTableCount@Class_System_GCs_CallStack@@2HA 0209f108     VolMgr_superObj.obj
 0002:0001410c       ?c_callSiteSetCount@Class_System_GCs_CallStack@@2PAPAHA 0209f10c     VolMgr_superObj.obj
 0002:00014110       ?callSiteSetCountArray     0209f110     VolMgr_superObj.obj
 0002:00014114       ?callSiteSetCountArrayEnd  0209f114     VolMgr_superObj.obj
 0002:00014114       ?c_callSetSiteNumberToIndex@Class_System_GCs_CallStack@@2PAPAGA 0209f114     VolMgr_superObj.obj
 0002:00014118       ?callSetSiteNumberToIndexArray 0209f118     VolMgr_superObj.obj
 0002:0001411c       ?c_activationDescriptorTable@Class_System_GCs_CallStack@@2PAPAUStruct_System_GCs_CompressedFrameDescriptor@@A 0209f11c     VolMgr_superObj.obj
 0002:00014120       ?activationDescriptorArray 0209f120     VolMgr_superObj.obj
 0002:00014124       ?activationDescriptorArrayEnd 0209f124     VolMgr_superObj.obj
 0002:00014130       ?c_staticDataPointerBitMap@Class_System_GCs_StaticData@@2PAPAIA 0209f130     VolMgr_superObj.obj
 0002:00014134       ?staticDataPointerBitMapsArray 0209f134     VolMgr_superObj.obj
 0002:00014138       ?staticDataPointerBitMapsArrayEnd 0209f138     VolMgr_superObj.obj
 0002:00014140       ?c_dataSectionBase@Class_System_GCs_StaticData@@2PAPAIA 0209f140     VolMgr_superObj.obj
 0002:00014144       ?dataSectionBaseArray      0209f144     VolMgr_superObj.obj
 0002:00014148       ?dataSectionBaseArrayEnd   0209f148     VolMgr_superObj.obj
 0002:00014148       ?c_dataSectionEnd@Class_System_GCs_StaticData@@2PAPAIA 0209f148     VolMgr_superObj.obj
 0002:0001414c       ?dataSectionEndArray       0209f14c     VolMgr_superObj.obj
 0002:00014150       ?dataSectionEndArrayEnd    0209f150     VolMgr_superObj.obj
 0002:00014150       ?c_sectionCount@Class_System_GCs_StaticData@@2HA 0209f150     VolMgr_superObj.obj
 0002:00014160       ?c_roDataSectionBase@Class_System_GCs_StaticData@@2PAPAIA 0209f160     VolMgr_superObj.obj
 0002:00014164       ?roDataSectionBaseArray    0209f164     VolMgr_superObj.obj
 0002:00014168       ?roDataSectionBaseArrayEnd 0209f168     VolMgr_superObj.obj
 0002:00014168       ?c_roDataSectionEnd@Class_System_GCs_StaticData@@2PAPAIA 0209f168     VolMgr_superObj.obj
 0002:0001416c       ?roDataSectionEndArray     0209f16c     VolMgr_superObj.obj
 0002:00014170       ?roDataSectionEndArrayEnd  0209f170     VolMgr_superObj.obj
 0002:00014170       ?c_codeBaseStartTable@Class_System_GCs_CallStack@@2PAIA 0209f170     VolMgr_superObj.obj
 0002:00014174       ?codeBaseStartArray        0209f174     VolMgr_superObj.obj
 0002:00014178       ?codeBaseStartArrayEnd     0209f178     VolMgr_superObj.obj
 0002:00014178       ??_C@_04OJAHODMC@Text?$AA@ 0209f178     native.Full:EventDescriptor.obj
 0002:00014180       ??_C@_07CPCPJPKL@version?$AA@ 0209f180     native.Full:EventDescriptor.obj
 0002:00014188       ??_C@_08FGCHIJMN@Provider?$AA@ 0209f188     native.Full:EventDescriptor.obj
 0002:00014194       ??_C@_0CN@MCHNEOJN@?$HL0?$HN?3?$HL1?$HN?3?$HL2?$HN?3?$HL3?$HN?5?9?5?$CI?$HL4?$HN?0?$HL5?$HN?0?$HL6?$HN?0?$HL@ 0209f194     native.Full:EventDescriptor.obj
 0002:000141c4       ??_C@_0BI@MCHHPJCC@System?4MONITORING_ENTRY?$AA@ 0209f1c4     native.Full:EventDescriptor.obj
 0002:000141dc       ??_C@_07DANJEPLI@StrArg1?$AA@ 0209f1dc     native.Full:EventDescriptor.obj
 0002:000141e4       ??_C@_07CJMCHOPJ@StrArg0?$AA@ 0209f1e4     native.Full:EventDescriptor.obj
 0002:000141ec       ??_C@_04LDBACBBL@arg5?$AA@ 0209f1ec     native.Full:EventDescriptor.obj
 0002:000141f4       ??_C@_04KKALBAFK@arg4?$AA@ 0209f1f4     native.Full:EventDescriptor.obj
 0002:000141fc       ??_C@_04OFEKIGJN@arg3?$AA@ 0209f1fc     native.Full:EventDescriptor.obj
 0002:00014204       ??_C@_04PMFBLHNM@arg2?$AA@ 0209f204     native.Full:EventDescriptor.obj
 0002:0001420c       ??_C@_04NHHMOEBP@arg1?$AA@ 0209f20c     native.Full:EventDescriptor.obj
 0002:00014214       ??_C@_04MOGHNFFO@arg0?$AA@ 0209f214     native.Full:EventDescriptor.obj
 0002:0001421c       ??_C@_03MLMOILGK@Msg?$AA@  0209f21c     native.Full:EventDescriptor.obj
 0002:00014220       ??_C@_03POOIBDAP@PID?$AA@  0209f220     native.Full:EventDescriptor.obj
 0002:00014224       ??_C@_08PHGLMIHD@severity?$AA@ 0209f224     native.Full:EventDescriptor.obj
 0002:00014230       ??_C@_0BB@CMJINLHH@Log?5?$HL0?$HN?3?$HL1?$HN?5?$HL3?$CK?$HN?$AA@ 0209f230     native.Full:EventDescriptor.obj
 0002:00014244       ??_C@_0BI@OENOPLIK@System?4LEGACY_LOG_ENTRY?$AA@ 0209f244     native.Full:EventDescriptor.obj
 0002:0001425c       ??_C@_05CALGBKNA@Roots?$AA@ 0209f25c     native.Full:EventDescriptor.obj
 0002:00014264       ??_C@_0BA@HOFAOCFN@System?4GC_ROOTS?$AA@ 0209f264     native.Full:EventDescriptor.obj
 0002:00014274       ??_C@_0L@CKFPHHGA@Genrations?$AA@ 0209f274     native.Full:EventDescriptor.obj
 0002:00014280       ??_C@_0BG@JBMENCLG@System?4GC_GENERATIONS?$AA@ 0209f280     native.Full:EventDescriptor.obj
 0002:00014298       ??_C@_0O@MAFLGEBO@ParameterList?$AA@ 0209f298     native.Full:EventDescriptor.obj
 0002:000142a8       ??_C@_0BB@ENIHBHNB@System?4GC_OBJECT?$AA@ 0209f2a8     native.Full:EventDescriptor.obj
 0002:000142bc       ??_C@_07BPHJKENM@fncList?$AA@ 0209f2bc     native.Full:EventDescriptor.obj
 0002:000142c4       ??_C@_0BA@NJJBMNPE@System?4GC_STACK?$AA@ 0209f2c4     native.Full:EventDescriptor.obj
 0002:000142d4       ??_C@_04FABLJDN@Name?$AA@  0209f2d4     native.Full:EventDescriptor.obj
 0002:000142dc       ??_C@_06BCNEEODO@TypeId?$AA@ 0209f2dc     native.Full:EventDescriptor.obj
 0002:000142e4       ??_C@_0P@KNGNNKPN@System?4GC_TYPE?$AA@ 0209f2e4     native.Full:EventDescriptor.obj
 0002:000142f4       ??_C@_05NFMIDMMK@Delta?$AA@ 0209f2f4     native.Full:EventDescriptor.obj
 0002:000142fc       ??_C@_0BD@NCLJCGAP@System?4GC_INTERVAL?$AA@ 0209f2fc     native.Full:EventDescriptor.obj
 0002:00014310       ??_C@_06ELFECKBG@Object?$AA@ 0209f310     native.Full:EventDescriptor.obj
 0002:00014318       ??_C@_05LMDDMFKK@StkNo?$AA@ 0209f318     native.Full:EventDescriptor.obj
 0002:00014320       ??_C@_0BF@DIODGDLN@System?4GC_ALLOCATION?$AA@ 0209f320     native.Full:EventDescriptor.obj
 0002:00014338       ??_C@_02MFEOMNPG@IP?$AA@   0209f338     native.Full:EventDescriptor.obj
 0002:0001433c       ??_C@_05PPBKPJLE@FnIdx?$AA@ 0209f33c     native.Full:EventDescriptor.obj
 0002:00014344       ??_C@_0BD@IGLEBJNP@System?4GC_FUNCTION?$AA@ 0209f344     native.Full:EventDescriptor.obj
 0002:00014358       ??_C@_0O@JCJIHLOH@ExceptionName?$AA@ 0209f358     native.Full:EventDescriptor.obj
 0002:00014368       ??_C@_07DBMNFLDM@Handler?$AA@ 0209f368     native.Full:EventDescriptor.obj
 0002:00014370       ??_C@_09ELMAFJJG@ThrowFrom?$AA@ 0209f370     native.Full:EventDescriptor.obj
 0002:0001437c       ??_C@_0BH@LPOFBINH@Throw?5?$HL0?$HN?0?5Handler?5?$HL1?$HN?$AA@ 0209f37c     native.Full:EventDescriptor.obj
 0002:00014394       ??_C@_0BF@OKDJFMJI@System?4LOG_EXCEPTION?$AA@ 0209f394     native.Full:EventDescriptor.obj
 0002:000143ac       ??_C@_05GCIPIGEI@Debug?$AA@ 0209f3ac     native.Full:EventDescriptor.obj
 0002:000143b4       ??_C@_05DBKMECD@Audit?$AA@ 0209f3b4     native.Full:EventDescriptor.obj
 0002:000143bc       ??_C@_05ILLBNNOP@Trace?$AA@ 0209f3bc     native.Full:EventDescriptor.obj
 0002:000143c4       ??_C@_06JHGCIHDH@Notice?$AA@ 0209f3c4     native.Full:EventDescriptor.obj
 0002:000143cc       ??_C@_07KGMMFLDN@Warning?$AA@ 0209f3cc     native.Full:EventDescriptor.obj
 0002:000143d4       ??_C@_05NAOIJFC@Error?$AA@ 0209f3d4     native.Full:EventDescriptor.obj
 0002:000143dc       ??_C@_05FHGOFLKH@Fatal?$AA@ 0209f3dc     native.Full:EventDescriptor.obj
 0002:000143e4       ??_C@_0BE@KACIDIKN@System?4LOG_SEVERITY?$AA@ 0209f3e4     native.Full:EventDescriptor.obj
 0002:000143f8       ??_C@_03FBKDDCND@Cpu?$AA@  0209f3f8     native.Full:EventDescriptor.obj
 0002:000143fc       ??_C@_03HBIKIEFI@TID?$AA@  0209f3fc     native.Full:EventDescriptor.obj
 0002:00014400       ??_C@_04KOACHJEN@Type?$AA@ 0209f400     native.Full:EventDescriptor.obj
 0002:00014408       ??_C@_09KDGENIOP@Timestamp?$AA@ 0209f408     native.Full:EventDescriptor.obj
 0002:00014414       ??_C@_05BOOEKJH@Flags?$AA@ 0209f414     native.Full:EventDescriptor.obj
 0002:0001441c       ??_C@_06GEMKPBPA@Offset?$AA@ 0209f41c     native.Full:EventDescriptor.obj
 0002:00014424       ??_C@_04CGLAFBGF@Link?$AA@ 0209f424     native.Full:EventDescriptor.obj
 0002:0001442c       ??_C@_04EBKMHHBE@Size?$AA@ 0209f42c     native.Full:EventDescriptor.obj
 0002:00014431       ??_C@_00CNPNBAHC@?$AA@     0209f431     native.Full:EventDescriptor.obj
 0002:00014434       ??_C@_0BF@HDPDLHJI@System?4MEMORY_HEADER?$AA@ 0209f434     native.Full:EventDescriptor.obj
 0002:0001444c       __IMPORT_DESCRIPTOR_Singularity.V1 0209f44c     singularity.V1.Full:Singularity.V1.dll
 0002:00014460       __NULL_IMPORT_DESCRIPTOR   0209f460     singularity.V1.Full:Singularity.V1.dll
 0003:00000000       c_dataSectionBase@Class_System_GCs_StaticData 020a2000     VolMgr.obj
 0003:00000010       ??_7System_Object@@6B@     020a2010     VolMgr.obj
 0003:00000084       CorlibVersionInstance      020a2084     VolMgr.obj
 0003:0000015c       CorlibassemblyNameInstance 020a215c     VolMgr.obj
 0003:00000174       CorlibAssemblyInstance     020a2174     VolMgr.obj
 0003:00000180       CorlibModuleInstance       020a2180     VolMgr.obj
 0003:00000190       ?_type@Class_System_Object@@2UClass_System_RuntimeType@@A 020a2190     VolMgr.obj
 0003:000001dc       ??_7System_VTable@@6B@     020a21dc     VolMgr.obj
 0003:00000244       ?_type@Class_System_VTable@@2UClass_System_RuntimeType@@A 020a2244     VolMgr.obj
 0003:00000290       ??_7System_Type@@6B@       020a2290     VolMgr.obj
 0003:00000320       ?_type@Class_System_Type@@2UClass_System_RuntimeType@@A 020a2320     VolMgr.obj
 0003:0000036c       ??_7System_RuntimeType@@6B@ 020a236c     VolMgr.obj
 0003:000003fc       ?_type@Class_System_RuntimeType@@2U1@A 020a23fc     VolMgr.obj
 0003:00000448       ??_7System_Globalization_NumberFormatInfo@@6B@ 020a2448     VolMgr.obj
 0003:000004b0       ?_type@Class_System_Globalization_NumberFormatInfo@@2UClass_System_RuntimeType@@A 020a24b0     VolMgr.obj
 0003:000004fc       ??_7Microsoft_Singularity_GCProfilerLogger_ProfilerBuffer@@6B@ 020a24fc     VolMgr.obj
 0003:00000564       ?_type@Class_Microsoft_Singularity_GCProfilerLogger_ProfilerBuffer@@2UClass_System_RuntimeType@@A 020a2564     VolMgr.obj
 0003:000005b0       ??_7System_ValueType@@6B@  020a25b0     VolMgr.obj
 0003:00000618       ?_type@Class_System_ValueType@@2UClass_System_RuntimeType@@A 020a2618     VolMgr.obj
 0003:00000664       ??_7System_GCs_ReferenceVisitor_ObjectDescriptor@@6B@ 020a2664     VolMgr.obj
 0003:000006cc       ?_type@Class_System_GCs_ReferenceVisitor_ObjectDescriptor@@2UClass_System_RuntimeType@@A 020a26cc     VolMgr.obj
 0003:00000718       ??_7System_RuntimeFieldHandle@@6B@ 020a2718     VolMgr.obj
 0003:00000780       ?_type@Class_System_RuntimeFieldHandle@@2UClass_System_RuntimeType@@A 020a2780     VolMgr.obj
 0003:000007cc       ??_7Microsoft_Singularity_Channels_ESet$_2$LMicrosoft_Singularity_Io_VolumeManagerContract_Exp_Microsoft_Singularity_Io_VolumeManagerContract_Ready$G_Node@@6B@ 020a27cc     VolMgr.obj
 0003:00000834       VolMgrVersionInstance      020a2834     VolMgr.obj
 0003:00000858       VolMgrassemblyNameInstance 020a2858     VolMgr.obj
 0003:00000870       VolMgrAssemblyInstance     020a2870     VolMgr.obj
 0003:0000087c       VolMgrModuleInstance       020a287c     VolMgr.obj
 0003:0000088c       ?_type@Class_Microsoft_Singularity_Channels_ESet$_2$LMicrosoft_Singularity_Io_VolumeManagerContract_Exp_Microsoft_Singularity_Io_VolumeManagerContract_Ready$G_Node@@2UClass_System_RuntimeType@@A 020a288c     VolMgr.obj
 0003:000008d8       ??_7System_GCs_ObjectLayout_ObjectVisitor@@6B@ 020a28d8     VolMgr.obj
 0003:00000944       ?_type@Class_System_GCs_ObjectLayout_ObjectVisitor@@2UClass_System_RuntimeType@@A 020a2944     VolMgr.obj
 0003:00000990       ??_7System_Collections_IEnumerable@@6B@ 020a2990     VolMgr.obj
 0003:000009e8       ?_type@Class_System_Collections_IEnumerable@@2UClass_System_RuntimeType@@A 020a29e8     VolMgr.obj
 0003:00000a34       ??_7System_Collections_ICollection@@6B@ 020a2a34     VolMgr.obj
 0003:00000a9c       ?_type@Class_System_Collections_ICollection@@2UClass_System_RuntimeType@@A 020a2a9c     VolMgr.obj
 0003:00000ae8       ??_7System_Collections_IList@@6B@ 020a2ae8     VolMgr.obj
 0003:00000b54       ?_type@Class_System_Collections_IList@@2UClass_System_RuntimeType@@A 020a2b54     VolMgr.obj
 0003:00000ba0       ??_7System_ICloneable@@6B@ 020a2ba0     VolMgr.obj
 0003:00000bf8       ?_type@Class_System_ICloneable@@2UClass_System_RuntimeType@@A 020a2bf8     VolMgr.obj
 0003:00000c70       ??_7System_Array@@6B@      020a2c70     VolMgr.obj
 0003:00000cfc       ?_type@Class_System_Array@@2UClass_System_RuntimeType@@A 020a2cfc     VolMgr.obj
 0003:00000d48       ???_7vtable@ClassVector_int8@@2PAUClass_System_VTable@@A 020a2d48     VolMgr.obj
 0003:00000db8       ?_type@ClassVector_int8@@2UClass_System_RuntimeType@@A 020a2db8     VolMgr.obj
 0003:00000e04       ??_7Microsoft_Singularity_Directory_FileContract_Close@@6B@ 020a2e04     VolMgr.obj
 0003:00000e6c       Directory$_ContractsVersionInstance 020a2e6c     VolMgr.obj
 0003:00000f44       Directory$_ContractsassemblyNameInstance 020a2f44     VolMgr.obj
 0003:00000f5c       Directory$_ContractsAssemblyInstance 020a2f5c     VolMgr.obj
 0003:00000f68       Directory$_ContractsModuleInstance 020a2f68     VolMgr.obj
 0003:00000f78       ?_type@Class_Microsoft_Singularity_Directory_FileContract_Close@@2UClass_System_RuntimeType@@A 020a2f78     VolMgr.obj
 0003:00000fc4       ???_7vtable@ClassVector_int16@@2PAUClass_System_VTable@@A 020a2fc4     VolMgr.obj
 0003:00001034       ?_type@ClassVector_int16@@2UClass_System_RuntimeType@@A 020a3034     VolMgr.obj
 0003:00001080       ??_7System_Exception@@6B@  020a3080     VolMgr.obj
 0003:000010ec       ?_type@Class_System_Exception@@2UClass_System_RuntimeType@@A 020a30ec     VolMgr.obj
 0003:00001138       ??_7System_SystemException@@6B@ 020a3138     VolMgr.obj
 0003:000011a4       ?_type@Class_System_SystemException@@2UClass_System_RuntimeType@@A 020a31a4     VolMgr.obj
 0003:000011f0       ??_7System_ArgumentException@@6B@ 020a31f0     VolMgr.obj
 0003:0000125c       ?_type@Class_System_ArgumentException@@2UClass_System_RuntimeType@@A 020a325c     VolMgr.obj
 0003:000012a8       ??_7Microsoft_Singularity_Directory_DirectoryServiceContract_NakDeleteDirectoryReparse@@6B@ 020a32a8     VolMgr.obj
 0003:00001310       ?_type@Class_Microsoft_Singularity_Directory_DirectoryServiceContract_NakDeleteDirectoryReparse@@2UClass_System_RuntimeType@@A 020a3310     VolMgr.obj
 0003:0000135c       ??_7Microsoft_Singularity_V1_Services_EndpointCore@@6B@ 020a335c     VolMgr.obj
 0003:000013c4       Singularity$_V1$_AppVersionInstance 020a33c4     VolMgr.obj
 0003:0000149c       Singularity$_V1$_AppassemblyNameInstance 020a349c     VolMgr.obj
 0003:000014b4       Singularity$_V1$_AppAssemblyInstance 020a34b4     VolMgr.obj
 0003:000014c0       Singularity$_V1$_AppModuleInstance 020a34c0     VolMgr.obj
 0003:000014d0       ?_type@Class_Microsoft_Singularity_V1_Services_EndpointCore@@2UClass_System_RuntimeType@@A 020a34d0     VolMgr.obj
 0003:0000151c       ??_7Microsoft_Singularity_Channels_ISelectable@@6B@ 020a351c     VolMgr.obj
 0003:00001574       ?_type@Class_Microsoft_Singularity_Channels_ISelectable@@2UClass_System_RuntimeType@@A 020a3574     VolMgr.obj
 0003:000015d4       ??_7Microsoft_Singularity_Channels_Endpoint@@6B@ 020a35d4     VolMgr.obj
 0003:0000165c       Microsoft$_SingSharp$_RuntimeVersionInstance 020a365c     VolMgr.obj
 0003:00001734       Microsoft$_SingSharp$_RuntimeassemblyNameInstance 020a3734     VolMgr.obj
 0003:0000174c       Microsoft$_SingSharp$_RuntimeAssemblyInstance 020a374c     VolMgr.obj
 0003:00001758       Microsoft$_SingSharp$_RuntimeModuleInstance 020a3758     VolMgr.obj
 0003:00001768       ?_type@Class_Microsoft_Singularity_Channels_Endpoint@@2UClass_System_RuntimeType@@A 020a3768     VolMgr.obj
 0003:000017b4       ??_7Microsoft_Singularity_Io_DiskDeviceContract_Imp@@6B@ 020a37b4     VolMgr.obj
 0003:0000182c       Io$_ContractsVersionInstance 020a382c     VolMgr.obj
 0003:00001904       Io$_ContractsassemblyNameInstance 020a3904     VolMgr.obj
 0003:0000191c       Io$_ContractsAssemblyInstance 020a391c     VolMgr.obj
 0003:00001928       Io$_ContractsModuleInstance 020a3928     VolMgr.obj
 0003:00001938       ?_type@Class_Microsoft_Singularity_Io_DiskDeviceContract_Imp@@2UClass_System_RuntimeType@@A 020a3938     VolMgr.obj
 0003:00001984       ??_7Microsoft_Singularity_Directory_DirectoryServiceContract_ReadEnumeration@@6B@ 020a3984     VolMgr.obj
 0003:000019ec       ?_type@Class_Microsoft_Singularity_Directory_DirectoryServiceContract_ReadEnumeration@@2UClass_System_RuntimeType@@A 020a39ec     VolMgr.obj
 0003:00001a4c       ??_7System_Delegate@@6B@   020a3a4c     VolMgr.obj
 0003:00001ac4       ?_type@Class_System_Delegate@@2UClass_System_RuntimeType@@A 020a3ac4     VolMgr.obj
 0003:00001b10       ??_7System_MulticastDelegate@@6B@ 020a3b10     VolMgr.obj
 0003:00001b78       ?_type@Class_System_MulticastDelegate@@2UClass_System_RuntimeType@@A 020a3b78     VolMgr.obj
 0003:00001bc4       ??_7System_Threading_ThreadStart@@6B@ 020a3bc4     VolMgr.obj
 0003:00001c38       ?_type@Class_System_Threading_ThreadStart@@2UClass_System_RuntimeType@@A 020a3c38     VolMgr.obj
 0003:00001c84       ??_7System_UpdateEnlistmentLog_Location@@6B@ 020a3c84     VolMgr.obj
 0003:00001cec       ?_type@Class_System_UpdateEnlistmentLog_Location@@2UClass_System_RuntimeType@@A 020a3cec     VolMgr.obj
 0003:00001d38       ??_7Microsoft_Singularity_Directory_ServiceContract@@6B@ 020a3d38     VolMgr.obj
 0003:00001da0       ?_type@Class_Microsoft_Singularity_Directory_ServiceContract@@2UClass_System_RuntimeType@@A 020a3da0     VolMgr.obj
 0003:00001dec       ??_7Microsoft_Singularity_Io_VolumeManagerContract@@6B@ 020a3dec     VolMgr.obj
 0003:00001e54       ?_type@Class_Microsoft_Singularity_Io_VolumeManagerContract@@2UClass_System_RuntimeType@@A 020a3e54     VolMgr.obj
 0003:00001ea0       ??_7System_Attribute@@6B@  020a3ea0     VolMgr.obj
 0003:00001f08       ?_type@Class_System_Attribute@@2UClass_System_RuntimeType@@A 020a3f08     VolMgr.obj
 0003:00001f54       ??_7System_Runtime_CompilerServices_NoInlineAttribute@@6B@ 020a3f54     VolMgr.obj
 0003:00001fbc       ?_type@Class_System_Runtime_CompilerServices_NoInlineAttribute@@2UClass_System_RuntimeType@@A 020a3fbc     VolMgr.obj
 0003:00002008       ??_7Microsoft_Singularity_Directory_DirectoryServiceContract_CreateFile@@6B@ 020a4008     VolMgr.obj
 0003:00002070       ?_type@Class_Microsoft_Singularity_Directory_DirectoryServiceContract_CreateFile@@2UClass_System_RuntimeType@@A 020a4070     VolMgr.obj
 0003:000020bc       ???_7vtable@ClassVector_Struct_System_TryAll@@2PAUClass_System_VTable@@A 020a40bc     VolMgr.obj
 0003:0000212c       ?_type@ClassVector_Struct_System_TryAll@@2UClass_System_RuntimeType@@A 020a412c     VolMgr.obj
 0003:00002178       ??_7Microsoft_Singularity_Isal_IX_uint128@@6B@ 020a4178     VolMgr.obj
 0003:000021e0       ?_type@Class_Microsoft_Singularity_Isal_IX_uint128@@2UClass_System_RuntimeType@@A 020a41e0     VolMgr.obj
 0003:0000222c       ??_7Microsoft_Singularity_Io_DeviceContract@@6B@ 020a422c     VolMgr.obj
 0003:00002294       ?_type@Class_Microsoft_Singularity_Io_DeviceContract@@2UClass_System_RuntimeType@@A 020a4294     VolMgr.obj
 0003:000022e0       ??_7Microsoft_Singularity_Directory_DirectoryServiceContract_NakDeleteLinkReparse@@6B@ 020a42e0     VolMgr.obj
 0003:00002348       ?_type@Class_Microsoft_Singularity_Directory_DirectoryServiceContract_NakDeleteLinkReparse@@2UClass_System_RuntimeType@@A 020a4348     VolMgr.obj
 0003:00002394       ??_7System_Collections_IEnumerator@@6B@ 020a4394     VolMgr.obj
 0003:000023ec       ?_type@Class_System_Collections_IEnumerator@@2UClass_System_RuntimeType@@A 020a43ec     VolMgr.obj
 0003:00002454       ??_7System_Array_SZArrayEnumerator@@6B@ 020a4454     VolMgr.obj
 0003:000024e0       ?_type@Class_System_Array_SZArrayEnumerator@@2UClass_System_RuntimeType@@A 020a44e0     VolMgr.obj
 0003:0000252c       ??_7Microsoft_Singularity_Directory_DirectoryServiceContract_NakDeleteLink@@6B@ 020a452c     VolMgr.obj
 0003:00002594       ?_type@Class_Microsoft_Singularity_Directory_DirectoryServiceContract_NakDeleteLink@@2UClass_System_RuntimeType@@A 020a4594     VolMgr.obj
 0003:000025e0       ??_7_VolMgr_Microsoft_Singularity_Channels_TRef$_2$LMicrosoft_Singularity_Io_VolumeManagerContract_Exp_Microsoft_Singularity_Io_VolumeManagerContract_Accept$G@@6B@ 020a45e0     VolMgr.obj
 0003:00002648       ?_type@Class__VolMgr_Microsoft_Singularity_Channels_TRef$_2$LMicrosoft_Singularity_Io_VolumeManagerContract_Exp_Microsoft_Singularity_Io_VolumeManagerContract_Accept$G@@2UClass_System_RuntimeType@@A 020a4648     VolMgr.obj
 0003:00002694       ??_7Microsoft_Singularity_AppRuntime@@6B@ 020a4694     VolMgr.obj
 0003:000026fc       ?_type@Class_Microsoft_Singularity_AppRuntime@@2UClass_System_RuntimeType@@A 020a46fc     VolMgr.obj
 0003:00002748       ??_7Microsoft_Singularity_PrivilegedGate@@6B@ 020a4748     VolMgr.obj
 0003:000027b0       ?_type@Class_Microsoft_Singularity_PrivilegedGate@@2UClass_System_RuntimeType@@A 020a47b0     VolMgr.obj
 0003:000027fc       ??_7Microsoft_Singularity_Isal_IX_EFlags@@6B@ 020a47fc     VolMgr.obj
 0003:00002864       ?_type@Class_Microsoft_Singularity_Isal_IX_EFlags@@2UClass_System_RuntimeType@@A 020a4864     VolMgr.obj
 0003:000028b0       ??_7System_IComparable@@6B@ 020a48b0     VolMgr.obj
 0003:00002908       ?_type@Class_System_IComparable@@2UClass_System_RuntimeType@@A 020a4908     VolMgr.obj
 0003:00002954       ??_7System_IFormattable@@6B@ 020a4954     VolMgr.obj
 0003:000029ac       ?_type@Class_System_IFormattable@@2UClass_System_RuntimeType@@A 020a49ac     VolMgr.obj
 0003:00002a14       ??_7System_Enum@@6B@       020a4a14     VolMgr.obj
 0003:00002aa0       ?_type@Class_System_Enum@@2UClass_System_RuntimeType@@A 020a4aa0     VolMgr.obj
 0003:00002aec       ??_7Microsoft_Bartok_Runtime_GCType@@6B@ 020a4aec     VolMgr.obj
 0003:00002b64       ?_type@Class_Microsoft_Bartok_Runtime_GCType@@2UClass_System_RuntimeType@@A 020a4b64     VolMgr.obj
 0003:00002bb0       ??_7System_Threading_ThreadQueueItem@@6B@ 020a4bb0     VolMgr.obj
 0003:00002c18       ?_type@Class_System_Threading_ThreadQueueItem@@2UClass_System_RuntimeType@@A 020a4c18     VolMgr.obj
 0003:00002c64       ??_7System_GCs_PageTable@@6B@ 020a4c64     VolMgr.obj
 0003:00002ccc       ?_type@Class_System_GCs_PageTable@@2UClass_System_RuntimeType@@A 020a4ccc     VolMgr.obj
 0003:00002d18       ??_7System_GCs_CalleeSaveRegisters@@6B@ 020a4d18     VolMgr.obj
 0003:00002d80       ?_type@Class_System_GCs_CalleeSaveRegisters@@2UClass_System_RuntimeType@@A 020a4d80     VolMgr.obj
 0003:00002dcc       ??_7System_Single@@6B@     020a4dcc     VolMgr.obj
 0003:00002e44       ?_type@Class_System_Single@@2UClass_System_RuntimeType@@A 020a4e44     VolMgr.obj
 0003:00002e90       ??_7System_ArrayTypeMismatchException@@6B@ 020a4e90     VolMgr.obj
 0003:00002efc       ?_type@Class_System_ArrayTypeMismatchException@@2UClass_System_RuntimeType@@A 020a4efc     VolMgr.obj
 0003:00002f48       ??_7Microsoft_Singularity_Directory_ServiceContract_Exp@@6B@ 020a4f48     VolMgr.obj
 0003:00002fc0       ?_type@Class_Microsoft_Singularity_Directory_ServiceContract_Exp@@2UClass_System_RuntimeType@@A 020a4fc0     VolMgr.obj
 0003:0000300c       ??_7System_MultiUseWord@@6B@ 020a500c     VolMgr.obj
 0003:00003074       ?_type@Class_System_MultiUseWord@@2UClass_System_RuntimeType@@A 020a5074     VolMgr.obj
 0003:000030c0       ??_7System_StackHeight@@6B@ 020a50c0     VolMgr.obj
 0003:00003128       ?_type@Class_System_StackHeight@@2UClass_System_RuntimeType@@A 020a5128     VolMgr.obj
 0003:00003174       ??_7Microsoft_Singularity_Channels_StateStack@@6B@ 020a5174     VolMgr.obj
 0003:000031dc       ?_type@Class_Microsoft_Singularity_Channels_StateStack@@2UClass_System_RuntimeType@@A 020a51dc     VolMgr.obj
 0003:00003228       ??_7System_Threading_Thread@@6B@ 020a5228     VolMgr.obj
 0003:00003290       ?_type@Class_System_Threading_Thread@@2UClass_System_RuntimeType@@A 020a5290     VolMgr.obj
 0003:000032dc       ??_7System_GCs_ReferenceVisitor@@6B@ 020a52dc     VolMgr.obj
 0003:00003350       ?_type@Class_System_GCs_ReferenceVisitor@@2UClass_System_RuntimeType@@A 020a5350     VolMgr.obj
 0003:0000339c       ??_7System_GCs_DirectReferenceVisitor@@6B@ 020a539c     VolMgr.obj
 0003:00003414       ?_type@Class_System_GCs_DirectReferenceVisitor@@2UClass_System_RuntimeType@@A 020a5414     VolMgr.obj
 0003:00003460       ??_7System_GCs_NonNullReferenceVisitor@@6B@ 020a5460     VolMgr.obj
 0003:000034d8       ?_type@Class_System_GCs_NonNullReferenceVisitor@@2UClass_System_RuntimeType@@A 020a54d8     VolMgr.obj
 0003:00003524       ??_7System_GCs_MarkSweepCollector_ThreadMarkReferenceVisitor@@6B@ 020a5524     VolMgr.obj
 0003:0000359c       ?_type@Class_System_GCs_MarkSweepCollector_ThreadMarkReferenceVisitor@@2UClass_System_RuntimeType@@A 020a559c     VolMgr.obj
 0003:000035e8       ??_7Microsoft_Singularity_Directory_DirectoryServiceContract_NakDeleteFile@@6B@ 020a55e8     VolMgr.obj
 0003:00003650       ?_type@Class_Microsoft_Singularity_Directory_DirectoryServiceContract_NakDeleteFile@@2UClass_System_RuntimeType@@A 020a5650     VolMgr.obj
 0003:0000369c       ??_7Microsoft_Singularity_Io_DiskDeviceContract_AckGetSectorCount@@6B@ 020a569c     VolMgr.obj
 0003:00003704       ?_type@Class_Microsoft_Singularity_Io_DiskDeviceContract_AckGetSectorCount@@2UClass_System_RuntimeType@@A 020a5704     VolMgr.obj
 0003:00003750       ??_7System_Globalization_CultureInfo@@6B@ 020a5750     VolMgr.obj
 0003:000037b8       ?_type@Class_System_Globalization_CultureInfo@@2UClass_System_RuntimeType@@A 020a57b8     VolMgr.obj
 0003:00003804       ???_7vtable@ClassVector_ClassVector_int32@@2PAUClass_System_VTable@@A 020a5804     VolMgr.obj
 0003:00003874       ?_type@ClassVector_ClassVector_int32@@2UClass_System_RuntimeType@@A 020a5874     VolMgr.obj
 0003:000038c0       ??_7System_TryAllManager@@6B@ 020a58c0     VolMgr.obj
 0003:00003928       ?_type@Class_System_TryAllManager@@2UClass_System_RuntimeType@@A 020a5928     VolMgr.obj
 0003:00003974       ??_7Microsoft_Singularity_Isal_CpuRecord@@6B@ 020a5974     VolMgr.obj
 0003:000039dc       ?_type@Class_Microsoft_Singularity_Isal_CpuRecord@@2UClass_System_RuntimeType@@A 020a59dc     VolMgr.obj
 0003:00003a28       ??_7System_STMWord@@6B@    020a5a28     VolMgr.obj
 0003:00003a90       ?_type@Class_System_STMWord@@2UClass_System_RuntimeType@@A 020a5a90     VolMgr.obj
 0003:00003adc       ??_7Microsoft_Singularity_Isal_Isa_ICallback@@6B@ 020a5adc     VolMgr.obj
 0003:00003b48       ?_type@Class_Microsoft_Singularity_Isal_Isa_ICallback@@2UClass_System_RuntimeType@@A 020a5b48     VolMgr.obj
 0003:00003b94       ??_7Microsoft_Singularity_Io_DiskDeviceContract_Read@@6B@ 020a5b94     VolMgr.obj
 0003:00003bfc       ?_type@Class_Microsoft_Singularity_Io_DiskDeviceContract_Read@@2UClass_System_RuntimeType@@A 020a5bfc     VolMgr.obj
 0003:00003c48       ??_7Microsoft_Singularity_Io_DiskDeviceContract_GetDeviceName@@6B@ 020a5c48     VolMgr.obj
 0003:00003cb0       ?_type@Class_Microsoft_Singularity_Io_DiskDeviceContract_GetDeviceName@@2UClass_System_RuntimeType@@A 020a5cb0     VolMgr.obj
 0003:00003cfc       ??_7System_Runtime_CompilerServices_ExternalEntryPointAttribute@@6B@ 020a5cfc     VolMgr.obj
 0003:00003d64       ?_type@Class_System_Runtime_CompilerServices_ExternalEntryPointAttribute@@2UClass_System_RuntimeType@@A 020a5d64     VolMgr.obj
 0003:00003db0       ??_7Microsoft_Singularity_Eventing_EventSource@@6B@ 020a5db0     VolMgr.obj
 0003:00003e1c       ?_type@Class_Microsoft_Singularity_Eventing_EventSource@@2UClass_System_RuntimeType@@A 020a5e1c     VolMgr.obj
 0003:00003e68       ??_7Microsoft_Singularity_Eventing_ActiveSource@@6B@ 020a5e68     VolMgr.obj
 0003:00003ed4       ?_type@Class_Microsoft_Singularity_Eventing_ActiveSource@@2UClass_System_RuntimeType@@A 020a5ed4     VolMgr.obj
 0003:00003f20       ??_7Microsoft_Singularity_Io_DiskDeviceContract_SystemId@@6B@ 020a5f20     VolMgr.obj
 0003:00003f88       ?_type@Class_Microsoft_Singularity_Io_DiskDeviceContract_SystemId@@2UClass_System_RuntimeType@@A 020a5f88     VolMgr.obj
 0003:00003fd4       ??_7Microsoft_Singularity_Directory_DirectoryServiceContract_NakBind@@6B@ 020a5fd4     VolMgr.obj
 0003:0000403c       ?_type@Class_Microsoft_Singularity_Directory_DirectoryServiceContract_NakBind@@2UClass_System_RuntimeType@@A 020a603c     VolMgr.obj
 0003:00004088       ??_7System_GCs_Collector@@6B@ 020a6088     VolMgr.obj
 0003:00004150       ?_type@Class_System_GCs_Collector@@2UClass_System_RuntimeType@@A 020a6150     VolMgr.obj
 0003:0000419c       ??_7System_GCs_BaseCollector@@6B@ 020a619c     VolMgr.obj
 0003:00004274       ?_type@Class_System_GCs_BaseCollector@@2UClass_System_RuntimeType@@A 020a6274     VolMgr.obj
 0003:000042e4       ??_7System_Collections_Stack@@6B@ 020a62e4     VolMgr.obj
 0003:00004378       ?_type@Class_System_Collections_Stack@@2UClass_System_RuntimeType@@A 020a6378     VolMgr.obj
 0003:000043c4       ??_7Microsoft_Singularity_V1_Services_PlatformService@@6B@ 020a63c4     VolMgr.obj
 0003:0000442c       ?_type@Class_Microsoft_Singularity_V1_Services_PlatformService@@2UClass_System_RuntimeType@@A 020a642c     VolMgr.obj
 0003:00004478       ??_7Microsoft_Singularity_Io_DiskDeviceContract_NoSystemId@@6B@ 020a6478     VolMgr.obj
 0003:000044e0       ?_type@Class_Microsoft_Singularity_Io_DiskDeviceContract_NoSystemId@@2UClass_System_RuntimeType@@A 020a64e0     VolMgr.obj
 0003:0000452c       ??_7System_Collections_Hashtable@@6B@ 020a652c     VolMgr.obj
 0003:000045b4       ?_type@Class_System_Collections_Hashtable@@2UClass_System_RuntimeType@@A 020a65b4     VolMgr.obj
 0003:00004600       ??_7Microsoft_Singularity_Directory_DirectoryServiceContract_AckCreateLink@@6B@ 020a6600     VolMgr.obj
 0003:00004668       ?_type@Class_Microsoft_Singularity_Directory_DirectoryServiceContract_AckCreateLink@@2UClass_System_RuntimeType@@A 020a6668     VolMgr.obj
 0003:000046b4       ??_7System_ArithmeticException@@6B@ 020a66b4     VolMgr.obj
 0003:00004720       ?_type@Class_System_ArithmeticException@@2UClass_System_RuntimeType@@A 020a6720     VolMgr.obj
 0003:0000476c       ??_7System_OverflowException@@6B@ 020a676c     VolMgr.obj
 0003:000047d8       ?_type@Class_System_OverflowException@@2UClass_System_RuntimeType@@A 020a67d8     VolMgr.obj
 0003:00004824       ??_7System_ArgumentNullException@@6B@ 020a6824     VolMgr.obj
 0003:00004890       ?_type@Class_System_ArgumentNullException@@2UClass_System_RuntimeType@@A 020a6890     VolMgr.obj
 0003:000048dc       ??_7System_Runtime_CompilerServices_AccessedByRuntimeAttribute@@6B@ 020a68dc     VolMgr.obj
 0003:00004944       ?_type@Class_System_Runtime_CompilerServices_AccessedByRuntimeAttribute@@2UClass_System_RuntimeType@@A 020a6944     VolMgr.obj
 0003:00004990       ??_7Microsoft_Singularity_Memory_PhysicalAddress@@6B@ 020a6990     VolMgr.obj
 0003:000049f8       ?_type@Class_Microsoft_Singularity_Memory_PhysicalAddress@@2UClass_System_RuntimeType@@A 020a69f8     VolMgr.obj
 0003:00004a44       ??_7System_ApplicationException@@6B@ 020a6a44     VolMgr.obj
 0003:00004ab0       ?_type@Class_System_ApplicationException@@2UClass_System_RuntimeType@@A 020a6ab0     VolMgr.obj
 0003:00004afc       ??_7_VolMgr_Microsoft_Singularity_Channels_TRef$_2$LMicrosoft_Singularity_Directory_NotifyContract_Exp_Microsoft_Singularity_Directory_NotifyContract_Start$G@@6B@ 020a6afc     VolMgr.obj
 0003:00004b64       ?_type@Class__VolMgr_Microsoft_Singularity_Channels_TRef$_2$LMicrosoft_Singularity_Directory_NotifyContract_Exp_Microsoft_Singularity_Directory_NotifyContract_Start$G@@2UClass_System_RuntimeType@@A 020a6b64     VolMgr.obj
 0003:00004bb0       ??_7System_UpdateLog_EntryKind@@6B@ 020a6bb0     VolMgr.obj
 0003:00004c28       ?_type@Class_System_UpdateLog_EntryKind@@2UClass_System_RuntimeType@@A 020a6c28     VolMgr.obj
 0003:00004c74       ???_7vtable@ClassVector_uintPtr@@2PAUClass_System_VTable@@A 020a6c74     VolMgr.obj
 0003:00004ce4       ?_type@ClassVector_uintPtr@@2UClass_System_RuntimeType@@A 020a6ce4     VolMgr.obj
 0003:00004d30       ??_7Microsoft_Singularity_Isal_IX_Gdte64@@6B@ 020a6d30     VolMgr.obj
 0003:00004d98       ?_type@Class_Microsoft_Singularity_Isal_IX_Gdte64@@2UClass_System_RuntimeType@@A 020a6d98     VolMgr.obj
 0003:00004de4       ??_7System_Int32@@6B@      020a6de4     VolMgr.obj
 0003:00004e5c       ?_type@Class_System_Int32@@2UClass_System_RuntimeType@@A 020a6e5c     VolMgr.obj
 0003:00004ea8       ??_7_VolMgr_Microsoft_Singularity_Channels_TRef$_2$LMicrosoft_Singularity_Directory_ServiceProviderContract_Exp_Microsoft_Singularity_Directory_ServiceProviderContract_Ack$G@@6B@ 020a6ea8     VolMgr.obj
 0003:00004f10       ?_type@Class__VolMgr_Microsoft_Singularity_Channels_TRef$_2$LMicrosoft_Singularity_Directory_ServiceProviderContract_Exp_Microsoft_Singularity_Directory_ServiceProviderContract_Ack$G@@2UClass_System_RuntimeType@@A 020a6f10     VolMgr.obj
 0003:00004f5c       ??_7Microsoft_Singularity_Services_VolumeManager_Disk@@6B@ 020a6f5c     VolMgr.obj
 0003:00004fc4       ?_type@Class_Microsoft_Singularity_Services_VolumeManager_Disk@@2UClass_System_RuntimeType@@A 020a6fc4     VolMgr.obj
 0003:00005010       ??_7System_NotSupportedException@@6B@ 020a7010     VolMgr.obj
 0003:0000507c       ?_type@Class_System_NotSupportedException@@2UClass_System_RuntimeType@@A 020a707c     VolMgr.obj
 0003:000050c8       ??_7Microsoft_Singularity_Services_VolumeManager_PartitionDescriptor@@6B@ 020a70c8     VolMgr.obj
 0003:00005130       ?_type@Class_Microsoft_Singularity_Services_VolumeManager_PartitionDescriptor@@2UClass_System_RuntimeType@@A 020a7130     VolMgr.obj
 0003:0000517c       ??_7System_GCs_MemoryAccounting_RuntimeTypeAccounting@@6B@ 020a717c     VolMgr.obj
 0003:000051e4       ?_type@Class_System_GCs_MemoryAccounting_RuntimeTypeAccounting@@2UClass_System_RuntimeType@@A 020a71e4     VolMgr.obj
 0003:00005230       ??_7System_InvalidCastException@@6B@ 020a7230     VolMgr.obj
 0003:0000529c       ?_type@Class_System_InvalidCastException@@2UClass_System_RuntimeType@@A 020a729c     VolMgr.obj
 0003:000052e8       ??_7Microsoft_Singularity_Directory_DirectoryServiceContract_NakCreateFile@@6B@ 020a72e8     VolMgr.obj
 0003:00005350       ?_type@Class_Microsoft_Singularity_Directory_DirectoryServiceContract_NakCreateFile@@2UClass_System_RuntimeType@@A 020a7350     VolMgr.obj
 0003:0000539c       ??_7Microsoft_Singularity_V1_Services_DeliveryHandle@@6B@ 020a739c     VolMgr.obj
 0003:00005404       ?_type@Class_Microsoft_Singularity_V1_Services_DeliveryHandle@@2UClass_System_RuntimeType@@A 020a7404     VolMgr.obj
 0003:00005450       ??_7Microsoft_Singularity_Isal_IX_Gdte@@6B@ 020a7450     VolMgr.obj
 0003:000054b8       ?_type@Class_Microsoft_Singularity_Isal_IX_Gdte@@2UClass_System_RuntimeType@@A 020a74b8     VolMgr.obj
 0003:00005504       ??_7Microsoft_Singularity_Monitoring@@6B@ 020a7504     VolMgr.obj
 0003:0000556c       ?_type@Class_Microsoft_Singularity_Monitoring@@2UClass_System_RuntimeType@@A 020a756c     VolMgr.obj
 0003:000055b8       ??_7Microsoft_Singularity_Directory_DirectoryServiceContract_QueryACL@@6B@ 020a75b8     VolMgr.obj
 0003:00005620       ?_type@Class_Microsoft_Singularity_Directory_DirectoryServiceContract_QueryACL@@2UClass_System_RuntimeType@@A 020a7620     VolMgr.obj
 0003:0000566c       ??_7Microsoft_Singularity_Eventing_Controller@@6B@ 020a766c     VolMgr.obj
 0003:000056e4       ?_type@Class_Microsoft_Singularity_Eventing_Controller@@2UClass_System_RuntimeType@@A 020a76e4     VolMgr.obj
 0003:00005730       ??_7Microsoft_Singularity_Directory_ServiceProviderContract_NackConnect@@6B@ 020a7730     VolMgr.obj
 0003:00005798       ?_type@Class_Microsoft_Singularity_Directory_ServiceProviderContract_NackConnect@@2UClass_System_RuntimeType@@A 020a7798     VolMgr.obj
 0003:000057e4       ???_7vtable@ClassVector_Struct_System_Delegate_NativeDelegateRecord@@2PAUClass_System_VTable@@A 020a77e4     VolMgr.obj
 0003:00005854       ?_type@ClassVector_Struct_System_Delegate_NativeDelegateRecord@@2UClass_System_RuntimeType@@A 020a7854     VolMgr.obj
 0003:000058a0       ??_7System_TypeInfo@@6B@   020a78a0     VolMgr.obj
 0003:00005908       ?_type@Class_System_TypeInfo@@2UClass_System_RuntimeType@@A 020a7908     VolMgr.obj
 0003:00005954       ??_7System_BitConverter@@6B@ 020a7954     VolMgr.obj
 0003:000059bc       ?_type@Class_System_BitConverter@@2UClass_System_RuntimeType@@A 020a79bc     VolMgr.obj
 0003:00005a08       ??_7Microsoft_Singularity_V1_Threads_AutoResetEventHandle@@6B@ 020a7a08     VolMgr.obj
 0003:00005a70       ?_type@Class_Microsoft_Singularity_V1_Threads_AutoResetEventHandle@@2UClass_System_RuntimeType@@A 020a7a70     VolMgr.obj
 0003:00005abc       ??_7SurrogateMicrosoft_Singularity_Directory_NotifyContract_Exp@@6B@ 020a7abc     VolMgr.obj
 0003:00005b34       ?_type@Class_SurrogateMicrosoft_Singularity_Directory_NotifyContract_Exp@@2UClass_System_RuntimeType@@A 020a7b34     VolMgr.obj
 0003:00005b80       ??_7Microsoft_Singularity_Directory_DirectoryServiceContract_NakGetAttributes@@6B@ 020a7b80     VolMgr.obj
 0003:00005be8       ?_type@Class_Microsoft_Singularity_Directory_DirectoryServiceContract_NakGetAttributes@@2UClass_System_RuntimeType@@A 020a7be8     VolMgr.obj
 0003:00005c34       ??_7Microsoft_Singularity_Channels_EMap$_3$LMicrosoft_Singularity_Io_VolumeManagerContract_Exp_Microsoft_Singularity_Io_VolumeManagerContract_Accept_optional_Microsoft_Contracts_NonNullType__Microsoft_Singularity_Services_VolumeManager_Volume$G@@6B@ 020a7c34     VolMgr.obj
 0003:00005cb0       ?_type@Class_Microsoft_Singularity_Channels_EMap$_3$LMicrosoft_Singularity_Io_VolumeManagerContract_Exp_Microsoft_Singularity_Io_VolumeManagerContract_Accept_optional_Microsoft_Contracts_NonNullType__Microsoft_Singularity_Services_VolumeManager_Volume$G@@2UClass_System_RuntimeType@@A 020a7cb0     VolMgr.obj
 0003:00005cfc       ??_7Microsoft_Singularity_Io_DeviceContract_Exp@@6B@ 020a7cfc     VolMgr.obj
 0003:00005d74       ?_type@Class_Microsoft_Singularity_Io_DeviceContract_Exp@@2UClass_System_RuntimeType@@A 020a7d74     VolMgr.obj
 0003:00005dc0       ??_7Microsoft_Singularity_Directory_DirectoryServiceContract_NakCreateFileReparse@@6B@ 020a7dc0     VolMgr.obj
 0003:00005e28       ?_type@Class_Microsoft_Singularity_Directory_DirectoryServiceContract_NakCreateFileReparse@@2UClass_System_RuntimeType@@A 020a7e28     VolMgr.obj
 0003:00005e74       ??_7System_Math@@6B@       020a7e74     VolMgr.obj
 0003:00005edc       ?_type@Class_System_Math@@2UClass_System_RuntimeType@@A 020a7edc     VolMgr.obj
 0003:00005f28       ??_7System_IDisposable@@6B@ 020a7f28     VolMgr.obj
 0003:00005f80       ?_type@Class_System_IDisposable@@2UClass_System_RuntimeType@@A 020a7f80     VolMgr.obj
 0003:00005fcc       ??_7Microsoft_Singularity_V1_Threads_SyncHandle@@6B@ 020a7fcc     VolMgr.obj
 0003:00006034       ?_type@Class_Microsoft_Singularity_V1_Threads_SyncHandle@@2UClass_System_RuntimeType@@A 020a8034     VolMgr.obj
 0003:00006080       ??_7Microsoft_Singularity_Isal_Isa@@6B@ 020a8080     VolMgr.obj
 0003:000060e8       ?_type@Class_Microsoft_Singularity_Isal_Isa@@2UClass_System_RuntimeType@@A 020a80e8     VolMgr.obj
 0003:00006134       ???_7vtable@ClassVector_Struct_System_LogEntryUndoAction@@2PAUClass_System_VTable@@A 020a8134     VolMgr.obj
 0003:000061a4       ?_type@ClassVector_Struct_System_LogEntryUndoAction@@2UClass_System_RuntimeType@@A 020a81a4     VolMgr.obj
 0003:000061f0       ??_7System_WeakReference@@6B@ 020a81f0     VolMgr.obj
 0003:00006258       ?_type@Class_System_WeakReference@@2UClass_System_RuntimeType@@A 020a8258     VolMgr.obj
 0003:000062a4       ??_7System_UInt16@@6B@     020a82a4     VolMgr.obj
 0003:0000631c       ?_type@Class_System_UInt16@@2UClass_System_RuntimeType@@A 020a831c     VolMgr.obj
 0003:00006368       ??_7Microsoft_Singularity_Directory_DirectoryServiceContract_NakCreateDirectoryReparse@@6B@ 020a8368     VolMgr.obj
 0003:000063d0       ?_type@Class_Microsoft_Singularity_Directory_DirectoryServiceContract_NakCreateDirectoryReparse@@2UClass_System_RuntimeType@@A 020a83d0     VolMgr.obj
 0003:0000641c       ??_7System_ParseNumbers@@6B@ 020a841c     VolMgr.obj
 0003:00006484       ?_type@Class_System_ParseNumbers@@2UClass_System_RuntimeType@@A 020a8484     VolMgr.obj
 0003:000064d0       ??_7Microsoft_Singularity_Directory_NodeType@@6B@ 020a84d0     VolMgr.obj
 0003:00006548       ?_type@Class_Microsoft_Singularity_Directory_NodeType@@2UClass_System_RuntimeType@@A 020a8548     VolMgr.obj
 0003:00006594       ??_7Microsoft_Singularity_Monitoring_LogEntry@@6B@ 020a8594     VolMgr.obj
 0003:000065fc       ?_type@Class_Microsoft_Singularity_Monitoring_LogEntry@@2UClass_System_RuntimeType@@A 020a85fc     VolMgr.obj
 0003:00006648       ??_7System_GCs_UnmanagedPageList@@6B@ 020a8648     VolMgr.obj
 0003:000066b0       ?_type@Class_System_GCs_UnmanagedPageList@@2UClass_System_RuntimeType@@A 020a86b0     VolMgr.obj
 0003:000066fc       ??_7Microsoft_Singularity_Directory_NotifyContract_Begin@@6B@ 020a86fc     VolMgr.obj
 0003:00006764       ?_type@Class_Microsoft_Singularity_Directory_NotifyContract_Begin@@2UClass_System_RuntimeType@@A 020a8764     VolMgr.obj
 0003:000067b0       ??_7Microsoft_Singularity_Directory_FileContract@@6B@ 020a87b0     VolMgr.obj
 0003:00006818       ?_type@Class_Microsoft_Singularity_Directory_FileContract@@2UClass_System_RuntimeType@@A 020a8818     VolMgr.obj
 0003:00006864       ??_7System_GCs_GCProfiler@@6B@ 020a8864     VolMgr.obj
 0003:000068ec       ?_type@Class_System_GCs_GCProfiler@@2UClass_System_RuntimeType@@A 020a88ec     VolMgr.obj
 0003:00006938       ??_7System_UpdateLog@@6B@  020a8938     VolMgr.obj
 0003:000069a0       ?_type@Class_System_UpdateLog@@2UClass_System_RuntimeType@@A 020a89a0     VolMgr.obj
 0003:000069ec       ??_7System_GCs_GCProfiler_OneObjectVisitor@@6B@ 020a89ec     VolMgr.obj
 0003:00006a64       ?_type@Class_System_GCs_GCProfiler_OneObjectVisitor@@2UClass_System_RuntimeType@@A 020a8a64     VolMgr.obj
 0003:00006ab0       ??_7Microsoft_Singularity_V1_Threads_ContainerHandle@@6B@ 020a8ab0     VolMgr.obj
 0003:00006b18       ?_type@Class_Microsoft_Singularity_V1_Threads_ContainerHandle@@2UClass_System_RuntimeType@@A 020a8b18     VolMgr.obj
 0003:00006b64       ??_7Microsoft_Singularity_Eventing_EventDescriptor@@6B@ 020a8b64     VolMgr.obj
 0003:00006bcc       ?_type@Class_Microsoft_Singularity_Eventing_EventDescriptor@@2UClass_System_RuntimeType@@A 020a8bcc     VolMgr.obj
 0003:00006c18       ??_7System_GCs_ProfileRootsDelegate@@6B@ 020a8c18     VolMgr.obj
 0003:00006c8c       ?_type@Class_System_GCs_ProfileRootsDelegate@@2UClass_System_RuntimeType@@A 020a8c8c     VolMgr.obj
 0003:00006cd8       ??_7Microsoft_Singularity_Io_VolumeManagerContract_AckRegisterDisk@@6B@ 020a8cd8     VolMgr.obj
 0003:00006d40       ?_type@Class_Microsoft_Singularity_Io_VolumeManagerContract_AckRegisterDisk@@2UClass_System_RuntimeType@@A 020a8d40     VolMgr.obj
 0003:00006d8c       ??_7System_EMU@@6B@        020a8d8c     VolMgr.obj
 0003:00006df4       ?_type@Class_System_EMU@@2UClass_System_RuntimeType@@A 020a8df4     VolMgr.obj
 0003:00006e40       ??_7System_Reflection_Assembly@@6B@ 020a8e40     VolMgr.obj
 0003:00006ea8       ?_type@Class_System_Reflection_Assembly@@2UClass_System_RuntimeType@@A 020a8ea8     VolMgr.obj
 0003:00006ef4       ??_7System_ArrayHelper@@6B@ 020a8ef4     VolMgr.obj
 0003:00006f5c       ?_type@Class_System_ArrayHelper@@2UClass_System_RuntimeType@@A 020a8f5c     VolMgr.obj
 0003:00006fa8       ??_7Microsoft_Singularity_Directory_DirectoryServiceContract_NakCreateLinkReparse@@6B@ 020a8fa8     VolMgr.obj
 0003:00007010       ?_type@Class_Microsoft_Singularity_Directory_DirectoryServiceContract_NakCreateLinkReparse@@2UClass_System_RuntimeType@@A 020a9010     VolMgr.obj
 0003:0000705c       ??_7System_GCs_SegregatedFreeList_PageHeaderList@@6B@ 020a905c     VolMgr.obj
 0003:000070c4       ?_type@Class_System_GCs_SegregatedFreeList_PageHeaderList@@2UClass_System_RuntimeType@@A 020a90c4     VolMgr.obj
 0003:00007110       ??_7System_GCs_SegregatedFreeList@@6B@ 020a9110     VolMgr.obj
 0003:00007178       ?_type@Class_System_GCs_SegregatedFreeList@@2UClass_System_RuntimeType@@A 020a9178     VolMgr.obj
 0003:000071c4       ??_7System_GCs_StopTheWorldCollector@@6B@ 020a91c4     VolMgr.obj
 0003:000072a8       ?_type@Class_System_GCs_StopTheWorldCollector@@2UClass_System_RuntimeType@@A 020a92a8     VolMgr.obj
 0003:000072f4       ??_7System_GCs_MarkSweepCollector@@6B@ 020a92f4     VolMgr.obj
 0003:000073d8       ?_type@Class_System_GCs_MarkSweepCollector@@2UClass_System_RuntimeType@@A 020a93d8     VolMgr.obj
 0003:00007424       ??_7Microsoft_Singularity_Directory_ServiceProviderContract_Exp@@6B@ 020a9424     VolMgr.obj
 0003:0000749c       ?_type@Class_Microsoft_Singularity_Directory_ServiceProviderContract_Exp@@2UClass_System_RuntimeType@@A 020a949c     VolMgr.obj
 0003:000074e8       ??_7System_Collections_SortedList@@6B@ 020a94e8     VolMgr.obj
 0003:00007568       ?_type@Class_System_Collections_SortedList@@2UClass_System_RuntimeType@@A 020a9568     VolMgr.obj
 0003:000075b4       ??_7System_GCs_Barrier@@6B@ 020a95b4     VolMgr.obj
 0003:00007668       ?_type@Class_System_GCs_Barrier@@2UClass_System_RuntimeType@@A 020a9668     VolMgr.obj
 0003:000076b4       ??_7Microsoft_Singularity_Io_DiskDeviceContract_AckReadPerf@@6B@ 020a96b4     VolMgr.obj
 0003:0000771c       ?_type@Class_Microsoft_Singularity_Io_DiskDeviceContract_AckReadPerf@@2UClass_System_RuntimeType@@A 020a971c     VolMgr.obj
 0003:00007768       ??_7System_Double@@6B@     020a9768     VolMgr.obj
 0003:000077e0       ?_type@Class_System_Double@@2UClass_System_RuntimeType@@A 020a97e0     VolMgr.obj
 0003:0000782c       ??_7Microsoft_Singularity_Directory_DirectoryServiceContract_NakNotifyReparse@@6B@ 020a982c     VolMgr.obj
 0003:00007894       ?_type@Class_Microsoft_Singularity_Directory_DirectoryServiceContract_NakNotifyReparse@@2UClass_System_RuntimeType@@A 020a9894     VolMgr.obj
 0003:000078e0       ??_7System_GCs_PageType@@6B@ 020a98e0     VolMgr.obj
 0003:00007958       ?_type@Class_System_GCs_PageType@@2UClass_System_RuntimeType@@A 020a9958     VolMgr.obj
 0003:000079a4       ??_7System_UndoLog@@6B@    020a99a4     VolMgr.obj
 0003:00007a0c       ?_type@Class_System_UndoLog@@2UClass_System_RuntimeType@@A 020a9a0c     VolMgr.obj
 0003:00007a58       ??_7Microsoft_Singularity_Io_DiskDeviceContract_AckNoOp@@6B@ 020a9a58     VolMgr.obj
 0003:00007ac0       ?_type@Class_Microsoft_Singularity_Io_DiskDeviceContract_AckNoOp@@2UClass_System_RuntimeType@@A 020a9ac0     VolMgr.obj
 0003:00007b0c       ??_7System_UpdateEnlistmentLog_LogChunk@@6B@ 020a9b0c     VolMgr.obj
 0003:00007b74       ?_type@Class_System_UpdateEnlistmentLog_LogChunk@@2UClass_System_RuntimeType@@A 020a9b74     VolMgr.obj
 0003:00007bc0       ??_7Microsoft_Singularity_V1_Services_StackService@@6B@ 020a9bc0     VolMgr.obj
 0003:00007c28       ?_type@Class_Microsoft_Singularity_V1_Services_StackService@@2UClass_System_RuntimeType@@A 020a9c28     VolMgr.obj
 0003:00007c74       ??_7Microsoft_Singularity_Directory_NotifyContract_Exp@@6B@ 020a9c74     VolMgr.obj
 0003:00007cec       ?_type@Class_Microsoft_Singularity_Directory_NotifyContract_Exp@@2UClass_System_RuntimeType@@A 020a9cec     VolMgr.obj
 0003:00007d4c       ??_7System_SchedulerTime@@6B@ 020a9d4c     VolMgr.obj
 0003:00007dcc       ?_type@Class_System_SchedulerTime@@2UClass_System_RuntimeType@@A 020a9dcc     VolMgr.obj
 0003:00007e18       ???_7vtable@ClassVector_Struct_Microsoft_Singularity_V1_Threads_SyncHandle@@2PAUClass_System_VTable@@A 020a9e18     VolMgr.obj
 0003:00007e88       ?_type@ClassVector_Struct_Microsoft_Singularity_V1_Threads_SyncHandle@@2UClass_System_RuntimeType@@A 020a9e88     VolMgr.obj
 0003:00007ed4       ??_7System_Threading_HandleCreateException@@6B@ 020a9ed4     VolMgr.obj
 0003:00007f40       ?_type@Class_System_Threading_HandleCreateException@@2UClass_System_RuntimeType@@A 020a9f40     VolMgr.obj
 0003:00007f8c       ??_7System_UInt64@@6B@     020a9f8c     VolMgr.obj
 0003:00008004       ?_type@Class_System_UInt64@@2UClass_System_RuntimeType@@A 020aa004     VolMgr.obj
 0003:00008050       ???_7vtable@ClassVector_Struct_System_Collections_Hashtable_bucket@@2PAUClass_System_VTable@@A 020aa050     VolMgr.obj
 0003:000080c0       ?_type@ClassVector_Struct_System_Collections_Hashtable_bucket@@2UClass_System_RuntimeType@@A 020aa0c0     VolMgr.obj
 0003:0000810c       ??_7Microsoft_Singularity_Directory_DirectoryServiceContract_NakRegisterReparse@@6B@ 020aa10c     VolMgr.obj
 0003:00008174       ?_type@Class_Microsoft_Singularity_Directory_DirectoryServiceContract_NakRegisterReparse@@2UClass_System_RuntimeType@@A 020aa174     VolMgr.obj
 0003:000081c0       ??_7System_GCs_CalleeSaveLocations_RegLocation@@6B@ 020aa1c0     VolMgr.obj
 0003:00008228       ?_type@Class_System_GCs_CalleeSaveLocations_RegLocation@@2UClass_System_RuntimeType@@A 020aa228     VolMgr.obj
 0003:00008274       ??_7System_Runtime_CompilerServices_NoStackOverflowCheckAttribute@@6B@ 020aa274     VolMgr.obj
 0003:000082dc       ?_type@Class_System_Runtime_CompilerServices_NoStackOverflowCheckAttribute@@2UClass_System_RuntimeType@@A 020aa2dc     VolMgr.obj
 0003:00008328       ??_7System_Array_ArrayEnumerator@@6B@ 020aa328     VolMgr.obj
 0003:000083a0       ?_type@Class_System_Array_ArrayEnumerator@@2UClass_System_RuntimeType@@A 020aa3a0     VolMgr.obj
 0003:000083ec       ??_7Microsoft_Singularity_Directory_DirectoryServiceContract_EnumerationEntries@@6B@ 020aa3ec     VolMgr.obj
 0003:00008454       ?_type@Class_Microsoft_Singularity_Directory_DirectoryServiceContract_EnumerationEntries@@2UClass_System_RuntimeType@@A 020aa454     VolMgr.obj
 0003:000084a0       ??_7Microsoft_Singularity_Isal_IX_EFlagsShift@@6B@ 020aa4a0     VolMgr.obj
 0003:00008508       ?_type@Class_Microsoft_Singularity_Isal_IX_EFlagsShift@@2UClass_System_RuntimeType@@A 020aa508     VolMgr.obj
 0003:00008554       ??_7System_Threading_ThreadState@@6B@ 020aa554     VolMgr.obj
 0003:000085cc       ?_type@Class_System_Threading_ThreadState@@2UClass_System_RuntimeType@@A 020aa5cc     VolMgr.obj
 0003:00008618       ??_7Microsoft_Singularity_Directory_DirectoryServiceContract_CreateAndBindFile@@6B@ 020aa618     VolMgr.obj
 0003:00008680       ?_type@Class_Microsoft_Singularity_Directory_DirectoryServiceContract_CreateAndBindFile@@2UClass_System_RuntimeType@@A 020aa680     VolMgr.obj
 0003:000086cc       ??_7System_GCs_OffsetReferenceVisitor@@6B@ 020aa6cc     VolMgr.obj
 0003:00008744       ?_type@Class_System_GCs_OffsetReferenceVisitor@@2UClass_System_RuntimeType@@A 020aa744     VolMgr.obj
 0003:00008790       ??_7System_GCs_Barrier_CopyFieldsVisitor@@6B@ 020aa790     VolMgr.obj
 0003:00008808       ?_type@Class_System_GCs_Barrier_CopyFieldsVisitor@@2UClass_System_RuntimeType@@A 020aa808     VolMgr.obj
 0003:00008854       ??_7System_GCs_FrameDescriptor@@6B@ 020aa854     VolMgr.obj
 0003:000088bc       ?_type@Class_System_GCs_FrameDescriptor@@2UClass_System_RuntimeType@@A 020aa8bc     VolMgr.obj
 0003:00008908       ??_7Microsoft_Singularity_Directory_DirectoryServiceContract_NakNotify@@6B@ 020aa908     VolMgr.obj
 0003:00008970       ?_type@Class_Microsoft_Singularity_Directory_DirectoryServiceContract_NakNotify@@2UClass_System_RuntimeType@@A 020aa970     VolMgr.obj
 0003:000089bc       ??_7System_Runtime_CompilerServices_SelfPointAttribute@@6B@ 020aa9bc     VolMgr.obj
 0003:00008a24       ?_type@Class_System_Runtime_CompilerServices_SelfPointAttribute@@2UClass_System_RuntimeType@@A 020aaa24     VolMgr.obj
 0003:00008a70       ??_7System_RuntimeType_Enum$_Kind@@6B@ 020aaa70     VolMgr.obj
 0003:00008ae8       ?_type@Class_System_RuntimeType_Enum$_Kind@@2UClass_System_RuntimeType@@A 020aaae8     VolMgr.obj
 0003:00008b34       ??_7Microsoft_Singularity_Services_VolumeManager_VolumeManager@@6B@ 020aab34     VolMgr.obj
 0003:00008b9c       ?_type@Class_Microsoft_Singularity_Services_VolumeManager_VolumeManager@@2UClass_System_RuntimeType@@A 020aab9c     VolMgr.obj
 0003:00008be8       ??_7Microsoft_Singularity_Isal_IX_DescriptorTable@@6B@ 020aabe8     VolMgr.obj
 0003:00008c50       ?_type@Class_Microsoft_Singularity_Isal_IX_DescriptorTable@@2UClass_System_RuntimeType@@A 020aac50     VolMgr.obj
 0003:00008c9c       ??_7Microsoft_Singularity_Directory_DirectoryServiceContract_GetLinkValue@@6B@ 020aac9c     VolMgr.obj
 0003:00008d04       ?_type@Class_Microsoft_Singularity_Directory_DirectoryServiceContract_GetLinkValue@@2UClass_System_RuntimeType@@A 020aad04     VolMgr.obj
 0003:00008d50       ??_7Microsoft_Singularity_Eventing_ControllerLogger@@6B@ 020aad50     VolMgr.obj
 0003:00008dbc       ?_type@Class_Microsoft_Singularity_Eventing_ControllerLogger@@2UClass_System_RuntimeType@@A 020aadbc     VolMgr.obj
 0003:00008e08       ??_7Microsoft_Singularity_Directory_DirectoryServiceContract_NakCreateAndBindFile@@6B@ 020aae08     VolMgr.obj
 0003:00008e70       ?_type@Class_Microsoft_Singularity_Directory_DirectoryServiceContract_NakCreateAndBindFile@@2UClass_System_RuntimeType@@A 020aae70     VolMgr.obj
 0003:00008ebc       ??_7Microsoft_Singularity_Directory_DirectoryServiceContract_Deregister@@6B@ 020aaebc     VolMgr.obj
 0003:00008f24       ?_type@Class_Microsoft_Singularity_Directory_DirectoryServiceContract_Deregister@@2UClass_System_RuntimeType@@A 020aaf24     VolMgr.obj
 0003:00008f70       ??_7Microsoft_Singularity_Eventing_SystemControllerProxy@@6B@ 020aaf70     VolMgr.obj
 0003:00008fe8       ?_type@Class_Microsoft_Singularity_Eventing_SystemControllerProxy@@2UClass_System_RuntimeType@@A 020aafe8     VolMgr.obj
 0003:00009034       ??_7System_IAsyncResult@@6B@ 020ab034     VolMgr.obj
 0003:0000908c       ?_type@Class_System_IAsyncResult@@2UClass_System_RuntimeType@@A 020ab08c     VolMgr.obj
 0003:000090d8       ??_7System_Collections_IComparer@@6B@ 020ab0d8     VolMgr.obj
 0003:00009130       ?_type@Class_System_Collections_IComparer@@2UClass_System_RuntimeType@@A 020ab130     VolMgr.obj
 0003:0000917c       ??_7System_GCs_Barrier_SlowZeroFieldsVisitor@@6B@ 020ab17c     VolMgr.obj
 0003:000091f4       ?_type@Class_System_GCs_Barrier_SlowZeroFieldsVisitor@@2UClass_System_RuntimeType@@A 020ab1f4     VolMgr.obj
 0003:00009240       ??_7Microsoft_Singularity_Io_DiskDeviceContract_AckRead@@6B@ 020ab240     VolMgr.obj
 0003:000092a8       ?_type@Class_Microsoft_Singularity_Io_DiskDeviceContract_AckRead@@2UClass_System_RuntimeType@@A 020ab2a8     VolMgr.obj
 0003:000092f4       ??_7Microsoft_Bartok_Runtime_StructuralType@@6B@ 020ab2f4     VolMgr.obj
 0003:0000936c       ?_type@Class_Microsoft_Bartok_Runtime_StructuralType@@2UClass_System_RuntimeType@@A 020ab36c     VolMgr.obj
 0003:000093b8       ??_7System_GCs_SegregatedFreeList_PartialFreePageVisitor@@6B@ 020ab3b8     VolMgr.obj
 0003:00009428       ?_type@Class_System_GCs_SegregatedFreeList_PartialFreePageVisitor@@2UClass_System_RuntimeType@@A 020ab428     VolMgr.obj
 0003:00009474       ??_7System_GCs_MemoryAccounting@@6B@ 020ab474     VolMgr.obj
 0003:000094dc       ?_type@Class_System_GCs_MemoryAccounting@@2UClass_System_RuntimeType@@A 020ab4dc     VolMgr.obj
 0003:00009528       ??_7System_GCs_MarkSweepCollector_MarkAndProcessReferenceVisitor@@6B@ 020ab528     VolMgr.obj
 0003:000095a0       ?_type@Class_System_GCs_MarkSweepCollector_MarkAndProcessReferenceVisitor@@2UClass_System_RuntimeType@@A 020ab5a0     VolMgr.obj
 0003:000095ec       ??_7Microsoft_Singularity_Eventing_ArrayType@@6B@ 020ab5ec     VolMgr.obj
 0003:00009654       ?_type@Class_Microsoft_Singularity_Eventing_ArrayType@@2UClass_System_RuntimeType@@A 020ab654     VolMgr.obj
 0003:000096a0       ??_7Microsoft_Singularity_Io_VolumeManagerContract_Exp@@6B@ 020ab6a0     VolMgr.obj
 0003:00009718       ?_type@Class_Microsoft_Singularity_Io_VolumeManagerContract_Exp@@2UClass_System_RuntimeType@@A 020ab718     VolMgr.obj
 0003:00009764       ??_7Microsoft_Contracts_ContractException@@6B@ 020ab764     VolMgr.obj
 0003:000097d0       System$_Compiler$_RuntimeVersionInstance 020ab7d0     VolMgr.obj
 0003:000098a8       System$_Compiler$_RuntimeassemblyNameInstance 020ab8a8     VolMgr.obj
 0003:000098c0       System$_Compiler$_RuntimeAssemblyInstance 020ab8c0     VolMgr.obj
 0003:000098cc       System$_Compiler$_RuntimeModuleInstance 020ab8cc     VolMgr.obj
 0003:000098dc       ?_type@Class_Microsoft_Contracts_ContractException@@2UClass_System_RuntimeType@@A 020ab8dc     VolMgr.obj
 0003:00009928       ??_7Microsoft_Contracts_NullException@@6B@ 020ab928     VolMgr.obj
 0003:00009994       ?_type@Class_Microsoft_Contracts_NullException@@2UClass_System_RuntimeType@@A 020ab994     VolMgr.obj
 0003:000099e0       ??_7System_Threading_SpinLockBase@@6B@ 020ab9e0     VolMgr.obj
 0003:00009a48       ?_type@Class_System_Threading_SpinLockBase@@2UClass_System_RuntimeType@@A 020aba48     VolMgr.obj
 0003:00009a94       ??_7Microsoft_Singularity_Isal_IX_MmxContext@@6B@ 020aba94     VolMgr.obj
 0003:00009afc       ?_type@Class_Microsoft_Singularity_Isal_IX_MmxContext@@2UClass_System_RuntimeType@@A 020abafc     VolMgr.obj
 0003:00009b48       ??_7Microsoft_Singularity_Isal_Isa_Type@@6B@ 020abb48     VolMgr.obj
 0003:00009bc0       ?_type@Class_Microsoft_Singularity_Isal_Isa_Type@@2UClass_System_RuntimeType@@A 020abbc0     VolMgr.obj
 0003:00009c0c       ??_7Microsoft_Singularity_Directory_DirectoryServiceContract_EndEnumeration@@6B@ 020abc0c     VolMgr.obj
 0003:00009c74       ?_type@Class_Microsoft_Singularity_Directory_DirectoryServiceContract_EndEnumeration@@2UClass_System_RuntimeType@@A 020abc74     VolMgr.obj
 0003:00009cc0       ??_7Microsoft_Singularity_Eventing_QualityOfService@@6B@ 020abcc0     VolMgr.obj
 0003:00009d28       ?_type@Class_Microsoft_Singularity_Eventing_QualityOfService@@2UClass_System_RuntimeType@@A 020abd28     VolMgr.obj
 0003:00009d74       ??_7System_Runtime_InteropServices_GCAnnotationAttribute@@6B@ 020abd74     VolMgr.obj
 0003:00009ddc       ?_type@Class_System_Runtime_InteropServices_GCAnnotationAttribute@@2UClass_System_RuntimeType@@A 020abddc     VolMgr.obj
 0003:00009e28       ??_7System_Collections_IHashCodeProvider@@6B@ 020abe28     VolMgr.obj
 0003:00009e80       ?_type@Class_System_Collections_IHashCodeProvider@@2UClass_System_RuntimeType@@A 020abe80     VolMgr.obj
 0003:00009ecc       ??_7System_GCs_Barrier_ZeroFieldsVisitor@@6B@ 020abecc     VolMgr.obj
 0003:00009f44       ?_type@Class_System_GCs_Barrier_ZeroFieldsVisitor@@2UClass_System_RuntimeType@@A 020abf44     VolMgr.obj
 0003:00009f90       ??_7Microsoft_Singularity_Isal_IX_CR3@@6B@ 020abf90     VolMgr.obj
 0003:00009ff8       ?_type@Class_Microsoft_Singularity_Isal_IX_CR3@@2UClass_System_RuntimeType@@A 020abff8     VolMgr.obj
 0003:0000a044       ??_7Microsoft_Singularity_Isal_IX_CR0@@6B@ 020ac044     VolMgr.obj
 0003:0000a0ac       ?_type@Class_Microsoft_Singularity_Isal_IX_CR0@@2UClass_System_RuntimeType@@A 020ac0ac     VolMgr.obj
 0003:0000a0f8       ??_7System_VTable_ClassConstructorLock@@6B@ 020ac0f8     VolMgr.obj
 0003:0000a160       ?_type@Class_System_VTable_ClassConstructorLock@@2UClass_System_RuntimeType@@A 020ac160     VolMgr.obj
 0003:0000a1ac       ??_7Microsoft_Singularity_Isal_IX_CR4@@6B@ 020ac1ac     VolMgr.obj
 0003:0000a214       ?_type@Class_Microsoft_Singularity_Isal_IX_CR4@@2UClass_System_RuntimeType@@A 020ac214     VolMgr.obj
 0003:0000a260       ??_7System_UpdateLog_Location@@6B@ 020ac260     VolMgr.obj
 0003:0000a2c8       ?_type@Class_System_UpdateLog_Location@@2UClass_System_RuntimeType@@A 020ac2c8     VolMgr.obj
 0003:0000a314       ??_7System_Threading_SynchronizationLockException@@6B@ 020ac314     VolMgr.obj
 0003:0000a380       ?_type@Class_System_Threading_SynchronizationLockException@@2UClass_System_RuntimeType@@A 020ac380     VolMgr.obj
 0003:0000a3cc       ??_7Microsoft_Singularity_V1_Services_DebugService@@6B@ 020ac3cc     VolMgr.obj
 0003:0000a434       ?_type@Class_Microsoft_Singularity_V1_Services_DebugService@@2UClass_System_RuntimeType@@A 020ac434     VolMgr.obj
 0003:0000a480       ??_7System_Text_StringBuilder@@6B@ 020ac480     VolMgr.obj
 0003:0000a4e8       ?_type@Class_System_Text_StringBuilder@@2UClass_System_RuntimeType@@A 020ac4e8     VolMgr.obj
 0003:0000a534       ??_7System_GCs_ProfileObjectsDelegate@@6B@ 020ac534     VolMgr.obj
 0003:0000a5a8       ?_type@Class_System_GCs_ProfileObjectsDelegate@@2UClass_System_RuntimeType@@A 020ac5a8     VolMgr.obj
 0003:0000a5f4       ??_7System_Reflection_AssemblyName@@6B@ 020ac5f4     VolMgr.obj
 0003:0000a65c       ?_type@Class_System_Reflection_AssemblyName@@2UClass_System_RuntimeType@@A 020ac65c     VolMgr.obj
 0003:0000a6a8       ??_7System_Collections_IDictionaryEnumerator@@6B@ 020ac6a8     VolMgr.obj
 0003:0000a710       ?_type@Class_System_Collections_IDictionaryEnumerator@@2UClass_System_RuntimeType@@A 020ac710     VolMgr.obj
 0003:0000a780       ??_7System_Collections_SortedList_SortedListEnumerator@@6B@ 020ac780     VolMgr.obj
 0003:0000a810       ?_type@Class_System_Collections_SortedList_SortedListEnumerator@@2UClass_System_RuntimeType@@A 020ac810     VolMgr.obj
 0003:0000a85c       ??_7System_GCs_SegregatedFreeList_ObjectVisitor@@6B@ 020ac85c     VolMgr.obj
 0003:0000a8d8       ?_type@Class_System_GCs_SegregatedFreeList_ObjectVisitor@@2UClass_System_RuntimeType@@A 020ac8d8     VolMgr.obj
 0003:0000a924       ??_7System_GCs_MarkSweepCollector_SweepVisitor@@6B@ 020ac924     VolMgr.obj
 0003:0000a9a0       ?_type@Class_System_GCs_MarkSweepCollector_SweepVisitor@@2UClass_System_RuntimeType@@A 020ac9a0     VolMgr.obj
 0003:0000a9ec       ??_7Microsoft_Singularity_Io_DiskDeviceContract_AckWrite@@6B@ 020ac9ec     VolMgr.obj
 0003:0000aa54       ?_type@Class_Microsoft_Singularity_Io_DiskDeviceContract_AckWrite@@2UClass_System_RuntimeType@@A 020aca54     VolMgr.obj
 0003:0000aaa0       ??_7Microsoft_Singularity_Directory_DirectoryServiceContract_NakStoreACLReparse@@6B@ 020acaa0     VolMgr.obj
 0003:0000ab08       ?_type@Class_Microsoft_Singularity_Directory_DirectoryServiceContract_NakStoreACLReparse@@2UClass_System_RuntimeType@@A 020acb08     VolMgr.obj
 0003:0000ab54       ??_7System_CharEnumerator@@6B@ 020acb54     VolMgr.obj
 0003:0000abcc       ?_type@Class_System_CharEnumerator@@2UClass_System_RuntimeType@@A 020acbcc     VolMgr.obj
 0003:0000ac18       ??_7Microsoft_Singularity_Directory_DirectoryServiceContract_NakGetLinkValue@@6B@ 020acc18     VolMgr.obj
 0003:0000ac80       ?_type@Class_Microsoft_Singularity_Directory_DirectoryServiceContract_NakGetLinkValue@@2UClass_System_RuntimeType@@A 020acc80     VolMgr.obj
 0003:0000accc       ??_7System_FormatException@@6B@ 020acccc     VolMgr.obj
 0003:0000ad38       ?_type@Class_System_FormatException@@2UClass_System_RuntimeType@@A 020acd38     VolMgr.obj
 0003:0000ad84       ??_7Microsoft_Singularity_Services_VolumeManager_VolMgr@@6B@ 020acd84     VolMgr.obj
 0003:0000adec       ?_type@Class_Microsoft_Singularity_Services_VolumeManager_VolMgr@@2UClass_System_RuntimeType@@A 020acdec     VolMgr.obj
 0003:0000ae38       ??_7System_Delegate_NativeDelegateRecord@@6B@ 020ace38     VolMgr.obj
 0003:0000aea0       ?_type@Class_System_Delegate_NativeDelegateRecord@@2UClass_System_RuntimeType@@A 020acea0     VolMgr.obj
 0003:0000aeec       ??_7System_UpdateEnlistmentLogWriter@@6B@ 020aceec     VolMgr.obj
 0003:0000af54       ?_type@Class_System_UpdateEnlistmentLogWriter@@2UClass_System_RuntimeType@@A 020acf54     VolMgr.obj
 0003:0000afa0       ???_7vtable@ClassVector_int64@@2PAUClass_System_VTable@@A 020acfa0     VolMgr.obj
 0003:0000b010       ?_type@ClassVector_int64@@2UClass_System_RuntimeType@@A 020ad010     VolMgr.obj
 0003:0000b05c       ??_7Microsoft_Singularity_Eventing_EventingStorage@@6B@ 020ad05c     VolMgr.obj
 0003:0000b0cc       ?_type@Class_Microsoft_Singularity_Eventing_EventingStorage@@2UClass_System_RuntimeType@@A 020ad0cc     VolMgr.obj
 0003:0000b118       ??_7Microsoft_Singularity_Directory_DirectoryServiceContract_DeleteLink@@6B@ 020ad118     VolMgr.obj
 0003:0000b180       ?_type@Class_Microsoft_Singularity_Directory_DirectoryServiceContract_DeleteLink@@2UClass_System_RuntimeType@@A 020ad180     VolMgr.obj
 0003:0000b1cc       ??_7System_Char@@6B@       020ad1cc     VolMgr.obj
 0003:0000b23c       ?_type@Class_System_Char@@2UClass_System_RuntimeType@@A 020ad23c     VolMgr.obj
 0003:0000b288       ??_7System_Runtime_CompilerServices_ForceInlineAttribute@@6B@ 020ad288     VolMgr.obj
 0003:0000b2f0       ?_type@Class_System_Runtime_CompilerServices_ForceInlineAttribute@@2UClass_System_RuntimeType@@A 020ad2f0     VolMgr.obj
 0003:0000b33c       ??_7System_GCs_SegregatedFreeList_TempList@@6B@ 020ad33c     VolMgr.obj
 0003:0000b3a4       ?_type@Class_System_GCs_SegregatedFreeList_TempList@@2UClass_System_RuntimeType@@A 020ad3a4     VolMgr.obj
 0003:0000b3f0       ??_7Microsoft_Singularity_V1_Services_DiagnosisService@@6B@ 020ad3f0     VolMgr.obj
 0003:0000b458       ?_type@Class_Microsoft_Singularity_V1_Services_DiagnosisService@@2UClass_System_RuntimeType@@A 020ad458     VolMgr.obj
 0003:0000b4a4       ??_7Microsoft_Singularity_Directory_DirectoryServiceContract_NakCreateDirectory@@6B@ 020ad4a4     VolMgr.obj
 0003:0000b50c       ?_type@Class_Microsoft_Singularity_Directory_DirectoryServiceContract_NakCreateDirectory@@2UClass_System_RuntimeType@@A 020ad50c     VolMgr.obj
 0003:0000b558       ??_7Microsoft_Singularity_Directory_ServiceProviderContract_Imp@@6B@ 020ad558     VolMgr.obj
 0003:0000b5d0       ?_type@Class_Microsoft_Singularity_Directory_ServiceProviderContract_Imp@@2UClass_System_RuntimeType@@A 020ad5d0     VolMgr.obj
 0003:0000b630       ??_7System_Collections_Comparer@@6B@ 020ad630     VolMgr.obj
 0003:0000b6b0       ?_type@Class_System_Collections_Comparer@@2UClass_System_RuntimeType@@A 020ad6b0     VolMgr.obj
 0003:0000b6fc       ??_7System_GCs_PageManager@@6B@ 020ad6fc     VolMgr.obj
 0003:0000b764       ?_type@Class_System_GCs_PageManager@@2UClass_System_RuntimeType@@A 020ad764     VolMgr.obj
 0003:0000b7b0       ??_7Microsoft_Singularity_Directory_DirectoryServiceContract_NakGetLinkValueReparse@@6B@ 020ad7b0     VolMgr.obj
 0003:0000b818       ?_type@Class_Microsoft_Singularity_Directory_DirectoryServiceContract_NakGetLinkValueReparse@@2UClass_System_RuntimeType@@A 020ad818     VolMgr.obj
 0003:0000b864       ??_7System_IntPtr@@6B@     020ad864     VolMgr.obj
 0003:0000b8cc       ?_type@Class_System_IntPtr@@2UClass_System_RuntimeType@@A 020ad8cc     VolMgr.obj
 0003:0000b918       ??_7System_GCs_Verifier_GenericReferenceVisitor@@6B@ 020ad918     VolMgr.obj
 0003:0000b990       ?_type@Class_System_GCs_Verifier_GenericReferenceVisitor@@2UClass_System_RuntimeType@@A 020ad990     VolMgr.obj
 0003:0000b9dc       ??_7Microsoft_Contracts_RequiresException@@6B@ 020ad9dc     VolMgr.obj
 0003:0000ba48       ?_type@Class_Microsoft_Contracts_RequiresException@@2UClass_System_RuntimeType@@A 020ada48     VolMgr.obj
 0003:0000ba94       ???_7vtable@ClassVector_bartok_char@@2PAUClass_System_VTable@@A 020ada94     VolMgr.obj
 0003:0000bb04       ?_type@ClassVector_bartok_char@@2UClass_System_RuntimeType@@A 020adb04     VolMgr.obj
 0003:0000bb50       ??_7Microsoft_Singularity_Directory_DirectoryServiceContract_Imp@@6B@ 020adb50     VolMgr.obj
 0003:0000bbc8       ?_type@Class_Microsoft_Singularity_Directory_DirectoryServiceContract_Imp@@2UClass_System_RuntimeType@@A 020adbc8     VolMgr.obj
 0003:0000bc14       ??_7Microsoft_Singularity_Directory_DirectoryServiceContract_AckRegister@@6B@ 020adc14     VolMgr.obj
 0003:0000bc7c       ?_type@Class_Microsoft_Singularity_Directory_DirectoryServiceContract_AckRegister@@2UClass_System_RuntimeType@@A 020adc7c     VolMgr.obj
 0003:0000bcc8       ??_7System_AtomicException@@6B@ 020adcc8     VolMgr.obj
 0003:0000bd34       ?_type@Class_System_AtomicException@@2UClass_System_RuntimeType@@A 020add34     VolMgr.obj
 0003:0000bd80       ??_7System_AtomicIsInvalidException@@6B@ 020add80     VolMgr.obj
 0003:0000bdec       ?_type@Class_System_AtomicIsInvalidException@@2UClass_System_RuntimeType@@A 020addec     VolMgr.obj
 0003:0000be38       ??_7Microsoft_Singularity_Io_DiskDeviceContract_GetDiskAttributes@@6B@ 020ade38     VolMgr.obj
 0003:0000bea0       ?_type@Class_Microsoft_Singularity_Io_DiskDeviceContract_GetDiskAttributes@@2UClass_System_RuntimeType@@A 020adea0     VolMgr.obj
 0003:0000beec       ???_7vtable@ClassVector_int32@@2PAUClass_System_VTable@@A 020adeec     VolMgr.obj
 0003:0000bf5c       ?_type@ClassVector_int32@@2UClass_System_RuntimeType@@A 020adf5c     VolMgr.obj
 0003:0000bfa8       ??_7Microsoft_Singularity_Directory_DirectoryServiceContract_AckDeleteFile@@6B@ 020adfa8     VolMgr.obj
 0003:0000c010       ?_type@Class_Microsoft_Singularity_Directory_DirectoryServiceContract_AckDeleteFile@@2UClass_System_RuntimeType@@A 020ae010     VolMgr.obj
 0003:0000c05c       ??_7System_Collections_DictionaryEntry@@6B@ 020ae05c     VolMgr.obj
 0003:0000c0c4       ?_type@Class_System_Collections_DictionaryEntry@@2UClass_System_RuntimeType@@A 020ae0c4     VolMgr.obj
 0003:0000c110       ??_7System_StackOverflowException@@6B@ 020ae110     VolMgr.obj
 0003:0000c17c       ?_type@Class_System_StackOverflowException@@2UClass_System_RuntimeType@@A 020ae17c     VolMgr.obj
 0003:0000c1c8       ??_7Microsoft_Singularity_Directory_DirectoryServiceContract_AckStoreACL@@6B@ 020ae1c8     VolMgr.obj
 0003:0000c230       ?_type@Class_Microsoft_Singularity_Directory_DirectoryServiceContract_AckStoreACL@@2UClass_System_RuntimeType@@A 020ae230     VolMgr.obj
 0003:0000c27c       ???_7vtable@ClassVector_Class_System_Threading_ThreadQueueItem@@2PAUClass_System_VTable@@A 020ae27c     VolMgr.obj
 0003:0000c2ec       ?_type@ClassVector_Class_System_Threading_ThreadQueueItem@@2UClass_System_RuntimeType@@A 020ae2ec     VolMgr.obj
 0003:0000c338       ??_7System_DivideByZeroException@@6B@ 020ae338     VolMgr.obj
 0003:0000c3a4       ?_type@Class_System_DivideByZeroException@@2UClass_System_RuntimeType@@A 020ae3a4     VolMgr.obj
 0003:0000c3f0       ??_7Microsoft_Singularity_Directory_DirectoryServiceContract_BeginEnumeration@@6B@ 020ae3f0     VolMgr.obj
 0003:0000c458       ?_type@Class_Microsoft_Singularity_Directory_DirectoryServiceContract_BeginEnumeration@@2UClass_System_RuntimeType@@A 020ae458     VolMgr.obj
 0003:0000c4a4       ??_7Microsoft_Singularity_Directory_DirectoryServiceContract_AckDeleteDirectory@@6B@ 020ae4a4     VolMgr.obj
 0003:0000c50c       ?_type@Class_Microsoft_Singularity_Directory_DirectoryServiceContract_AckDeleteDirectory@@2UClass_System_RuntimeType@@A 020ae50c     VolMgr.obj
 0003:0000c558       ???_7vtable@ClassVector_uint8@@2PAUClass_System_VTable@@A 020ae558     VolMgr.obj
 0003:0000c5c8       ?_type@ClassVector_uint8@@2UClass_System_RuntimeType@@A 020ae5c8     VolMgr.obj
 0003:0000c614       ??_7Microsoft_Singularity_Directory_DirectoryServiceContract_NakDeleteDirectory@@6B@ 020ae614     VolMgr.obj
 0003:0000c67c       ?_type@Class_Microsoft_Singularity_Directory_DirectoryServiceContract_NakDeleteDirectory@@2UClass_System_RuntimeType@@A 020ae67c     VolMgr.obj
 0003:0000c6c8       ??_7Microsoft_Singularity_Channels_EMap$_3$LMicrosoft_Singularity_Directory_ServiceProviderContract_Exp_Microsoft_Singularity_Directory_ServiceProviderContract_Start_optional_Microsoft_Contracts_NonNullType__Microsoft_Singularity_Services_VolumeManager_Volume$G@@6B@ 020ae6c8     VolMgr.obj
 0003:0000c744       ?_type@Class_Microsoft_Singularity_Channels_EMap$_3$LMicrosoft_Singularity_Directory_ServiceProviderContract_Exp_Microsoft_Singularity_Directory_ServiceProviderContract_Start_optional_Microsoft_Contracts_NonNullType__Microsoft_Singularity_Services_VolumeManager_Volume$G@@2UClass_System_RuntimeType@@A 020ae744     VolMgr.obj
 0003:0000c790       ??_7Microsoft_Singularity_Directory_DirectoryServiceContract_AckQueryACL@@6B@ 020ae790     VolMgr.obj
 0003:0000c7f8       ?_type@Class_Microsoft_Singularity_Directory_DirectoryServiceContract_AckQueryACL@@2UClass_System_RuntimeType@@A 020ae7f8     VolMgr.obj
 0003:0000c844       ??_7Microsoft_Singularity_Io_DiskDeviceContract_Write@@6B@ 020ae844     VolMgr.obj
 0003:0000c8ac       ?_type@Class_Microsoft_Singularity_Io_DiskDeviceContract_Write@@2UClass_System_RuntimeType@@A 020ae8ac     VolMgr.obj
 0003:0000c8f8       ??_7Microsoft_Singularity_Directory_DirectoryServiceContract_NakGetAttributesReparse@@6B@ 020ae8f8     VolMgr.obj
 0003:0000c960       ?_type@Class_Microsoft_Singularity_Directory_DirectoryServiceContract_NakGetAttributesReparse@@2UClass_System_RuntimeType@@A 020ae960     VolMgr.obj
 0003:0000c9ac       ??_7Microsoft_Singularity_DebugStub@@6B@ 020ae9ac     VolMgr.obj
 0003:0000ca14       ?_type@Class_Microsoft_Singularity_DebugStub@@2UClass_System_RuntimeType@@A 020aea14     VolMgr.obj
 0003:0000ca60       ??_7Microsoft_Bartok_Runtime_TypeInitState@@6B@ 020aea60     VolMgr.obj
 0003:0000cad8       ?_type@Class_Microsoft_Bartok_Runtime_TypeInitState@@2UClass_System_RuntimeType@@A 020aead8     VolMgr.obj
 0003:0000cb24       ??_7Microsoft_Singularity_Io_DiskDeviceContract_AckGetDiskAttributes@@6B@ 020aeb24     VolMgr.obj
 0003:0000cb8c       ?_type@Class_Microsoft_Singularity_Io_DiskDeviceContract_AckGetDiskAttributes@@2UClass_System_RuntimeType@@A 020aeb8c     VolMgr.obj
 0003:0000cbd8       ??_7Microsoft_Singularity_V1_Services_SharedHeapService@@6B@ 020aebd8     VolMgr.obj
 0003:0000cc40       ?_type@Class_Microsoft_Singularity_V1_Services_SharedHeapService@@2UClass_System_RuntimeType@@A 020aec40     VolMgr.obj
 0003:0000cc8c       ??_7Microsoft_Singularity_Directory_DirectoryServiceContract@@6B@ 020aec8c     VolMgr.obj
 0003:0000ccf4       ?_type@Class_Microsoft_Singularity_Directory_DirectoryServiceContract@@2UClass_System_RuntimeType@@A 020aecf4     VolMgr.obj
 0003:0000cd40       ??_7System_Collections_ArrayList_ArrayListEnumeratorSimple@@6B@ 020aed40     VolMgr.obj
 0003:0000cdb8       ?_type@Class_System_Collections_ArrayList_ArrayListEnumeratorSimple@@2UClass_System_RuntimeType@@A 020aedb8     VolMgr.obj
 0003:0000ce04       ??_7System_LocalDataStoreMgr@@6B@ 020aee04     VolMgr.obj
 0003:0000ce6c       ?_type@Class_System_LocalDataStoreMgr@@2UClass_System_RuntimeType@@A 020aee6c     VolMgr.obj
 0003:0000ceb8       ??_7System_GCs_ObjectLayout@@6B@ 020aeeb8     VolMgr.obj
 0003:0000cf20       ?_type@Class_System_GCs_ObjectLayout@@2UClass_System_RuntimeType@@A 020aef20     VolMgr.obj
 0003:0000cf6c       ???_7vtable@ClassVector_float32@@2PAUClass_System_VTable@@A 020aef6c     VolMgr.obj
 0003:0000cfdc       ?_type@ClassVector_float32@@2UClass_System_RuntimeType@@A 020aefdc     VolMgr.obj
 0003:0000d028       ??_7Microsoft_Singularity_Directory_DirectoryServiceContract_AckCreateAndBindFile@@6B@ 020af028     VolMgr.obj
 0003:0000d090       ?_type@Class_Microsoft_Singularity_Directory_DirectoryServiceContract_AckCreateAndBindFile@@2UClass_System_RuntimeType@@A 020af090     VolMgr.obj
 0003:0000d0dc       ??_7System_Runtime_CompilerServices_NoBarriersAttribute@@6B@ 020af0dc     VolMgr.obj
 0003:0000d144       ?_type@Class_System_Runtime_CompilerServices_NoBarriersAttribute@@2UClass_System_RuntimeType@@A 020af144     VolMgr.obj
 0003:0000d190       ???_7vtable@ClassVector_Class_Microsoft_Singularity_Channels_ISelectable@@2PAUClass_System_VTable@@A 020af190     VolMgr.obj
 0003:0000d200       ?_type@ClassVector_Class_Microsoft_Singularity_Channels_ISelectable@@2UClass_System_RuntimeType@@A 020af200     VolMgr.obj
 0003:0000d24c       ??_7Microsoft_Singularity_Services_VolumeManager_Volume@@6B@ 020af24c     VolMgr.obj
 0003:0000d2b4       ?_type@Class_Microsoft_Singularity_Services_VolumeManager_Volume@@2UClass_System_RuntimeType@@A 020af2b4     VolMgr.obj
 0003:0000d300       ??_7Microsoft_Bartok_Runtime_Constants@@6B@ 020af300     VolMgr.obj
 0003:0000d368       ?_type@Class_Microsoft_Bartok_Runtime_Constants@@2UClass_System_RuntimeType@@A 020af368     VolMgr.obj
 0003:0000d3b4       ??_7System_GCs_BumpAllocator@@6B@ 020af3b4     VolMgr.obj
 0003:0000d41c       ?_type@Class_System_GCs_BumpAllocator@@2UClass_System_RuntimeType@@A 020af41c     VolMgr.obj
 0003:0000d468       ??_7System_GCs_MarkSweepCollector_MarkReferenceVisitor@@6B@ 020af468     VolMgr.obj
 0003:0000d4e0       ?_type@Class_System_GCs_MarkSweepCollector_MarkReferenceVisitor@@2UClass_System_RuntimeType@@A 020af4e0     VolMgr.obj
 0003:0000d52c       ??_7System_GCs_SegregatedFreeList_PageSeparation@@6B@ 020af52c     VolMgr.obj
 0003:0000d594       ?_type@Class_System_GCs_SegregatedFreeList_PageSeparation@@2UClass_System_RuntimeType@@A 020af594     VolMgr.obj
 0003:0000d5e0       ??_7System_UpdateLog_LogChunk@@6B@ 020af5e0     VolMgr.obj
 0003:0000d648       ?_type@Class_System_UpdateLog_LogChunk@@2UClass_System_RuntimeType@@A 020af648     VolMgr.obj
 0003:0000d694       ??_7Microsoft_Singularity_Directory_ServiceProviderContract@@6B@ 020af694     VolMgr.obj
 0003:0000d6fc       ?_type@Class_Microsoft_Singularity_Directory_ServiceProviderContract@@2UClass_System_RuntimeType@@A 020af6fc     VolMgr.obj
 0003:0000d748       ??_7System_GCs_CallStack@@6B@ 020af748     VolMgr.obj
 0003:0000d7b0       ?_type@Class_System_GCs_CallStack@@2UClass_System_RuntimeType@@A 020af7b0     VolMgr.obj
 0003:0000d7fc       ??_7System_UpdateLog_Entry@@6B@ 020af7fc     VolMgr.obj
 0003:0000d864       ?_type@Class_System_UpdateLog_Entry@@2UClass_System_RuntimeType@@A 020af864     VolMgr.obj
 0003:0000d8b0       ???_7vtable@ClassVector_Class_System_Threading_Thread@@2PAUClass_System_VTable@@A 020af8b0     VolMgr.obj
 0003:0000d920       ?_type@ClassVector_Class_System_Threading_Thread@@2UClass_System_RuntimeType@@A 020af920     VolMgr.obj
 0003:0000d96c       ??_7Microsoft_Singularity_Channels_ESet$_2$LMicrosoft_Singularity_Io_VolumeManagerContract_Exp_Microsoft_Singularity_Io_VolumeManagerContract_Ready$G@@6B@ 020af96c     VolMgr.obj
 0003:0000d9e8       ?_type@Class_Microsoft_Singularity_Channels_ESet$_2$LMicrosoft_Singularity_Io_VolumeManagerContract_Exp_Microsoft_Singularity_Io_VolumeManagerContract_Ready$G@@2UClass_System_RuntimeType@@A 020af9e8     VolMgr.obj
 0003:0000da34       ???_7vtable@ClassVector_Struct_System_ReadEnlistmentLog_Entry@@2PAUClass_System_VTable@@A 020afa34     VolMgr.obj
 0003:0000daa4       ?_type@ClassVector_Struct_System_ReadEnlistmentLog_Entry@@2UClass_System_RuntimeType@@A 020afaa4     VolMgr.obj
 0003:0000daf0       ??_7System_GCs_Verifier_StackVerifier@@6B@ 020afaf0     VolMgr.obj
 0003:0000db5c       ?_type@Class_System_GCs_Verifier_StackVerifier@@2UClass_System_RuntimeType@@A 020afb5c     VolMgr.obj
 0003:0000dba8       ??_7System_GCs_Verifier_GenericStackVerifier@@6B@ 020afba8     VolMgr.obj
 0003:0000dc14       ?_type@Class_System_GCs_Verifier_GenericStackVerifier@@2UClass_System_RuntimeType@@A 020afc14     VolMgr.obj
 0003:0000dc60       ??_7System_GCs_PageManager_UnusedBlockHeader@@6B@ 020afc60     VolMgr.obj
 0003:0000dcc8       ?_type@Class_System_GCs_PageManager_UnusedBlockHeader@@2UClass_System_RuntimeType@@A 020afcc8     VolMgr.obj
 0003:0000dd28       ??_7System_Threading_WaitHandle@@6B@ 020afd28     VolMgr.obj
 0003:0000ddb4       ?_type@Class_System_Threading_WaitHandle@@2UClass_System_RuntimeType@@A 020afdb4     VolMgr.obj
 0003:0000de00       ??_7System_Threading_Mutex@@6B@ 020afe00     VolMgr.obj
 0003:0000de7c       ?_type@Class_System_Threading_Mutex@@2UClass_System_RuntimeType@@A 020afe7c     VolMgr.obj
 0003:0000deec       ??_7System_String@@6B@     020afeec     VolMgr.obj
 0003:0000deec       ?_vtable@Class_System_String@@2UClass_System_VTable@@A 020afeec     VolMgr.obj
 0003:0000df7c       ?_type@Class_System_String@@2UClass_System_RuntimeType@@A 020aff7c     VolMgr.obj
 0003:0000dfc8       ??_7System_Globalization_CompareInfo@@6B@ 020affc8     VolMgr.obj
 0003:0000e030       ?_type@Class_System_Globalization_CompareInfo@@2UClass_System_RuntimeType@@A 020b0030     VolMgr.obj
 0003:0000e07c       ??_7System_UpdateEnlistmentLog@@6B@ 020b007c     VolMgr.obj
 0003:0000e0e4       ?_type@Class_System_UpdateEnlistmentLog@@2UClass_System_RuntimeType@@A 020b00e4     VolMgr.obj
 0003:0000e130       ??_7Microsoft_Singularity_V1_Processes_ProcessHandle@@6B@ 020b0130     VolMgr.obj
 0003:0000e198       ?_type@Class_Microsoft_Singularity_V1_Processes_ProcessHandle@@2UClass_System_RuntimeType@@A 020b0198     VolMgr.obj
 0003:0000e1e4       ??_7Microsoft_Singularity_Directory_ErrorCode@@6B@ 020b01e4     VolMgr.obj
 0003:0000e25c       ?_type@Class_Microsoft_Singularity_Directory_ErrorCode@@2UClass_System_RuntimeType@@A 020b025c     VolMgr.obj
 0003:0000e2a8       ???_7vtable@ClassVector_Struct_System_GCs_PageManager_UnusedBlockHeader@@2PAUClass_System_VTable@@A 020b02a8     VolMgr.obj
 0003:0000e318       ?_type@ClassVector_Struct_System_GCs_PageManager_UnusedBlockHeader@@2UClass_System_RuntimeType@@A 020b0318     VolMgr.obj
 0003:0000e364       ??_7Microsoft_Singularity_Directory_DirectoryServiceContract_AckGetAttributes@@6B@ 020b0364     VolMgr.obj
 0003:0000e3cc       ?_type@Class_Microsoft_Singularity_Directory_DirectoryServiceContract_AckGetAttributes@@2UClass_System_RuntimeType@@A 020b03cc     VolMgr.obj
 0003:0000e418       ??_7Microsoft_Singularity_Directory_DirectoryServiceContract_AckCreateFile@@6B@ 020b0418     VolMgr.obj
 0003:0000e480       ?_type@Class_Microsoft_Singularity_Directory_DirectoryServiceContract_AckCreateFile@@2UClass_System_RuntimeType@@A 020b0480     VolMgr.obj
 0003:0000e4cc       ??_7Microsoft_Singularity_GCProfilerLogger@@6B@ 020b04cc     VolMgr.obj
 0003:0000e554       ?_type@Class_Microsoft_Singularity_GCProfilerLogger@@2UClass_System_RuntimeType@@A 020b0554     VolMgr.obj
 0003:0000e5a0       ??_7System_VarargList@@6B@ 020b05a0     VolMgr.obj
 0003:0000e608       ?_type@Class_System_VarargList@@2UClass_System_RuntimeType@@A 020b0608     VolMgr.obj
 0003:0000e654       ??_7Microsoft_Singularity_V1_Types_SystemType@@6B@ 020b0654     VolMgr.obj
 0003:0000e6bc       ?_type@Class_Microsoft_Singularity_V1_Types_SystemType@@2UClass_System_RuntimeType@@A 020b06bc     VolMgr.obj
 0003:0000e708       ??_7System_GCs_GCProfiler_RootVisitor@@6B@ 020b0708     VolMgr.obj
 0003:0000e780       ?_type@Class_System_GCs_GCProfiler_RootVisitor@@2UClass_System_RuntimeType@@A 020b0780     VolMgr.obj
 0003:0000e7cc       ??_7System_InvalidOperationException@@6B@ 020b07cc     VolMgr.obj
 0003:0000e838       ?_type@Class_System_InvalidOperationException@@2UClass_System_RuntimeType@@A 020b0838     VolMgr.obj
 0003:0000e884       ??_7System_Threading_Thread_StopServiceNotice@@6B@ 020b0884     VolMgr.obj
 0003:0000e8f8       ?_type@Class_System_Threading_Thread_StopServiceNotice@@2UClass_System_RuntimeType@@A 020b08f8     VolMgr.obj
 0003:0000e944       ??_7Microsoft_Singularity_Directory_DirectoryServiceContract_NakQueryACL@@6B@ 020b0944     VolMgr.obj
 0003:0000e9ac       ?_type@Class_Microsoft_Singularity_Directory_DirectoryServiceContract_NakQueryACL@@2UClass_System_RuntimeType@@A 020b09ac     VolMgr.obj
 0003:0000e9f8       ??_7System_InterfaceInfo@@6B@ 020b09f8     VolMgr.obj
 0003:0000ea60       ?_type@Class_System_InterfaceInfo@@2UClass_System_RuntimeType@@A 020b0a60     VolMgr.obj
 0003:0000eaac       ??_7Microsoft_Singularity_Directory_DirectoryServiceContract_CreateLink@@6B@ 020b0aac     VolMgr.obj
 0003:0000eb14       ?_type@Class_Microsoft_Singularity_Directory_DirectoryServiceContract_CreateLink@@2UClass_System_RuntimeType@@A 020b0b14     VolMgr.obj
 0003:0000eb60       ??_7Microsoft_Singularity_Eventing_MemoryStorage@@6B@ 020b0b60     VolMgr.obj
 0003:0000ebd0       ?_type@Class_Microsoft_Singularity_Eventing_MemoryStorage@@2UClass_System_RuntimeType@@A 020b0bd0     VolMgr.obj
 0003:0000ec1c       ??_7Microsoft_Singularity_Directory_NotifyContract_Imp@@6B@ 020b0c1c     VolMgr.obj
 0003:0000ec94       ?_type@Class_Microsoft_Singularity_Directory_NotifyContract_Imp@@2UClass_System_RuntimeType@@A 020b0c94     VolMgr.obj
 0003:0000ece0       ??_7Microsoft_Singularity_Io_VolumeManagerContract_RegisterDisk@@6B@ 020b0ce0     VolMgr.obj
 0003:0000ed48       ?_type@Class_Microsoft_Singularity_Io_VolumeManagerContract_RegisterDisk@@2UClass_System_RuntimeType@@A 020b0d48     VolMgr.obj
 0003:0000ed94       ??_7Microsoft_Singularity_Directory_DirectoryServiceContract_CreateDirectory@@6B@ 020b0d94     VolMgr.obj
 0003:0000edfc       ?_type@Class_Microsoft_Singularity_Directory_DirectoryServiceContract_CreateDirectory@@2UClass_System_RuntimeType@@A 020b0dfc     VolMgr.obj
 0003:0000ee48       ??_7Microsoft_Singularity_Directory_FileContract_Write@@6B@ 020b0e48     VolMgr.obj
 0003:0000eeb0       ?_type@Class_Microsoft_Singularity_Directory_FileContract_Write@@2UClass_System_RuntimeType@@A 020b0eb0     VolMgr.obj
 0003:0000eefc       ??_7System_Threading_AutoResetEvent@@6B@ 020b0efc     VolMgr.obj
 0003:0000ef78       ?_type@Class_System_Threading_AutoResetEvent@@2UClass_System_RuntimeType@@A 020b0f78     VolMgr.obj
 0003:0000efc4       ???_7vtable@ClassVector_uint32@@2PAUClass_System_VTable@@A 020b0fc4     VolMgr.obj
 0003:0000f034       ?_type@ClassVector_uint32@@2UClass_System_RuntimeType@@A 020b1034     VolMgr.obj
 0003:0000f080       ??_7SurrogateMicrosoft_Singularity_Directory_ServiceProviderContract_Exp@@6B@ 020b1080     VolMgr.obj
 0003:0000f0f8       ?_type@Class_SurrogateMicrosoft_Singularity_Directory_ServiceProviderContract_Exp@@2UClass_System_RuntimeType@@A 020b10f8     VolMgr.obj
 0003:0000f144       ??_7Microsoft_Singularity_Io_VolumeManagerContract_Imp@@6B@ 020b1144     VolMgr.obj
 0003:0000f1bc       ?_type@Class_Microsoft_Singularity_Io_VolumeManagerContract_Imp@@2UClass_System_RuntimeType@@A 020b11bc     VolMgr.obj
 0003:0000f208       ???_7vtable@ClassVector_Class_System_RuntimeType@@2PAUClass_System_VTable@@A 020b1208     VolMgr.obj
 0003:0000f278       ?_type@ClassVector_Class_System_RuntimeType@@2UClass_System_RuntimeType@@A 020b1278     VolMgr.obj
 0003:0000f2c4       ??_7Microsoft_Singularity_ProcessorContext@@6B@ 020b12c4     VolMgr.obj
 0003:0000f32c       ?_type@Class_Microsoft_Singularity_ProcessorContext@@2UClass_System_RuntimeType@@A 020b132c     VolMgr.obj
 0003:0000f378       ???_7vtable@ClassVector_Class_System_String@@2PAUClass_System_VTable@@A 020b1378     VolMgr.obj
 0003:0000f3e8       ?_type@ClassVector_Class_System_String@@2UClass_System_RuntimeType@@A 020b13e8     VolMgr.obj
 0003:0000f434       ??_7System_Buffer@@6B@     020b1434     VolMgr.obj
 0003:0000f49c       ?_type@Class_System_Buffer@@2UClass_System_RuntimeType@@A 020b149c     VolMgr.obj
 0003:0000f4e8       ??_7System_GCs_RefWriteBarrier@@6B@ 020b14e8     VolMgr.obj
 0003:0000f59c       ?_type@Class_System_GCs_RefWriteBarrier@@2UClass_System_RuntimeType@@A 020b159c     VolMgr.obj
 0003:0000f5e8       ??_7System_GCs_EmptyWriteBarrier@@6B@ 020b15e8     VolMgr.obj
 0003:0000f69c       ?_type@Class_System_GCs_EmptyWriteBarrier@@2UClass_System_RuntimeType@@A 020b169c     VolMgr.obj
 0003:0000f6e8       ??_7System_LogEntryUndoAction@@6B@ 020b16e8     VolMgr.obj
 0003:0000f750       ?_type@Class_System_LogEntryUndoAction@@2UClass_System_RuntimeType@@A 020b1750     VolMgr.obj
 0003:0000f79c       ??_7System_TypedReference@@6B@ 020b179c     VolMgr.obj
 0003:0000f804       ?_type@Class_System_TypedReference@@2UClass_System_RuntimeType@@A 020b1804     VolMgr.obj
 0003:0000f850       ???_7vtable@ClassVector_Struct_System_GCs_SegregatedFreeList_PageHeader@@2PAUClass_System_VTable@@A 020b1850     VolMgr.obj
 0003:0000f8c0       ?_type@ClassVector_Struct_System_GCs_SegregatedFreeList_PageHeader@@2UClass_System_RuntimeType@@A 020b18c0     VolMgr.obj
 0003:0000f90c       ??_7System_GCs_SegregatedFreeList_PageHeader@@6B@ 020b190c     VolMgr.obj
 0003:0000f974       ?_type@Class_System_GCs_SegregatedFreeList_PageHeader@@2UClass_System_RuntimeType@@A 020b1974     VolMgr.obj
 0003:0000f9c0       ??_7Microsoft_Singularity_Io_DiskAttributes@@6B@ 020b19c0     VolMgr.obj
 0003:0000fa38       ?_type@Class_Microsoft_Singularity_Io_DiskAttributes@@2UClass_System_RuntimeType@@A 020b1a38     VolMgr.obj
 0003:0000fa84       ??_7System_TimeSpan@@6B@   020b1a84     VolMgr.obj
 0003:0000faf4       ?_type@Class_System_TimeSpan@@2UClass_System_RuntimeType@@A 020b1af4     VolMgr.obj
 0003:0000fb40       ??_7System_Decimal@@6B@    020b1b40     VolMgr.obj
 0003:0000fbb8       ?_type@Class_System_Decimal@@2UClass_System_RuntimeType@@A 020b1bb8     VolMgr.obj
 0003:0000fc04       ??_7System_GCs_Barrier_SlowCopyFieldsVisitor@@6B@ 020b1c04     VolMgr.obj
 0003:0000fc7c       ?_type@Class_System_GCs_Barrier_SlowCopyFieldsVisitor@@2UClass_System_RuntimeType@@A 020b1c7c     VolMgr.obj
 0003:0000fcc8       ???_7vtable@ClassVector_ClassVector_uintPtr@@2PAUClass_System_VTable@@A 020b1cc8     VolMgr.obj
 0003:0000fd38       ?_type@ClassVector_ClassVector_uintPtr@@2UClass_System_RuntimeType@@A 020b1d38     VolMgr.obj
 0003:0000fd84       ??_7Microsoft_Singularity_Io_VolumeManagerContract_NakConnect@@6B@ 020b1d84     VolMgr.obj
 0003:0000fdec       ?_type@Class_Microsoft_Singularity_Io_VolumeManagerContract_NakConnect@@2UClass_System_RuntimeType@@A 020b1dec     VolMgr.obj
 0003:0000fe38       ???_7vtable@ClassVector_bool@@2PAUClass_System_VTable@@A 020b1e38     VolMgr.obj
 0003:0000fea8       ?_type@ClassVector_bool@@2UClass_System_RuntimeType@@A 020b1ea8     VolMgr.obj
 0003:0000fef4       ??_7Microsoft_Bartok_Runtime_PostHeader@@6B@ 020b1ef4     VolMgr.obj
 0003:0000ff5c       ?_type@Class_Microsoft_Bartok_Runtime_PostHeader@@2UClass_System_RuntimeType@@A 020b1f5c     VolMgr.obj
 0003:0000ffa8       ??_7Microsoft_Singularity_Eventing_GlobalStorage@@6B@ 020b1fa8     VolMgr.obj
 0003:00010018       ?_type@Class_Microsoft_Singularity_Eventing_GlobalStorage@@2UClass_System_RuntimeType@@A 020b2018     VolMgr.obj
 0003:00010064       ??_7Microsoft_Singularity_Isal_ThreadRecord@@6B@ 020b2064     VolMgr.obj
 0003:000100cc       ?_type@Class_Microsoft_Singularity_Isal_ThreadRecord@@2UClass_System_RuntimeType@@A 020b20cc     VolMgr.obj
 0003:00010118       ??_7System_ArgumentOutOfRangeException@@6B@ 020b2118     VolMgr.obj
 0003:00010184       ?_type@Class_System_ArgumentOutOfRangeException@@2UClass_System_RuntimeType@@A 020b2184     VolMgr.obj
 0003:000101d0       ??_7System_GCs_CallStack_TransitionRecord@@6B@ 020b21d0     VolMgr.obj
 0003:00010238       ?_type@Class_System_GCs_CallStack_TransitionRecord@@2UClass_System_RuntimeType@@A 020b2238     VolMgr.obj
 0003:00010298       ??_7System_UIntPtr@@6B@    020b2298     VolMgr.obj
 0003:00010318       ?_type@Class_System_UIntPtr@@2UClass_System_RuntimeType@@A 020b2318     VolMgr.obj
 0003:00010364       ??_7System_ReadEnlistmentLog_Location@@6B@ 020b2364     VolMgr.obj
 0003:000103cc       ?_type@Class_System_ReadEnlistmentLog_Location@@2UClass_System_RuntimeType@@A 020b23cc     VolMgr.obj
 0003:00010418       ??_7Microsoft_Singularity_Isal_IX_TSS@@6B@ 020b2418     VolMgr.obj
 0003:00010480       ?_type@Class_Microsoft_Singularity_Isal_IX_TSS@@2UClass_System_RuntimeType@@A 020b2480     VolMgr.obj
 0003:000104cc       ??_7System_RuntimeArgumentHandle@@6B@ 020b24cc     VolMgr.obj
 0003:00010534       ?_type@Class_System_RuntimeArgumentHandle@@2UClass_System_RuntimeType@@A 020b2534     VolMgr.obj
 0003:00010580       ??_7Microsoft_Contracts_ContractMarkerException@@6B@ 020b2580     VolMgr.obj
 0003:000105ec       ?_type@Class_Microsoft_Contracts_ContractMarkerException@@2UClass_System_RuntimeType@@A 020b25ec     VolMgr.obj
 0003:00010638       ??_7Microsoft_Singularity_Directory_FileContract_Read@@6B@ 020b2638     VolMgr.obj
 0003:000106a0       ?_type@Class_Microsoft_Singularity_Directory_FileContract_Read@@2UClass_System_RuntimeType@@A 020b26a0     VolMgr.obj
 0003:000106ec       ??_7Microsoft_Singularity_Directory_DirectoryServiceContract_NakDeregisterReparse@@6B@ 020b26ec     VolMgr.obj
 0003:00010754       ?_type@Class_Microsoft_Singularity_Directory_DirectoryServiceContract_NakDeregisterReparse@@2UClass_System_RuntimeType@@A 020b2754     VolMgr.obj
 0003:000107a0       ??_7Microsoft_Singularity_V1_Threads_ThreadHandle@@6B@ 020b27a0     VolMgr.obj
 0003:00010808       ?_type@Class_Microsoft_Singularity_V1_Threads_ThreadHandle@@2UClass_System_RuntimeType@@A 020b2808     VolMgr.obj
 0003:00010854       ??_7System_GCs_SegregatedFreeList_NullPartialFreePageVisitor@@6B@ 020b2854     VolMgr.obj
 0003:000108c4       ?_type@Class_System_GCs_SegregatedFreeList_NullPartialFreePageVisitor@@2UClass_System_RuntimeType@@A 020b28c4     VolMgr.obj
 0003:00010910       ??_7System_TypeInitializationException@@6B@ 020b2910     VolMgr.obj
 0003:0001097c       ?_type@Class_System_TypeInitializationException@@2UClass_System_RuntimeType@@A 020b297c     VolMgr.obj
 0003:000109c8       ??_7Microsoft_Singularity_Channels_EMap$_3$LMicrosoft_Singularity_Directory_ServiceProviderContract_Exp_Microsoft_Singularity_Directory_ServiceProviderContract_Start_optional_Microsoft_Contracts_NonNullType__Microsoft_Singularity_Services_VolumeManager_Volume$G_Node@@6B@ 020b29c8     VolMgr.obj
 0003:00010a30       ?_type@Class_Microsoft_Singularity_Channels_EMap$_3$LMicrosoft_Singularity_Directory_ServiceProviderContract_Exp_Microsoft_Singularity_Directory_ServiceProviderContract_Start_optional_Microsoft_Contracts_NonNullType__Microsoft_Singularity_Services_VolumeManager_Volume$G_Node@@2UClass_System_RuntimeType@@A 020b2a30     VolMgr.obj
 0003:00010a7c       ??_7System_Collections_Hashtable_HashtableEnumerator@@6B@ 020b2a7c     VolMgr.obj
 0003:00010af4       ?_type@Class_System_Collections_Hashtable_HashtableEnumerator@@2UClass_System_RuntimeType@@A 020b2af4     VolMgr.obj
 0003:00010b40       ??_7Microsoft_Singularity_GCProfilerLogger_GCTypeSource@@6B@ 020b2b40     VolMgr.obj
 0003:00010bac       ?_type@Class_Microsoft_Singularity_GCProfilerLogger_GCTypeSource@@2UClass_System_RuntimeType@@A 020b2bac     VolMgr.obj
 0003:00010bf8       ??_7Microsoft_Singularity_Io_DiskDeviceContract_Exp@@6B@ 020b2bf8     VolMgr.obj
 0003:00010c70       ?_type@Class_Microsoft_Singularity_Io_DiskDeviceContract_Exp@@2UClass_System_RuntimeType@@A 020b2c70     VolMgr.obj
 0003:00010cbc       ??_7Microsoft_Singularity_Eventing_UnmanagedMemoryBuffer@@6B@ 020b2cbc     VolMgr.obj
 0003:00010d24       ?_type@Class_Microsoft_Singularity_Eventing_UnmanagedMemoryBuffer@@2UClass_System_RuntimeType@@A 020b2d24     VolMgr.obj
 0003:00010d70       ??_7Microsoft_Singularity_Io_DiskDeviceContract_AckGetStartSector@@6B@ 020b2d70     VolMgr.obj
 0003:00010dd8       ?_type@Class_Microsoft_Singularity_Io_DiskDeviceContract_AckGetStartSector@@2UClass_System_RuntimeType@@A 020b2dd8     VolMgr.obj
 0003:00010e24       ??_7Microsoft_Singularity_Directory_DirectoryServiceContract_Register@@6B@ 020b2e24     VolMgr.obj
 0003:00010e8c       ?_type@Class_Microsoft_Singularity_Directory_DirectoryServiceContract_Register@@2UClass_System_RuntimeType@@A 020b2e8c     VolMgr.obj
 0003:00010ed8       ??_7System_Int16@@6B@      020b2ed8     VolMgr.obj
 0003:00010f50       ?_type@Class_System_Int16@@2UClass_System_RuntimeType@@A 020b2f50     VolMgr.obj
 0003:00010f9c       ??_7System_GCs_Verifier_GenericThreadReferenceVisitor@@6B@ 020b2f9c     VolMgr.obj
 0003:00011014       ?_type@Class_System_GCs_Verifier_GenericThreadReferenceVisitor@@2UClass_System_RuntimeType@@A 020b3014     VolMgr.obj
 0003:00011060       ??_7Microsoft_Singularity_Directory_FileAttributesRecord@@6B@ 020b3060     VolMgr.obj
 0003:000110c8       ?_type@Class_Microsoft_Singularity_Directory_FileAttributesRecord@@2UClass_System_RuntimeType@@A 020b30c8     VolMgr.obj
 0003:00011114       ??_7System_GCs_CalleeSaveLocations@@6B@ 020b3114     VolMgr.obj
 0003:0001117c       ?_type@Class_System_GCs_CalleeSaveLocations@@2UClass_System_RuntimeType@@A 020b317c     VolMgr.obj
 0003:000111c8       ??_7Microsoft_Singularity_Io_VolumeManagerContract_Connect@@6B@ 020b31c8     VolMgr.obj
 0003:00011230       ?_type@Class_Microsoft_Singularity_Io_VolumeManagerContract_Connect@@2UClass_System_RuntimeType@@A 020b3230     VolMgr.obj
 0003:0001127c       ??_7System_ReadEnlistmentLog@@6B@ 020b327c     VolMgr.obj
 0003:000112e4       ?_type@Class_System_ReadEnlistmentLog@@2UClass_System_RuntimeType@@A 020b32e4     VolMgr.obj
 0003:00011330       ??_7Microsoft_Singularity_Directory_DirectoryServiceContract_AckBind@@6B@ 020b3330     VolMgr.obj
 0003:00011398       ?_type@Class_Microsoft_Singularity_Directory_DirectoryServiceContract_AckBind@@2UClass_System_RuntimeType@@A 020b3398     VolMgr.obj
 0003:000113e4       ??_7Microsoft_Singularity_Directory_EnumerationRecords@@6B@ 020b33e4     VolMgr.obj
 0003:0001144c       ?_type@Class_Microsoft_Singularity_Directory_EnumerationRecords@@2UClass_System_RuntimeType@@A 020b344c     VolMgr.obj
 0003:00011498       ??_7Microsoft_Singularity_Channels_EMap$_3$LMicrosoft_Singularity_Io_VolumeManagerContract_Exp_Microsoft_Singularity_Io_VolumeManagerContract_Accept_optional_Microsoft_Contracts_NonNullType__Microsoft_Singularity_Services_VolumeManager_Volume$G_Node@@6B@ 020b3498     VolMgr.obj
 0003:00011500       ?_type@Class_Microsoft_Singularity_Channels_EMap$_3$LMicrosoft_Singularity_Io_VolumeManagerContract_Exp_Microsoft_Singularity_Io_VolumeManagerContract_Accept_optional_Microsoft_Contracts_NonNullType__Microsoft_Singularity_Services_VolumeManager_Volume$G_Node@@2UClass_System_RuntimeType@@A 020b3500     VolMgr.obj
 0003:0001154c       ??_7System_UInt32@@6B@     020b354c     VolMgr.obj
 0003:000115c4       ?_type@Class_System_UInt32@@2UClass_System_RuntimeType@@A 020b35c4     VolMgr.obj
 0003:00011610       ??_7Microsoft_Singularity_Directory_DirectoryServiceContract_NakRegister@@6B@ 020b3610     VolMgr.obj
 0003:00011678       ?_type@Class_Microsoft_Singularity_Directory_DirectoryServiceContract_NakRegister@@2UClass_System_RuntimeType@@A 020b3678     VolMgr.obj
 0003:000116c4       ??_7Microsoft_Singularity_Directory_ServiceContract_ContractNotSupported@@6B@ 020b36c4     VolMgr.obj
 0003:0001172c       ?_type@Class_Microsoft_Singularity_Directory_ServiceContract_ContractNotSupported@@2UClass_System_RuntimeType@@A 020b372c     VolMgr.obj
 0003:00011778       ??_7Microsoft_Singularity_Processor@@6B@ 020b3778     VolMgr.obj
 0003:000117e0       ?_type@Class_Microsoft_Singularity_Processor@@2UClass_System_RuntimeType@@A 020b37e0     VolMgr.obj
 0003:0001182c       ??_7System_GCs_UIntPtrStack@@6B@ 020b382c     VolMgr.obj
 0003:00011894       ?_type@Class_System_GCs_UIntPtrStack@@2UClass_System_RuntimeType@@A 020b3894     VolMgr.obj
 0003:000118e0       ??_7System_GCs_CompressedFrameDescriptor@@6B@ 020b38e0     VolMgr.obj
 0003:00011948       ?_type@Class_System_GCs_CompressedFrameDescriptor@@2UClass_System_RuntimeType@@A 020b3948     VolMgr.obj
 0003:00011994       ??_7System_GCs_SegregatedFreeList_ObjectVisitorWrapper@@6B@ 020b3994     VolMgr.obj
 0003:00011a10       ?_type@Class_System_GCs_SegregatedFreeList_ObjectVisitorWrapper@@2UClass_System_RuntimeType@@A 020b3a10     VolMgr.obj
 0003:00011a5c       ??_7Microsoft_Singularity_Directory_DirectoryServiceContract_Exp@@6B@ 020b3a5c     VolMgr.obj
 0003:00011ad4       ?_type@Class_Microsoft_Singularity_Directory_DirectoryServiceContract_Exp@@2UClass_System_RuntimeType@@A 020b3ad4     VolMgr.obj
 0003:00011b20       ??_7System_AsyncCallback@@6B@ 020b3b20     VolMgr.obj
 0003:00011b94       ?_type@Class_System_AsyncCallback@@2UClass_System_RuntimeType@@A 020b3b94     VolMgr.obj
 0003:00011be0       ??_7System_TryAllManager_VisitMethod@@6B@ 020b3be0     VolMgr.obj
 0003:00011c54       ?_type@Class_System_TryAllManager_VisitMethod@@2UClass_System_RuntimeType@@A 020b3c54     VolMgr.obj
 0003:00011ca0       ??_7System_Threading_SpinLock@@6B@ 020b3ca0     VolMgr.obj
 0003:00011d08       ?_type@Class_System_Threading_SpinLock@@2UClass_System_RuntimeType@@A 020b3d08     VolMgr.obj
 0003:00011d54       ??_7Microsoft_Singularity_Memory_Stacks@@6B@ 020b3d54     VolMgr.obj
 0003:00011dbc       ?_type@Class_Microsoft_Singularity_Memory_Stacks@@2UClass_System_RuntimeType@@A 020b3dbc     VolMgr.obj
 0003:00011e08       ??_7Microsoft_Singularity_Directory_DirectoryServiceContract_StoreACL@@6B@ 020b3e08     VolMgr.obj
 0003:00011e70       ?_type@Class_Microsoft_Singularity_Directory_DirectoryServiceContract_StoreACL@@2UClass_System_RuntimeType@@A 020b3e70     VolMgr.obj
 0003:00011ebc       ??_7System_ReadEnlistmentLog_Entry@@6B@ 020b3ebc     VolMgr.obj
 0003:00011f24       ?_type@Class_System_ReadEnlistmentLog_Entry@@2UClass_System_RuntimeType@@A 020b3f24     VolMgr.obj
 0003:00011f70       ??_7System_GC@@6B@         020b3f70     VolMgr.obj
 0003:00011fd8       ?_type@Class_System_GC@@2UClass_System_RuntimeType@@A 020b3fd8     VolMgr.obj
 0003:00012024       ??_7System_Threading_ThreadStateException@@6B@ 020b4024     VolMgr.obj
 0003:00012090       ?_type@Class_System_Threading_ThreadStateException@@2UClass_System_RuntimeType@@A 020b4090     VolMgr.obj
 0003:000120dc       ??_7Microsoft_Singularity_Isal_IX_Gdtp@@6B@ 020b40dc     VolMgr.obj
 0003:00012144       ?_type@Class_Microsoft_Singularity_Isal_IX_Gdtp@@2UClass_System_RuntimeType@@A 020b4144     VolMgr.obj
 0003:00012190       ??_7System_MutableInt32@@6B@ 020b4190     VolMgr.obj
 0003:000121f8       ?_type@Class_System_MutableInt32@@2UClass_System_RuntimeType@@A 020b41f8     VolMgr.obj
 0003:00012244       ???_7vtable@ClassVector_uint16@@2PAUClass_System_VTable@@A 020b4244     VolMgr.obj
 0003:000122b4       ?_type@ClassVector_uint16@@2UClass_System_RuntimeType@@A 020b42b4     VolMgr.obj
 0003:00012300       ??_7Microsoft_Singularity_Directory_DirectoryServiceContract_EnumerationTerminated@@6B@ 020b4300     VolMgr.obj
 0003:00012368       ?_type@Class_Microsoft_Singularity_Directory_DirectoryServiceContract_EnumerationTerminated@@2UClass_System_RuntimeType@@A 020b4368     VolMgr.obj
 0003:000123b4       ??_7System_GCs_MarkSweepCollector_UpdateReferenceVisitor@@6B@ 020b43b4     VolMgr.obj
 0003:0001242c       ?_type@Class_System_GCs_MarkSweepCollector_UpdateReferenceVisitor@@2UClass_System_RuntimeType@@A 020b442c     VolMgr.obj
 0003:00012478       ??_7Microsoft_Singularity_Isal_IX_DescriptorTable_Gdt@@6B@ 020b4478     VolMgr.obj
 0003:000124e0       ?_type@Class_Microsoft_Singularity_Isal_IX_DescriptorTable_Gdt@@2UClass_System_RuntimeType@@A 020b44e0     VolMgr.obj
 0003:0001252c       ??_7Microsoft_Singularity_Io_DiskDeviceContract@@6B@ 020b452c     VolMgr.obj
 0003:00012594       ?_type@Class_Microsoft_Singularity_Io_DiskDeviceContract@@2UClass_System_RuntimeType@@A 020b4594     VolMgr.obj
 0003:000125e0       ??_7Microsoft_Singularity_ThreadContext@@6B@ 020b45e0     VolMgr.obj
 0003:00012648       ?_type@Class_Microsoft_Singularity_ThreadContext@@2UClass_System_RuntimeType@@A 020b4648     VolMgr.obj
 0003:00012694       ???_7vtable@ClassVector_Class_System_Object@@2PAUClass_System_VTable@@A 020b4694     VolMgr.obj
 0003:00012704       ?_type@ClassVector_Class_System_Object@@2UClass_System_RuntimeType@@A 020b4704     VolMgr.obj
 0003:00012750       ??_7Microsoft_Singularity_V1_Services_PageTableService@@6B@ 020b4750     VolMgr.obj
 0003:000127b8       ?_type@Class_Microsoft_Singularity_V1_Services_PageTableService@@2UClass_System_RuntimeType@@A 020b47b8     VolMgr.obj
 0003:00012804       ??_7Microsoft_Singularity_Io_VolumeManagerContract_Success@@6B@ 020b4804     VolMgr.obj
 0003:0001286c       ?_type@Class_Microsoft_Singularity_Io_VolumeManagerContract_Success@@2UClass_System_RuntimeType@@A 020b486c     VolMgr.obj
 0003:000128b8       ??_7Microsoft_Singularity_Io_DiskDeviceContract_Success@@6B@ 020b48b8     VolMgr.obj
 0003:00012920       ?_type@Class_Microsoft_Singularity_Io_DiskDeviceContract_Success@@2UClass_System_RuntimeType@@A 020b4920     VolMgr.obj
 0003:0001296c       ??_7Microsoft_Singularity_Directory_DirectoryServiceContract_Success@@6B@ 020b496c     VolMgr.obj
 0003:000129d4       ?_type@Class_Microsoft_Singularity_Directory_DirectoryServiceContract_Success@@2UClass_System_RuntimeType@@A 020b49d4     VolMgr.obj
 0003:00012a20       ??_7Microsoft_Singularity_Io_DiskDeviceContract_GetSectorCount@@6B@ 020b4a20     VolMgr.obj
 0003:00012a88       ?_type@Class_Microsoft_Singularity_Io_DiskDeviceContract_GetSectorCount@@2UClass_System_RuntimeType@@A 020b4a88     VolMgr.obj
 0003:00012ad4       ??_7System_TryAllCounters@@6B@ 020b4ad4     VolMgr.obj
 0003:00012b3c       ?_type@Class_System_TryAllCounters@@2UClass_System_RuntimeType@@A 020b4b3c     VolMgr.obj
 0003:00012b88       ??_7Microsoft_Singularity_Isal_IX_PE@@6B@ 020b4b88     VolMgr.obj
 0003:00012bf0       ?_type@Class_Microsoft_Singularity_Isal_IX_PE@@2UClass_System_RuntimeType@@A 020b4bf0     VolMgr.obj
 0003:00012c3c       ??_7System_Int64@@6B@      020b4c3c     VolMgr.obj
 0003:00012cb4       ?_type@Class_System_Int64@@2UClass_System_RuntimeType@@A 020b4cb4     VolMgr.obj
 0003:00012d00       ??_7System_GCs_Verifier_GenericObjectVisitor@@6B@ 020b4d00     VolMgr.obj
 0003:00012d6c       ?_type@Class_System_GCs_Verifier_GenericObjectVisitor@@2UClass_System_RuntimeType@@A 020b4d6c     VolMgr.obj
 0003:00012db8       ??_7System_IUndo@@6B@      020b4db8     VolMgr.obj
 0003:00012e10       ?_type@Class_System_IUndo@@2UClass_System_RuntimeType@@A 020b4e10     VolMgr.obj
 0003:00012e5c       ??_7Microsoft_Singularity_Directory_DirectoryServiceContract_AckCreateDirectory@@6B@ 020b4e5c     VolMgr.obj
 0003:00012ec4       ?_type@Class_Microsoft_Singularity_Directory_DirectoryServiceContract_AckCreateDirectory@@2UClass_System_RuntimeType@@A 020b4ec4     VolMgr.obj
 0003:00012f10       ??_7System_GCs_Transitions@@6B@ 020b4f10     VolMgr.obj
 0003:00012f78       ?_type@Class_System_GCs_Transitions@@2UClass_System_RuntimeType@@A 020b4f78     VolMgr.obj
 0003:00012fc4       ??_7System_Runtime_CompilerServices_CompilerInitFieldAttribute@@6B@ 020b4fc4     VolMgr.obj
 0003:0001302c       ?_type@Class_System_Runtime_CompilerServices_CompilerInitFieldAttribute@@2UClass_System_RuntimeType@@A 020b502c     VolMgr.obj
 0003:00013078       ???_7vtable@ClassVector_ClassVector_Struct_System_Delegate_NativeDelegateRecord@@2PAUClass_System_VTable@@A 020b5078     VolMgr.obj
 0003:000130e8       ?_type@ClassVector_ClassVector_Struct_System_Delegate_NativeDelegateRecord@@2UClass_System_RuntimeType@@A 020b50e8     VolMgr.obj
 0003:00013134       ??_7System_ArgIterator@@6B@ 020b5134     VolMgr.obj
 0003:0001319c       ?_type@Class_System_ArgIterator@@2UClass_System_RuntimeType@@A 020b519c     VolMgr.obj
 0003:000131e8       ??_7Microsoft_Singularity_Directory_DirectoryServiceContract_AckDeregister@@6B@ 020b51e8     VolMgr.obj
 0003:00013250       ?_type@Class_Microsoft_Singularity_Directory_DirectoryServiceContract_AckDeregister@@2UClass_System_RuntimeType@@A 020b5250     VolMgr.obj
 0003:0001329c       ??_7Microsoft_Singularity_Directory_NotifyContract@@6B@ 020b529c     VolMgr.obj
 0003:00013304       ?_type@Class_Microsoft_Singularity_Directory_NotifyContract@@2UClass_System_RuntimeType@@A 020b5304     VolMgr.obj
 0003:00013350       ??_7System_Finalizer@@6B@  020b5350     VolMgr.obj
 0003:000133b8       ?_type@Class_System_Finalizer@@2UClass_System_RuntimeType@@A 020b53b8     VolMgr.obj
 0003:00013404       ??_7Microsoft_Singularity_Directory_DirectoryServiceContract_DeleteFile@@6B@ 020b5404     VolMgr.obj
 0003:0001346c       ?_type@Class_Microsoft_Singularity_Directory_DirectoryServiceContract_DeleteFile@@2UClass_System_RuntimeType@@A 020b546c     VolMgr.obj
 0003:000134b8       ??_7Microsoft_Singularity_Directory_DirectoryServiceContract_GetAttributes@@6B@ 020b54b8     VolMgr.obj
 0003:00013520       ?_type@Class_Microsoft_Singularity_Directory_DirectoryServiceContract_GetAttributes@@2UClass_System_RuntimeType@@A 020b5520     VolMgr.obj
 0003:0001356c       ??_7System_Byte@@6B@       020b556c     VolMgr.obj
 0003:000135e4       ?_type@Class_System_Byte@@2UClass_System_RuntimeType@@A 020b55e4     VolMgr.obj
 0003:00013630       ??_7System_UpdateLogWriter@@6B@ 020b5630     VolMgr.obj
 0003:00013698       ?_type@Class_System_UpdateLogWriter@@2UClass_System_RuntimeType@@A 020b5698     VolMgr.obj
 0003:000136e4       ??_7Microsoft_Singularity_Directory_DirectoryServiceContract_AckDeleteLink@@6B@ 020b56e4     VolMgr.obj
 0003:0001374c       ?_type@Class_Microsoft_Singularity_Directory_DirectoryServiceContract_AckDeleteLink@@2UClass_System_RuntimeType@@A 020b574c     VolMgr.obj
 0003:00013798       ??_7System_GCs_Verifier@@6B@ 020b5798     VolMgr.obj
 0003:00013800       ?_type@Class_System_GCs_Verifier@@2UClass_System_RuntimeType@@A 020b5800     VolMgr.obj
 0003:0001384c       ??_7Microsoft_Singularity_Io_DiskDeviceContract_ReadPerf@@6B@ 020b584c     VolMgr.obj
 0003:000138b4       ?_type@Class_Microsoft_Singularity_Io_DiskDeviceContract_ReadPerf@@2UClass_System_RuntimeType@@A 020b58b4     VolMgr.obj
 0003:00013900       ??_7System_Runtime_CompilerServices_CalledRarelyAttribute@@6B@ 020b5900     VolMgr.obj
 0003:00013968       ?_type@Class_System_Runtime_CompilerServices_CalledRarelyAttribute@@2UClass_System_RuntimeType@@A 020b5968     VolMgr.obj
 0003:000139b4       ??_7Microsoft_Singularity_Eventing_QuerySession@@6B@ 020b59b4     VolMgr.obj
 0003:00013a1c       ?_type@Class_Microsoft_Singularity_Eventing_QuerySession@@2UClass_System_RuntimeType@@A 020b5a1c     VolMgr.obj
 0003:00013a68       ??_7System_Runtime_CompilerServices_InlineAttribute@@6B@ 020b5a68     VolMgr.obj
 0003:00013ad0       ?_type@Class_System_Runtime_CompilerServices_InlineAttribute@@2UClass_System_RuntimeType@@A 020b5ad0     VolMgr.obj
 0003:00013b1c       ??_7Microsoft_Singularity_Directory_FileContract_Exp@@6B@ 020b5b1c     VolMgr.obj
 0003:00013b94       ?_type@Class_Microsoft_Singularity_Directory_FileContract_Exp@@2UClass_System_RuntimeType@@A 020b5b94     VolMgr.obj
 0003:00013be0       ??_7Microsoft_Singularity_Directory_DirectoryServiceContract_NakQueryACLReparse@@6B@ 020b5be0     VolMgr.obj
 0003:00013c48       ?_type@Class_Microsoft_Singularity_Directory_DirectoryServiceContract_NakQueryACLReparse@@2UClass_System_RuntimeType@@A 020b5c48     VolMgr.obj
 0003:00013cb0       ??_7System_Version@@6B@    020b5cb0     VolMgr.obj
 0003:00013d34       ?_type@Class_System_Version@@2UClass_System_RuntimeType@@A 020b5d34     VolMgr.obj
 0003:00013d80       ???_7vtable@ClassVector_uint64@@2PAUClass_System_VTable@@A 020b5d80     VolMgr.obj
 0003:00013df0       ?_type@ClassVector_uint64@@2UClass_System_RuntimeType@@A 020b5df0     VolMgr.obj
 0003:00013e3c       ???_7vtable@ClassVector_Class_System_VTable@@2PAUClass_System_VTable@@A 020b5e3c     VolMgr.obj
 0003:00013eac       ?_type@ClassVector_Class_System_VTable@@2UClass_System_RuntimeType@@A 020b5eac     VolMgr.obj
 0003:00013ef8       ??_7System_Reflection_TypeAttributes@@6B@ 020b5ef8     VolMgr.obj
 0003:00013f70       ?_type@Class_System_Reflection_TypeAttributes@@2UClass_System_RuntimeType@@A 020b5f70     VolMgr.obj
 0003:00013fbc       ??_7Microsoft_Singularity_Directory_DirectoryServiceContract_AckGetLinkValue@@6B@ 020b5fbc     VolMgr.obj
 0003:00014024       ?_type@Class_Microsoft_Singularity_Directory_DirectoryServiceContract_AckGetLinkValue@@2UClass_System_RuntimeType@@A 020b6024     VolMgr.obj
 0003:00014070       ??_7Microsoft_Singularity_Directory_DirectoryServiceContract_NakStoreACL@@6B@ 020b6070     VolMgr.obj
 0003:000140d8       ?_type@Class_Microsoft_Singularity_Directory_DirectoryServiceContract_NakStoreACL@@2UClass_System_RuntimeType@@A 020b60d8     VolMgr.obj
 0003:00014124       ??_7System_MultiUseWord_STMHandle@@6B@ 020b6124     VolMgr.obj
 0003:0001418c       ?_type@Class_System_MultiUseWord_STMHandle@@2UClass_System_RuntimeType@@A 020b618c     VolMgr.obj
 0003:000141d8       ???_7vtable@ClassVector_float64@@2PAUClass_System_VTable@@A 020b61d8     VolMgr.obj
 0003:00014248       ?_type@ClassVector_float64@@2UClass_System_RuntimeType@@A 020b6248     VolMgr.obj
 0003:00014294       ??_7Microsoft_Singularity_V1_Services_ProcessService@@6B@ 020b6294     VolMgr.obj
 0003:000142fc       ?_type@Class_Microsoft_Singularity_V1_Services_ProcessService@@2UClass_System_RuntimeType@@A 020b62fc     VolMgr.obj
 0003:00014348       ??_7System_Boolean@@6B@    020b6348     VolMgr.obj
 0003:000143b8       ?_type@Class_System_Boolean@@2UClass_System_RuntimeType@@A 020b63b8     VolMgr.obj
 0003:00014404       ??_7Microsoft_Singularity_Io_DiskDeviceContract_GetStartSector@@6B@ 020b6404     VolMgr.obj
 0003:0001446c       ?_type@Class_Microsoft_Singularity_Io_DiskDeviceContract_GetStartSector@@2UClass_System_RuntimeType@@A 020b646c     VolMgr.obj
 0003:000144b8       ??_7System_ReadEnlistmentLog_LogChunk@@6B@ 020b64b8     VolMgr.obj
 0003:00014520       ?_type@Class_System_ReadEnlistmentLog_LogChunk@@2UClass_System_RuntimeType@@A 020b6520     VolMgr.obj
 0003:0001456c       ??_7System_Threading_Monitor@@6B@ 020b656c     VolMgr.obj
 0003:000145d4       ?_type@Class_System_Threading_Monitor@@2UClass_System_RuntimeType@@A 020b65d4     VolMgr.obj
 0003:00014620       ??_7Microsoft_Singularity_Io_IoPort@@6B@ 020b6620     VolMgr.obj
 0003:00014688       ?_type@Class_Microsoft_Singularity_Io_IoPort@@2UClass_System_RuntimeType@@A 020b6688     VolMgr.obj
 0003:000146d4       ??_7Microsoft_Singularity_Directory_ServiceProviderContract_Connect@@6B@ 020b66d4     VolMgr.obj
 0003:0001473c       ?_type@Class_Microsoft_Singularity_Directory_ServiceProviderContract_Connect@@2UClass_System_RuntimeType@@A 020b673c     VolMgr.obj
 0003:00014788       ??_7Microsoft_Singularity_Io_DiskDeviceContract_NoOp@@6B@ 020b6788     VolMgr.obj
 0003:000147f0       ?_type@Class_Microsoft_Singularity_Io_DiskDeviceContract_NoOp@@2UClass_System_RuntimeType@@A 020b67f0     VolMgr.obj
 0003:0001483c       ??_7Microsoft_Singularity_Directory_DirectoryServiceContract_Notify@@6B@ 020b683c     VolMgr.obj
 0003:000148a4       ?_type@Class_Microsoft_Singularity_Directory_DirectoryServiceContract_Notify@@2UClass_System_RuntimeType@@A 020b68a4     VolMgr.obj
 0003:000148f0       ??_7System_Number@@6B@     020b68f0     VolMgr.obj
 0003:00014958       ?_type@Class_System_Number@@2UClass_System_RuntimeType@@A 020b6958     VolMgr.obj
 0003:000149a4       ??_7Microsoft_Bartok_Runtime_PreHeader@@6B@ 020b69a4     VolMgr.obj
 0003:00014a0c       ?_type@Class_Microsoft_Bartok_Runtime_PreHeader@@2UClass_System_RuntimeType@@A 020b6a0c     VolMgr.obj
 0003:00014a58       ??_7Microsoft_Singularity_Io_VolumeManagerContract_NakRegisterDisk@@6B@ 020b6a58     VolMgr.obj
 0003:00014ac0       ?_type@Class_Microsoft_Singularity_Io_VolumeManagerContract_NakRegisterDisk@@2UClass_System_RuntimeType@@A 020b6ac0     VolMgr.obj
 0003:00014b0c       ??_7Microsoft_Singularity_Isal_IX_EVectors@@6B@ 020b6b0c     VolMgr.obj
 0003:00014b74       ?_type@Class_Microsoft_Singularity_Isal_IX_EVectors@@2UClass_System_RuntimeType@@A 020b6b74     VolMgr.obj
 0003:00014bc0       ??_7Microsoft_Singularity_Io_DiskDeviceContract_NakRead@@6B@ 020b6bc0     VolMgr.obj
 0003:00014c28       ?_type@Class_Microsoft_Singularity_Io_DiskDeviceContract_NakRead@@2UClass_System_RuntimeType@@A 020b6c28     VolMgr.obj
 0003:00014c74       ??_7Microsoft_Singularity_Directory_DirectoryServiceContract_NakCreateLink@@6B@ 020b6c74     VolMgr.obj
 0003:00014cdc       ?_type@Class_Microsoft_Singularity_Directory_DirectoryServiceContract_NakCreateLink@@2UClass_System_RuntimeType@@A 020b6cdc     VolMgr.obj
 0003:00014d28       ??_7SurrogateMicrosoft_Singularity_Directory_DirectoryServiceContract_Imp@@6B@ 020b6d28     VolMgr.obj
 0003:00014da0       ?_type@Class_SurrogateMicrosoft_Singularity_Directory_DirectoryServiceContract_Imp@@2UClass_System_RuntimeType@@A 020b6da0     VolMgr.obj
 0003:00014dec       ??_7System_MultiUseWord_STMSnapshot@@6B@ 020b6dec     VolMgr.obj
 0003:00014e54       ?_type@Class_System_MultiUseWord_STMSnapshot@@2UClass_System_RuntimeType@@A 020b6e54     VolMgr.obj
 0003:00014ea0       ??_7System_OutOfMemoryException@@6B@ 020b6ea0     VolMgr.obj
 0003:00014f0c       ?_type@Class_System_OutOfMemoryException@@2UClass_System_RuntimeType@@A 020b6f0c     VolMgr.obj
 0003:00014f58       ??_7Microsoft_Singularity_Tracing@@6B@ 020b6f58     VolMgr.obj
 0003:00014fc0       ?_type@Class_Microsoft_Singularity_Tracing@@2UClass_System_RuntimeType@@A 020b6fc0     VolMgr.obj
 0003:0001500c       ??_7Microsoft_Singularity_V1_Threads_ManualResetEventHandle@@6B@ 020b700c     VolMgr.obj
 0003:00015074       ?_type@Class_Microsoft_Singularity_V1_Threads_ManualResetEventHandle@@2UClass_System_RuntimeType@@A 020b7074     VolMgr.obj
 0003:000150c0       ??_7System_NullReferenceException@@6B@ 020b70c0     VolMgr.obj
 0003:0001512c       ?_type@Class_System_NullReferenceException@@2UClass_System_RuntimeType@@A 020b712c     VolMgr.obj
 0003:00015178       ??_7Microsoft_Singularity_Directory_DirectoryServiceContract_AckNotify@@6B@ 020b7178     VolMgr.obj
 0003:000151e0       ?_type@Class_Microsoft_Singularity_Directory_DirectoryServiceContract_AckNotify@@2UClass_System_RuntimeType@@A 020b71e0     VolMgr.obj
 0003:0001522c       ??_7System_Threading_ManualResetEvent@@6B@ 020b722c     VolMgr.obj
 0003:000152a8       ?_type@Class_System_Threading_ManualResetEvent@@2UClass_System_RuntimeType@@A 020b72a8     VolMgr.obj
 0003:000152f4       ??_7System_UpdateEnlistmentLog_Entry@@6B@ 020b72f4     VolMgr.obj
 0003:0001535c       ?_type@Class_System_UpdateEnlistmentLog_Entry@@2UClass_System_RuntimeType@@A 020b735c     VolMgr.obj
 0003:000153a8       ??_7Microsoft_Singularity_Directory_ServiceProviderContract_AckConnect@@6B@ 020b73a8     VolMgr.obj
 0003:00015410       ?_type@Class_Microsoft_Singularity_Directory_ServiceProviderContract_AckConnect@@2UClass_System_RuntimeType@@A 020b7410     VolMgr.obj
 0003:0001545c       ??_7Microsoft_Singularity_GCProfilerLogger_GCEventSource@@6B@ 020b745c     VolMgr.obj
 0003:000154c8       ?_type@Class_Microsoft_Singularity_GCProfilerLogger_GCEventSource@@2UClass_System_RuntimeType@@A 020b74c8     VolMgr.obj
 0003:00015514       ??_7Microsoft_Singularity_Directory_DirectoryServiceContract_NakDeregister@@6B@ 020b7514     VolMgr.obj
 0003:0001557c       ?_type@Class_Microsoft_Singularity_Directory_DirectoryServiceContract_NakDeregister@@2UClass_System_RuntimeType@@A 020b757c     VolMgr.obj
 0003:000155c8       ??_7Microsoft_Singularity_Directory_DirectoryServiceContract_NakDeleteFileReparse@@6B@ 020b75c8     VolMgr.obj
 0003:00015630       ?_type@Class_Microsoft_Singularity_Directory_DirectoryServiceContract_NakDeleteFileReparse@@2UClass_System_RuntimeType@@A 020b7630     VolMgr.obj
 0003:0001567c       ??_7System_RuntimeTypeHandle@@6B@ 020b767c     VolMgr.obj
 0003:000156e4       ?_type@Class_System_RuntimeTypeHandle@@2UClass_System_RuntimeType@@A 020b76e4     VolMgr.obj
 0003:00015730       ??_7SurrogateMicrosoft_Singularity_Io_DiskDeviceContract_Imp@@6B@ 020b7730     VolMgr.obj
 0003:000157a8       ?_type@Class_SurrogateMicrosoft_Singularity_Io_DiskDeviceContract_Imp@@2UClass_System_RuntimeType@@A 020b77a8     VolMgr.obj
 0003:000157f4       ??_7System_Collections_Hashtable_bucket@@6B@ 020b77f4     VolMgr.obj
 0003:0001585c       ?_type@Class_System_Collections_Hashtable_bucket@@2UClass_System_RuntimeType@@A 020b785c     VolMgr.obj
 0003:000158a8       ??_7Microsoft_Singularity_Io_DiskDeviceContract_GetSystemId@@6B@ 020b78a8     VolMgr.obj
 0003:00015910       ?_type@Class_Microsoft_Singularity_Io_DiskDeviceContract_GetSystemId@@2UClass_System_RuntimeType@@A 020b7910     VolMgr.obj
 0003:0001595c       ??_7System_ReadEnlistmentLogWriter@@6B@ 020b795c     VolMgr.obj
 0003:000159c4       ?_type@Class_System_ReadEnlistmentLogWriter@@2UClass_System_RuntimeType@@A 020b79c4     VolMgr.obj
 0003:00015a10       ??_7Microsoft_Singularity_Directory_NotifyContract_ChangeNotification@@6B@ 020b7a10     VolMgr.obj
 0003:00015a78       ?_type@Class_Microsoft_Singularity_Directory_NotifyContract_ChangeNotification@@2UClass_System_RuntimeType@@A 020b7a78     VolMgr.obj
 0003:00015ac4       ??_7System_SByte@@6B@      020b7ac4     VolMgr.obj
 0003:00015b3c       ?_type@Class_System_SByte@@2UClass_System_RuntimeType@@A 020b7b3c     VolMgr.obj
 0003:00015b88       ??_7Microsoft_Singularity_Io_DiskDeviceContract_AckGetDeviceName@@6B@ 020b7b88     VolMgr.obj
 0003:00015bf0       ?_type@Class_Microsoft_Singularity_Io_DiskDeviceContract_AckGetDeviceName@@2UClass_System_RuntimeType@@A 020b7bf0     VolMgr.obj
 0003:00015c3c       ??_7System_Runtime_CompilerServices_AssertDevirtualizeAttribute@@6B@ 020b7c3c     VolMgr.obj
 0003:00015ca4       ?_type@Class_System_Runtime_CompilerServices_AssertDevirtualizeAttribute@@2UClass_System_RuntimeType@@A 020b7ca4     VolMgr.obj
 0003:00015cf0       ??_7Microsoft_Contracts_AssertException@@6B@ 020b7cf0     VolMgr.obj
 0003:00015d5c       ?_type@Class_Microsoft_Contracts_AssertException@@2UClass_System_RuntimeType@@A 020b7d5c     VolMgr.obj
 0003:00015da8       ??_7System_DateTime@@6B@   020b7da8     VolMgr.obj
 0003:00015e20       ?_type@Class_System_DateTime@@2UClass_System_RuntimeType@@A 020b7e20     VolMgr.obj
 0003:00015e6c       ???_7vtable@ClassVector_Struct_System_UpdateEnlistmentLog_Entry@@2PAUClass_System_VTable@@A 020b7e6c     VolMgr.obj
 0003:00015edc       ?_type@ClassVector_Struct_System_UpdateEnlistmentLog_Entry@@2UClass_System_RuntimeType@@A 020b7edc     VolMgr.obj
 0003:00015f28       ??_7Microsoft_Singularity_Io_DiskDeviceContract_NakWrite@@6B@ 020b7f28     VolMgr.obj
 0003:00015f90       ?_type@Class_Microsoft_Singularity_Io_DiskDeviceContract_NakWrite@@2UClass_System_RuntimeType@@A 020b7f90     VolMgr.obj
 0003:00015fdc       ??_7Microsoft_Singularity_Directory_NotifyContract_AckChangeNotification@@6B@ 020b7fdc     VolMgr.obj
 0003:00016044       ?_type@Class_Microsoft_Singularity_Directory_NotifyContract_AckChangeNotification@@2UClass_System_RuntimeType@@A 020b8044     VolMgr.obj
 0003:00016090       ??_7Microsoft_Singularity_Eventing_DataType@@6B@ 020b8090     VolMgr.obj
 0003:000160f8       ?_type@Class_Microsoft_Singularity_Eventing_DataType@@2UClass_System_RuntimeType@@A 020b80f8     VolMgr.obj
 0003:00016144       ??_7Microsoft_Singularity_Io_VolumeManagerContract_AckConnect@@6B@ 020b8144     VolMgr.obj
 0003:000161ac       ?_type@Class_Microsoft_Singularity_Io_VolumeManagerContract_AckConnect@@2UClass_System_RuntimeType@@A 020b81ac     VolMgr.obj
 0003:000161f8       ??_7System_TryAllManager_GCHookMethod@@6B@ 020b81f8     VolMgr.obj
 0003:0001626c       ?_type@Class_System_TryAllManager_GCHookMethod@@2UClass_System_RuntimeType@@A 020b826c     VolMgr.obj
 0003:000162b8       ??_7Microsoft_Singularity_Crypto_MD5@@6B@ 020b82b8     VolMgr.obj
 0003:00016320       ?_type@Class_Microsoft_Singularity_Crypto_MD5@@2UClass_System_RuntimeType@@A 020b8320     VolMgr.obj
 0003:0001636c       ??_7System_RankException@@6B@ 020b836c     VolMgr.obj
 0003:000163d8       ?_type@Class_System_RankException@@2UClass_System_RuntimeType@@A 020b83d8     VolMgr.obj
 0003:00016424       ??_7Microsoft_Singularity_Directory_NotifyType@@6B@ 020b8424     VolMgr.obj
 0003:0001649c       ?_type@Class_Microsoft_Singularity_Directory_NotifyType@@2UClass_System_RuntimeType@@A 020b849c     VolMgr.obj
 0003:000164e8       ??_7System_Collections_Stack_StackEnumerator@@6B@ 020b84e8     VolMgr.obj
 0003:00016560       ?_type@Class_System_Collections_Stack_StackEnumerator@@2UClass_System_RuntimeType@@A 020b8560     VolMgr.obj
 0003:000165ac       ??_7System_IndexOutOfRangeException@@6B@ 020b85ac     VolMgr.obj
 0003:00016618       ?_type@Class_System_IndexOutOfRangeException@@2UClass_System_RuntimeType@@A 020b8618     VolMgr.obj
 0003:00016664       ??_7Microsoft_Singularity_V1_Services_SharedHeapService_Allocation@@6B@ 020b8664     VolMgr.obj
 0003:000166cc       ?_type@Class_Microsoft_Singularity_V1_Services_SharedHeapService_Allocation@@2UClass_System_RuntimeType@@A 020b86cc     VolMgr.obj
 0003:00016718       ??_7Microsoft_Singularity_Eventing_LocalController@@6B@ 020b8718     VolMgr.obj
 0003:00016790       ?_type@Class_Microsoft_Singularity_Eventing_LocalController@@2UClass_System_RuntimeType@@A 020b8790     VolMgr.obj
 0003:000167dc       ??_7System_GCs_GCProfiler_ObjectVisitor@@6B@ 020b87dc     VolMgr.obj
 0003:00016858       ?_type@Class_System_GCs_GCProfiler_ObjectVisitor@@2UClass_System_RuntimeType@@A 020b8858     VolMgr.obj
 0003:000168a4       ??_7System_Collections_ArrayList@@6B@ 020b88a4     VolMgr.obj
 0003:00016924       ?_type@Class_System_Collections_ArrayList@@2UClass_System_RuntimeType@@A 020b8924     VolMgr.obj
 0003:00016970       ??_7Microsoft_Singularity_Directory_DirectoryServiceContract_DeleteDirectory@@6B@ 020b8970     VolMgr.obj
 0003:000169d8       ?_type@Class_Microsoft_Singularity_Directory_DirectoryServiceContract_DeleteDirectory@@2UClass_System_RuntimeType@@A 020b89d8     VolMgr.obj
 0003:00016a24       ??_7Microsoft_Singularity_Directory_DirectoryServiceContract_NakBindReparse@@6B@ 020b8a24     VolMgr.obj
 0003:00016a8c       ?_type@Class_Microsoft_Singularity_Directory_DirectoryServiceContract_NakBindReparse@@2UClass_System_RuntimeType@@A 020b8a8c     VolMgr.obj
 0003:00016ad8       ???_7vtable@ClassVector_Struct_System_InterfaceInfo@@2PAUClass_System_VTable@@A 020b8ad8     VolMgr.obj
 0003:00016b48       ?_type@ClassVector_Struct_System_InterfaceInfo@@2UClass_System_RuntimeType@@A 020b8b48     VolMgr.obj
 0003:00016b94       ??_7System_TryAll@@6B@     020b8b94     VolMgr.obj
 0003:00016bfc       ?_type@Class_System_TryAll@@2UClass_System_RuntimeType@@A 020b8bfc     VolMgr.obj
 0003:00016c48       ??_7Microsoft_Singularity_Directory_DirectoryServiceContract_Bind@@6B@ 020b8c48     VolMgr.obj
 0003:00016cb0       ?_type@Class_Microsoft_Singularity_Directory_DirectoryServiceContract_Bind@@2UClass_System_RuntimeType@@A 020b8cb0     VolMgr.obj
 0003:00016cfc       ??_7System_Reflection_Module@@6B@ 020b8cfc     VolMgr.obj
 0003:00016d64       ?_type@Class_System_Reflection_Module@@2UClass_System_RuntimeType@@A 020b8d64     VolMgr.obj
 0003:00016db0       ??_7System_GCs_OverflowFrameDescriptor@@6B@ 020b8db0     VolMgr.obj
 0003:00016e18       ?_type@Class_System_GCs_OverflowFrameDescriptor@@2UClass_System_RuntimeType@@A 020b8e18     VolMgr.obj
 0003:00016e64       ??_7Microsoft_Singularity_V1_Threads_MutexHandle@@6B@ 020b8e64     VolMgr.obj
 0003:00016ecc       ?_type@Class_Microsoft_Singularity_V1_Threads_MutexHandle@@2UClass_System_RuntimeType@@A 020b8ecc     VolMgr.obj
 0003:00016f18       ??_7Microsoft_Singularity_Isal_SpillContext@@6B@ 020b8f18     VolMgr.obj
 0003:00016f80       ?_type@Class_Microsoft_Singularity_Isal_SpillContext@@2UClass_System_RuntimeType@@A 020b8f80     VolMgr.obj
 0003:00016fcc       ???_7vtable@ClassVector_Struct_System_UpdateLog_Entry@@2PAUClass_System_VTable@@A 020b8fcc     VolMgr.obj
 0003:0001703c       ?_type@ClassVector_Struct_System_UpdateLog_Entry@@2UClass_System_RuntimeType@@A 020b903c     VolMgr.obj
 0003:00017088       ???_7vtable@Struct_Microsoft_Singularity_Io_DiskDeviceContract_Exp@@2PAUClass_System_VTable@@A 020b9088     VolMgr.obj
 0003:000170e0       ?_type@Struct_Microsoft_Singularity_Io_DiskDeviceContract_Exp@@2UClass_System_RuntimeType@@A 020b90e0     VolMgr.obj
 0003:0001712c       ???_7vtable@Struct_System_GCs_SegregatedFreeList_PageHeader@@2PAUClass_System_VTable@@A 020b912c     VolMgr.obj
 0003:00017184       ?_type@Struct_System_GCs_SegregatedFreeList_PageHeader@@2UClass_System_RuntimeType@@A 020b9184     VolMgr.obj
 0003:000171d0       ???_7vtable@Struct_Microsoft_Singularity_Directory_ServiceProviderContract_Imp@@2PAUClass_System_VTable@@A 020b91d0     VolMgr.obj
 0003:00017228       ?_type@Struct_Microsoft_Singularity_Directory_ServiceProviderContract_Imp@@2UClass_System_RuntimeType@@A 020b9228     VolMgr.obj
 0003:00017274       ???_7vtable@Struct_Microsoft_Singularity_Directory_NotifyContract_Imp@@2PAUClass_System_VTable@@A 020b9274     VolMgr.obj
 0003:000172cc       ?_type@Struct_Microsoft_Singularity_Directory_NotifyContract_Imp@@2UClass_System_RuntimeType@@A 020b92cc     VolMgr.obj
 0003:00017318       ???_7vtable@Struct_Microsoft_Singularity_Directory_ServiceContract_Exp@@2PAUClass_System_VTable@@A 020b9318     VolMgr.obj
 0003:00017370       ?_type@Struct_Microsoft_Singularity_Directory_ServiceContract_Exp@@2UClass_System_RuntimeType@@A 020b9370     VolMgr.obj
 0003:000173b8       ?c_MonitorEMUAllocCount@Struct_System_MultiUseWord@@2HA 020b93b8     VolMgr.obj
 0003:000173bc       ?c_InflationToCount@Struct_System_MultiUseWord@@2PAUClassVector_int32@@A 020b93bc     VolMgr.obj
 0003:000173c0       ?c_FullEMUAllocCount@Struct_System_MultiUseWord@@2HA 020b93c0     VolMgr.obj
 0003:000173c4       ?c_emuGCListAllTail@Struct_System_MultiUseWord@@2IA 020b93c4     VolMgr.obj
 0003:000173c8       ?c_InflationFromCount@Struct_System_MultiUseWord@@2PAUClassVector_int32@@A 020b93c8     VolMgr.obj
 0003:000173cc       ?c_emuGCList@Struct_System_MultiUseWord@@2IA 020b93cc     VolMgr.obj
 0003:000173d0       ?c_ReInflationCount@Struct_System_MultiUseWord@@2HA 020b93d0     VolMgr.obj
 0003:000173d4       ?c_DeadEMUsCount@Struct_System_MultiUseWord@@2HA 020b93d4     VolMgr.obj
 0003:000173d8       ?c_AbandonedEMUsCount@Struct_System_MultiUseWord@@2HA 020b93d8     VolMgr.obj
 0003:000173dc       ?c_emuGCListShadow@Struct_System_MultiUseWord@@2IA 020b93dc     VolMgr.obj
 0003:000173e0       ?c_emuGCListAll@Struct_System_MultiUseWord@@2IA 020b93e0     VolMgr.obj
 0003:000173e4       ?c_perMilleSymbol@Class_System_Globalization_NumberFormatInfo@@2PAUClass_System_String@@A 020b93e4     VolMgr.obj
 0003:000173e8       ?c_CriticalSection@Class_System_Delegate@@2PAUClass_System_Threading_Mutex@@A 020b93e8     VolMgr.obj
 0003:000173ec       ?c_FreeListStartIdx@Class_System_Delegate@@2HA 020b93ec     VolMgr.obj
 0003:000173f0       ?c_NativeDelegateTable@Class_System_Delegate@@2PAUClassVector_ClassVector_Struct_System_Delegate_NativeDelegateRecord@@A 020b93f0     VolMgr.obj
 0003:000173f4       ?c_FreeExtentStartIdx@Class_System_Delegate@@2HA 020b93f4     VolMgr.obj
 0003:000173f8       ?c_allocationGranularity@Class_System_GCs_MemoryManager@@2IA 020b93f8     VolMgr.obj
 0003:000173fc       ?c_operatingSystemSize@Class_System_GCs_MemoryManager@@2IA 020b93fc     VolMgr.obj
 0003:00017400       ?c_totalMemorySize@Class_System_GCs_MemoryManager@@2IA 020b9400     VolMgr.obj
 0003:00017404       ?c_appName@Class_Microsoft_Singularity_AppRuntime@@2PAUClass_System_String@@A 020b9404     VolMgr.obj
 0003:00017408       ?c_CF@Struct_Microsoft_Singularity_Isal_IX_EFlags@@2IA 020b9408     VolMgr.obj
 0003:00017408       ?c_VM@Struct_Microsoft_Singularity_Isal_IX_EFlags@@2IA 020b9408     VolMgr.obj
 0003:00017408       ?c_ZF@Struct_Microsoft_Singularity_Isal_IX_EFlags@@2IA 020b9408     VolMgr.obj
 0003:00017408       ?c_AC@Struct_Microsoft_Singularity_Isal_IX_EFlags@@2IA 020b9408     VolMgr.obj
 0003:00017408       ?c_IF@Struct_Microsoft_Singularity_Isal_IX_EFlags@@2IA 020b9408     VolMgr.obj
 0003:00017408       ?c_DF@Struct_Microsoft_Singularity_Isal_IX_EFlags@@2IA 020b9408     VolMgr.obj
 0003:00017408       ?c_VIF@Struct_Microsoft_Singularity_Isal_IX_EFlags@@2IA 020b9408     VolMgr.obj
 0003:00017408       ?c_IOPL@Struct_Microsoft_Singularity_Isal_IX_EFlags@@2IA 020b9408     VolMgr.obj
 0003:00017408       ?c_TF@Struct_Microsoft_Singularity_Isal_IX_EFlags@@2IA 020b9408     VolMgr.obj
 0003:00017408       ?c_SF@Struct_Microsoft_Singularity_Isal_IX_EFlags@@2IA 020b9408     VolMgr.obj
 0003:00017408       ?c_PF@Struct_Microsoft_Singularity_Isal_IX_EFlags@@2IA 020b9408     VolMgr.obj
 0003:00017408       ?c_baseAddr@Class_System_GCs_PageTable@@2IA 020b9408     VolMgr.obj
 0003:00017408       ?c_VIP@Struct_Microsoft_Singularity_Isal_IX_EFlags@@2IA 020b9408     VolMgr.obj
 0003:00017408       ?c_ID@Struct_Microsoft_Singularity_Isal_IX_EFlags@@2IA 020b9408     VolMgr.obj
 0003:00017408       ?c_NT@Struct_Microsoft_Singularity_Isal_IX_EFlags@@2IA 020b9408     VolMgr.obj
 0003:00017408       ?c_VF@Struct_Microsoft_Singularity_Isal_IX_EFlags@@2IA 020b9408     VolMgr.obj
 0003:00017408       ?c_RF@Struct_Microsoft_Singularity_Isal_IX_EFlags@@2IA 020b9408     VolMgr.obj
 0003:00017408       ?c_AF@Struct_Microsoft_Singularity_Isal_IX_EFlags@@2IA 020b9408     VolMgr.obj
 0003:00017408       ?c_OF@Struct_Microsoft_Singularity_Isal_IX_EFlags@@2IA 020b9408     VolMgr.obj
 0003:0001740c       ?c_limitAddr@Class_System_GCs_PageTable@@2IA 020b940c     VolMgr.obj
 0003:00017410       ?c_halPageDescriptor@Class_System_GCs_PageTable@@2PAIA 020b9410     VolMgr.obj
 0003:00017414       ?c_processTag@Class_System_GCs_PageTable@@2IA 020b9414     VolMgr.obj
 0003:00017418       ?c_pageTableCount@Class_System_GCs_PageTable@@2IA 020b9418     VolMgr.obj
 0003:00017420       ?c_NaN@float32@@2MA        020b9420     VolMgr.obj
 0003:00017420       ?c_MantissaAsUInt32@float32@@2_KA 020b9420     VolMgr.obj
 0003:00017420       ?c_MaxValue@float32@@2MA   020b9420     VolMgr.obj
 0003:00017420       ?c_ExponentAsUInt32@float32@@2_KA 020b9420     VolMgr.obj
 0003:00017420       ?c_NegativeInfinityAsUInt32@float32@@2_KA 020b9420     VolMgr.obj
 0003:00017420       ?c_PositiveInfinityAsUInt32@float32@@2_KA 020b9420     VolMgr.obj
 0003:00017420       ?c_globalPages@Struct_System_GCs_SegregatedFreeList@@2PAUClassVector_uintPtr@@A 020b9420     VolMgr.obj
 0003:00017420       ?c_Epsilon@float32@@2MA    020b9420     VolMgr.obj
 0003:00017420       ?c_PositiveInfinity@float32@@2MA 020b9420     VolMgr.obj
 0003:00017420       ?c_MinValue@float32@@2MA   020b9420     VolMgr.obj
 0003:00017420       ?c_NegativeInfinity@float32@@2MA 020b9420     VolMgr.obj
 0003:00017424       ?c_futureGlobalFreePages@Struct_System_GCs_SegregatedFreeList@@2PAUClassVector_Struct_System_GCs_SegregatedFreeList_PageHeader@@A 020b9424     VolMgr.obj
 0003:00017428       ?c_SmallFreedPages@Struct_System_GCs_SegregatedFreeList@@2IA 020b9428     VolMgr.obj
 0003:0001742c       ?c_nullPartialFreePageVisitor@Struct_System_GCs_SegregatedFreeList@@2PAUClass_System_GCs_SegregatedFreeList_NullPartialFreePageVisitor@@A 020b942c     VolMgr.obj
 0003:00017430       ?c_globalFreePages@Struct_System_GCs_SegregatedFreeList@@2PAUClassVector_uintPtr@@A 020b9430     VolMgr.obj
 0003:00017434       ?c_SmallBytes@Struct_System_GCs_SegregatedFreeList@@2IA 020b9434     VolMgr.obj
 0003:00017438       ?c_largeOffset@Struct_System_GCs_SegregatedFreeList@@2HA 020b9438     VolMgr.obj
 0003:0001743c       ?c_SmallPages@Struct_System_GCs_SegregatedFreeList@@2IA 020b943c     VolMgr.obj
 0003:00017440       ?c_LargePages@Struct_System_GCs_SegregatedFreeList@@2IA 020b9440     VolMgr.obj
 0003:00017444       ?c_LargeFreedPages@Struct_System_GCs_SegregatedFreeList@@2IA 020b9444     VolMgr.obj
 0003:00017448       ?c_SmallFreedBytes@Struct_System_GCs_SegregatedFreeList@@2IA 020b9448     VolMgr.obj
 0003:0001744c       ?c_threadIndexGenerator@Class_System_Threading_Thread@@2HA 020b944c     VolMgr.obj
 0003:00017450       ?c_initialThread@Class_System_Threading_Thread@@2PAU1@A 020b9450     VolMgr.obj
 0003:00017458       ?c_totalArrayBytesAllocated@Class_System_Threading_Thread@@2_JA 020b9458     VolMgr.obj
 0003:00017460       ?c_threadCount@Class_System_Threading_Thread@@2HA 020b9460     VolMgr.obj
 0003:00017464       ?c_closing@Class_System_Threading_Thread@@2_NA 020b9464     VolMgr.obj
 0003:00017468       ?c_threadTableLock@Class_System_Threading_Thread@@2?AUStruct_System_Threading_SpinLock@@A 020b9468     VolMgr.obj
 0003:00017470       ?c_m$_LocalDataStoreMgr@Class_System_Threading_Thread@@2PAUClass_System_LocalDataStoreMgr@@A 020b9470     VolMgr.obj
 0003:00017470       ?c_maxThreads@Class_System_Threading_Thread@@2HA 020b9470     VolMgr.obj
 0003:00017474       ?c_localDataStore@Class_System_Threading_Thread@@2PAUClass_System_LocalDataStore@@A 020b9474     VolMgr.obj
 0003:00017478       ?c_totalArrayAllocations@Class_System_Threading_Thread@@2_JA 020b9478     VolMgr.obj
 0003:00017480       ?c_totalStructBytesAllocated@Class_System_Threading_Thread@@2_JA 020b9480     VolMgr.obj
 0003:00017488       ?c_notificationTable@Class_System_Threading_Thread@@2PAUClassVector_Class_System_Object@@A 020b9488     VolMgr.obj
 0003:0001748c       ?c_notificationTableObject@Class_System_Threading_Thread@@2PAUClass_System_Object@@A 020b948c     VolMgr.obj
 0003:00017490       ?c_threadTable@Class_System_Threading_Thread@@2PAUClassVector_Class_System_Threading_Thread@@A 020b9490     VolMgr.obj
 0003:00017498       ?c_totalBytes@Class_System_Threading_Thread@@2_JA 020b9498     VolMgr.obj
 0003:000174a0       ?c_sMonDecimalSep@Class_System_Globalization_CultureInfo@@2PAUClass_System_String@@A 020b94a0     VolMgr.obj
 0003:000174a4       ?c_nMonGrouping@Class_System_Globalization_CultureInfo@@2PAUClassVector_int32@@A 020b94a4     VolMgr.obj
 0003:000174a8       ?c_sTimeFormat@Class_System_Globalization_CultureInfo@@2PAUClassVector_Class_System_String@@A 020b94a8     VolMgr.obj
 0003:000174ac       ?c_sDateWords@Class_System_Globalization_CultureInfo@@2PAUClassVector_Class_System_String@@A 020b94ac     VolMgr.obj
 0003:000174b0       ?c_sEngDisplayName@Class_System_Globalization_CultureInfo@@2PAUClass_System_String@@A 020b94b0     VolMgr.obj
 0003:000174b4       ?c_s1159@Class_System_Globalization_CultureInfo@@2PAUClass_System_String@@A 020b94b4     VolMgr.obj
 0003:000174b8       ?c_sNegInfinity@Class_System_Globalization_CultureInfo@@2PAUClass_System_String@@A 020b94b8     VolMgr.obj
 0003:000174bc       ?c_sAbbrevDayName@Class_System_Globalization_CultureInfo@@2PAUClassVector_Class_System_String@@A 020b94bc     VolMgr.obj
 0003:000174c0       ?c_sMonthNames@Class_System_Globalization_CultureInfo@@2PAUClassVector_Class_System_String@@A 020b94c0     VolMgr.obj
 0003:000174c4       ?c_sAbbrevLangName@Class_System_Globalization_CultureInfo@@2PAUClass_System_String@@A 020b94c4     VolMgr.obj
 0003:000174c8       ?c_sMonthDay@Class_System_Globalization_CultureInfo@@2PAUClass_System_String@@A 020b94c8     VolMgr.obj
 0003:000174cc       ?c_sIso639LangName2@Class_System_Globalization_CultureInfo@@2PAUClass_System_String@@A 020b94cc     VolMgr.obj
 0003:000174d0       ?c_sNativeDisplayName@Class_System_Globalization_CultureInfo@@2PAUClass_System_String@@A 020b94d0     VolMgr.obj
 0003:000174d4       ?c_iDigits@Class_System_Globalization_CultureInfo@@2GA 020b94d4     VolMgr.obj
 0003:000174d8       ?c_sPercent@Class_System_Globalization_CultureInfo@@2PAUClass_System_String@@A 020b94d8     VolMgr.obj
 0003:000174dc       ?c_nGrouping@Class_System_Globalization_CultureInfo@@2PAUClassVector_int32@@A 020b94dc     VolMgr.obj
 0003:000174e0       ?c_sDate@Class_System_Globalization_CultureInfo@@2PAUClass_System_String@@A 020b94e0     VolMgr.obj
 0003:000174e4       ?c_sName@Class_System_Globalization_CultureInfo@@2PAUClass_System_String@@A 020b94e4     VolMgr.obj
 0003:000174e8       ?c_sIso639LangName@Class_System_Globalization_CultureInfo@@2PAUClass_System_String@@A 020b94e8     VolMgr.obj
 0003:000174ec       ?c_iNegNumber@Class_System_Globalization_CultureInfo@@2GA 020b94ec     VolMgr.obj
 0003:000174f0       ?c_sNegativeSign@Class_System_Globalization_CultureInfo@@2PAUClass_System_String@@A 020b94f0     VolMgr.obj
 0003:000174f4       ?c_sList@Class_System_Globalization_CultureInfo@@2PAUClass_System_String@@A 020b94f4     VolMgr.obj
 0003:000174f8       ?c_s2359@Class_System_Globalization_CultureInfo@@2PAUClass_System_String@@A 020b94f8     VolMgr.obj
 0003:000174fc       ?c_sMonThousandSep@Class_System_Globalization_CultureInfo@@2PAUClass_System_String@@A 020b94fc     VolMgr.obj
 0003:00017500       ?c_sDayNames@Class_System_Globalization_CultureInfo@@2PAUClassVector_Class_System_String@@A 020b9500     VolMgr.obj
 0003:00017504       ?c_sPosInfinity@Class_System_Globalization_CultureInfo@@2PAUClass_System_String@@A 020b9504     VolMgr.obj
 0003:00017508       ?c_sYearMonth@Class_System_Globalization_CultureInfo@@2PAUClass_System_String@@A 020b9508     VolMgr.obj
 0003:0001750c       ?c_iCalendarType@Class_System_Globalization_CultureInfo@@2GA 020b950c     VolMgr.obj
 0003:00017510       ?c_sNan@Class_System_Globalization_CultureInfo@@2PAUClass_System_String@@A 020b9510     VolMgr.obj
 0003:00017514       ?c_iNegativePercent@Class_System_Globalization_CultureInfo@@2GA 020b9514     VolMgr.obj
 0003:00017518       ?c_currentCulture@Class_System_Globalization_CultureInfo@@2PAU1@A 020b9518     VolMgr.obj
 0003:0001751c       ?c_sShortTime@Class_System_Globalization_CultureInfo@@2PAUClassVector_Class_System_String@@A 020b951c     VolMgr.obj
 0003:00017520       ?c_sADEra@Class_System_Globalization_CultureInfo@@2PAUClass_System_String@@A 020b9520     VolMgr.obj
 0003:00017524       ?c_sThousand@Class_System_Globalization_CultureInfo@@2PAUClass_System_String@@A 020b9524     VolMgr.obj
 0003:00017528       ?c_sMonthGenitiveName@Class_System_Globalization_CultureInfo@@2PAUClassVector_Class_System_String@@A 020b9528     VolMgr.obj
 0003:0001752c       ?c_sTime@Class_System_Globalization_CultureInfo@@2PAUClass_System_String@@A 020b952c     VolMgr.obj
 0003:00017530       ?c_sLongDate@Class_System_Globalization_CultureInfo@@2PAUClassVector_Class_System_String@@A 020b9530     VolMgr.obj
 0003:00017534       ?c_sPositiveSign@Class_System_Globalization_CultureInfo@@2PAUClass_System_String@@A 020b9534     VolMgr.obj
 0003:00017538       ?c_sAbbrevMonthNames@Class_System_Globalization_CultureInfo@@2PAUClassVector_Class_System_String@@A 020b9538     VolMgr.obj
 0003:0001753c       ?c_sAbbrevMonthGenitiveName@Class_System_Globalization_CultureInfo@@2PAUClassVector_Class_System_String@@A 020b953c     VolMgr.obj
 0003:00017540       ?c_iFirstWeekOfYear@Class_System_Globalization_CultureInfo@@2GA 020b9540     VolMgr.obj
 0003:00017542       ?c_iLanguage@Class_System_Globalization_CultureInfo@@2GA 020b9542     VolMgr.obj
 0003:00017544       ?c_NativeLangId@Class_System_Globalization_CultureInfo@@2GA 020b9544     VolMgr.obj
 0003:00017546       ?c_iFirstDayOfWeek@Class_System_Globalization_CultureInfo@@2GA 020b9546     VolMgr.obj
 0003:00017548       ?c_sAbbevADEra@Class_System_Globalization_CultureInfo@@2PAUClass_System_String@@A 020b9548     VolMgr.obj
 0003:0001754c       ?c_sShortDate@Class_System_Globalization_CultureInfo@@2PAUClassVector_Class_System_String@@A 020b954c     VolMgr.obj
 0003:00017550       ?c_iPositivePercent@Class_System_Globalization_CultureInfo@@2GA 020b9550     VolMgr.obj
 0003:00017554       ?c_sDecimal@Class_System_Globalization_CultureInfo@@2PAUClass_System_String@@A 020b9554     VolMgr.obj
 0003:00017558       ?c_ENLISTMENT$_LOG$_CHUNK$_SIZE@Class_System_TryAllManager@@2HA 020b9558     VolMgr.obj
 0003:0001755c       ?c_REMOVE$_READ$_DUPLICATES$_AT$_GC@Class_System_TryAllManager@@2_NA 020b955c     VolMgr.obj
 0003:00017560       ?c_staticDummyLogged@Class_System_TryAllManager@@2IA 020b9560     VolMgr.obj
 0003:00017564       ?c_fixup@Class_System_TryAllManager@@2HA 020b9564     VolMgr.obj
 0003:00017568       ?c_objForStaticEnlists@Class_System_TryAllManager@@2PAUClass_System_Object@@A 020b9568     VolMgr.obj
 0003:0001756c       ?c_HASHING@Class_System_TryAllManager@@2_NA 020b956c     VolMgr.obj
 0003:0001756d       ?c_ENABLE$_PROFILING@Class_System_TryAllManager@@2_NA 020b956d     VolMgr.obj
 0003:00017570       ?c_HASH$_MASK@Class_System_TryAllManager@@2HA 020b9570     VolMgr.obj
 0003:00017574       ?c_UPDATE$_LOG$_CHUNK$_SIZE@Class_System_TryAllManager@@2HA 020b9574     VolMgr.obj
 0003:00017578       ?c_TRACK$_TRANSACTION$_LOCALS@Class_System_TryAllManager@@2_NA 020b9578     VolMgr.obj
 0003:00017579       ?c_REMOVE$_READ$_AFTER$_UPDATE$_AT$_GC@Class_System_TryAllManager@@2_NA 020b9579     VolMgr.obj
 0003:0001757c       ?c_postGCHookDelegate@Class_System_TryAllManager@@2PAUClass_System_TryAllManager_GCHookMethod@@A 020b957c     VolMgr.obj
 0003:00017580       ?c_DISABLE$_BEFORE$_WRITING$_LOG@Class_System_TryAllManager@@2_NA 020b9580     VolMgr.obj
 0003:00017581       ?c_DISABLE$_BEFORE$_FILTERING@Class_System_TryAllManager@@2_NA 020b9581     VolMgr.obj
 0003:00017582       ?c_DISABLE$_ON$_METHOD$_ENTRY@Class_System_TryAllManager@@2_NA 020b9582     VolMgr.obj
 0003:00017583       ?c_DISABLE$_HOUSEKEEPING@Class_System_TryAllManager@@2_NA 020b9583     VolMgr.obj
 0003:00017584       ?c_EXTERNAL$_BITMAP@Class_System_TryAllManager@@2_NA 020b9584     VolMgr.obj
 0003:00017588       ?c_preGCHookDelegate@Class_System_TryAllManager@@2PAUClass_System_TryAllManager_GCHookMethod@@A 020b9588     VolMgr.obj
 0003:0001758c       ?c_visitStrongRefsDelegate@Class_System_TryAllManager@@2PAUClass_System_TryAllManager_VisitMethod@@A 020b958c     VolMgr.obj
 0003:00017590       ?c_visitWeakRefsDelegate@Class_System_TryAllManager@@2PAUClass_System_TryAllManager_VisitMethod@@A 020b9590     VolMgr.obj
 0003:00017594       ?c_REMOVE$_READ$_AFTER$_UPDATE$_AT$_ENLISTMENT@Class_System_TryAllManager@@2_NA 020b9594     VolMgr.obj
 0003:00017598       ?c_batchesAvailable@Class_System_TryAllManager@@2HA 020b9598     VolMgr.obj
 0003:0001759c       ?c_DISABLE$_AFTER$_FILTERING@Class_System_TryAllManager@@2_NA 020b959c     VolMgr.obj
 0003:0001759d       ?c_HASHING$_FOR$_READS@Class_System_TryAllManager@@2_NA 020b959d     VolMgr.obj
 0003:000175a0       ?c_daplock@Class_System_TryAllManager@@2HA 020b95a0     VolMgr.obj
 0003:000175a4       ?c_BITMAP@Class_System_TryAllManager@@2_NA 020b95a4     VolMgr.obj
 0003:000175a8       ?c_CAPTURE$_STACK$_TRACE@Class_Microsoft_Singularity_Eventing_EventSource@@2IA 020b95a8     VolMgr.obj
 0003:000175a8       ?c_CAPTURE$_DEBUG$_PRINT@Class_Microsoft_Singularity_Eventing_EventSource@@2IA 020b95a8     VolMgr.obj
 0003:000175a8       ?c_ENABLE$_ALL$_MASK@Class_Microsoft_Singularity_Eventing_EventSource@@2IA 020b95a8     VolMgr.obj
 0003:000175a8       ?c_ContentsSpilled@Struct_Microsoft_Singularity_Isal_SpillContext@@2HA 020b95a8     VolMgr.obj
 0003:000175a8       ?c_gcTotalCount@Class_System_GCs_BaseCollector@@2HA 020b95a8     VolMgr.obj
 0003:000175b0       ?c_maxPauseTime@Class_System_GCs_BaseCollector@@2_JA 020b95b0     VolMgr.obj
 0003:000175b8       ?c_pauseCount@Class_System_GCs_BaseCollector@@2_JA 020b95b8     VolMgr.obj
 0003:000175c0       ?c_gcTotalBytes@Class_System_GCs_BaseCollector@@2_JA 020b95c0     VolMgr.obj
 0003:000175c8       ?c_HeapDamaged@Class_System_GCs_BaseCollector@@2_NA 020b95c8     VolMgr.obj
 0003:000175cc       ?c_newBytesSinceGC@Class_System_GCs_BaseCollector@@2IA 020b95cc     VolMgr.obj
 0003:000175d0       ?c_gcTotalTime@Class_System_GCs_BaseCollector@@2_JA 020b95d0     VolMgr.obj
 0003:000175d8       ?c_ProfileRoots@Class_System_GCs_BaseCollector@@2PAUClass_System_GCs_ProfileRootsDelegate@@A 020b95d8     VolMgr.obj
 0003:000175dc       ?c_ProfileObjects@Class_System_GCs_BaseCollector@@2PAUClass_System_GCs_ProfileObjectsDelegate@@A 020b95dc     VolMgr.obj
 0003:000175e0       ?c_GcProfiler@Class_System_GCs_BaseCollector@@2PAUClass_System_GCs_GCProfiler@@A 020b95e0     VolMgr.obj
 0003:000175e4       ?c_primes@Class_System_Collections_Hashtable@@2PAUClassVector_int32@@A 020b95e4     VolMgr.obj
 0003:0001770c       ?c_$_nullMessage@Class_System_ArgumentNullException@@2PAUClass_System_String@@A 020b970c     VolMgr.obj
 0003:00017710       ?c_MaxValue@int32@@2HA     020b9710     VolMgr.obj
 0003:00017710       ?c_MinValue@int32@@2HA     020b9710     VolMgr.obj
 0003:00017710       ?c_SR$$2@Class_Microsoft_Singularity_Services_VolumeManager_Disk@@2PAUClassVector_ClassVector_int32@@A 020b9710     VolMgr.obj
 0003:00017714       ?c_SR$$0@Class_Microsoft_Singularity_Services_VolumeManager_Disk@@2PAUClassVector_ClassVector_int32@@A 020b9714     VolMgr.obj
 0003:00017718       ?c_SR$$1@Class_Microsoft_Singularity_Services_VolumeManager_Disk@@2PAUClassVector_ClassVector_int32@@A 020b9718     VolMgr.obj
 0003:0001771c       ?c_PRESENT@Struct_Microsoft_Singularity_Isal_IX_Gdte@@2IA 020b971c     VolMgr.obj
 0003:0001771c       ?c_Tss32Free@Struct_Microsoft_Singularity_Isal_IX_Gdte@@2IA 020b971c     VolMgr.obj
 0003:0001771c       ?c_RING1@Struct_Microsoft_Singularity_Isal_IX_Gdte@@2IA 020b971c     VolMgr.obj
 0003:0001771c       ?c_READABLE@Struct_Microsoft_Singularity_Isal_IX_Gdte@@2IA 020b971c     VolMgr.obj
 0003:0001771c       ?c_ACCESSED@Struct_Microsoft_Singularity_Isal_IX_Gdte@@2IA 020b971c     VolMgr.obj
 0003:0001771c       ?c_Tss16Busy@Struct_Microsoft_Singularity_Isal_IX_Gdte@@2IA 020b971c     VolMgr.obj
 0003:0001771c       ?c_Ldt@Struct_Microsoft_Singularity_Isal_IX_Gdte@@2IA 020b971c     VolMgr.obj
 0003:0001771c       ?c_buffer@Class_Microsoft_Singularity_Monitoring@@2PAEA 020b971c     VolMgr.obj
 0003:0001771c       ?c_IS32BIT@Struct_Microsoft_Singularity_Isal_IX_Gdte@@2IA 020b971c     VolMgr.obj
 0003:0001771c       ?c_IS64BIT@Struct_Microsoft_Singularity_Isal_IX_Gdte@@2IA 020b971c     VolMgr.obj
 0003:0001771c       ?c_IntGate32@Struct_Microsoft_Singularity_Isal_IX_Gdte@@2IA 020b971c     VolMgr.obj
 0003:0001771c       ?c_USER@Struct_Microsoft_Singularity_Isal_IX_Gdte@@2IA 020b971c     VolMgr.obj
 0003:0001771c       ?c_Reserved10@Struct_Microsoft_Singularity_Isal_IX_Gdte@@2IA 020b971c     VolMgr.obj
 0003:0001771c       ?c_CallGate16@Struct_Microsoft_Singularity_Isal_IX_Gdte@@2IA 020b971c     VolMgr.obj
 0003:0001771c       ?c_CONFORMING@Struct_Microsoft_Singularity_Isal_IX_Gdte@@2IA 020b971c     VolMgr.obj
 0003:0001771c       ?c_Tss32Busy@Struct_Microsoft_Singularity_Isal_IX_Gdte@@2IA 020b971c     VolMgr.obj
 0003:0001771c       ?c_LIMIT20@Struct_Microsoft_Singularity_Isal_IX_Gdte@@2IA 020b971c     VolMgr.obj
 0003:0001771c       ?c_IntGate16@Struct_Microsoft_Singularity_Isal_IX_Gdte@@2IA 020b971c     VolMgr.obj
 0003:0001771c       ?c_Reserved8@Struct_Microsoft_Singularity_Isal_IX_Gdte@@2IA 020b971c     VolMgr.obj
 0003:0001771c       ?c_CODE@Struct_Microsoft_Singularity_Isal_IX_Gdte@@2IA 020b971c     VolMgr.obj
 0003:0001771c       ?c_RING3@Struct_Microsoft_Singularity_Isal_IX_Gdte@@2IA 020b971c     VolMgr.obj
 0003:0001771c       ?c_WRITEABLE@Struct_Microsoft_Singularity_Isal_IX_Gdte@@2IA 020b971c     VolMgr.obj
 0003:0001771c       ?c_TrapGate32@Struct_Microsoft_Singularity_Isal_IX_Gdte@@2IA 020b971c     VolMgr.obj
 0003:0001771c       ?c_Tss16Free@Struct_Microsoft_Singularity_Isal_IX_Gdte@@2IA 020b971c     VolMgr.obj
 0003:0001771c       ?c_Reserved13@Struct_Microsoft_Singularity_Isal_IX_Gdte@@2IA 020b971c     VolMgr.obj
 0003:0001771c       ?c_TrapGate16@Struct_Microsoft_Singularity_Isal_IX_Gdte@@2IA 020b971c     VolMgr.obj
 0003:0001771c       ?c_CallGate32@Struct_Microsoft_Singularity_Isal_IX_Gdte@@2IA 020b971c     VolMgr.obj
 0003:0001771c       ?c_RING2@Struct_Microsoft_Singularity_Isal_IX_Gdte@@2IA 020b971c     VolMgr.obj
 0003:0001771c       ?c_RING0@Struct_Microsoft_Singularity_Isal_IX_Gdte@@2IA 020b971c     VolMgr.obj
 0003:0001771c       ?c_EXPANDDOWN@Struct_Microsoft_Singularity_Isal_IX_Gdte@@2IA 020b971c     VolMgr.obj
 0003:0001771c       ?c_TaskGate@Struct_Microsoft_Singularity_Isal_IX_Gdte@@2IA 020b971c     VolMgr.obj
 0003:0001771c       ?c_PAGES@Struct_Microsoft_Singularity_Isal_IX_Gdte@@2IA 020b971c     VolMgr.obj
 0003:00017720       ?c_LocalControllerObject@Class_Microsoft_Singularity_Eventing_Controller@@2PAUClass_Microsoft_Singularity_Eventing_LocalController@@A 020b9720     VolMgr.obj
 0003:00017724       ?c_Finalized@Class_Microsoft_Singularity_Eventing_Controller@@2_NA 020b9724     VolMgr.obj
 0003:00017728       ?c_SystemControllerObject@Class_Microsoft_Singularity_Eventing_Controller@@2PAU1@A 020b9728     VolMgr.obj
 0003:0001772c       ?c_arrayOfBox@Class_System_TypeInfo@@2PAUClassVector_Class_System_VTable@@A 020b972c     VolMgr.obj
 0003:0001772c       ?c_MonitoringInfo@Class_Microsoft_Singularity_Eventing_Controller@@2IA 020b972c     VolMgr.obj
 0003:0001772c       ?c_TracingInfo@Class_Microsoft_Singularity_Eventing_Controller@@2IA 020b972c     VolMgr.obj
 0003:00017730       ?c_IsLittleEndian@Class_System_BitConverter@@2_NA 020b9730     VolMgr.obj
 0003:00017734       ?c_dblPower10@Class_System_Math@@2PAUClassVector_float64@@A 020b9734     VolMgr.obj
 0003:000177c8       ?c_NegativeZero@Class_System_Math@@2NA 020b97c8     VolMgr.obj
 0003:000177d0       ?c_currentCpuOffset@Class_Microsoft_Singularity_Isal_Isa@@2HA 020b97d0     VolMgr.obj
 0003:000177d4       ?c_currentThreadOffset@Class_Microsoft_Singularity_Isal_Isa@@2HA 020b97d4     VolMgr.obj
 0003:000177d8       ?c_headRef@Class_System_WeakReference@@2PAU1@A 020b97d8     VolMgr.obj
 0003:000177dc       ?c_MaxValue@uint16@@2GA    020b97dc     VolMgr.obj
 0003:000177dc       ?c_enableUserTiming@Class_System_VTable@@2_NA 020b97dc     VolMgr.obj
 0003:000177dc       ?c_MinValue@uint16@@2GA    020b97dc     VolMgr.obj
 0003:000177e0       ?c_beforeUser@Class_System_VTable@@2HA 020b97e0     VolMgr.obj
 0003:000177e4       ?c_enableGCAccurateHeapSize@Class_System_VTable@@2_NA 020b97e4     VolMgr.obj
 0003:000177e8       ?c_hasShutdownStarted@Class_System_VTable@@2HA 020b97e8     VolMgr.obj
 0003:000177ec       ?c_callTraceInProgress@Class_System_VTable@@2_NA 020b97ec     VolMgr.obj
 0003:000177f0       ?c_dynamicCountProfileFunction@Class_System_VTable@@2PAUClassVector_int64@@A 020b97f0     VolMgr.obj
 0003:000177f4       ?c_enableGCProfiling@Class_System_VTable@@2_NA 020b97f4     VolMgr.obj
 0003:000177f5       ?c_enableGCTiming@Class_System_VTable@@2_NA 020b97f5     VolMgr.obj
 0003:000177f6       ?c_enableDumpInterface@Class_System_VTable@@2_NA 020b97f6     VolMgr.obj
 0003:000177f8       ?c_afterUser@Class_System_VTable@@2HA 020b97f8     VolMgr.obj
 0003:000177fc       ?c_enableGCVerify@Class_System_VTable@@2_NA 020b97fc     VolMgr.obj
 0003:000177fd       ?c_runtimeInitialized@Class_System_VTable@@2_NA 020b97fd     VolMgr.obj
 0003:000177fd       ?c_enableLibraryOptions@Class_System_VTable@@2_NA 020b97fd     VolMgr.obj
 0003:000177fe       ?c_enableDebugPrint@Class_System_VTable@@2_NA 020b97fe     VolMgr.obj
 0003:00017800       ?c_interfaceOffsetTable@Class_System_VTable@@2PAUClass_System_Collections_Hashtable@@A 020b9800     VolMgr.obj
 0003:00017804       ?c_handle$_counts@Class_System_VTable@@2PAUClassVector_int32@@A 020b9804     VolMgr.obj
 0003:00017808       ?c_cctorLock@Class_System_VTable@@2PAUClass_System_VTable_ClassConstructorLock@@A 020b9808     VolMgr.obj
 0003:0001780c       ?c_tryAllCheckMask@Class_System_VTable@@2HA 020b980c     VolMgr.obj
 0003:00017810       ?c_enableDumpMemStats@Class_System_VTable@@2_NA 020b9810     VolMgr.obj
 0003:00017811       ?c_enableDumpTryAllStats@Class_System_VTable@@2_NA 020b9811     VolMgr.obj
 0003:00017812       ?c_enableFinalGCTiming@Class_System_VTable@@2_NA 020b9812     VolMgr.obj
 0003:00017813       ?c_enableDumpMultiUseWords@Class_System_VTable@@2_NA 020b9813     VolMgr.obj
 0003:00017814       ?c_enableGCAccounting@Class_System_VTable@@2_NA 020b9814     VolMgr.obj
 0003:00017818       ?c_ZeroStart@Class_System_ParseNumbers@@2PAUClassVector_int32@@A 020b9818     VolMgr.obj
 0003:0001781c       ?c_pageCache@Struct_System_GCs_UnmanagedPageList@@2?AU1@A 020b981c     VolMgr.obj
 0003:00017824       ?c_hexValues@Class_System_Reflection_Assembly@@2PAUClassVector_bartok_char@@A 020b9824     VolMgr.obj
 0003:00017854       ?c_updateReferenceVisitor@Class_System_GCs_MarkSweepCollector@@2PAUClass_System_GCs_MarkSweepCollector_UpdateReferenceVisitor@@A 020b9854     VolMgr.obj
 0003:00017858       ?c_collectionTrigger@Class_System_GCs_MarkSweepCollector@@2IA 020b9858     VolMgr.obj
 0003:0001785c       ?c_sweepTime@Class_System_GCs_MarkSweepCollector@@2HA 020b985c     VolMgr.obj
 0003:00017860       ?c_traceTime@Class_System_GCs_MarkSweepCollector@@2HA 020b9860     VolMgr.obj
 0003:00017864       ?c_numCollections@Class_System_GCs_MarkSweepCollector@@2HA 020b9864     VolMgr.obj
 0003:00017868       ?c_threadMarkReferenceVisitor@Class_System_GCs_MarkSweepCollector@@2PAUClass_System_GCs_MarkSweepCollector_ThreadMarkReferenceVisitor@@A 020b9868     VolMgr.obj
 0003:0001786c       ?c_markReferenceVisitor@Class_System_GCs_MarkSweepCollector@@2PAUClass_System_GCs_MarkSweepCollector_MarkReferenceVisitor@@A 020b986c     VolMgr.obj
 0003:00017870       ?c_markAndProcessReferenceVisitor@Class_System_GCs_MarkSweepCollector@@2PAUClass_System_GCs_MarkSweepCollector_MarkAndProcessReferenceVisitor@@A 020b9870     VolMgr.obj
 0003:00017874       ?c_instance@Class_System_GCs_MarkSweepCollector@@2PAU1@A 020b9874     VolMgr.obj
 0003:00017878       ?c_sweepVisitor@Class_System_GCs_MarkSweepCollector@@2PAUClass_System_GCs_MarkSweepCollector_SweepVisitor@@A 020b9878     VolMgr.obj
 0003:0001787c       ?c_installedBarrier@Class_System_GCs_Barrier@@2PAUClass_System_GCs_EmptyWriteBarrier@@A 020b987c     VolMgr.obj
 0003:00017880       ?c_zeroFieldsVisitor@Class_System_GCs_Barrier@@2PAUClass_System_GCs_Barrier_ZeroFieldsVisitor@@A 020b9880     VolMgr.obj
 0003:00017884       ?c_copyFieldsVisitor@Class_System_GCs_Barrier@@2PAUClass_System_GCs_Barrier_CopyFieldsVisitor@@A 020b9884     VolMgr.obj
 0003:00017888       ?c_slowZeroFieldsVisitor@Class_System_GCs_Barrier@@2PAUClass_System_GCs_Barrier_SlowZeroFieldsVisitor@@A 020b9888     VolMgr.obj
 0003:0001788c       ?c_slowCopyFieldsVisitor@Class_System_GCs_Barrier@@2PAUClass_System_GCs_Barrier_SlowCopyFieldsVisitor@@A 020b988c     VolMgr.obj
 0003:00017890       ?c_PositiveInfinityAsUInt64@float64@@2_KA 020b9890     VolMgr.obj
 0003:00017890       ?c_NegativeInfinity@float64@@2NA 020b9890     VolMgr.obj
 0003:00017890       ?c_Epsilon@float64@@2NA    020b9890     VolMgr.obj
 0003:00017890       ?c_ExponentAsUInt64@float64@@2_KA 020b9890     VolMgr.obj
 0003:00017890       ?c_MinValue@float64@@2NA   020b9890     VolMgr.obj
 0003:00017890       ?c_MaxValue@Struct_System_SchedulerTime@@2?AU1@A 020b9890     VolMgr.obj
 0003:00017890       ?c_MantissaAsUInt64@float64@@2_KA 020b9890     VolMgr.obj
 0003:00017890       ?c_NegativeInfinityAsUInt64@float64@@2_KA 020b9890     VolMgr.obj
 0003:00017890       ?c_MaxValue@float64@@2NA   020b9890     VolMgr.obj
 0003:00017890       ?c_PositiveInfinity@float64@@2NA 020b9890     VolMgr.obj
 0003:00017890       ?c_NaN@float64@@2NA        020b9890     VolMgr.obj
 0003:00017898       ?c_TicksPerHour@Struct_System_SchedulerTime@@2_JA 020b9898     VolMgr.obj
 0003:00017898       ?c_MinValue@Struct_System_SchedulerTime@@2?AU1@A 020b9898     VolMgr.obj
 0003:00017898       ?c_TicksPerSecond@Struct_System_SchedulerTime@@2_JA 020b9898     VolMgr.obj
 0003:00017898       ?c_TicksPerMinute@Struct_System_SchedulerTime@@2_JA 020b9898     VolMgr.obj
 0003:00017898       ?c_MaxTicks@Struct_System_SchedulerTime@@2_JA 020b9898     VolMgr.obj
 0003:00017898       ?c_MillisPerMinute@Struct_System_SchedulerTime@@2HA 020b9898     VolMgr.obj
 0003:00017898       ?c_MinTicks@Struct_System_SchedulerTime@@2_JA 020b9898     VolMgr.obj
 0003:00017898       ?c_DaysPer4Years@Struct_System_SchedulerTime@@2HA 020b9898     VolMgr.obj
 0003:00017898       ?c_DaysTo10000@Struct_System_SchedulerTime@@2HA 020b9898     VolMgr.obj
 0003:00017898       ?c_DaysPer400Years@Struct_System_SchedulerTime@@2HA 020b9898     VolMgr.obj
 0003:00017898       ?c_MillisPerHour@Struct_System_SchedulerTime@@2HA 020b9898     VolMgr.obj
 0003:00017898       ?c_DaysPerYear@Struct_System_SchedulerTime@@2HA 020b9898     VolMgr.obj
 0003:00017898       ?c_MillisPerSecond@Struct_System_SchedulerTime@@2HA 020b9898     VolMgr.obj
 0003:00017898       ?c_DaysPer100Years@Struct_System_SchedulerTime@@2HA 020b9898     VolMgr.obj
 0003:00017898       ?c_MaxMillis@Struct_System_SchedulerTime@@2_JA 020b9898     VolMgr.obj
 0003:00017898       ?c_TicksPerDay@Struct_System_SchedulerTime@@2_JA 020b9898     VolMgr.obj
 0003:000178a0       ?c_MaxValue@uint64@@2_KA   020b98a0     VolMgr.obj
 0003:000178a0       ?c_volMgr@Class_Microsoft_Singularity_Services_VolumeManager_VolumeManager@@2PAUClass_Microsoft_Singularity_Services_VolumeManager_VolMgr@@A 020b98a0     VolMgr.obj
 0003:000178a0       ?c_MillisPerDay@Struct_System_SchedulerTime@@2HA 020b98a0     VolMgr.obj
 0003:000178a0       ?c_TicksPerMillisecond@Struct_System_SchedulerTime@@2_JA 020b98a0     VolMgr.obj
 0003:000178a0       ?c_MinValue@uint64@@2_KA   020b98a0     VolMgr.obj
 0003:000178a0       ?c_IF@Struct_Microsoft_Singularity_Isal_IX_EFlagsShift@@2IA 020b98a0     VolMgr.obj
 0003:000178a4       ?c_SR$$4@Class_Microsoft_Singularity_Services_VolumeManager_VolumeManager@@2PAUClassVector_ClassVector_int32@@A 020b98a4     VolMgr.obj
 0003:000178a8       ?c_notificationExp@Class_Microsoft_Singularity_Services_VolumeManager_VolumeManager@@2PAUClass__VolMgr_Microsoft_Singularity_Channels_TRef$_2$LMicrosoft_Singularity_Directory_NotifyContract_Exp_Microsoft_Singularity_Directory_NotifyContract_Start$G@@A 020b98a8     VolMgr.obj
 0003:000178ac       ?c_SR$$5@Class_Microsoft_Singularity_Services_VolumeManager_VolumeManager@@2PAUClassVector_ClassVector_int32@@A 020b98ac     VolMgr.obj
 0003:000178b0       ?c_SR$$3@Class_Microsoft_Singularity_Services_VolumeManager_VolumeManager@@2PAUClassVector_ClassVector_int32@@A 020b98b0     VolMgr.obj
 0003:000178b4       ?c_SR$$6@Class_Microsoft_Singularity_Services_VolumeManager_VolumeManager@@2PAUClassVector_ClassVector_int32@@A 020b98b4     VolMgr.obj
 0003:000178b8       ?c_Int32@Struct_Microsoft_Bartok_Runtime_StructuralType@@2?AU1@A 020b98b8     VolMgr.obj
 0003:000178b8       ?c_Char@Struct_Microsoft_Bartok_Runtime_StructuralType@@2?AU1@A 020b98b8     VolMgr.obj
 0003:000178b8       ?c_Int64@Struct_Microsoft_Bartok_Runtime_StructuralType@@2?AU1@A 020b98b8     VolMgr.obj
 0003:000178b8       ?c_staticPtrs@Class_System_GCs_MemoryAccounting@@2PAUNull@@A 020b98b8     VolMgr.obj
 0003:000178b8       ?c_Int16@Struct_Microsoft_Bartok_Runtime_StructuralType@@2?AU1@A 020b98b8     VolMgr.obj
 0003:000178b8       ?c_UInt8@Struct_Microsoft_Bartok_Runtime_StructuralType@@2?AU1@A 020b98b8     VolMgr.obj
 0003:000178b8       ?c_UInt32@Struct_Microsoft_Bartok_Runtime_StructuralType@@2?AU1@A 020b98b8     VolMgr.obj
 0003:000178b8       ?c_Int8@Struct_Microsoft_Bartok_Runtime_StructuralType@@2?AU1@A 020b98b8     VolMgr.obj
 0003:000178b8       ?c_Reference@Struct_Microsoft_Bartok_Runtime_StructuralType@@2?AU1@A 020b98b8     VolMgr.obj
 0003:000178b8       ?c_IntPtr@Struct_Microsoft_Bartok_Runtime_StructuralType@@2?AU1@A 020b98b8     VolMgr.obj
 0003:000178b8       ?c_UIntPtr@Struct_Microsoft_Bartok_Runtime_StructuralType@@2?AU1@A 020b98b8     VolMgr.obj
 0003:000178b8       ?c_Bool@Struct_Microsoft_Bartok_Runtime_StructuralType@@2?AU1@A 020b98b8     VolMgr.obj
 0003:000178b8       ?c_UInt16@Struct_Microsoft_Bartok_Runtime_StructuralType@@2?AU1@A 020b98b8     VolMgr.obj
 0003:000178b8       ?c_Float64@Struct_Microsoft_Bartok_Runtime_StructuralType@@2?AU1@A 020b98b8     VolMgr.obj
 0003:000178b8       ?c_Float32@Struct_Microsoft_Bartok_Runtime_StructuralType@@2?AU1@A 020b98b8     VolMgr.obj
 0003:000178b8       ?c_UInt64@Struct_Microsoft_Bartok_Runtime_StructuralType@@2?AU1@A 020b98b8     VolMgr.obj
 0003:000178bc       ?c_runtimeTypeMapper@Class_System_GCs_MemoryAccounting@@2PAUNull@@A 020b98bc     VolMgr.obj
 0003:000178c0       ?c_forGCRuntimeTypeReckoner@Class_System_GCs_MemoryAccounting@@2PAUNull@@A 020b98c0     VolMgr.obj
 0003:000178c4       ?c_totalSize@Class_System_GCs_MemoryAccounting@@2IA 020b98c4     VolMgr.obj
 0003:000178c8       ?c_initialized@Class_System_GCs_MemoryAccounting@@2_NA 020b98c8     VolMgr.obj
 0003:000178cc       ?c_forGCInstanceReckoner@Class_System_GCs_MemoryAccounting@@2PAUNull@@A 020b98cc     VolMgr.obj
 0003:000178d0       ?c_instanceReckoner@Class_System_GCs_MemoryAccounting@@2PAUNull@@A 020b98d0     VolMgr.obj
 0003:000178d4       ?c_traceablePinnedPtrs@Class_System_GCs_MemoryAccounting@@2PAUNull@@A 020b98d4     VolMgr.obj
 0003:000178d8       ?c_table@Class_System_GCs_MemoryAccounting@@2PAUNull@@A 020b98d8     VolMgr.obj
 0003:000178dc       ?c_runtimeTypeReckoner@Class_System_GCs_MemoryAccounting@@2PAUNull@@A 020b98dc     VolMgr.obj
 0003:000178e0       ?c_forGCAssertRTypeHeaders@Class_System_GCs_MemoryAccounting@@2PAUNull@@A 020b98e0     VolMgr.obj
 0003:000178e4       ?c_traceablePtrs@Class_System_GCs_MemoryAccounting@@2PAUNull@@A 020b98e4     VolMgr.obj
 0003:000178e8       ?c_forGCRuntimeTypeMapper@Class_System_GCs_MemoryAccounting@@2PAUNull@@A 020b98e8     VolMgr.obj
 0003:000178ec       ?c_PGE@Struct_Microsoft_Singularity_Isal_IX_CR4@@2IA 020b98ec     VolMgr.obj
 0003:000178ec       ?c_MCE@Struct_Microsoft_Singularity_Isal_IX_CR4@@2IA 020b98ec     VolMgr.obj
 0003:000178ec       ?c_OOM$_GeneralFailure@Struct_Microsoft_Singularity_Eventing_QualityOfService@@2IA 020b98ec     VolMgr.obj
 0003:000178ec       ?c_PCD@Struct_Microsoft_Singularity_Isal_IX_CR3@@2IA 020b98ec     VolMgr.obj
 0003:000178ec       ?c_X86@Struct_Microsoft_Singularity_Isal_Isa_Type@@2?AU1@A 020b98ec     VolMgr.obj
 0003:000178ec       ?c_PAE@Struct_Microsoft_Singularity_Isal_IX_CR4@@2IA 020b98ec     VolMgr.obj
 0003:000178ec       ?c_PVI@Struct_Microsoft_Singularity_Isal_IX_CR4@@2IA 020b98ec     VolMgr.obj
 0003:000178ec       ?c_ScopeGlobal@Struct_Microsoft_Singularity_Eventing_QualityOfService@@2IA 020b98ec     VolMgr.obj
 0003:000178ec       ?c_PermanentEvents@Struct_Microsoft_Singularity_Eventing_QualityOfService@@2IA 020b98ec     VolMgr.obj
 0003:000178ec       ?c_RecyclableEvents@Struct_Microsoft_Singularity_Eventing_QualityOfService@@2IA 020b98ec     VolMgr.obj
 0003:000178ec       ?c_ActiveEvents@Struct_Microsoft_Singularity_Eventing_QualityOfService@@2IA 020b98ec     VolMgr.obj
 0003:000178ec       ?c_Arm@Struct_Microsoft_Singularity_Isal_Isa_Type@@2?AU1@A 020b98ec     VolMgr.obj
 0003:000178ec       ?c_PWT@Struct_Microsoft_Singularity_Isal_IX_CR3@@2IA 020b98ec     VolMgr.obj
 0003:000178ec       ?c_DE@Struct_Microsoft_Singularity_Isal_IX_CR4@@2IA 020b98ec     VolMgr.obj
 0003:000178ec       ?c_NE@Struct_Microsoft_Singularity_Isal_IX_CR0@@2IA 020b98ec     VolMgr.obj
 0003:000178ec       ?c_TSD@Struct_Microsoft_Singularity_Isal_IX_CR4@@2IA 020b98ec     VolMgr.obj
 0003:000178ec       ?c_CD@Struct_Microsoft_Singularity_Isal_IX_CR0@@2IA 020b98ec     VolMgr.obj
 0003:000178ec       ?c_NW@Struct_Microsoft_Singularity_Isal_IX_CR0@@2IA 020b98ec     VolMgr.obj
 0003:000178ec       ?c_ScopeUndefined@Struct_Microsoft_Singularity_Eventing_QualityOfService@@2IA 020b98ec     VolMgr.obj
 0003:000178ec       ?c_PSE@Struct_Microsoft_Singularity_Isal_IX_CR4@@2IA 020b98ec     VolMgr.obj
 0003:000178ec       ?c_VME@Struct_Microsoft_Singularity_Isal_IX_CR4@@2IA 020b98ec     VolMgr.obj
 0003:000178ec       ?c_PCE@Struct_Microsoft_Singularity_Isal_IX_CR4@@2IA 020b98ec     VolMgr.obj
 0003:000178ec       ?c_OOM$_BreakOnRecycle@Struct_Microsoft_Singularity_Eventing_QualityOfService@@2IA 020b98ec     VolMgr.obj
 0003:000178ec       ?c_OOM$_DropNewEvents@Struct_Microsoft_Singularity_Eventing_QualityOfService@@2IA 020b98ec     VolMgr.obj
 0003:000178ec       ?c_EM@Struct_Microsoft_Singularity_Isal_IX_CR0@@2IA 020b98ec     VolMgr.obj
 0003:000178ec       ?c_X64@Struct_Microsoft_Singularity_Isal_Isa_Type@@2?AU1@A 020b98ec     VolMgr.obj
 0003:000178ec       ?c_OSFXSR@Struct_Microsoft_Singularity_Isal_IX_CR4@@2IA 020b98ec     VolMgr.obj
 0003:000178ec       ?c_MP@Struct_Microsoft_Singularity_Isal_IX_CR0@@2IA 020b98ec     VolMgr.obj
 0003:000178ec       ?c_ET@Struct_Microsoft_Singularity_Isal_IX_CR0@@2IA 020b98ec     VolMgr.obj
 0003:000178ec       ?c_OSXMMEXCPT@Struct_Microsoft_Singularity_Isal_IX_CR4@@2IA 020b98ec     VolMgr.obj
 0003:000178ec       ?c_WP@Struct_Microsoft_Singularity_Isal_IX_CR0@@2IA 020b98ec     VolMgr.obj
 0003:000178ec       ?c_PG@Struct_Microsoft_Singularity_Isal_IX_CR0@@2IA 020b98ec     VolMgr.obj
 0003:000178ec       ?c_ScopeLocal@Struct_Microsoft_Singularity_Eventing_QualityOfService@@2IA 020b98ec     VolMgr.obj
 0003:000178ec       ?c_AM@Struct_Microsoft_Singularity_Isal_IX_CR0@@2IA 020b98ec     VolMgr.obj
 0003:000178ec       ?c_TS@Struct_Microsoft_Singularity_Isal_IX_CR0@@2IA 020b98ec     VolMgr.obj
 0003:000178ec       ?c_valueType@Class_System_Type@@2PAU1@A 020b98ec     VolMgr.obj
 0003:000178ec       ?c_PE@Struct_Microsoft_Singularity_Isal_IX_CR0@@2IA 020b98ec     VolMgr.obj
 0003:000178f0       ?c_Delimiter@Class_System_Type@@2_WA 020b98f0     VolMgr.obj
 0003:000178f4       ?c_enumType@Class_System_Type@@2PAU1@A 020b98f4     VolMgr.obj
 0003:000178f8       ?c_EVENTING$_STORAGE$_FLAGS$_STACKTRACES@Class_Microsoft_Singularity_Eventing_EventingStorage@@2IA 020b98f8     VolMgr.obj
 0003:000178f8       ?c_EVENTING$_STORAGE$_FLAGS$_ENABLED@Class_Microsoft_Singularity_Eventing_EventingStorage@@2IA 020b98f8     VolMgr.obj
 0003:000178f8       ?c_Default@Class_System_Collections_Comparer@@2PAU1@A 020b98f8     VolMgr.obj
 0003:000178fc       ?c_unusedMemoryBlocks@Class_System_GCs_PageManager@@2PAUClassVector_Struct_System_GCs_PageManager_UnusedBlockHeader@@A 020b98fc     VolMgr.obj
 0003:00017900       ?c_outOfMemoryException@Class_System_GCs_PageManager@@2PAUClass_System_OutOfMemoryException@@A 020b9900     VolMgr.obj
 0003:00017904       ?c_os$_commit$_size@Class_System_GCs_PageManager@@2IA 020b9904     VolMgr.obj
 0003:00017908       ?c_mutex@Class_System_GCs_PageManager@@2PAUClass_System_Threading_Mutex@@A 020b9908     VolMgr.obj
 0003:0001790c       ?c_heap$_commit$_size@Class_System_GCs_PageManager@@2IA 020b990c     VolMgr.obj
 0003:00017910       ?c_avoidDirtyPages@Class_System_GCs_PageManager@@2_NA 020b9910     VolMgr.obj
 0003:00017914       ?c_collectorThreadIndex@Class_System_GCs_StopTheWorldGCData@@2HA 020b9914     VolMgr.obj
 0003:00017918       ?c_CurrentPhase@Class_System_GCs_StopTheWorldGCData@@2?AUStruct_System_GCs_StopTheWorldPhase@@A 020b9918     VolMgr.obj
 0003:0001791c       ?c_SR$$7@Class_Microsoft_Singularity_Services_VolumeManager_Volume@@2PAUClassVector_ClassVector_int32@@A 020b991c     VolMgr.obj
 0003:00017920       ?c_StructuralTypeNames@Class_Microsoft_Bartok_Runtime_Constants@@2PAUClassVector_Class_System_String@@A 020b9920     VolMgr.obj
 0003:00017924       ?c_workList@Class_System_GCs_MarkSweepCollector_MarkReferenceVisitor@@2?AUStruct_System_GCs_UIntPtrStack@@A 020b9924     VolMgr.obj
 0003:0001793c       ?c_UnlinkStackBegin@Class_System_GCs_CallStack@@2IA 020b993c     VolMgr.obj
 0003:00017940       ?c_LinkStackBegin@Class_System_GCs_CallStack@@2IA 020b9940     VolMgr.obj
 0003:00017944       ?c_threadBeingProcessed@Class_System_GCs_CallStack@@2PAUClass_System_Threading_Thread@@A 020b9944     VolMgr.obj
 0003:00017948       ?c_LinkStackStubsLimit@Class_System_GCs_CallStack@@2IA 020b9948     VolMgr.obj
 0003:0001794c       ?c_LinkStackLimit@Class_System_GCs_CallStack@@2IA 020b994c     VolMgr.obj
 0003:00017950       ?c_LinkStackFunctionsBegin@Class_System_GCs_CallStack@@2IA 020b9950     VolMgr.obj
 0003:00017954       ?c_LinkStackFunctionsLimit@Class_System_GCs_CallStack@@2IA 020b9954     VolMgr.obj
 0003:00017958       ?c_LinkStackStubsBegin@Class_System_GCs_CallStack@@2IA 020b9958     VolMgr.obj
 0003:0001795c       ?c_UnlinkStackLimit@Class_System_GCs_CallStack@@2IA 020b995c     VolMgr.obj
 0003:00017960       ?c_internedStringVector@Class_System_String@@2PAUClassVector_Class_System_String@@A 020b9960     VolMgr.obj
 0003:00017964       ?c_TrimTail@Class_System_String@@2HA 020b9964     VolMgr.obj
 0003:00017964       ?c_HighCharTable@Class_System_String@@2PAUClassVector_bool@@A 020b9964     VolMgr.obj
 0003:00017964       ?c_TrimHead@Class_System_String@@2HA 020b9964     VolMgr.obj
 0003:000179f4       ?c_internedStringHashCodes@Class_System_String@@2PAUClassVector_int32@@A 020b99f4     VolMgr.obj
 0003:000179f4       ?c_TrimBoth@Class_System_String@@2HA 020b99f4     VolMgr.obj
 0003:000179f8       ?c_internedStringBound@Class_System_String@@2HA 020b99f8     VolMgr.obj
 0003:000179fc       ?c_Empty@Class_System_String@@2PAU1@A 020b99fc     VolMgr.obj
 0003:00017a00       ?c_internedStringCount@Class_System_String@@2HA 020b9a00     VolMgr.obj
 0003:00017a04       ?c_unicodeTableLevel3@Class_System_Globalization_CompareInfo@@2PAUClassVector_uint16@@A 020b9a04     VolMgr.obj
 0003:00019054       ?c_caseTableLevel2@Class_System_Globalization_CompareInfo@@2PAUClassVector_int16@@A 020bb054     VolMgr.obj
 0003:000193e4       ?c_diacriticTableLevel1@Class_System_Globalization_CompareInfo@@2PAUClassVector_int16@@A 020bb3e4     VolMgr.obj
 0003:000195f4       ?c_unicodeTableLevel1@Class_System_Globalization_CompareInfo@@2PAUClassVector_int16@@A 020bb5f4     VolMgr.obj
 0003:00019804       ?c_caseTableLevel3@Class_System_Globalization_CompareInfo@@2PAUClassVector_uint8@@A 020bb804     VolMgr.obj
 0003:00019dd4       ?c_diacriticTableLevel3@Class_System_Globalization_CompareInfo@@2PAUClassVector_uint8@@A 020bbdd4     VolMgr.obj
 0003:0001a5d4       ?c_unicodeTableLevel2@Class_System_Globalization_CompareInfo@@2PAUClassVector_int16@@A 020bc5d4     VolMgr.obj
 0003:0001a984       ?c_caseTableLevel1@Class_System_Globalization_CompareInfo@@2PAUClassVector_int16@@A 020bc984     VolMgr.obj
 0003:0001ab94       ?c_diacriticTableLevel2@Class_System_Globalization_CompareInfo@@2PAUClassVector_int16@@A 020bcb94     VolMgr.obj
 0003:0001af44       ?c_TypeStorageHandle@Class_Microsoft_Singularity_GCProfilerLogger@@2IA 020bcf44     VolMgr.obj
 0003:0001af48       ?c_CurrentProfiler@Class_Microsoft_Singularity_GCProfilerLogger@@2PAU1@A 020bcf48     VolMgr.obj
 0003:0001af4c       ?c_StorageHandle@Class_Microsoft_Singularity_GCProfilerLogger@@2IA 020bcf4c     VolMgr.obj
 0003:0001af50       ?c_instance@Class_System_GCs_EmptyWriteBarrier@@2PAU1@A 020bcf50     VolMgr.obj
 0003:0001af58       ?c_Infinite@Struct_System_TimeSpan@@2?AU1@A 020bcf58     VolMgr.obj
 0003:0001af60       ?c_TicksPerMinute@Struct_System_TimeSpan@@2_JA 020bcf60     VolMgr.obj
 0003:0001af60       ?c_MillisPerSecond@Struct_System_TimeSpan@@2HA 020bcf60     VolMgr.obj
 0003:0001af60       ?c_TicksPerHour@Struct_System_TimeSpan@@2_JA 020bcf60     VolMgr.obj
 0003:0001af60       ?c_TicksPerDay@Struct_System_TimeSpan@@2_JA 020bcf60     VolMgr.obj
 0003:0001af60       ?c_MinValue@Struct_System_TimeSpan@@2?AU1@A 020bcf60     VolMgr.obj
 0003:0001af60       ?c_MinSeconds@Struct_System_TimeSpan@@2_JA 020bcf60     VolMgr.obj
 0003:0001af60       ?c_MillisPerMinute@Struct_System_TimeSpan@@2HA 020bcf60     VolMgr.obj
 0003:0001af60       ?c_MaxSeconds@Struct_System_TimeSpan@@2_JA 020bcf60     VolMgr.obj
 0003:0001af68       ?c_MaxValue@Struct_System_TimeSpan@@2?AU1@A 020bcf68     VolMgr.obj
 0003:0001af68       ?c_MillisPerHour@Struct_System_TimeSpan@@2HA 020bcf68     VolMgr.obj
 0003:0001af68       ?c_TicksPerSecond@Struct_System_TimeSpan@@2_JA 020bcf68     VolMgr.obj
 0003:0001af70       ?c_Zero@Struct_System_TimeSpan@@2?AU1@A 020bcf70     VolMgr.obj
 0003:0001af78       ?c_MaxMilliSeconds@Struct_System_TimeSpan@@2_JA 020bcf78     VolMgr.obj
 0003:0001af78       ?c_MinValue@Struct_System_Decimal@@2?AU1@A 020bcf78     VolMgr.obj
 0003:0001af78       ?c_TicksPerMillisecond@Struct_System_TimeSpan@@2_JA 020bcf78     VolMgr.obj
 0003:0001af78       ?c_MinMilliSeconds@Struct_System_TimeSpan@@2_JA 020bcf78     VolMgr.obj
 0003:0001af78       ?c_ScaleShift@Struct_System_Decimal@@2HA 020bcf78     VolMgr.obj
 0003:0001af78       ?c_MillisPerDay@Struct_System_TimeSpan@@2HA 020bcf78     VolMgr.obj
 0003:0001af88       ?c_Zero@Struct_System_Decimal@@2?AU1@A 020bcf88     VolMgr.obj
 0003:0001af98       ?c_MaxValue@Struct_System_Decimal@@2?AU1@A 020bcf98     VolMgr.obj
 0003:0001af98       ?c_SignMask@Struct_System_Decimal@@2HA 020bcf98     VolMgr.obj
 0003:0001afa8       ?c_ScaleMask@Struct_System_Decimal@@2HA 020bcfa8     VolMgr.obj
 0003:0001afa8       ?c_One@Struct_System_Decimal@@2?AU1@A 020bcfa8     VolMgr.obj
 0003:0001afb8       ?c_MinusOne@Struct_System_Decimal@@2?AU1@A 020bcfb8     VolMgr.obj
 0003:0001afc8       ?c_$_rangeMessage@Class_System_ArgumentOutOfRangeException@@2PAUClass_System_String@@A 020bcfc8     VolMgr.obj
 0003:0001afcc       ?c_Zero@uintPtr@@2IA       020bcfcc     VolMgr.obj
 0003:0001afd0       ?c_MaxValue@uintPtr@@2IA   020bcfd0     VolMgr.obj
 0003:0001afd4       ?c_Size@uintPtr@@2HA       020bcfd4     VolMgr.obj
 0003:0001afd8       ?c_MinValue@uint32@@2IA    020bcfd8     VolMgr.obj
 0003:0001afd8       ?c_MaxValue@uint32@@2IA    020bcfd8     VolMgr.obj
 0003:0001afd8       ?c_dummyGlobal@Class_System_GC@@2PAUClass_System_Object@@A 020bcfd8     VolMgr.obj
 0003:0001afdc       ?c_MaxHeapPages@Class_System_GC@@2HA 020bcfdc     VolMgr.obj
 0003:0001afe0       ?c_allocationGCInhibitCount@Class_System_GC@@2HA 020bcfe0     VolMgr.obj
 0003:0001afe4       ?c_isProfiling@Class_System_GC@@2_NA 020bcfe4     VolMgr.obj
 0003:0001afe8       ?c_installedGC@Class_System_GC@@2PAUClass_System_GCs_Collector@@A 020bcfe8     VolMgr.obj
 0003:0001afec       ?c_perfCounter@Class_System_GC@@2IA 020bcfec     VolMgr.obj
 0003:0001aff0       ?c_limitPtr@Class_System_GCs_BootstrapMemory@@2IA 020bcff0     VolMgr.obj
 0003:0001aff4       ?c_allocPtr@Class_System_GCs_BootstrapMemory@@2IA 020bcff4     VolMgr.obj
 0003:0001aff8       ?c_TryAllCountersList@Class_System_TryAllCounters@@2PAU1@A 020bcff8     VolMgr.obj
 0003:0001affc       ?c_TryAllCountersLock@Class_System_TryAllCounters@@2PAUClass_System_Object@@A 020bcffc     VolMgr.obj
 0003:0001b000       ?c_MinValue@int64@@2_JA    020bd000     VolMgr.obj
 0003:0001b000       ?c_ACCESSED@Struct_Microsoft_Singularity_Isal_IX_PE@@2_KA 020bd000     VolMgr.obj
 0003:0001b000       ?c_USER@Struct_Microsoft_Singularity_Isal_IX_PE@@2_KA 020bd000     VolMgr.obj
 0003:0001b000       ?c_fInitializedRuntime@Class_System_GCs_Transitions@@2_NA 020bd000     VolMgr.obj
 0003:0001b000       ?c_GLOBAL@Struct_Microsoft_Singularity_Isal_IX_PE@@2_KA 020bd000     VolMgr.obj
 0003:0001b000       ?c_MaxValue@int64@@2_JA    020bd000     VolMgr.obj
 0003:0001b000       ?c_CACHEDISABLE@Struct_Microsoft_Singularity_Isal_IX_PE@@2_KA 020bd000     VolMgr.obj
 0003:0001b000       ?c_DormantState@Class_System_GCs_Transitions@@2HA 020bd000     VolMgr.obj
 0003:0001b000       ?c_WRITEABLE@Struct_Microsoft_Singularity_Isal_IX_PE@@2_KA 020bd000     VolMgr.obj
 0003:0001b000       ?c_WRITETHROUGH@Struct_Microsoft_Singularity_Isal_IX_PE@@2_KA 020bd000     VolMgr.obj
 0003:0001b000       ?c_MutatorState@Class_System_GCs_Transitions@@2HA 020bd000     VolMgr.obj
 0003:0001b000       ?c_VALID@Struct_Microsoft_Singularity_Isal_IX_PE@@2_KA 020bd000     VolMgr.obj
 0003:0001b000       ?c_OtherMutatorState@Class_System_GCs_Transitions@@2HA 020bd000     VolMgr.obj
 0003:0001b000       ?c_IS2MB@Struct_Microsoft_Singularity_Isal_IX_PE@@2_KA 020bd000     VolMgr.obj
 0003:0001b000       ?c_NX@Struct_Microsoft_Singularity_Isal_IX_PE@@2_KA 020bd000     VolMgr.obj
 0003:0001b000       ?c_PAT@Struct_Microsoft_Singularity_Isal_IX_PE@@2_KA 020bd000     VolMgr.obj
 0003:0001b000       ?c_DIRTY@Struct_Microsoft_Singularity_Isal_IX_PE@@2_KA 020bd000     VolMgr.obj
 0003:0001b004       ?c_OtherDormantState@Class_System_GCs_Transitions@@2HA 020bd004     VolMgr.obj
 0003:0001b004       ?c_CandidateTable@Struct_System_Finalizer@@2PAUClassVector_ClassVector_uintPtr@@A 020bd004     VolMgr.obj
 0003:0001b008       ?c_lastCandidateIndex@Struct_System_Finalizer@@2HA 020bd008     VolMgr.obj
 0003:0001b00c       ?c_WaitForPendingShouldReturn@Struct_System_Finalizer@@2PAUClass_System_Threading_ManualResetEvent@@A 020bd00c     VolMgr.obj
 0003:0001b010       ?c_spinLock@Struct_System_Finalizer@@2?AUStruct_System_Threading_SpinLock@@A 020bd010     VolMgr.obj
 0003:0001b018       ?c_finalizerThread@Struct_System_Finalizer@@2PAUClass_System_Threading_Thread@@A 020bd018     VolMgr.obj
 0003:0001b01c       ?c_WaitingToRun@Struct_System_Finalizer@@2HA 020bd01c     VolMgr.obj
 0003:0001b020       ?c_CandidateTableShadow@Struct_System_Finalizer@@2PAUClassVector_ClassVector_uintPtr@@A 020bd020     VolMgr.obj
 0003:0001b024       ?c_freeCandidateLink@Struct_System_Finalizer@@2HA 020bd024     VolMgr.obj
 0003:0001b028       ?c_LastTableRun@Struct_System_Finalizer@@2HA 020bd028     VolMgr.obj
 0003:0001b02c       ?c_WorkExistsForFinalizerThread@Struct_System_Finalizer@@2PAUClass_System_Threading_AutoResetEvent@@A 020bd02c     VolMgr.obj
 0003:0001b030       ?c_LastEntryRun@Struct_System_Finalizer@@2HA 020bd030     VolMgr.obj
 0003:0001b034       ?c_RunFinalizerTable@Struct_System_Finalizer@@2PAUClassVector_ClassVector_uintPtr@@A 020bd034     VolMgr.obj
 0003:0001b038       ?c_RunFinalizerTableShadow@Struct_System_Finalizer@@2PAUClassVector_ClassVector_uintPtr@@A 020bd038     VolMgr.obj
 0003:0001b03c       ?c_madeRunnable@Struct_System_Finalizer@@2_NA 020bd03c     VolMgr.obj
 0003:0001b03d       ?c_running@Struct_System_Finalizer@@2_NA 020bd03d     VolMgr.obj
 0003:0001b03e       ?c_doneWarning@Class_System_RuntimeType@@2_NA 020bd03e     VolMgr.obj
 0003:0001b03f       ?c_MaxValue@uint8@@2EA     020bd03f     VolMgr.obj
 0003:0001b03f       ?c_MinValue@uint8@@2EA     020bd03f     VolMgr.obj
 0003:0001b040       ?c_genericReferenceVisitor@Class_System_GCs_Verifier@@2PAUClass_System_GCs_Verifier_GenericReferenceVisitor@@A 020bd040     VolMgr.obj
 0003:0001b044       ?c_genericStackVerifier@Class_System_GCs_Verifier@@2PAUClass_System_GCs_Verifier_GenericStackVerifier@@A 020bd044     VolMgr.obj
 0003:0001b048       ?c_segregatedFreeListVerifier@Class_System_GCs_Verifier@@2PAU1@A 020bd048     VolMgr.obj
 0003:0001b04c       ?c_genericThreadReferenceVisitor@Class_System_GCs_Verifier@@2PAUClass_System_GCs_Verifier_GenericThreadReferenceVisitor@@A 020bd04c     VolMgr.obj
 0003:0001b050       ?c_genericObjectVisitor@Class_System_GCs_Verifier@@2PAUClass_System_GCs_Verifier_GenericObjectVisitor@@A 020bd050     VolMgr.obj
 0003:0001b054       ?c_bumpAllocatorVerifier@Class_System_GCs_Verifier@@2PAU1@A 020bd054     VolMgr.obj
 0003:0001b058       ?c_EventMetadata@Class_Microsoft_Singularity_Eventing_QuerySession@@2PAUClass_Microsoft_Singularity_Eventing_EventDescriptor@@A 020bd058     VolMgr.obj
 0003:0001b05c       ?c_DescriptorTable@Class_Microsoft_Singularity_Eventing_QuerySession@@2PAUClass_System_Collections_Hashtable@@A 020bd05c     VolMgr.obj
 0003:0001b060       ?c_Lock@Class_Microsoft_Singularity_Eventing_QuerySession@@2PAUClass_System_Threading_Mutex@@A 020bd060     VolMgr.obj
 0003:0001b064       ?c_TrueString@bool@@2PAUClass_System_String@@A 020bd064     VolMgr.obj
 0003:0001b068       ?c_FalseString@bool@@2PAUClass_System_String@@A 020bd068     VolMgr.obj
 0003:0001b06c       ?c_negPercentFormats@Class_System_Number@@2PAUClassVector_Class_System_String@@A 020bd06c     VolMgr.obj
 0003:0001b06c       ?c_False@bool@@2HA         020bd06c     VolMgr.obj
 0003:0001b06c       ?c_True@bool@@2HA          020bd06c     VolMgr.obj
 0003:0001b070       ?c_posNumberFormat@Class_System_Number@@2PAUClass_System_String@@A 020bd070     VolMgr.obj
 0003:0001b074       ?c_negNumberFormats@Class_System_Number@@2PAUClassVector_Class_System_String@@A 020bd074     VolMgr.obj
 0003:0001b078       ?c_posPercentFormats@Class_System_Number@@2PAUClassVector_Class_System_String@@A 020bd078     VolMgr.obj
 0003:0001b07c       ?c_Breakpoint@Struct_Microsoft_Singularity_Isal_IX_EVectors@@2IA 020bd07c     VolMgr.obj
 0003:0001b07c       ?c_FirstChanceException@Struct_Microsoft_Singularity_Isal_IX_EVectors@@2IA 020bd07c     VolMgr.obj
 0003:0001b07c       ?c_OverflowException@Struct_Microsoft_Singularity_Isal_IX_EVectors@@2IA 020bd07c     VolMgr.obj
 0003:0001b07c       ?c_PageFault@Struct_Microsoft_Singularity_Isal_IX_EVectors@@2IA 020bd07c     VolMgr.obj
 0003:0001b07c       ?c_SseMathFault@Struct_Microsoft_Singularity_Isal_IX_EVectors@@2IA 020bd07c     VolMgr.obj
 0003:0001b07c       ?c_IoLastVector@Struct_Microsoft_Singularity_Isal_IX_EVectors@@2IA 020bd07c     VolMgr.obj
 0003:0001b07c       ?c_IoBaseVector@Struct_Microsoft_Singularity_Isal_IX_EVectors@@2IA 020bd07c     VolMgr.obj
 0003:0001b07c       ?c_GCSynchronization@Struct_Microsoft_Singularity_Isal_IX_EVectors@@2IA 020bd07c     VolMgr.obj
 0003:0001b07c       ?c_IntelReserved@Struct_Microsoft_Singularity_Isal_IX_EVectors@@2IA 020bd07c     VolMgr.obj
 0003:0001b07c       ?c_HaltApProcessors@Struct_Microsoft_Singularity_Isal_IX_EVectors@@2IA 020bd07c     VolMgr.obj
 0003:0001b07c       ?c_Nmi@Struct_Microsoft_Singularity_Isal_IX_EVectors@@2IA 020bd07c     VolMgr.obj
 0003:0001b07c       ?c_CoprocessorSegmentOverrun@Struct_Microsoft_Singularity_Isal_IX_EVectors@@2IA 020bd07c     VolMgr.obj
 0003:0001b07c       ?c_FpuMathFault@Struct_Microsoft_Singularity_Isal_IX_EVectors@@2IA 020bd07c     VolMgr.obj
 0003:0001b07c       ?c_CoprocessorNotAvailable@Struct_Microsoft_Singularity_Isal_IX_EVectors@@2IA 020bd07c     VolMgr.obj
 0003:0001b07c       ?c_SpuriousInterrupt@Struct_Microsoft_Singularity_Isal_IX_EVectors@@2IA 020bd07c     VolMgr.obj
 0003:0001b07c       ?c_DoubleFault@Struct_Microsoft_Singularity_Isal_IX_EVectors@@2IA 020bd07c     VolMgr.obj
 0003:0001b07c       ?c_SecondChanceException@Struct_Microsoft_Singularity_Isal_IX_EVectors@@2IA 020bd07c     VolMgr.obj
 0003:0001b07c       ?c_StackSegmentFault@Struct_Microsoft_Singularity_Isal_IX_EVectors@@2IA 020bd07c     VolMgr.obj
 0003:0001b07c       ?c_IllegalInstruction@Struct_Microsoft_Singularity_Isal_IX_EVectors@@2IA 020bd07c     VolMgr.obj
 0003:0001b07c       ?c_InvalidTss@Struct_Microsoft_Singularity_Isal_IX_EVectors@@2IA 020bd07c     VolMgr.obj
 0003:0001b07c       ?c_AlignmentCheck@Struct_Microsoft_Singularity_Isal_IX_EVectors@@2IA 020bd07c     VolMgr.obj
 0003:0001b07c       ?c_BoundRangeException@Struct_Microsoft_Singularity_Isal_IX_EVectors@@2IA 020bd07c     VolMgr.obj
 0003:0001b07c       ?c_MachineCheck@Struct_Microsoft_Singularity_Isal_IX_EVectors@@2IA 020bd07c     VolMgr.obj
 0003:0001b07c       ?c_SegmentNotPresent@Struct_Microsoft_Singularity_Isal_IX_EVectors@@2IA 020bd07c     VolMgr.obj
 0003:0001b07c       ?c_DebuggerBreakRequest@Struct_Microsoft_Singularity_Isal_IX_EVectors@@2IA 020bd07c     VolMgr.obj
 0003:0001b07c       ?c_GeneralProtectionFault@Struct_Microsoft_Singularity_Isal_IX_EVectors@@2IA 020bd07c     VolMgr.obj
 0003:0001b07c       ?c_SingleStep@Struct_Microsoft_Singularity_Isal_IX_EVectors@@2IA 020bd07c     VolMgr.obj
 0003:0001b07c       ?c_BaseUserException@Struct_Microsoft_Singularity_Isal_IX_EVectors@@2IA 020bd07c     VolMgr.obj
 0003:0001b07c       ?c_DivideError@Struct_Microsoft_Singularity_Isal_IX_EVectors@@2IA 020bd07c     VolMgr.obj
 0003:0001b080       ?c_MaxValue@Struct_System_DateTime@@2?AU1@A 020bd080     VolMgr.obj
 0003:0001b088       ?c_MinValue@Struct_System_DateTime@@2?AU1@A 020bd088     VolMgr.obj
 0003:0001b090       ?c_DaysToMonth366@Struct_System_DateTime@@2PAUClassVector_int32@@A 020bd090     VolMgr.obj
 0003:0001b0d4       ?c_DaysToMonth365@Struct_System_DateTime@@2PAUClassVector_int32@@A 020bd0d4     VolMgr.obj
 0003:0001b118       ?c_$_$_int64@Class_Microsoft_Singularity_Eventing_DataType@@2GA 020bd118     VolMgr.obj
 0003:0001b118       ?c_$_$_uint@Class_Microsoft_Singularity_Eventing_DataType@@2GA 020bd118     VolMgr.obj
 0003:0001b118       ?c_$_$_uint16@Class_Microsoft_Singularity_Eventing_DataType@@2GA 020bd118     VolMgr.obj
 0003:0001b118       ?c_$_$_uint64@Class_Microsoft_Singularity_Eventing_DataType@@2GA 020bd118     VolMgr.obj
 0003:0001b118       ?c_$_$_uint32@Class_Microsoft_Singularity_Eventing_DataType@@2GA 020bd118     VolMgr.obj
 0003:0001b118       ?c_$_$_int@Class_Microsoft_Singularity_Eventing_DataType@@2GA 020bd118     VolMgr.obj
 0003:0001b118       ?c_MD5$_Const@Class_Microsoft_Singularity_Crypto_MD5@@2PAUClassVector_uint32@@A 020bd118     VolMgr.obj
 0003:0001b118       ?c_$_$_byte@Class_Microsoft_Singularity_Eventing_DataType@@2GA 020bd118     VolMgr.obj
 0003:0001b118       ?c_$_$_IntPtr@Class_Microsoft_Singularity_Eventing_DataType@@2GA 020bd118     VolMgr.obj
 0003:0001b118       ?c_$_$_int8@Class_Microsoft_Singularity_Eventing_DataType@@2GA 020bd118     VolMgr.obj
 0003:0001b118       ?c_$_$_int16@Class_Microsoft_Singularity_Eventing_DataType@@2GA 020bd118     VolMgr.obj
 0003:0001b118       ?c_$_$_uint8@Class_Microsoft_Singularity_Eventing_DataType@@2GA 020bd118     VolMgr.obj
 0003:0001b118       ?c_$_$_int32@Class_Microsoft_Singularity_Eventing_DataType@@2GA 020bd118     VolMgr.obj
 0003:0001b118       ?c_$_$_string@Class_Microsoft_Singularity_Eventing_DataType@@2GA 020bd118     VolMgr.obj
 0003:0001b118       ?c_$_$_arrayType@Class_Microsoft_Singularity_Eventing_DataType@@2GA 020bd118     VolMgr.obj
 0003:0001b118       ?c_$_$_szChar@Class_Microsoft_Singularity_Eventing_DataType@@2GA 020bd118     VolMgr.obj
 0003:0001b118       ?c_$_$_UIntPtr@Class_Microsoft_Singularity_Eventing_DataType@@2GA 020bd118     VolMgr.obj
 0003:0001b228       ?c_internedStringConstants@Class_System_String@@2PAUClassVector_Class_System_String@@A 020bd228     VolMgr.obj
 0003:0002fb94       c_dataSectionEnd@Class_System_GCs_StaticData 020d1b94     VolMgr.obj
 0003:0002fce0       __fltused                  020d1ce0     native.Full:Number.obj
 0003:00030250       ?KdDebuggerNotPresent@@3HA 020d2250     native.Full:ProcessEntry.obj
 0003:00030254       ?TracingStorageHandle@@3PAUuintPtr@@A 020d2254     native.Full:Tracing.obj
 0003:00030258       ?TracingSource@@3PAU_SOURCE_DESCRIPTOR@@A 020d2258     native.Full:Tracing.obj
 0003:0003025c       ?TracingTypeHandle@@3PAUuintPtr@@A 020d225c     native.Full:Tracing.obj
 0003:00030260       ?SourceController@@3U_SOURCE_CONTROLLER@@A 020d2260     native.Full:EventController.obj
 0003:0003027c       ?Handle_GC_TYPE@@3PAUuintPtr@@A 020d227c     native.Full:EventDescriptor.obj
 0003:00030280       ?Handle_MEMORY_HEADER@@3PAUuintPtr@@A 020d2280     native.Full:EventDescriptor.obj
 0003:00030284       ?Handle_GC_FUNCTION@@3PAUuintPtr@@A 020d2284     native.Full:EventDescriptor.obj
 0003:00030288       ?Handle_GC_STACK@@3PAUuintPtr@@A 020d2288     native.Full:EventDescriptor.obj
 0003:0003028c       ?Handle_GC_OBJECT@@3PAUuintPtr@@A 020d228c     native.Full:EventDescriptor.obj
 0003:00030290       ?Handle_LOG_EXCEPTION@@3PAUuintPtr@@A 020d2290     native.Full:EventDescriptor.obj
 0003:00030294       ?Handle_GC_ALLOCATION@@3PAUuintPtr@@A 020d2294     native.Full:EventDescriptor.obj
 0003:00030298       ?Handle_GC_GENERATIONS@@3PAUuintPtr@@A 020d2298     native.Full:EventDescriptor.obj
 0003:0003029c       ?Handle_LOG_SEVERITY@@3PAUuintPtr@@A 020d229c     native.Full:EventDescriptor.obj
 0003:000302a0       ?Handle_MONITORING_ENTRY@@3PAUuintPtr@@A 020d22a0     native.Full:EventDescriptor.obj
 0003:000302a4       ?Handle_GC_ROOTS@@3PAUuintPtr@@A 020d22a4     native.Full:EventDescriptor.obj
 0003:000302a8       ?Handle_LEGACY_LOG_ENTRY@@3PAUuintPtr@@A 020d22a8     native.Full:EventDescriptor.obj
 0003:000302ac       ?Handle_GC_INTERVAL@@3PAUuintPtr@@A 020d22ac     native.Full:EventDescriptor.obj
 0003:000302b0       ?MonitoringStorageHandle@@3PAUuintPtr@@A 020d22b0     native.Full:Monitoring.obj
 0003:000302b4       ?MonitoringSource@@3PAU_SOURCE_DESCRIPTOR@@A 020d22b4     native.Full:Monitoring.obj
 0003:000302b8       ?MonitoringTypeHandle@@3PAUuintPtr@@A 020d22b8     native.Full:Monitoring.obj
 0004:00000000       ___xc_a                    020d3000     native.Full:CInit.obj
 0004:00000004       ___xc_z                    020d3004     native.Full:CInit.obj
 0004:00000008       ___xi_a                    020d3008     native.Full:CInit.obj
 0004:0000000c       ___xi_z                    020d300c     native.Full:CInit.obj
 0004:00000010       ___xp_a                    020d3010     native.Full:CInit.obj
 0004:00000014       ___xp_z                    020d3014     native.Full:CInit.obj
 0004:00000018       ___xt_a                    020d3018     native.Full:CInit.obj
 0004:0000001c       ___xt_z                    020d301c     native.Full:CInit.obj

 entry point at        0000:00000000

 Static symbols

 0001:000868a0       ?dtold12@@YIXPAU_LDBL12@@PBN@Z 020878a0 f   native.Full:Number.obj
 0001:00086970       ?ld12mul@@YIXPAU_LDBL12@@0@Z 02087970 f   native.Full:Number.obj
 0001:00086c30       ?multtenpow12@@YIXPAU_LDBL12@@H@Z 02087c30 f   native.Full:Number.obj
 0001:00087ed0       ?LookupTable@@YIIIPAPAUExceptionTableEntry@@0@Z 02088ed0 f   native.Full:halexn.obj
