; Listing generated by Microsoft (R) Optimizing Compiler Version 14.00.50727.762 

	TITLE	C:\Users\cc\source\repos\Singularity-OS\base\Kernel\Native\IoPort.cpp
	.686P
	.XMM
	include listing.inc
	.model	flat

INCLUDELIB LIBCMT
INCLUDELIB OLDNAMES

PUBLIC	?g_HalReadInt8@Class_Microsoft_Singularity_Io_IoPort@@SIEI@Z ; Class_Microsoft_Singularity_Io_IoPort::g_HalReadInt8
; Function compile flags: /Ogtp
; File c:\users\cc\source\repos\singularity-os\base\kernel\native\ioport.cpp
;	COMDAT ?g_HalReadInt8@Class_Microsoft_Singularity_Io_IoPort@@SIEI@Z
_TEXT	SEGMENT
?g_HalReadInt8@Class_Microsoft_Singularity_Io_IoPort@@SIEI@Z PROC ; Class_Microsoft_Singularity_Io_IoPort::g_HalReadInt8, COMDAT
; _port$ = ecx

; 24   : #if ISA_IX86 || ISA_IX64
; 25   :     return __inbyte(port);

  00000	66 8b d1	 mov	 dx, cx
  00003	ec		 in	 al, dx

; 26   : #else
; 27   :     __debugbreak();
; 28   :     return 0;
; 29   : #endif
; 30   : }

  00004	c3		 ret	 0
?g_HalReadInt8@Class_Microsoft_Singularity_Io_IoPort@@SIEI@Z ENDP ; Class_Microsoft_Singularity_Io_IoPort::g_HalReadInt8
_TEXT	ENDS
PUBLIC	?g_HalReadInt16@Class_Microsoft_Singularity_Io_IoPort@@SIGI@Z ; Class_Microsoft_Singularity_Io_IoPort::g_HalReadInt16
; Function compile flags: /Ogtp
;	COMDAT ?g_HalReadInt16@Class_Microsoft_Singularity_Io_IoPort@@SIGI@Z
_TEXT	SEGMENT
?g_HalReadInt16@Class_Microsoft_Singularity_Io_IoPort@@SIGI@Z PROC ; Class_Microsoft_Singularity_Io_IoPort::g_HalReadInt16, COMDAT
; _port$ = ecx

; 34   : #if ISA_IX86 || ISA_IX64
; 35   :     return __inword(port);

  00000	66 8b d1	 mov	 dx, cx
  00003	66 ed		 in	 ax, dx

; 36   : #else
; 37   :     __debugbreak();
; 38   :     return 0;
; 39   : #endif
; 40   : }

  00005	c3		 ret	 0
?g_HalReadInt16@Class_Microsoft_Singularity_Io_IoPort@@SIGI@Z ENDP ; Class_Microsoft_Singularity_Io_IoPort::g_HalReadInt16
_TEXT	ENDS
PUBLIC	?g_HalReadInt32@Class_Microsoft_Singularity_Io_IoPort@@SIII@Z ; Class_Microsoft_Singularity_Io_IoPort::g_HalReadInt32
; Function compile flags: /Ogtp
;	COMDAT ?g_HalReadInt32@Class_Microsoft_Singularity_Io_IoPort@@SIII@Z
_TEXT	SEGMENT
?g_HalReadInt32@Class_Microsoft_Singularity_Io_IoPort@@SIII@Z PROC ; Class_Microsoft_Singularity_Io_IoPort::g_HalReadInt32, COMDAT
; _port$ = ecx

; 44   : #if ISA_IX86 || ISA_IX64
; 45   :     return __indword(port);

  00000	66 8b d1	 mov	 dx, cx
  00003	ed		 in	 eax, dx

; 46   : #else
; 47   :     __debugbreak();
; 48   :     return 0;
; 49   : #endif
; 50   : }

  00004	c3		 ret	 0
?g_HalReadInt32@Class_Microsoft_Singularity_Io_IoPort@@SIII@Z ENDP ; Class_Microsoft_Singularity_Io_IoPort::g_HalReadInt32
_TEXT	ENDS
PUBLIC	?g_HalWriteInt8@Class_Microsoft_Singularity_Io_IoPort@@SIXIE@Z ; Class_Microsoft_Singularity_Io_IoPort::g_HalWriteInt8
; Function compile flags: /Ogtp
;	COMDAT ?g_HalWriteInt8@Class_Microsoft_Singularity_Io_IoPort@@SIXIE@Z
_TEXT	SEGMENT
?g_HalWriteInt8@Class_Microsoft_Singularity_Io_IoPort@@SIXIE@Z PROC ; Class_Microsoft_Singularity_Io_IoPort::g_HalWriteInt8, COMDAT
; _port$ = ecx
; _value$ = dl

; 54   : {

  00000	8a c2		 mov	 al, dl

; 55   : #if ISA_IX86 || ISA_IX64
; 56   :     __outbyte(port, value);

  00002	66 8b d1	 mov	 dx, cx
  00005	ee		 out	 dx, al

; 57   : #else
; 58   :     __debugbreak();
; 59   : #endif
; 60   : }

  00006	c3		 ret	 0
?g_HalWriteInt8@Class_Microsoft_Singularity_Io_IoPort@@SIXIE@Z ENDP ; Class_Microsoft_Singularity_Io_IoPort::g_HalWriteInt8
_TEXT	ENDS
PUBLIC	?g_HalWriteInt16@Class_Microsoft_Singularity_Io_IoPort@@SIXIG@Z ; Class_Microsoft_Singularity_Io_IoPort::g_HalWriteInt16
; Function compile flags: /Ogtp
;	COMDAT ?g_HalWriteInt16@Class_Microsoft_Singularity_Io_IoPort@@SIXIG@Z
_TEXT	SEGMENT
?g_HalWriteInt16@Class_Microsoft_Singularity_Io_IoPort@@SIXIG@Z PROC ; Class_Microsoft_Singularity_Io_IoPort::g_HalWriteInt16, COMDAT
; _port$ = ecx
; _value$ = dx

; 64   : {

  00000	66 8b c2	 mov	 ax, dx

; 65   : #if ISA_IX86 || ISA_IX64
; 66   :     __outword(port, value);

  00003	66 8b d1	 mov	 dx, cx
  00006	66 ef		 out	 dx, ax

; 67   : #else
; 68   :     __debugbreak();
; 69   : #endif
; 70   : }

  00008	c3		 ret	 0
?g_HalWriteInt16@Class_Microsoft_Singularity_Io_IoPort@@SIXIG@Z ENDP ; Class_Microsoft_Singularity_Io_IoPort::g_HalWriteInt16
_TEXT	ENDS
PUBLIC	?g_HalWriteInt32@Class_Microsoft_Singularity_Io_IoPort@@SIXII@Z ; Class_Microsoft_Singularity_Io_IoPort::g_HalWriteInt32
; Function compile flags: /Ogtp
;	COMDAT ?g_HalWriteInt32@Class_Microsoft_Singularity_Io_IoPort@@SIXII@Z
_TEXT	SEGMENT
?g_HalWriteInt32@Class_Microsoft_Singularity_Io_IoPort@@SIXII@Z PROC ; Class_Microsoft_Singularity_Io_IoPort::g_HalWriteInt32, COMDAT
; _port$ = ecx
; _value$ = edx

; 74   : {

  00000	8b c2		 mov	 eax, edx

; 75   : #if ISA_IX86 || ISA_IX64
; 76   :     __outdword(port, value);

  00002	66 8b d1	 mov	 dx, cx
  00005	ef		 out	 dx, eax

; 77   : #else
; 78   :     __debugbreak();
; 79   : #endif
; 80   : }

  00006	c3		 ret	 0
?g_HalWriteInt32@Class_Microsoft_Singularity_Io_IoPort@@SIXII@Z ENDP ; Class_Microsoft_Singularity_Io_IoPort::g_HalWriteInt32
_TEXT	ENDS
END
