 kernel

 Timestamp is 62167134 (Wed Feb 23 18:39:00 2022)

 Preferred load address is 00c10000

 Start         Length     Name                   Class
 0001:00000000 001cca23H .text                   CODE
 0002:00000000 00059ef5H .rdata                  DATA
 0002:00059f00 00005e4fH .edata                  DATA
 0002:0005fd50 00000086H .rdata$debug            DATA
 0003:00000000 000948a8H .data                   DATA
 0003:000948a8 00005cecH .bss                    DATA
 0004:00000000 00000004H .CRT$XCA                DATA
 0004:00000004 00000004H .CRT$XCZ                DATA
 0004:00000008 00000004H .CRT$XIA                DATA
 0004:0000000c 00000004H .CRT$XIZ                DATA
 0004:00000010 00000004H .CRT$XPA                DATA
 0004:00000014 00000004H .CRT$XPZ                DATA
 0004:00000018 00000004H .CRT$XTA                DATA
 0004:0000001c 00000004H .CRT$XTZ                DATA

  Address         Publics by Value              Rva+Base       Lib:Object

 0000:00000000       ___safe_se_handler_table   00000000     <absolute>
 0000:00000000       ___safe_se_handler_count   00000000     <absolute>
 0001:00000000       ?m_StructCopy@Struct_Microsoft_Singularity_Directory_DirectoryServiceContract_NakQueryACL@@SIXPAU1@0@Z 00c11000 f   kernel.obj
 0001:00000000       C:\Users\cc\source\repos\Singularity-OS\base.obj\Kernel\Debug.x86.ApicMP.Min.Concurrent.native\kernel_CodeBase 00c11000     kernel.obj
 0001:00000020       ?m_StructCopy@Struct_Microsoft_Singularity_Directory_DirectoryServiceContract_NakQueryACL@@SIXPAU1@PAU1@@Z 00c11020 f   kernel.obj
 0001:00000080       ?m_MarshallContent@Struct_Microsoft_Singularity_Directory_DirectoryServiceContract_NakQueryACL@@SIXPAU1@PAEPAUStruct_Microsoft_Singularity_Channels_Endpoint@@1PAH@Z 00c11080 f   kernel.obj
 0001:000000a0       ?m_MarshallAll@Struct_Microsoft_Singularity_Directory_DirectoryServiceContract_NakQueryACL@@SIXPAU1@PAEPAUStruct_Microsoft_Singularity_Channels_Endpoint@@PAH@Z 00c110a0 f   kernel.obj
 0001:000000f0       ?m_Equals@Struct_Microsoft_Singularity_Directory_DirectoryServiceContract_NakQueryACL@@SI_NPAU1@PAUClass_System_Object@@@Z 00c110f0 f   kernel.obj
 0001:00000178       ?m_Equals@Struct_Microsoft_Singularity_Directory_DirectoryServiceContract_NakQueryACL@@SI_NPAUClass_Microsoft_Singularity_Directory_DirectoryServiceContract_NakQueryACL@@PAUClass_System_Object@@@Z 00c11178 f   kernel.obj
 0001:0000019c       ?m_StructCopy@Struct_Microsoft_Singularity_Diagnostics_Contracts_MemoryContract_ProcessUsedCommunicationHeap@@SIXPAU1@0@Z 00c1119c f   kernel.obj
 0001:000001bc       ?m_StructCopy@Struct_Microsoft_Singularity_Diagnostics_Contracts_MemoryContract_ProcessUsedCommunicationHeap@@SIXPAU1@PAU1@@Z 00c111bc f   kernel.obj
 0001:0000021c       ?m_Equals@Struct_Microsoft_Singularity_Diagnostics_Contracts_MemoryContract_ProcessUsedCommunicationHeap@@SI_NPAU1@PAUClass_System_Object@@@Z 00c1121c f   kernel.obj
 0001:00000258       ?m_Equals@Struct_Microsoft_Singularity_Diagnostics_Contracts_MemoryContract_ProcessUsedCommunicationHeap@@SI_NPAUClass_Microsoft_Singularity_Diagnostics_Contracts_MemoryContract_ProcessUsedCommunicationHeap@@PAUClass_System_Object@@@Z 00c11258 f   kernel.obj
 0001:0000027c       ?g_Create@Class_Microsoft_Singularity_Hal_Acpi_Nmi@@SIPAUClass_System_Object@@PAUClass_Microsoft_Singularity_Io_IoMemory@@H@Z 00c1127c f   kernel.obj
 0001:000002c0       ?m__ctor@Class_Microsoft_Singularity_Hal_Acpi_Nmi@@SIXPAU1@PAUClass_Microsoft_Singularity_Io_IoMemory@@H@Z 00c112c0 f   kernel.obj
 0001:00000494       ?m_InvokeStaticStub@Class_Microsoft_Singularity_ProcessStart@@SIHPAU1@PAUClassVector_Class_System_String@@@Z 00c11494 f   kernel.obj
 0001:000004b4       ?m_Invoke@Class_Microsoft_Singularity_ProcessStart@@SIHPAU1@PAUClassVector_Class_System_String@@@Z 00c114b4 f   kernel.obj
 0001:000004d4       ?m_EndInvoke@Class_Microsoft_Singularity_ProcessStart@@SIHPAU1@PAUClass_System_IAsyncResult@@@Z 00c114d4 f   kernel.obj
 0001:000004f0       ?m_BeginInvoke@Class_Microsoft_Singularity_ProcessStart@@SIPAUClass_System_IAsyncResult@@PAU1@PAUClassVector_Class_System_String@@PAUClass_System_AsyncCallback@@PAUClass_System_Object@@@Z 00c114f0 f   kernel.obj
 0001:00000510       ?m__ctor@Class_Microsoft_Singularity_ProcessStart@@SIXPAU1@PAUClass_System_Object@@PAUintPtr@@@Z 00c11510 f   kernel.obj
 0001:00000578       ?m_InvokeStaticStub@Class_Microsoft_Singularity_Io_IoDeviceCreate@@SIPAUClass_Microsoft_Singularity_Io_IDevice@@PAU1@PAUClass_Microsoft_Singularity_Io_IoConfig@@PAUClass_System_String@@@Z 00c11578 f   kernel.obj
 0001:000005b0       ?m_Invoke@Class_Microsoft_Singularity_Io_IoDeviceCreate@@SIPAUClass_Microsoft_Singularity_Io_IDevice@@PAU1@PAUClass_Microsoft_Singularity_Io_IoConfig@@PAUClass_System_String@@@Z 00c115b0 f   kernel.obj
 0001:000005fc       ?m_EndInvoke@Class_Microsoft_Singularity_Io_IoDeviceCreate@@SIPAUClass_Microsoft_Singularity_Io_IDevice@@PAU1@PAUClass_System_IAsyncResult@@@Z 00c115fc f   kernel.obj
 0001:00000618       ?m_BeginInvoke@Class_Microsoft_Singularity_Io_IoDeviceCreate@@SIPAUClass_System_IAsyncResult@@PAU1@PAUClass_Microsoft_Singularity_Io_IoConfig@@PAUClass_System_String@@PAUClass_System_AsyncCallback@@PAUClass_System_Object@@@Z 00c11618 f   kernel.obj
 0001:00000638       ?m__ctor@Class_Microsoft_Singularity_Io_IoDeviceCreate@@SIXPAU1@PAUClass_System_Object@@PAUintPtr@@@Z 00c11638 f   kernel.obj
 0001:0000067c       ?m_StructCopy@Struct_Microsoft_Singularity_Directory_DirectoryServiceContract_AckDeleteLink@@SIXPAU1@0@Z 00c1167c f   kernel.obj
 0001:00000698       ?m_StructCopy@Struct_Microsoft_Singularity_Directory_DirectoryServiceContract_AckDeleteLink@@SIXPAU1@PAU1@@Z 00c11698 f   kernel.obj
 0001:000006ec       ?m_MarshallContent@Struct_Microsoft_Singularity_Directory_DirectoryServiceContract_AckDeleteLink@@SIXPAU1@PAEPAUStruct_Microsoft_Singularity_Channels_Endpoint@@1PAH@Z 00c116ec f   kernel.obj
 0001:0000070c       ?m_MarshallAll@Struct_Microsoft_Singularity_Directory_DirectoryServiceContract_AckDeleteLink@@SIXPAU1@PAEPAUStruct_Microsoft_Singularity_Channels_Endpoint@@PAH@Z 00c1170c f   kernel.obj
 0001:0000075c       ?m_Equals@Struct_Microsoft_Singularity_Directory_DirectoryServiceContract_AckDeleteLink@@SI_NPAU1@PAUClass_System_Object@@@Z 00c1175c f   kernel.obj
 0001:00000790       ?m_Equals@Struct_Microsoft_Singularity_Directory_DirectoryServiceContract_AckDeleteLink@@SI_NPAUClass_Microsoft_Singularity_Directory_DirectoryServiceContract_AckDeleteLink@@PAUClass_System_Object@@@Z 00c11790 f   kernel.obj
 0001:000007b4       ?m__ctor@Class_System_LocalDataStoreMgr@@SIXPAU1@@Z 00c117b4 f   kernel.obj
 0001:00000854       ?g_Write@Class_System_Text_RegularExpressions_RegexWriter@@SIPAUClass_System_Text_RegularExpressions_RegexCode@@PAUClass_System_Text_RegularExpressions_RegexTree@@@Z 00c11854 f   kernel.obj
 0001:000008ac       ?m_StringCode@Class_System_Text_RegularExpressions_RegexWriter@@SIHPAU1@PAUClass_System_String@@@Z 00c118ac f   kernel.obj
 0001:000009b0       ?m_RegexCodeFromRegexTree@Class_System_Text_RegularExpressions_RegexWriter@@SIPAUClass_System_Text_RegularExpressions_RegexCode@@PAU1@PAUClass_System_Text_RegularExpressions_RegexTree@@@Z 00c119b0 f   kernel.obj
 0001:00000e10       ?m_PushInt@Class_System_Text_RegularExpressions_RegexWriter@@SIXPAU1@H@Z 00c11e10 f   kernel.obj
 0001:00000e9c       ?m_PopInt@Class_System_Text_RegularExpressions_RegexWriter@@SIHPAU1@@Z 00c11e9c f   kernel.obj
 0001:00000ed0       ?m_PatchJump@Class_System_Text_RegularExpressions_RegexWriter@@SIXPAU1@HH@Z 00c11ed0 f   kernel.obj
 0001:00000f08       ?m_MapCapnum@Class_System_Text_RegularExpressions_RegexWriter@@SIHPAU1@H@Z 00c11f08 f   kernel.obj
 0001:00000f74       ?m_MakeException@Class_System_Text_RegularExpressions_RegexWriter@@SIPAUClass_System_ArgumentException@@PAU1@PAUClass_System_String@@@Z 00c11f74 f   kernel.obj
 0001:00000fb0       ?m_EmptyStack@Class_System_Text_RegularExpressions_RegexWriter@@SI_NPAU1@@Z 00c11fb0 f   kernel.obj
 0001:00000fd0       ?m_EmitFragment@Class_System_Text_RegularExpressions_RegexWriter@@SIXPAU1@HPAUClass_System_Text_RegularExpressions_RegexNode@@H@Z 00c11fd0 f   kernel.obj
 0001:00001840       ?m_Emit@Class_System_Text_RegularExpressions_RegexWriter@@SIXPAU1@H@Z 00c12840 f   kernel.obj
 0001:000018a4       ?m_Emit@Class_System_Text_RegularExpressions_RegexWriter@@SIXPAU1@HH@Z 00c128a4 f   kernel.obj
 0001:00001924       ?m_Emit@Class_System_Text_RegularExpressions_RegexWriter@@SIXPAU1@HHH@Z 00c12924 f   kernel.obj
 0001:000019c0       ?m_Emit@Class_System_Text_RegularExpressions_RegexWriter@@SIXPAU1@HHHH@Z 00c129c0 f   kernel.obj
 0001:00001a74       ?m_CurPos@Class_System_Text_RegularExpressions_RegexWriter@@SIHPAU1@@Z 00c12a74 f   kernel.obj
 0001:00001a90       ?m__ctor@Class_System_Text_RegularExpressions_RegexWriter@@SIXPAU1@@Z 00c12a90 f   kernel.obj
 0001:00001b44       ?m_TransferContentsOwnership@Struct_Microsoft_Singularity_Directory_FileAttributesRecord@@SIXPAU1@PAUStruct_Microsoft_Singularity_Channels_Endpoint@@@Z 00c12b44 f   kernel.obj
 0001:00001b60       ?m_StructCopy@Struct_Microsoft_Singularity_Directory_FileAttributesRecord@@SIXPAU1@0@Z 00c12b60 f   kernel.obj
 0001:00001bb8       ?m_StructCopy@Struct_Microsoft_Singularity_Directory_FileAttributesRecord@@SIXPAU1@PAU1@@Z 00c12bb8 f   kernel.obj
 0001:00001cc0       ?m_MarshallContent@Struct_Microsoft_Singularity_Directory_FileAttributesRecord@@SIXPAU1@PAEPAUStruct_Microsoft_Singularity_Channels_Endpoint@@1@Z 00c12cc0 f   kernel.obj
 0001:00001ce0       ?m_Equals@Struct_Microsoft_Singularity_Directory_FileAttributesRecord@@SI_NPAU1@PAUClass_System_Object@@@Z 00c12ce0 f   kernel.obj
 0001:00001df4       ?m_Equals@Struct_Microsoft_Singularity_Directory_FileAttributesRecord@@SI_NPAUClass_Microsoft_Singularity_Directory_FileAttributesRecord@@PAUClass_System_Object@@@Z 00c12df4 f   kernel.obj
 0001:00001e18       ?m_StructCopy@Struct_Microsoft_Singularity_Directory_DirectoryServiceContract_AckDeleteFile@@SIXPAU1@0@Z 00c12e18 f   kernel.obj
 0001:00001e34       ?m_StructCopy@Struct_Microsoft_Singularity_Directory_DirectoryServiceContract_AckDeleteFile@@SIXPAU1@PAU1@@Z 00c12e34 f   kernel.obj
 0001:00001e88       ?m_MarshallContent@Struct_Microsoft_Singularity_Directory_DirectoryServiceContract_AckDeleteFile@@SIXPAU1@PAEPAUStruct_Microsoft_Singularity_Channels_Endpoint@@1PAH@Z 00c12e88 f   kernel.obj
 0001:00001ea8       ?m_MarshallAll@Struct_Microsoft_Singularity_Directory_DirectoryServiceContract_AckDeleteFile@@SIXPAU1@PAEPAUStruct_Microsoft_Singularity_Channels_Endpoint@@PAH@Z 00c12ea8 f   kernel.obj
 0001:00001ef8       ?m_Equals@Struct_Microsoft_Singularity_Directory_DirectoryServiceContract_AckDeleteFile@@SI_NPAU1@PAUClass_System_Object@@@Z 00c12ef8 f   kernel.obj
 0001:00001f2c       ?m_Equals@Struct_Microsoft_Singularity_Directory_DirectoryServiceContract_AckDeleteFile@@SI_NPAUClass_Microsoft_Singularity_Directory_DirectoryServiceContract_AckDeleteFile@@PAUClass_System_Object@@@Z 00c12f2c f   kernel.obj
 0001:00001f50       ?m_get$_Value@Class_Microsoft_Singularity_Hal_Acpi_StackIR_PushConst@@SIPAUClass_Microsoft_Singularity_Hal_Acpi_AcpiObject_AcpiObject@@PAU1@@Z 00c12f50 f   kernel.obj
 0001:00001f6c       ?m_Accept@Class_Microsoft_Singularity_Hal_Acpi_StackIR_PushConst@@SIXPAU1@PAUClass_Microsoft_Singularity_Hal_Acpi_InterpretStepVisitor@@@Z 00c12f6c f   kernel.obj
 0001:00001f98       ?m__ctor@Class_Microsoft_Singularity_Hal_Acpi_StackIR_PushConst@@SIXPAU1@PAUClass_Microsoft_Singularity_Hal_Acpi_AcpiObject_AcpiObject@@@Z 00c12f98 f   kernel.obj
 0001:00001fcc       ?m_WriteRtc@Class_Microsoft_Singularity_Hal_RTClockLegacyPC@@SIXPAU1@EE@Z 00c12fcc f   kernel.obj
 0001:0000214c       ?m_UpdateInProgress@Class_Microsoft_Singularity_Hal_RTClockLegacyPC@@SI_NPAU1@@Z 00c1314c f   kernel.obj
 0001:0000217c       ?m_Start@Class_Microsoft_Singularity_Hal_RTClockLegacyPC@@SIXPAU1@@Z 00c1317c f   kernel.obj
 0001:000021d8       ?m_SetNoisyTimer@Class_Microsoft_Singularity_Hal_RTClockLegacyPC@@SIXPAU1@_N@Z 00c131d8 f   kernel.obj
 0001:000021f8       ?m_ReleaseResources@Class_Microsoft_Singularity_Hal_RTClockLegacyPC@@SIXPAU1@@Z 00c131f8 f   kernel.obj
 0001:00002220       ?m_ReadRtc@Class_Microsoft_Singularity_Hal_RTClockLegacyPC@@SIEPAU1@E@Z 00c13220 f   kernel.obj
 0001:000023b4       ?m_PullRtcTime@Class_Microsoft_Singularity_Hal_RTClockLegacyPC@@SI?AUStruct_System_DateTime@@PAU1@@Z 00c133b4 f   kernel.obj
 0001:00002ce4       ?m_InternalGetKernelTicks@Class_Microsoft_Singularity_Hal_RTClockLegacyPC@@SI_JPAU1@@Z 00c13ce4 f   kernel.obj
 0001:00002d60       ?m_InitializeFastTime@Class_Microsoft_Singularity_Hal_RTClockLegacyPC@@SI_NPAU1@@Z 00c13d60 f   kernel.obj
 0001:00002dfc       ?m_Initialize@Class_Microsoft_Singularity_Hal_RTClockLegacyPC@@SIEPAU1@@Z 00c13dfc f   kernel.obj
 0001:00002ef8       ?m_GetRtcTime@Class_Microsoft_Singularity_Hal_RTClockLegacyPC@@SI_JPAU1@@Z 00c13ef8 f   kernel.obj
 0001:00002f30       ?m_GetKernelTicksFromTsc@Class_Microsoft_Singularity_Hal_RTClockLegacyPC@@SI_JPAU1@@Z 00c13f30 f   kernel.obj
 0001:00002fe0       ?m_GetKernelTicksFromHW@Class_Microsoft_Singularity_Hal_RTClockLegacyPC@@SI_JPAU1@@Z 00c13fe0 f   kernel.obj
 0001:0000306c       ?m_GetKernelTicks@Class_Microsoft_Singularity_Hal_RTClockLegacyPC@@SI_JPAU1@@Z 00c1406c f   kernel.obj
 0001:0000310c       ?m_CpuResumeFromHaltEvent@Class_Microsoft_Singularity_Hal_RTClockLegacyPC@@SIXPAU1@@Z 00c1410c f   kernel.obj
 0001:00003128       ?m_ClearInterrupt@Class_Microsoft_Singularity_Hal_RTClockLegacyPC@@SIXPAU1@@Z 00c14128 f   kernel.obj
 0001:000031d8       ?g_BcdToHex@Class_Microsoft_Singularity_Hal_RTClockLegacyPC@@SIEE@Z 00c141d8 f   kernel.obj
 0001:00003204       ?m__ctor@Class_Microsoft_Singularity_Hal_RTClockLegacyPC@@SIXPAU1@PAUClass_Microsoft_Singularity_Io_PnpConfig@@PAUClass_Microsoft_Singularity_Hal_Pic@@PAUClass_Microsoft_Singularity_Hal_Timer8254LegacyPC@@@Z 00c14204 f   kernel.obj
 0001:0000332c       ?m_MoveNext@Class_System_Collections_Hashtable_HashtableEnumerator@@SI_NPAU1@@Z 00c1432c f   kernel.obj
 0001:000033f4       ?m_get$_Value@Class_System_Collections_Hashtable_HashtableEnumerator@@SIPAUClass_System_Object@@PAU1@@Z 00c143f4 f   kernel.obj
 0001:00003468       ?m_get$_Key@Class_System_Collections_Hashtable_HashtableEnumerator@@SIPAUClass_System_Object@@PAU1@@Z 00c14468 f   kernel.obj
 0001:000034dc       ?m_get$_Current@Class_System_Collections_Hashtable_HashtableEnumerator@@SIPAUClass_System_Object@@PAU1@@Z 00c144dc f   kernel.obj
 0001:00003584       ?m__ctor@Class_System_Collections_Hashtable_HashtableEnumerator@@SIXPAU1@PAUClass_System_Collections_Hashtable@@H@Z 00c14584 f   kernel.obj
 0001:000035d0       ?m_StructCopy@Struct_Microsoft_Singularity_Memory_HandleTable_HandlePage@@SIXPAU1@0@Z 00c145d0 f   kernel.obj
 0001:000035f8       ?m_StructCopy@Struct_Microsoft_Singularity_Memory_HandleTable_HandlePage@@SIXPAU1@PAU1@@Z 00c145f8 f   kernel.obj
 0001:00003670       ?m_SetTable@Struct_Microsoft_Singularity_Memory_HandleTable_HandlePage@@SIXPAU1@PAUClass_Microsoft_Singularity_Memory_HandleTable@@@Z 00c14670 f   kernel.obj
 0001:00003690       ?m_Equals@Struct_Microsoft_Singularity_Memory_HandleTable_HandlePage@@SI_NPAU1@PAUClass_System_Object@@@Z 00c14690 f   kernel.obj
 0001:000036dc       ?m_Equals@Struct_Microsoft_Singularity_Memory_HandleTable_HandlePage@@SI_NPAUClass_Microsoft_Singularity_Memory_HandleTable_HandlePage@@PAUClass_System_Object@@@Z 00c146dc f   kernel.obj
 0001:00003700       ?m_StructCopy@Struct_Microsoft_Singularity_Directory_DirectoryServiceContract_NakNotifyReparse@@SIXPAU1@0@Z 00c14700 f   kernel.obj
 0001:00003734       ?m_StructCopy@Struct_Microsoft_Singularity_Directory_DirectoryServiceContract_NakNotifyReparse@@SIXPAU1@PAU1@@Z 00c14734 f   kernel.obj
 0001:000037d0       ?m_MarshallContent@Struct_Microsoft_Singularity_Directory_DirectoryServiceContract_NakNotifyReparse@@SIXPAU1@PAEPAUStruct_Microsoft_Singularity_Channels_Endpoint@@1PAH@Z 00c147d0 f   kernel.obj
 0001:00003980       ?m_MarshallAll@Struct_Microsoft_Singularity_Directory_DirectoryServiceContract_NakNotifyReparse@@SIXPAU1@PAEPAUStruct_Microsoft_Singularity_Channels_Endpoint@@PAH@Z 00c14980 f   kernel.obj
 0001:000039d0       ?m_Equals@Struct_Microsoft_Singularity_Directory_DirectoryServiceContract_NakNotifyReparse@@SI_NPAU1@PAUClass_System_Object@@@Z 00c149d0 f   kernel.obj
 0001:00003a2c       ?m_Equals@Struct_Microsoft_Singularity_Directory_DirectoryServiceContract_NakNotifyReparse@@SI_NPAUClass_Microsoft_Singularity_Directory_DirectoryServiceContract_NakNotifyReparse@@PAUClass_System_Object@@@Z 00c14a2c f   kernel.obj
 0001:00003a50       ?m_Run@Class_Microsoft_Singularity_Stress_StressService@@SIXPAU1@@Z 00c14a50 f   kernel.obj
 0001:00003fbc       ?g_Initialize@Class_Microsoft_Singularity_Stress_StressService@@SIXXZ 00c14fbc f   kernel.obj
 0001:0000404c       ?m__ctor@Class_Microsoft_Singularity_Stress_StressService@@SIXPAU1@@Z 00c1504c f   kernel.obj
 0001:00004064       ?g__cctor@Class_Microsoft_Singularity_Stress_StressService@@SIXXZ 00c15064 f   kernel.obj
 0001:0000419c       ?m__ctor@Class_Microsoft_Singularity_KernelDebugger_KdFilesNamespace_ServiceThread_DirectoryState@@SIXPAU1@PAUClass_System_String@@@Z 00c1519c f   kernel.obj
 0001:000041c4       ?m_NotifyCreateNodeAt@Class_Microsoft_Singularity_Hal_Acpi_AmlStackFrame@@SIXPAU1@PAUClass_Microsoft_Singularity_Hal_Acpi_AcpiNamespace_NodePath@@PAUClass_Microsoft_Singularity_Hal_Acpi_AcpiNamespace_Node@@@Z 00c151c4 f   kernel.obj
 0001:000041f0       ?m_JumpTo@Class_Microsoft_Singularity_Hal_Acpi_AmlStackFrame@@SIXPAU1@H@Z 00c151f0 f   kernel.obj
 0001:00004210       ?m_GetNextInstruction@Class_Microsoft_Singularity_Hal_Acpi_AmlStackFrame@@SIPAUClass_Microsoft_Singularity_Hal_Acpi_StackIR_StackIRNode@@PAU1@@Z 00c15210 f   kernel.obj
 0001:00004240       ?m_GetLocal@Class_Microsoft_Singularity_Hal_Acpi_AmlStackFrame@@SIPAUClass_Microsoft_Singularity_Hal_Acpi_VariableIoLocation@@PAU1@H@Z 00c15240 f   kernel.obj
 0001:00004270       ?m_GetArgument@Class_Microsoft_Singularity_Hal_Acpi_AmlStackFrame@@SIPAUClass_Microsoft_Singularity_Hal_Acpi_VariableIoLocation@@PAU1@H@Z 00c15270 f   kernel.obj
 0001:000042a0       ?m_Dispose@Class_Microsoft_Singularity_Hal_Acpi_AmlStackFrame@@SIXPAU1@@Z 00c152a0 f   kernel.obj
 0001:00004394       ?m_AdvanceInstruction@Class_Microsoft_Singularity_Hal_Acpi_AmlStackFrame@@SIXPAU1@@Z 00c15394 f   kernel.obj
 0001:000043b8       ?m__ctor@Class_Microsoft_Singularity_Hal_Acpi_AmlStackFrame@@SIXPAU1@PAUClassVector_Class_Microsoft_Singularity_Hal_Acpi_StackIR_StackIRNode@@PAUClassVector_Class_Microsoft_Singularity_Hal_Acpi_AcpiObject_AcpiObject@@@Z 00c153b8 f   kernel.obj
 0001:0000467c       ?m_StructCopy@Struct_Microsoft_Singularity_Io_ChannelDeliveryContract_Ready@@SIXPAU1@0@Z 00c1567c f   kernel.obj
 0001:00004698       ?m_StructCopy@Struct_Microsoft_Singularity_Io_ChannelDeliveryContract_Ready@@SIXPAU1@PAU1@@Z 00c15698 f   kernel.obj
 0001:000046ec       ?m_MarshallContent@Struct_Microsoft_Singularity_Io_ChannelDeliveryContract_Ready@@SIXPAU1@PAEPAUStruct_Microsoft_Singularity_Channels_Endpoint@@1PAH@Z 00c156ec f   kernel.obj
 0001:0000470c       ?m_MarshallAll@Struct_Microsoft_Singularity_Io_ChannelDeliveryContract_Ready@@SIXPAU1@PAEPAUStruct_Microsoft_Singularity_Channels_Endpoint@@PAH@Z 00c1570c f   kernel.obj
 0001:0000475c       ?m_Equals@Struct_Microsoft_Singularity_Io_ChannelDeliveryContract_Ready@@SI_NPAU1@PAUClass_System_Object@@@Z 00c1575c f   kernel.obj
 0001:00004790       ?m_Equals@Struct_Microsoft_Singularity_Io_ChannelDeliveryContract_Ready@@SI_NPAUClass_Microsoft_Singularity_Io_ChannelDeliveryContract_Ready@@PAUClass_System_Object@@@Z 00c15790 f   kernel.obj
 0001:000047b4       ?m__ctor@Class_System_Text_RegularExpressions_SharedReference@@SIXPAU1@@Z 00c157b4 f   kernel.obj
 0001:00004800       ?m_TryReadByteDataArray@Class_Microsoft_Singularity_Hal_Acpi_AcpiTables_IoMemoryAmlStreamAdapter@@SI_NPAU1@PAHHPAPAUClassVector_uint8@@@Z 00c15800 f   kernel.obj
 0001:00004890       ?m_TryReadByteData@Class_Microsoft_Singularity_Hal_Acpi_AcpiTables_IoMemoryAmlStreamAdapter@@SI_NPAU1@PAHPAE@Z 00c15890 f   kernel.obj
 0001:00004930       ?m_ReadWordData@Class_Microsoft_Singularity_Hal_Acpi_AcpiTables_IoMemoryAmlStreamAdapter@@SIGPAU1@PAH@Z 00c15930 f   kernel.obj
 0001:000049ec       ?m_ReadQWordData@Class_Microsoft_Singularity_Hal_Acpi_AcpiTables_IoMemoryAmlStreamAdapter@@SI_KPAU1@PAH@Z 00c159ec f   kernel.obj
 0001:00004ac0       ?m_ReadDWordData@Class_Microsoft_Singularity_Hal_Acpi_AcpiTables_IoMemoryAmlStreamAdapter@@SIIPAU1@PAH@Z 00c15ac0 f   kernel.obj
 0001:00004b7c       ?m_ReadChar@Class_Microsoft_Singularity_Hal_Acpi_AcpiTables_IoMemoryAmlStreamAdapter@@SI_WPAU1@PAH@Z 00c15b7c f   kernel.obj
 0001:00004c34       ?m_ReadByteDataArray@Class_Microsoft_Singularity_Hal_Acpi_AcpiTables_IoMemoryAmlStreamAdapter@@SIPAUClassVector_uint8@@PAU1@PAHH@Z 00c15c34 f   kernel.obj
 0001:00004ccc       ?m_ReadByteData@Class_Microsoft_Singularity_Hal_Acpi_AcpiTables_IoMemoryAmlStreamAdapter@@SIEPAU1@PAH@Z 00c15ccc f   kernel.obj
 0001:00004d7c       ?m__ctor@Class_Microsoft_Singularity_Hal_Acpi_AcpiTables_IoMemoryAmlStreamAdapter@@SIXPAU1@PAUClass_Microsoft_Singularity_Io_IoMemory@@@Z 00c15d7c f   kernel.obj
 0001:00004da4       ?m_StructCopy@Struct_Microsoft_Singularity_Isal_InterruptContext@@SIXPAU1@0@Z 00c15da4 f   kernel.obj
 0001:00004dfc       ?m_StructCopy@Struct_Microsoft_Singularity_Isal_InterruptContext@@SIXPAU1@PAU1@@Z 00c15dfc f   kernel.obj
 0001:00004f04       ?m_IsException@Struct_Microsoft_Singularity_Isal_InterruptContext@@SI_NPAU1@@Z 00c15f04 f   kernel.obj
 0001:00004f24       ?m_get$_StackPointer@Struct_Microsoft_Singularity_Isal_InterruptContext@@SIPAUuintPtr@@PAU1@@Z 00c15f24 f   kernel.obj
 0001:00004f78       ?m_get$_InstructionPointer@Struct_Microsoft_Singularity_Isal_InterruptContext@@SIPAUuintPtr@@PAU1@@Z 00c15f78 f   kernel.obj
 0001:00004f94       ?m_get$_ExceptionId@Struct_Microsoft_Singularity_Isal_InterruptContext@@SIEPAU1@@Z 00c15f94 f   kernel.obj
 0001:00004fb0       ?m_Equals@Struct_Microsoft_Singularity_Isal_InterruptContext@@SI_NPAU1@PAUClass_System_Object@@@Z 00c15fb0 f   kernel.obj
 0001:0000503c       ?m_Equals@Struct_Microsoft_Singularity_Isal_InterruptContext@@SI_NPAUClass_Microsoft_Singularity_Isal_InterruptContext@@PAUClass_System_Object@@@Z 00c1603c f   kernel.obj
 0001:00005060       ?m_ParseSratStructure@Class_Microsoft_Singularity_Hal_Acpi_Srat@@SIXPAU1@@Z 00c16060 f   kernel.obj
 0001:00005420       ?m_GetProcessorFlagIgnore@Class_Microsoft_Singularity_Hal_Acpi_Srat@@SIIPAU1@H@Z 00c16420 f   kernel.obj
 0001:000054b8       ?m_GetProcessorDomain@Class_Microsoft_Singularity_Hal_Acpi_Srat@@SIIPAU1@H@Z 00c164b8 f   kernel.obj
 0001:000056a8       ?m_GetProcessorApicId@Class_Microsoft_Singularity_Hal_Acpi_Srat@@SIIPAU1@H@Z 00c166a8 f   kernel.obj
 0001:00005734       ?m_GetNumberOfProcessors@Class_Microsoft_Singularity_Hal_Acpi_Srat@@SIHPAU1@@Z 00c16734 f   kernel.obj
 0001:00005754       ?m_GetNumberOfMemories@Class_Microsoft_Singularity_Hal_Acpi_Srat@@SIHPAU1@@Z 00c16754 f   kernel.obj
 0001:00005774       ?m_GetMemorySize@Class_Microsoft_Singularity_Hal_Acpi_Srat@@SI_KPAU1@H@Z 00c16774 f   kernel.obj
 0001:00005894       ?m_GetMemoryFlagNonVolatile@Class_Microsoft_Singularity_Hal_Acpi_Srat@@SIIPAU1@H@Z 00c16894 f   kernel.obj
 0001:0000592c       ?m_GetMemoryFlagIgnore@Class_Microsoft_Singularity_Hal_Acpi_Srat@@SIIPAU1@H@Z 00c1692c f   kernel.obj
 0001:000059c4       ?m_GetMemoryFlagHotPluggable@Class_Microsoft_Singularity_Hal_Acpi_Srat@@SIIPAU1@H@Z 00c169c4 f   kernel.obj
 0001:00005a5c       ?m_GetMemoryEndAddress@Class_Microsoft_Singularity_Hal_Acpi_Srat@@SI_KPAU1@H@Z 00c16a5c f   kernel.obj
 0001:00005ac4       ?m_GetMemoryDomain@Class_Microsoft_Singularity_Hal_Acpi_Srat@@SIIPAU1@H@Z 00c16ac4 f   kernel.obj
 0001:00005b50       ?m_GetMemoryBaseAddress@Class_Microsoft_Singularity_Hal_Acpi_Srat@@SI_KPAU1@H@Z 00c16b50 f   kernel.obj
 0001:00005c70       ?g_Create@Class_Microsoft_Singularity_Hal_Acpi_Srat@@SIPAU1@PAUClass_Microsoft_Singularity_Hal_Acpi_SystemTableHeader@@@Z 00c16c70 f   kernel.obj
 0001:00005cd8       ?m__ctor@Class_Microsoft_Singularity_Hal_Acpi_Srat@@SIXPAU1@PAUClass_Microsoft_Singularity_Io_IoMemory@@PAUClass_Microsoft_Singularity_Hal_Acpi_SystemTableHeader@@@Z 00c16cd8 f   kernel.obj
 0001:00005d14       ?m_StructCopy@Struct_Microsoft_Singularity_Diagnostics_Contracts_MemoryContract_GetUsedMemory@@SIXPAU1@0@Z 00c16d14 f   kernel.obj
 0001:00005d30       ?m_StructCopy@Struct_Microsoft_Singularity_Diagnostics_Contracts_MemoryContract_GetUsedMemory@@SIXPAU1@PAU1@@Z 00c16d30 f   kernel.obj
 0001:00005d84       ?m_Equals@Struct_Microsoft_Singularity_Diagnostics_Contracts_MemoryContract_GetUsedMemory@@SI_NPAU1@PAUClass_System_Object@@@Z 00c16d84 f   kernel.obj
 0001:00005db8       ?m_Equals@Struct_Microsoft_Singularity_Diagnostics_Contracts_MemoryContract_GetUsedMemory@@SI_NPAUClass_Microsoft_Singularity_Diagnostics_Contracts_MemoryContract_GetUsedMemory@@PAUClass_System_Object@@@Z 00c16db8 f   kernel.obj
 0001:00005ddc       ?m_Accept@Class_Microsoft_Singularity_Hal_Acpi_StackIR_Match@@SIXPAU1@PAUClass_Microsoft_Singularity_Hal_Acpi_InterpretStepVisitor@@@Z 00c16ddc f   kernel.obj
 0001:00005e08       ?m__ctor@Class_Microsoft_Singularity_Hal_Acpi_StackIR_Match@@SIXPAU1@UStruct_Microsoft_Singularity_Hal_Acpi_AmlParser_MatchOpcode@@1@Z 00c16e08 f   kernel.obj
 0001:00005e3c       ?g_set$_referenceCheckIsFast@Class_System_GCs_CMSMarking@@SIX_N@Z 00c16e3c f   kernel.obj
 0001:00005e60       ?g_ReferenceCheckSlow@Class_System_GCs_CMSMarking@@SIXPAPAUuintPtr@@PAUClass_System_Object@@@Z 00c16e60 f   kernel.obj
 0001:00005ea0       ?g_ReferenceCheckSlow@Class_System_GCs_CMSMarking@@SIXPAPAUClass_System_Object@@PAU2@@Z 00c16ea0 f   kernel.obj
 0001:00005ee0       ?g_ReferenceCheckIsFast@Class_System_GCs_CMSMarking@@SI_NH@Z 00c16ee0 f   kernel.obj
 0001:00005f18       ?g_ReferenceCheck@Class_System_GCs_CMSMarking@@SIXPAPAUuintPtr@@PAUClass_System_Object@@H@Z 00c16f18 f   kernel.obj
 0001:00005f4c       ?g_ReferenceCheck@Class_System_GCs_CMSMarking@@SIXPAPAUClass_System_Object@@PAU2@H@Z 00c16f4c f   kernel.obj
 0001:00005f80       ?g_MarkObject@Class_System_GCs_CMSMarking@@SIXPAUuintPtr@@PAUClass_System_Threading_Thread@@@Z 00c16f80 f   kernel.obj
 0001:00005fa0       ?g_MarkIfNecessaryInline@Class_System_GCs_CMSMarking@@SIXPAUuintPtr@@PAUClass_System_Threading_Thread@@@Z 00c16fa0 f   kernel.obj
 0001:00006280       ?g_MarkIfNecessary@Class_System_GCs_CMSMarking@@SI_NPAUuintPtr@@@Z 00c17280 f   kernel.obj
 0001:0000668c       ?g_get$_referenceCheckIsFast@Class_System_GCs_CMSMarking@@SI_NXZ 00c1768c f   kernel.obj
 0001:000066a8       ?g_get$_CurrentMarkingPhase@Class_System_GCs_CMSMarking@@SI?AUStruct_System_GCs_CMSMarking_MarkingPhase@@XZ 00c176a8 f   kernel.obj
 0001:000066c0       ?m__ctor@Class_System_GCs_CMSMarking@@SIXPAU1@@Z 00c176c0 f   kernel.obj
 0001:000066d8       ?m_StructCopy@Struct_Microsoft_Singularity_Directory_ServiceProviderContract_NackConnect@@SIXPAU1@0@Z 00c176d8 f   kernel.obj
 0001:000066f8       ?m_StructCopy@Struct_Microsoft_Singularity_Directory_ServiceProviderContract_NackConnect@@SIXPAU1@PAU1@@Z 00c176f8 f   kernel.obj
 0001:00006758       ?m_MarshallContent@Struct_Microsoft_Singularity_Directory_ServiceProviderContract_NackConnect@@SIXPAU1@PAEPAUStruct_Microsoft_Singularity_Channels_Endpoint@@1PAH@Z 00c17758 f   kernel.obj
 0001:000067c8       ?m_MarshallAll@Struct_Microsoft_Singularity_Directory_ServiceProviderContract_NackConnect@@SIXPAU1@PAEPAUStruct_Microsoft_Singularity_Channels_Endpoint@@PAH@Z 00c177c8 f   kernel.obj
 0001:00006818       ?m_Equals@Struct_Microsoft_Singularity_Directory_ServiceProviderContract_NackConnect@@SI_NPAU1@PAUClass_System_Object@@@Z 00c17818 f   kernel.obj
 0001:00006854       ?m_Equals@Struct_Microsoft_Singularity_Directory_ServiceProviderContract_NackConnect@@SI_NPAUClass_Microsoft_Singularity_Directory_ServiceProviderContract_NackConnect@@PAUClass_System_Object@@@Z 00c17854 f   kernel.obj
 0001:00006878       ?m_Unreserve@Class_Microsoft_Singularity_Memory_VirtualMemoryRange@@SIPAUuintPtr@@PAU1@PAU2@1PAUClass_Microsoft_Singularity_Process@@@Z 00c17878 f   kernel.obj
 0001:0000694c       ?m_Reserve@Class_Microsoft_Singularity_Memory_VirtualMemoryRange@@SIPAUuintPtr@@PAU1@PAU2@PAUClass_Microsoft_Singularity_Process@@IUStruct_System_GCs_PageType@@@Z 00c1794c f   kernel.obj
 0001:00006a2c       ?m_PageFromAddr@Class_Microsoft_Singularity_Memory_VirtualMemoryRange@@SIPAUuintPtr@@PAU1@PAU2@@Z 00c17a2c f   kernel.obj
 0001:00006af0       ?m_GetUsageStatistics@Class_Microsoft_Singularity_Memory_VirtualMemoryRange@@SIXPAU1@PA_K111@Z 00c17af0 f   kernel.obj
 0001:00006bcc       ?m_get$_ParentDomain@Class_Microsoft_Singularity_Memory_VirtualMemoryRange@@SIPAUClass_Microsoft_Singularity_ProtectionDomain@@PAU1@@Z 00c17bcc f   kernel.obj
 0001:00006be8       ?m_get$_PageTable@Class_Microsoft_Singularity_Memory_VirtualMemoryRange@@SIPAIPAU1@@Z 00c17be8 f   kernel.obj
 0001:00006ca4       ?m_get$_PageCount@Class_Microsoft_Singularity_Memory_VirtualMemoryRange@@SIPAUuintPtr@@PAU1@@Z 00c17ca4 f   kernel.obj
 0001:00006d60       ?m_get$_BaseAddress@Class_Microsoft_Singularity_Memory_VirtualMemoryRange@@SIPAUuintPtr@@PAU1@@Z 00c17d60 f   kernel.obj
 0001:00006e1c       ?m_FreeAll@Class_Microsoft_Singularity_Memory_VirtualMemoryRange@@SIPAUuintPtr@@PAU1@PAUClass_Microsoft_Singularity_Process@@@Z 00c17e1c f   kernel.obj
 0001:00006ee0       ?m_Free@Class_Microsoft_Singularity_Memory_VirtualMemoryRange@@SIPAUuintPtr@@PAU1@PAU2@1PAUClass_Microsoft_Singularity_Process@@@Z 00c17ee0 f   kernel.obj
 0001:00006fb4       ?m_CheckAddressSpace@Class_Microsoft_Singularity_Memory_VirtualMemoryRange@@SIXPAU1@@Z 00c17fb4 f   kernel.obj
 0001:00007040       ?m_Allocate@Class_Microsoft_Singularity_Memory_VirtualMemoryRange@@SIPAUuintPtr@@PAU1@PAU2@PAUClass_Microsoft_Singularity_Process@@IUStruct_System_GCs_PageType@@@Z 00c18040 f   kernel.obj
 0001:00007128       ?m_AddrFromPage@Class_Microsoft_Singularity_Memory_VirtualMemoryRange@@SIPAUuintPtr@@PAU1@PAU2@@Z 00c18128 f   kernel.obj
 0001:000071ec       ?m__ctor@Class_Microsoft_Singularity_Memory_VirtualMemoryRange@@SIXPAU1@PAUStruct_Microsoft_Singularity_Memory_VirtualMemoryRange$_struct@@PAUClass_Microsoft_Singularity_ProtectionDomain@@@Z 00c181ec f   kernel.obj
 0001:00007230       ?m__ctor@Class_Microsoft_Singularity_Memory_VirtualMemoryRange@@SIXPAU1@PAUuintPtr@@1PAUClass_Microsoft_Singularity_ProtectionDomain@@@Z 00c18230 f   kernel.obj
 0001:000072a4       ?m_Accept@Class_Microsoft_Singularity_Hal_Acpi_AmlParser_DefBankField@@SIXPAU1@PAUClass_Microsoft_Singularity_Hal_Acpi_AmlParserNodeVisitor@@@Z 00c182a4 f   kernel.obj
 0001:000072d4       ?m__ctor@Class_Microsoft_Singularity_Hal_Acpi_AmlParser_DefBankField@@SIXPAU1@@Z 00c182d4 f   kernel.obj
 0001:000072f4       ?g_StableState@Class_Microsoft_Singularity_Io_ConsoleDeviceContract@@SIHPAUStruct_Microsoft_Singularity_Channels_StateStack@@@Z 00c182f4 f   kernel.obj
 0001:00007468       ?m__ctor@Class_Microsoft_Singularity_Io_ConsoleDeviceContract@@SIXPAU1@@Z 00c18468 f   kernel.obj
 0001:00007480       ?g_Initialize@Class_System_GCs_MemoryAccounting@@SIXUStruct_Microsoft_Bartok_Runtime_GCType@@@Z 00c18480 f   kernel.obj
 0001:000076b4       ?m__ctor@Class_System_GCs_MemoryAccounting@@SIXPAU1@@Z 00c186b4 f   kernel.obj
 0001:000076cc       ?m_MoveNext@Class_System_Array_ArrayEnumerator@@SI_NPAU1@@Z 00c186cc f   kernel.obj
 0001:0000770c       ?m_IncArray@Class_System_Array_ArrayEnumerator@@SIXPAU1@@Z 00c1870c f   kernel.obj
 0001:00007820       ?m_get$_Current@Class_System_Array_ArrayEnumerator@@SIPAUClass_System_Object@@PAU1@@Z 00c18820 f   kernel.obj
 0001:000078a0       ?m__ctor@Class_System_Array_ArrayEnumerator@@SIXPAU1@PAUClass_System_Array@@HH@Z 00c188a0 f   kernel.obj
 0001:000079e4       ?m_StructCopy@Struct_Microsoft_Singularity_Directory_DirectoryServiceContract_AckDeregister@@SIXPAU1@0@Z 00c189e4 f   kernel.obj
 0001:00007a04       ?m_StructCopy@Struct_Microsoft_Singularity_Directory_DirectoryServiceContract_AckDeregister@@SIXPAU1@PAU1@@Z 00c18a04 f   kernel.obj
 0001:00007a64       ?m_MarshallContent@Struct_Microsoft_Singularity_Directory_DirectoryServiceContract_AckDeregister@@SIXPAU1@PAEPAUStruct_Microsoft_Singularity_Channels_Endpoint@@1PAH@Z 00c18a64 f   kernel.obj
 0001:00007ad4       ?m_MarshallAll@Struct_Microsoft_Singularity_Directory_DirectoryServiceContract_AckDeregister@@SIXPAU1@PAEPAUStruct_Microsoft_Singularity_Channels_Endpoint@@PAH@Z 00c18ad4 f   kernel.obj
 0001:00007b24       ?m_Equals@Struct_Microsoft_Singularity_Directory_DirectoryServiceContract_AckDeregister@@SI_NPAU1@PAUClass_System_Object@@@Z 00c18b24 f   kernel.obj
 0001:00007b60       ?m_Equals@Struct_Microsoft_Singularity_Directory_DirectoryServiceContract_AckDeregister@@SI_NPAUClass_Microsoft_Singularity_Directory_DirectoryServiceContract_AckDeregister@@PAUClass_System_Object@@@Z 00c18b60 f   kernel.obj
 0001:00007b84       ?m_Trackto@Class_System_Text_RegularExpressions_RegexInterpreter@@SIXPAU1@H@Z 00c18b84 f   kernel.obj
 0001:00007bac       ?m_Trackpos@Class_System_Text_RegularExpressions_RegexInterpreter@@SIHPAU1@@Z 00c18bac f   kernel.obj
 0001:00007bd0       ?m_Trackframe@Class_System_Text_RegularExpressions_RegexInterpreter@@SIXPAU1@H@Z 00c18bd0 f   kernel.obj
 0001:00007bf0       ?m_Tracked@Class_System_Text_RegularExpressions_RegexInterpreter@@SIHPAU1@H@Z 00c18bf0 f   kernel.obj
 0001:00007c2c       ?m_Track2@Class_System_Text_RegularExpressions_RegexInterpreter@@SIXPAU1@H@Z 00c18c2c f   kernel.obj
 0001:00007c88       ?m_Track2@Class_System_Text_RegularExpressions_RegexInterpreter@@SIXPAU1@HH@Z 00c18c88 f   kernel.obj
 0001:00007d00       ?m_Track@Class_System_Text_RegularExpressions_RegexInterpreter@@SIXPAU1@@Z 00c18d00 f   kernel.obj
 0001:00007d38       ?m_Track@Class_System_Text_RegularExpressions_RegexInterpreter@@SIXPAU1@H@Z 00c18d38 f   kernel.obj
 0001:00007d90       ?m_Track@Class_System_Text_RegularExpressions_RegexInterpreter@@SIXPAU1@HH@Z 00c18d90 f   kernel.obj
 0001:00007e04       ?m_Track@Class_System_Text_RegularExpressions_RegexInterpreter@@SIXPAU1@HHH@Z 00c18e04 f   kernel.obj
 0001:00007e94       ?m_Textto@Class_System_Text_RegularExpressions_RegexInterpreter@@SIXPAU1@H@Z 00c18e94 f   kernel.obj
 0001:00007eb4       ?m_Textstart@Class_System_Text_RegularExpressions_RegexInterpreter@@SIHPAU1@@Z 00c18eb4 f   kernel.obj
 0001:00007ed0       ?m_Textpos@Class_System_Text_RegularExpressions_RegexInterpreter@@SIHPAU1@@Z 00c18ed0 f   kernel.obj
 0001:00007eec       ?m_Stringmatch@Class_System_Text_RegularExpressions_RegexInterpreter@@SI_NPAU1@PAUClass_System_String@@@Z 00c18eec f   kernel.obj
 0001:00008020       ?m_Stackframe@Class_System_Text_RegularExpressions_RegexInterpreter@@SIXPAU1@H@Z 00c19020 f   kernel.obj
 0001:00008040       ?m_Stacked@Class_System_Text_RegularExpressions_RegexInterpreter@@SIHPAU1@H@Z 00c19040 f   kernel.obj
 0001:0000807c       ?m_Stack@Class_System_Text_RegularExpressions_RegexInterpreter@@SIXPAU1@H@Z 00c1907c f   kernel.obj
 0001:000080b8       ?m_Stack@Class_System_Text_RegularExpressions_RegexInterpreter@@SIXPAU1@HH@Z 00c190b8 f   kernel.obj
 0001:00008114       ?m_SetOperator@Class_System_Text_RegularExpressions_RegexInterpreter@@SIXPAU1@H@Z 00c19114 f   kernel.obj
 0001:0000814c       ?m_Rightchars@Class_System_Text_RegularExpressions_RegexInterpreter@@SIHPAU1@@Z 00c1914c f   kernel.obj
 0001:0000816c       ?m_Refmatch@Class_System_Text_RegularExpressions_RegexInterpreter@@SI_NPAU1@HH@Z 00c1916c f   kernel.obj
 0001:000082c8       ?m_Operator@Class_System_Text_RegularExpressions_RegexInterpreter@@SIHPAU1@@Z 00c192c8 f   kernel.obj
 0001:000082e4       ?m_Operand@Class_System_Text_RegularExpressions_RegexInterpreter@@SIHPAU1@H@Z 00c192e4 f   kernel.obj
 0001:00008320       ?m_Leftchars@Class_System_Text_RegularExpressions_RegexInterpreter@@SIHPAU1@@Z 00c19320 f   kernel.obj
 0001:00008340       ?m_InitTrackCount@Class_System_Text_RegularExpressions_RegexInterpreter@@SIXPAU1@@Z 00c19340 f   kernel.obj
 0001:00008364       ?m_Goto@Class_System_Text_RegularExpressions_RegexInterpreter@@SIXPAU1@H@Z 00c19364 f   kernel.obj
 0001:000083b4       ?m_Go@Class_System_Text_RegularExpressions_RegexInterpreter@@SIXPAU1@@Z 00c193b4 f   kernel.obj
 0001:00009adc       ?m_Forwardchars@Class_System_Text_RegularExpressions_RegexInterpreter@@SIHPAU1@@Z 00c1aadc f   kernel.obj
 0001:00009b0c       ?m_Forwardcharnext@Class_System_Text_RegularExpressions_RegexInterpreter@@SI_WPAU1@@Z 00c1ab0c f   kernel.obj
 0001:00009b8c       ?m_FindFirstChar@Class_System_Text_RegularExpressions_RegexInterpreter@@SI_NPAU1@@Z 00c1ab8c f   kernel.obj
 0001:00009ee8       ?m_CharAt@Class_System_Text_RegularExpressions_RegexInterpreter@@SI_WPAU1@H@Z 00c1aee8 f   kernel.obj
 0001:00009f10       ?m_Bump@Class_System_Text_RegularExpressions_RegexInterpreter@@SIHPAU1@@Z 00c1af10 f   kernel.obj
 0001:00009f3c       ?m_Backwardnext@Class_System_Text_RegularExpressions_RegexInterpreter@@SIXPAU1@@Z 00c1af3c f   kernel.obj
 0001:00009f74       ?m_Backtrack@Class_System_Text_RegularExpressions_RegexInterpreter@@SIXPAU1@@Z 00c1af74 f   kernel.obj
 0001:0000a018       ?m_Advance@Class_System_Text_RegularExpressions_RegexInterpreter@@SIXPAU1@@Z 00c1b018 f   kernel.obj
 0001:0000a038       ?m_Advance@Class_System_Text_RegularExpressions_RegexInterpreter@@SIXPAU1@H@Z 00c1b038 f   kernel.obj
 0001:0000a074       ?m__ctor@Class_System_Text_RegularExpressions_RegexInterpreter@@SIXPAU1@PAUClass_System_Text_RegularExpressions_RegexCode@@PAUClass_System_Globalization_CultureInfo@@@Z 00c1b074 f   kernel.obj
 0001:0000a12c       ?m_RequestWalk@Class_Microsoft_Singularity_SharedHeapWalker@@SIXPAU1@@Z 00c1b12c f   kernel.obj
 0001:0000a150       ?m_Matches@Class_Microsoft_Singularity_SharedHeapWalker@@SI_NPAU1@PAUStruct_Microsoft_Singularity_Memory_SharedHeap_Allocation@@@Z 00c1b150 f   kernel.obj
 0001:0000a188       ?m_Loop@Class_Microsoft_Singularity_SharedHeapWalker@@SIXPAU1@@Z 00c1b188 f   kernel.obj
 0001:0000a1f8       ?g_Initialize@Class_Microsoft_Singularity_SharedHeapWalker@@SIXUStruct_Microsoft_Singularity_Memory_SharedHeap_AllocationOwnerId@@0@Z 00c1b1f8 f   kernel.obj
 0001:0000a250       ?m_EndpointVisit@Class_Microsoft_Singularity_SharedHeapWalker@@SIXPAU1@PAUStruct_Microsoft_Singularity_Memory_SharedHeap_Allocation@@@Z 00c1b250 f   kernel.obj
 0001:0000a29c       ?m_AllocationVisit@Class_Microsoft_Singularity_SharedHeapWalker@@SIXPAU1@PAUStruct_Microsoft_Singularity_Memory_SharedHeap_Allocation@@@Z 00c1b29c f   kernel.obj
 0001:0000a2d8       ?m__ctor@Class_Microsoft_Singularity_SharedHeapWalker@@SIXPAU1@UStruct_Microsoft_Singularity_Memory_SharedHeap_AllocationOwnerId@@1@Z 00c1b2d8 f   kernel.obj
 0001:0000a418       ?m_UseOptionR@Class_System_Text_RegularExpressions_RegexNode@@SI_NPAU1@@Z 00c1b418 f   kernel.obj
 0001:0000a43c       ?m_Type@Class_System_Text_RegularExpressions_RegexNode@@SIHPAU1@@Z 00c1b43c f   kernel.obj
 0001:0000a458       ?m_StripEnation@Class_System_Text_RegularExpressions_RegexNode@@SIPAU1@PAU1@H@Z 00c1b458 f   kernel.obj
 0001:0000a4cc       ?m_ReverseLeft@Class_System_Text_RegularExpressions_RegexNode@@SIPAU1@PAU1@@Z 00c1b4cc f   kernel.obj
 0001:0000a534       ?m_ReduceSet@Class_System_Text_RegularExpressions_RegexNode@@SIPAU1@PAU1@@Z 00c1b534 f   kernel.obj
 0001:0000a6c0       ?m_ReduceRep@Class_System_Text_RegularExpressions_RegexNode@@SIPAU1@PAU1@@Z 00c1b6c0 f   kernel.obj
 0001:0000a864       ?m_ReduceGroup@Class_System_Text_RegularExpressions_RegexNode@@SIPAU1@PAU1@@Z 00c1b864 f   kernel.obj
 0001:0000a8d0       ?m_ReduceConcatenation@Class_System_Text_RegularExpressions_RegexNode@@SIPAU1@PAU1@@Z 00c1b8d0 f   kernel.obj
 0001:0000ac4c       ?m_ReduceAlternation@Class_System_Text_RegularExpressions_RegexNode@@SIPAU1@PAU1@@Z 00c1bc4c f   kernel.obj
 0001:0000afe0       ?m_Reduce@Class_System_Text_RegularExpressions_RegexNode@@SIPAU1@PAU1@@Z 00c1bfe0 f   kernel.obj
 0001:0000b064       ?m_MakeRep@Class_System_Text_RegularExpressions_RegexNode@@SIXPAU1@HHH@Z 00c1c064 f   kernel.obj
 0001:0000b098       ?m_MakeQuantifier@Class_System_Text_RegularExpressions_RegexNode@@SIPAU1@PAU1@_NHH@Z 00c1c098 f   kernel.obj
 0001:0000b1a8       ?m_ChildCount@Class_System_Text_RegularExpressions_RegexNode@@SIHPAU1@@Z 00c1c1a8 f   kernel.obj
 0001:0000b1d4       ?m_Child@Class_System_Text_RegularExpressions_RegexNode@@SIPAU1@PAU1@H@Z 00c1c1d4 f   kernel.obj
 0001:0000b214       ?m_AddChild@Class_System_Text_RegularExpressions_RegexNode@@SIXPAU1@0@Z 00c1c214 f   kernel.obj
 0001:0000b2a4       ?m__ctor@Class_System_Text_RegularExpressions_RegexNode@@SIXPAU1@@Z 00c1c2a4 f   kernel.obj
 0001:0000b2bc       ?m__ctor@Class_System_Text_RegularExpressions_RegexNode@@SIXPAU1@HUStruct_System_Text_RegularExpressions_RegexOptions@@@Z 00c1c2bc f   kernel.obj
 0001:0000b2e4       ?m__ctor@Class_System_Text_RegularExpressions_RegexNode@@SIXPAU1@HUStruct_System_Text_RegularExpressions_RegexOptions@@H@Z 00c1c2e4 f   kernel.obj
 0001:0000b310       ?m__ctor@Class_System_Text_RegularExpressions_RegexNode@@SIXPAU1@HUStruct_System_Text_RegularExpressions_RegexOptions@@HH@Z 00c1c310 f   kernel.obj
 0001:0000b344       ?m__ctor@Class_System_Text_RegularExpressions_RegexNode@@SIXPAU1@HUStruct_System_Text_RegularExpressions_RegexOptions@@PAUClass_System_String@@@Z 00c1c344 f   kernel.obj
 0001:0000b37c       ?m__ctor@Class_System_Text_RegularExpressions_RegexNode@@SIXPAU1@HUStruct_System_Text_RegularExpressions_RegexOptions@@PAUClass_System_String@@2@Z 00c1c37c f   kernel.obj
 0001:0000b3c4       ?m__ctor@Class_System_Text_RegularExpressions_RegexNode@@SIXPAU1@HUStruct_System_Text_RegularExpressions_RegexOptions@@_W@Z 00c1c3c4 f   kernel.obj
 0001:0000b3f4       ?m_Enqueue@Class_Microsoft_Singularity_ServiceRequestQueue@@SIXPAU1@PAUClass_System_Threading_ThreadLocalServiceRequest@@@Z 00c1c3f4 f   kernel.obj
 0001:0000b714       ?m_Dequeue@Class_Microsoft_Singularity_ServiceRequestQueue@@SIPAUClass_System_Threading_ThreadLocalServiceRequest@@PAU1@@Z 00c1c714 f   kernel.obj
 0001:0000bae4       ?m__ctor@Class_Microsoft_Singularity_ServiceRequestQueue@@SIXPAU1@@Z 00c1cae4 f   kernel.obj
 0001:0000bb78       ?m_Unlink@Class_Microsoft_Singularity_Channels_ESet$_2$LMicrosoft_Singularity_Security_SecurityDiagnosticsContract_Exp_Microsoft_Singularity_Security_SecurityDiagnosticsContract_ReadyState$G_Node@@SIPAUStruct_Microsoft_Singularity_Security_SecurityDiagnosticsContract_Exp@@PAU1@PAUClass_Microsoft_Singularity_Channels_ESet$_2$LMicrosoft_Singularity_Security_SecurityDiagnosticsContract_Exp_Microsoft_Singularity_Security_SecurityDiagnosticsContract_ReadyState$G@@@Z 00c1cb78 f   kernel.obj
 0001:0000bca0       ?m_LinkAsNext@Class_Microsoft_Singularity_Channels_ESet$_2$LMicrosoft_Singularity_Security_SecurityDiagnosticsContract_Exp_Microsoft_Singularity_Security_SecurityDiagnosticsContract_ReadyState$G_Node@@SIXPAU1@PAUStruct_Microsoft_Singularity_Security_SecurityDiagnosticsContract_Exp@@PAUClass_Microsoft_Singularity_Channels_ESet$_2$LMicrosoft_Singularity_Security_SecurityDiagnosticsContract_Exp_Microsoft_Singularity_Security_SecurityDiagnosticsContract_ReadyState$G@@@Z 00c1cca0 f   kernel.obj
 0001:0000bd34       ?m_Init@Class_Microsoft_Singularity_Channels_ESet$_2$LMicrosoft_Singularity_Security_SecurityDiagnosticsContract_Exp_Microsoft_Singularity_Security_SecurityDiagnosticsContract_ReadyState$G_Node@@SIXPAU1@PAUStruct_Microsoft_Singularity_Security_SecurityDiagnosticsContract_Exp@@PAUClass_Microsoft_Singularity_Channels_ESet$_2$LMicrosoft_Singularity_Security_SecurityDiagnosticsContract_Exp_Microsoft_Singularity_Security_SecurityDiagnosticsContract_ReadyState$G@@@Z 00c1cd34 f   kernel.obj
 0001:0000bd6c       ?m__ctor@Class_Microsoft_Singularity_Channels_ESet$_2$LMicrosoft_Singularity_Security_SecurityDiagnosticsContract_Exp_Microsoft_Singularity_Security_SecurityDiagnosticsContract_ReadyState$G_Node@@SIXPAU1@PAUStruct_Microsoft_Singularity_Security_SecurityDiagnosticsContract_Exp@@PAUClass_Microsoft_Singularity_Channels_ESet$_2$LMicrosoft_Singularity_Security_SecurityDiagnosticsContract_Exp_Microsoft_Singularity_Security_SecurityDiagnosticsContract_ReadyState$G@@@Z 00c1cd6c f   kernel.obj
 0001:0000bdc8       ?m__ctor@Class_Microsoft_Singularity_Channels_ESet$_2$LMicrosoft_Singularity_Security_SecurityDiagnosticsContract_Exp_Microsoft_Singularity_Security_SecurityDiagnosticsContract_ReadyState$G_Node@@SIXPAU1@PAUClass_Microsoft_Singularity_Channels_ESet$_2$LMicrosoft_Singularity_Security_SecurityDiagnosticsContract_Exp_Microsoft_Singularity_Security_SecurityDiagnosticsContract_ReadyState$G@@@Z 00c1cdc8 f   kernel.obj
 0001:0000be14       ?m__ctor@Class_Microsoft_Contracts_NullException@@SIXPAU1@@Z 00c1ce14 f   kernel.obj
 0001:0000be34       ?m__ctor@Class_Microsoft_Singularity_Hal_Acpi_AcpiNamespace_NodeAlreadyExistsException@@SIXPAU1@@Z 00c1ce34 f   kernel.obj
 0001:0000be58       ?g_Allocate@Class_Microsoft_Singularity_Channels_ChannelHeap@@SIPAUvoid@@PAUClass_System_Type@@@Z 00c1ce58 f   kernel.obj
 0001:0000bf14       ?m__ctor@Class_Microsoft_Singularity_Channels_ChannelHeap@@SIXPAU1@@Z 00c1cf14 f   kernel.obj
 0001:0000bf2c       ?m_StoreACL@Class_Microsoft_Singularity_Directory_IoMemoryNode@@SI_NPAU1@PAUClass_System_Text_StringBuilder@@UStruct_Microsoft_Singularity_Security_Principal@@UStruct_Microsoft_Singularity_Security_SDS_Acl@@HPAHPA_NPAUStruct_Microsoft_Singularity_Directory_ErrorCode@@5PAPAUClass_System_String@@@Z 00c1cf2c f   kernel.obj
 0001:0000bfe8       ?m_Register@Class_Microsoft_Singularity_Directory_IoMemoryNode@@SIPAUStruct_Microsoft_Singularity_Directory_ServiceProviderContract_Imp@@PAU1@PAUClass_System_Text_StringBuilder@@UStruct_Microsoft_Singularity_Security_Principal@@PAU2@HPAHPA_NPAUStruct_Microsoft_Singularity_Directory_ErrorCode@@5PAPAUClass_System_String@@@Z 00c1cfe8 f   kernel.obj
 0001:0000c048       ?m_QueryACL@Class_Microsoft_Singularity_Directory_IoMemoryNode@@SI_NPAU1@PAUClass_System_Text_StringBuilder@@_NUStruct_Microsoft_Singularity_Security_Principal@@HPAHPA_NPAUStruct_Microsoft_Singularity_Directory_ErrorCode@@5PAPAUClass_System_String@@PAUStruct_Microsoft_Singularity_Security_SDS_Acl@@@Z 00c1d048 f   kernel.obj
 0001:0000c1d0       ?m_Notify@Class_Microsoft_Singularity_Directory_IoMemoryNode@@SIPAUStruct_Microsoft_Singularity_Directory_NotifyContract_Imp@@PAU1@PAUClass_System_Text_StringBuilder@@UStruct_Microsoft_Singularity_Security_Principal@@PAUClass_System_String@@_NHPAHPA_NPAUStruct_Microsoft_Singularity_Directory_ErrorCode@@6PAPAU5@PAU2@@Z 00c1d1d0 f   kernel.obj
 0001:0000c230       ?m_GetLinkValue@Class_Microsoft_Singularity_Directory_IoMemoryNode@@SI_NPAU1@PAUClass_System_Text_StringBuilder@@UStruct_Microsoft_Singularity_Security_Principal@@HPAHPA_NPAUStruct_Microsoft_Singularity_Directory_ErrorCode@@4PAPAUClass_System_String@@@Z 00c1d230 f   kernel.obj
 0001:0000c288       ?m_GetAttributes@Class_Microsoft_Singularity_Directory_IoMemoryNode@@SI_NPAU1@PAUClass_System_Text_StringBuilder@@UStruct_Microsoft_Singularity_Security_Principal@@HPAHPA_NPAUStruct_Microsoft_Singularity_Directory_ErrorCode@@4PAPAUClass_System_String@@PAUStruct_Microsoft_Singularity_Directory_FileAttributesRecord@@@Z 00c1d288 f   kernel.obj
 0001:0000c378       ?m_Deregister@Class_Microsoft_Singularity_Directory_IoMemoryNode@@SIPAUStruct_Microsoft_Singularity_Directory_ServiceProviderContract_Imp@@PAU1@PAUClass_System_Text_StringBuilder@@UStruct_Microsoft_Singularity_Security_Principal@@PAUStruct_Microsoft_Singularity_Directory_DirectoryServiceContract_Exp@@HPAHPA_NPAUStruct_Microsoft_Singularity_Directory_ErrorCode@@5PAPAUClass_System_String@@@Z 00c1d378 f   kernel.obj
 0001:0000c3f4       ?m_DeleteLink@Class_Microsoft_Singularity_Directory_IoMemoryNode@@SI_NPAU1@PAUClass_System_Text_StringBuilder@@UStruct_Microsoft_Singularity_Security_Principal@@HPAHPA_NPAUStruct_Microsoft_Singularity_Directory_ErrorCode@@4PAPAUClass_System_String@@@Z 00c1d3f4 f   kernel.obj
 0001:0000c44c       ?m_DeleteFile@Class_Microsoft_Singularity_Directory_IoMemoryNode@@SI_NPAU1@PAUClass_System_Text_StringBuilder@@UStruct_Microsoft_Singularity_Security_Principal@@HPAHPA_NPAUStruct_Microsoft_Singularity_Directory_ErrorCode@@4PAPAUClass_System_String@@@Z 00c1d44c f   kernel.obj
 0001:0000c4a4       ?m_DeleteDirectory@Class_Microsoft_Singularity_Directory_IoMemoryNode@@SI_NPAU1@PAUClass_System_Text_StringBuilder@@UStruct_Microsoft_Singularity_Security_Principal@@HPAHPA_NPAUStruct_Microsoft_Singularity_Directory_ErrorCode@@4PAPAUClass_System_String@@@Z 00c1d4a4 f   kernel.obj
 0001:0000c4fc       ?m_CreateLink@Class_Microsoft_Singularity_Directory_IoMemoryNode@@SI_NPAU1@PAUClass_System_Text_StringBuilder@@UStruct_Microsoft_Singularity_Security_Principal@@PAUClass_System_String@@HPAHPA_NPAUStruct_Microsoft_Singularity_Directory_ErrorCode@@5PAPAU4@@Z 00c1d4fc f   kernel.obj
 0001:0000c554       ?m_CreateFile@Class_Microsoft_Singularity_Directory_IoMemoryNode@@SI_NPAU1@PAUClass_System_Text_StringBuilder@@UStruct_Microsoft_Singularity_Security_Principal@@HPAHPA_NPAUStruct_Microsoft_Singularity_Directory_ErrorCode@@4PAPAUClass_System_String@@@Z 00c1d554 f   kernel.obj
 0001:0000c5ac       ?m_CreateDirectory@Class_Microsoft_Singularity_Directory_IoMemoryNode@@SI_NPAU1@PAUClass_System_Text_StringBuilder@@UStruct_Microsoft_Singularity_Security_Principal@@HPAHPA_NPAUStruct_Microsoft_Singularity_Directory_ErrorCode@@4PAPAUClass_System_String@@@Z 00c1d5ac f   kernel.obj
 0001:0000c604       ?m_Bind@Class_Microsoft_Singularity_Directory_IoMemoryNode@@SIPAUStruct_Microsoft_Singularity_Directory_ServiceContract_Exp@@PAU1@PAUClass_System_Text_StringBuilder@@PAUClass_System_String@@UStruct_Microsoft_Singularity_Security_Principal@@HPAHPA_N5PAUStruct_Microsoft_Singularity_Directory_ErrorCode@@5PAPAU4@7PAU2@@Z 00c1d604 f   kernel.obj
 0001:0000c888       ?m__ctor@Class_Microsoft_Singularity_Directory_IoMemoryNode@@SIXPAU1@PAUClass_Microsoft_Singularity_Io_IoMemory@@PAUClass_System_String@@PAUClass_Microsoft_Singularity_Directory_Node@@@Z 00c1d888 f   kernel.obj
 0001:0000c8f4       ?m_StructCopy@Struct_Microsoft_Singularity_Diagnostics_MemoryModule_HeapDumper_BlockInfo@@SIXPAU1@0@Z 00c1d8f4 f   kernel.obj
 0001:0000c920       ?m_StructCopy@Struct_Microsoft_Singularity_Diagnostics_MemoryModule_HeapDumper_BlockInfo@@SIXPAU1@PAU1@@Z 00c1d920 f   kernel.obj
 0001:0000c9a4       ?m_Equals@Struct_Microsoft_Singularity_Diagnostics_MemoryModule_HeapDumper_BlockInfo@@SI_NPAU1@PAUClass_System_Object@@@Z 00c1d9a4 f   kernel.obj
 0001:0000c9f8       ?m_Equals@Struct_Microsoft_Singularity_Diagnostics_MemoryModule_HeapDumper_BlockInfo@@SI_NPAUClass_Microsoft_Singularity_Diagnostics_MemoryModule_HeapDumper_BlockInfo@@PAUClass_System_Object@@@Z 00c1d9f8 f   kernel.obj
 0001:0000ca1c       ?m_StartScanOneObject@Class_Microsoft_Singularity_GCProfilerLogger@@SIXPAU1@PAUuintPtr@@PAUClass_System_Type@@1@Z 00c1da1c f   kernel.obj
 0001:0000cab8       ?g_StartProfiling@Class_Microsoft_Singularity_GCProfilerLogger@@SIXXZ 00c1dab8 f   kernel.obj
 0001:0000cbc4       ?m_Shutdown@Class_Microsoft_Singularity_GCProfilerLogger@@SIXPAU1@@Z 00c1dbc4 f   kernel.obj
 0001:0000cbe8       ?m_ScanOneRoot@Class_Microsoft_Singularity_GCProfilerLogger@@SIXPAU1@PAUuintPtr@@@Z 00c1dbe8 f   kernel.obj
 0001:0000cc74       ?m_ScanOneObjectField@Class_Microsoft_Singularity_GCProfilerLogger@@SIXPAU1@PAUuintPtr@@@Z 00c1dc74 f   kernel.obj
 0001:0000ccd4       ?m_PreGC@Class_Microsoft_Singularity_GCProfilerLogger@@SIXPAU1@H@Z 00c1dcd4 f   kernel.obj
 0001:0000cd9c       ?m_PostGC@Class_Microsoft_Singularity_GCProfilerLogger@@SIXPAU1@@Z 00c1dd9c f   kernel.obj
 0001:0000ce68       ?m_Initialize@Class_Microsoft_Singularity_GCProfilerLogger@@SIXPAU1@_K1@Z 00c1de68 f   kernel.obj
 0001:0000d0a0       ?m_GetTypeId@Class_Microsoft_Singularity_GCProfilerLogger@@SIIPAU1@PAUClass_System_Type@@@Z 00c1e0a0 f   kernel.obj
 0001:0000d148       ?m_GetStackId@Class_Microsoft_Singularity_GCProfilerLogger@@SIIPAU1@PAUClass_System_Type@@PAUuintPtr@@PAUClassVector_uintPtr@@I@Z 00c1e148 f   kernel.obj
 0001:0000d580       ?m_GetFunctionId@Class_Microsoft_Singularity_GCProfilerLogger@@SIIPAU1@PAUuintPtr@@@Z 00c1e580 f   kernel.obj
 0001:0000d654       ?m_EndScanOneObject@Class_Microsoft_Singularity_GCProfilerLogger@@SIXPAU1@@Z 00c1e654 f   kernel.obj
 0001:0000d6a8       ?m_Allocation@Class_Microsoft_Singularity_GCProfilerLogger@@SIXPAU1@PAUuintPtr@@PAUClass_System_Type@@1@Z 00c1e6a8 f   kernel.obj
 0001:0000da50       ?m__ctor@Class_Microsoft_Singularity_GCProfilerLogger@@SIXPAU1@@Z 00c1ea50 f   kernel.obj
 0001:0000da98       ?g__cctor@Class_Microsoft_Singularity_GCProfilerLogger@@SIXXZ 00c1ea98 f   kernel.obj
 0001:0000daac       ?m_set$_Target@Class_System_WeakReference@@SIXPAU1@PAUClass_System_Object@@@Z 00c1eaac f   kernel.obj
 0001:0000dae4       ?g_Process@Class_System_WeakReference@@SIXPAUClass_System_GCs_DirectReferenceVisitor@@_N1@Z 00c1eae4 f   kernel.obj
 0001:0000dbdc       ?m_get$_Target@Class_System_WeakReference@@SIPAUClass_System_Object@@PAU1@@Z 00c1ebdc f   kernel.obj
 0001:0000dc14       ?m__ctor@Class_System_WeakReference@@SIXPAU1@@Z 00c1ec14 f   kernel.obj
 0001:0000dc2c       ?m__ctor@Class_System_WeakReference@@SIXPAU1@PAUClass_System_Object@@@Z 00c1ec2c f   kernel.obj
 0001:0000dc50       ?m__ctor@Class_System_WeakReference@@SIXPAU1@PAUClass_System_Object@@_N@Z 00c1ec50 f   kernel.obj
 0001:0000dcc8       ?g__cctor@Class_System_WeakReference@@SIXXZ 00c1ecc8 f   kernel.obj
 0001:0000dd0c       ?m_Accept@Class_Microsoft_Singularity_Hal_Acpi_StackIR_Return@@SIXPAU1@PAUClass_Microsoft_Singularity_Hal_Acpi_InterpretStepVisitor@@@Z 00c1ed0c f   kernel.obj
 0001:0000dd38       ?m__ctor@Class_Microsoft_Singularity_Hal_Acpi_StackIR_Return@@SIXPAU1@@Z 00c1ed38 f   kernel.obj
 0001:0000dd58       ?g_Initialize@Class_Microsoft_Singularity_SystemClock@@SIXPAUClass_Microsoft_Singularity_Hal_HalClock@@_J@Z 00c1ed58 f   kernel.obj
 0001:0000dd90       ?g_GetUtcTime@Class_Microsoft_Singularity_SystemClock@@SI?AUStruct_System_DateTime@@XZ 00c1ed90 f   kernel.obj
 0001:0000de64       ?g_get$_KernelUpTime@Class_Microsoft_Singularity_SystemClock@@SI?AUStruct_System_TimeSpan@@XZ 00c1ee64 f   kernel.obj
 0001:0000dee4       ?m__ctor@Class_Microsoft_Singularity_SystemClock@@SIXPAU1@@Z 00c1eee4 f   kernel.obj
 0001:0000defc       ?m_StructCopy@Struct_Microsoft_Singularity_Eventing_SamplingProfiler_ProfilerEvent@@SIXPAU1@0@Z 00c1eefc f   kernel.obj
 0001:0000df20       ?m_StructCopy@Struct_Microsoft_Singularity_Eventing_SamplingProfiler_ProfilerEvent@@SIXPAU1@PAU1@@Z 00c1ef20 f   kernel.obj
 0001:0000df8c       ?m_Equals@Struct_Microsoft_Singularity_Eventing_SamplingProfiler_ProfilerEvent@@SI_NPAU1@PAUClass_System_Object@@@Z 00c1ef8c f   kernel.obj
 0001:0000dfcc       ?m_Equals@Struct_Microsoft_Singularity_Eventing_SamplingProfiler_ProfilerEvent@@SI_NPAUClass_Microsoft_Singularity_Eventing_SamplingProfiler_ProfilerEvent@@PAUClass_System_Object@@@Z 00c1efcc f   kernel.obj
 0001:0000dff0       ?m_WriteRegister@Class_Microsoft_Singularity_Hal_IoApic@@SIXPAU1@II@Z 00c1eff0 f   kernel.obj
 0001:0000e150       ?m_SetRedirectionEntry@Class_Microsoft_Singularity_Hal_IoApic@@SIXPAU1@IPAUStruct_Microsoft_Singularity_Hal_RedirectionEntry@@@Z 00c1f150 f   kernel.obj
 0001:0000e248       ?m_SetId@Class_Microsoft_Singularity_Hal_IoApic@@SIXPAU1@E@Z 00c1f248 f   kernel.obj
 0001:0000e2dc       ?m_SetEntryMask@Class_Microsoft_Singularity_Hal_IoApic@@SIXPAU1@I_N@Z 00c1f2dc f   kernel.obj
 0001:0000e370       ?m_ReleaseLock@Class_Microsoft_Singularity_Hal_IoApic@@SIXPAU1@_N@Z 00c1f370 f   kernel.obj
 0001:0000e454       ?m_ReadRegister@Class_Microsoft_Singularity_Hal_IoApic@@SIIPAU1@I@Z 00c1f454 f   kernel.obj
 0001:0000e5c0       ?m_RangeCheck@Class_Microsoft_Singularity_Hal_IoApic@@SIXPAU1@IIPAUClass_System_String@@@Z 00c1f5c0 f   kernel.obj
 0001:0000e5e8       ?m_GetId@Class_Microsoft_Singularity_Hal_IoApic@@SIEPAU1@@Z 00c1f5e8 f   kernel.obj
 0001:0000e650       ?m_get$_RedirectionEntryCount@Class_Microsoft_Singularity_Hal_IoApic@@SIIPAU1@@Z 00c1f650 f   kernel.obj
 0001:0000e66c       ?m_get$_InterruptBase@Class_Microsoft_Singularity_Hal_IoApic@@SIIPAU1@@Z 00c1f66c f   kernel.obj
 0001:0000e688       ?g_CreateIOApics@Class_Microsoft_Singularity_Hal_IoApic@@SIPAUClassVector_Class_Microsoft_Singularity_Hal_IoApic@@XZ 00c1f688 f   kernel.obj
 0001:0000e85c       ?g_CreateFromMpResources@Class_Microsoft_Singularity_Hal_IoApic@@SIPAUClassVector_Class_Microsoft_Singularity_Hal_IoApic@@XZ 00c1f85c f   kernel.obj
 0001:0000eaac       ?m_AcquireLock@Class_Microsoft_Singularity_Hal_IoApic@@SI_NPAU1@@Z 00c1faac f   kernel.obj
 0001:0000ebf0       ?m__ctor@Class_Microsoft_Singularity_Hal_IoApic@@SIXPAU1@PAUuintPtr@@I@Z 00c1fbf0 f   kernel.obj
 0001:0000ece8       ?m_StructCopy@Struct_Microsoft_Singularity_Io_ConsoleDeviceContract_NakCursorShow@@SIXPAU1@0@Z 00c1fce8 f   kernel.obj
 0001:0000ed04       ?m_StructCopy@Struct_Microsoft_Singularity_Io_ConsoleDeviceContract_NakCursorShow@@SIXPAU1@PAU1@@Z 00c1fd04 f   kernel.obj
 0001:0000ed58       ?m_Equals@Struct_Microsoft_Singularity_Io_ConsoleDeviceContract_NakCursorShow@@SI_NPAU1@PAUClass_System_Object@@@Z 00c1fd58 f   kernel.obj
 0001:0000ed8c       ?m_Equals@Struct_Microsoft_Singularity_Io_ConsoleDeviceContract_NakCursorShow@@SI_NPAUClass_Microsoft_Singularity_Io_ConsoleDeviceContract_NakCursorShow@@PAUClass_System_Object@@@Z 00c1fd8c f   kernel.obj
 0001:0000edb0       ?m_Accept@Class_Microsoft_Singularity_Hal_Acpi_AmlParser_DefCopyObject@@SIXPAU1@PAUClass_Microsoft_Singularity_Hal_Acpi_AmlParserNodeVisitor@@@Z 00c1fdb0 f   kernel.obj
 0001:0000eddc       ?m__ctor@Class_Microsoft_Singularity_Hal_Acpi_AmlParser_DefCopyObject@@SIXPAU1@@Z 00c1fddc f   kernel.obj
 0001:0000edfc       ?m_StructCopy@Struct_System_GCs_BumpAllocator@@SIXPAU1@0@Z 00c1fdfc f   kernel.obj
 0001:0000ee34       ?m_StructCopy@Struct_System_GCs_BumpAllocator@@SIXPAU1@PAU1@@Z 00c1fe34 f   kernel.obj
 0001:0000eedc       ?m_Equals@Struct_System_GCs_BumpAllocator@@SI_NPAU1@PAUClass_System_Object@@@Z 00c1fedc f   kernel.obj
 0001:0000ef8c       ?m_Equals@Struct_System_GCs_BumpAllocator@@SI_NPAUClass_System_GCs_BumpAllocator@@PAUClass_System_Object@@@Z 00c1ff8c f   kernel.obj
 0001:0000efb0       ?m_Dump@Struct_System_GCs_BumpAllocator@@SIXPAU1@@Z 00c1ffb0 f   kernel.obj
 0001:0000efec       ?m_StructCopy@Struct_Microsoft_Singularity_Directory_DirectoryServiceContract_NakRegisterReparse@@SIXPAU1@0@Z 00c1ffec f   kernel.obj
 0001:0000f020       ?m_StructCopy@Struct_Microsoft_Singularity_Directory_DirectoryServiceContract_NakRegisterReparse@@SIXPAU1@PAU1@@Z 00c20020 f   kernel.obj
 0001:0000f0bc       ?m_MarshallContent@Struct_Microsoft_Singularity_Directory_DirectoryServiceContract_NakRegisterReparse@@SIXPAU1@PAEPAUStruct_Microsoft_Singularity_Channels_Endpoint@@1PAH@Z 00c200bc f   kernel.obj
 0001:0000f26c       ?m_MarshallAll@Struct_Microsoft_Singularity_Directory_DirectoryServiceContract_NakRegisterReparse@@SIXPAU1@PAEPAUStruct_Microsoft_Singularity_Channels_Endpoint@@PAH@Z 00c2026c f   kernel.obj
 0001:0000f2bc       ?m_Equals@Struct_Microsoft_Singularity_Directory_DirectoryServiceContract_NakRegisterReparse@@SI_NPAU1@PAUClass_System_Object@@@Z 00c202bc f   kernel.obj
 0001:0000f318       ?m_Equals@Struct_Microsoft_Singularity_Directory_DirectoryServiceContract_NakRegisterReparse@@SI_NPAUClass_Microsoft_Singularity_Directory_DirectoryServiceContract_NakRegisterReparse@@PAUClass_System_Object@@@Z 00c20318 f   kernel.obj
 0001:0000f33c       ?m_Register@Class_Microsoft_Singularity_Eventing_SamplingProfiler@@SI_NPAU1@@Z 00c2033c f   kernel.obj
 0001:0000f3b0       ?m_LogStackTrace@Class_Microsoft_Singularity_Eventing_SamplingProfiler@@SIXPAU1@PAUuintPtr@@1@Z 00c203b0 f   kernel.obj
 0001:0000f4ec       ?g_Create@Class_Microsoft_Singularity_Eventing_SamplingProfiler@@SIPAU1@PAUClass_System_String@@HI@Z 00c204ec f   kernel.obj
 0001:0000f574       ?m__ctor@Class_Microsoft_Singularity_Eventing_SamplingProfiler@@SIXPAU1@PAUClass_System_String@@HPAUClass_Microsoft_Singularity_Eventing_EventingStorage@@I@Z 00c20574 f   kernel.obj
 0001:0000f5c0       ?m_GetAsReservedField@Class_Microsoft_Singularity_Hal_Acpi_AmlParserUnions_FieldElement@@SIPAUClass_Microsoft_Singularity_Hal_Acpi_AmlParser_ReservedField@@PAU1@@Z 00c205c0 f   kernel.obj
 0001:0000f60c       ?m_GetAsNamedField@Class_Microsoft_Singularity_Hal_Acpi_AmlParserUnions_FieldElement@@SIPAUClass_Microsoft_Singularity_Hal_Acpi_AmlParser_NamedField@@PAU1@@Z 00c2060c f   kernel.obj
 0001:0000f654       ?m_GetAsAccessField@Class_Microsoft_Singularity_Hal_Acpi_AmlParserUnions_FieldElement@@SIPAUClass_Microsoft_Singularity_Hal_Acpi_AmlParser_AccessField@@PAU1@@Z 00c20654 f   kernel.obj
 0001:0000f6a0       ?m_get$_Tag@Class_Microsoft_Singularity_Hal_Acpi_AmlParserUnions_FieldElement@@SI?AUStruct_Microsoft_Singularity_Hal_Acpi_AmlParserUnions_FieldElement_TagValue@@PAU1@@Z 00c206a0 f   kernel.obj
 0001:0000f6bc       ?g_CreateReservedField@Class_Microsoft_Singularity_Hal_Acpi_AmlParserUnions_FieldElement@@SIPAU1@PAUClass_Microsoft_Singularity_Hal_Acpi_AmlParser_ReservedField@@@Z 00c206bc f   kernel.obj
 0001:0000f700       ?g_CreateNamedField@Class_Microsoft_Singularity_Hal_Acpi_AmlParserUnions_FieldElement@@SIPAU1@PAUClass_Microsoft_Singularity_Hal_Acpi_AmlParser_NamedField@@@Z 00c20700 f   kernel.obj
 0001:0000f740       ?g_CreateAccessField@Class_Microsoft_Singularity_Hal_Acpi_AmlParserUnions_FieldElement@@SIPAU1@PAUClass_Microsoft_Singularity_Hal_Acpi_AmlParser_AccessField@@@Z 00c20740 f   kernel.obj
 0001:0000f784       ?m_AcceptAlternative@Class_Microsoft_Singularity_Hal_Acpi_AmlParserUnions_FieldElement@@SIXPAU1@PAUClass_Microsoft_Singularity_Hal_Acpi_AmlParserNodeVisitor@@@Z 00c20784 f   kernel.obj
 0001:0000f7c0       ?m_Accept@Class_Microsoft_Singularity_Hal_Acpi_AmlParserUnions_FieldElement@@SIXPAU1@PAUClass_Microsoft_Singularity_Hal_Acpi_AmlParserNodeVisitor@@@Z 00c207c0 f   kernel.obj
 0001:0000f7ec       ?m__ctor@Class_Microsoft_Singularity_Hal_Acpi_AmlParserUnions_FieldElement@@SIXPAU1@UStruct_Microsoft_Singularity_Hal_Acpi_AmlParserUnions_FieldElement_TagValue@@PAUClass_System_Object@@@Z 00c207ec f   kernel.obj
 0001:0000f828       ?m_HeadMatches@Class_SurrogateMicrosoft_Singularity_Directory_ServiceProviderContract_Imp@@SI_NPAU1@HPA_NPAPAUClass_System_Object@@@Z 00c20828 f   kernel.obj
 0001:0000f854       ?m_GetWaitHandle@Class_SurrogateMicrosoft_Singularity_Directory_ServiceProviderContract_Imp@@SI?AUStruct_Microsoft_Singularity_V1_Threads_SyncHandle@@PAU1@@Z 00c20854 f   kernel.obj
 0001:0000f874       ?g__ctor@Class_SurrogateMicrosoft_Singularity_Directory_ServiceProviderContract_Imp@@SIXPAU1@PAUStruct_Microsoft_Singularity_Directory_ServiceProviderContract_Imp@@@Z 00c20874 f   kernel.obj
 0001:0000f894       ?m_set$_ThenTarget@Class_Microsoft_Singularity_Hal_Acpi_StackIR_JumpIfNonZero@@SIXPAU1@H@Z 00c20894 f   kernel.obj
 0001:0000f8b4       ?m_get$_ThenTarget@Class_Microsoft_Singularity_Hal_Acpi_StackIR_JumpIfNonZero@@SIHPAU1@@Z 00c208b4 f   kernel.obj
 0001:0000f8d0       ?m_Accept@Class_Microsoft_Singularity_Hal_Acpi_StackIR_JumpIfNonZero@@SIXPAU1@PAUClass_Microsoft_Singularity_Hal_Acpi_InterpretStepVisitor@@@Z 00c208d0 f   kernel.obj
 0001:0000f8fc       ?m__ctor@Class_Microsoft_Singularity_Hal_Acpi_StackIR_JumpIfNonZero@@SIXPAU1@@Z 00c208fc f   kernel.obj
 0001:0000f91c       ?m_StructCopy@Struct_Microsoft_Singularity_Directory_DirectoryServiceContract_AckDeleteDirectory@@SIXPAU1@0@Z 00c2091c f   kernel.obj
 0001:0000f938       ?m_StructCopy@Struct_Microsoft_Singularity_Directory_DirectoryServiceContract_AckDeleteDirectory@@SIXPAU1@PAU1@@Z 00c20938 f   kernel.obj
 0001:0000f98c       ?m_MarshallContent@Struct_Microsoft_Singularity_Directory_DirectoryServiceContract_AckDeleteDirectory@@SIXPAU1@PAEPAUStruct_Microsoft_Singularity_Channels_Endpoint@@1PAH@Z 00c2098c f   kernel.obj
 0001:0000f9ac       ?m_MarshallAll@Struct_Microsoft_Singularity_Directory_DirectoryServiceContract_AckDeleteDirectory@@SIXPAU1@PAEPAUStruct_Microsoft_Singularity_Channels_Endpoint@@PAH@Z 00c209ac f   kernel.obj
 0001:0000f9fc       ?m_Equals@Struct_Microsoft_Singularity_Directory_DirectoryServiceContract_AckDeleteDirectory@@SI_NPAU1@PAUClass_System_Object@@@Z 00c209fc f   kernel.obj
 0001:0000fa30       ?m_Equals@Struct_Microsoft_Singularity_Directory_DirectoryServiceContract_AckDeleteDirectory@@SI_NPAUClass_Microsoft_Singularity_Directory_DirectoryServiceContract_AckDeleteDirectory@@PAUClass_System_Object@@@Z 00c20a30 f   kernel.obj
 0001:0000fa54       ?m_StructCopy@Struct_Microsoft_Singularity_Kd_UInt128@@SIXPAU1@0@Z 00c20a54 f   kernel.obj
 0001:0000fa8c       ?m_StructCopy@Struct_Microsoft_Singularity_Kd_UInt128@@SIXPAU1@PAU1@@Z 00c20a8c f   kernel.obj
 0001:0000fb34       ?m_Equals@Struct_Microsoft_Singularity_Kd_UInt128@@SI_NPAU1@PAUClass_System_Object@@@Z 00c20b34 f   kernel.obj
 0001:0000fbb4       ?m_Equals@Struct_Microsoft_Singularity_Kd_UInt128@@SI_NPAUClass_Microsoft_Singularity_Kd_UInt128@@PAUClass_System_Object@@@Z 00c20bb4 f   kernel.obj
 0001:0000fbd8       ?m_Compare@Class_System_Collections_Comparer@@SIHPAU1@PAUClass_System_Object@@1@Z 00c20bd8 f   kernel.obj
 0001:0000fd24       ?m__ctor@Class_System_Collections_Comparer@@SIXPAU1@@Z 00c20d24 f   kernel.obj
 0001:0000fd3c       ?g__cctor@Class_System_Collections_Comparer@@SIXXZ 00c20d3c f   kernel.obj
 0001:0000fd80       ?m__ctor@Class_System_InvalidOperationException@@SIXPAU1@@Z 00c20d80 f   kernel.obj
 0001:0000fda4       ?m__ctor@Class_System_InvalidOperationException@@SIXPAU1@PAUClass_System_String@@@Z 00c20da4 f   kernel.obj
 0001:0000fdc4       ?m__ctor@Class_System_InvalidOperationException@@SIXPAU1@PAUClass_System_String@@PAUClass_System_Exception@@@Z 00c20dc4 f   kernel.obj
 0001:0000fdec       ?m_Visit@Class_System_GCs_ConcurrentMSCollector_StackMarkReferenceVisitor@@SIXPAU1@PAPAUuintPtr@@@Z 00c20dec f   kernel.obj
 0001:0000ffec       ?m_ProcessObjectPtr@Class_System_GCs_ConcurrentMSCollector_StackMarkReferenceVisitor@@SIXPAU1@PAUuintPtr@@PAPAU2@1@Z 00c20fec f   kernel.obj
 0001:00010254       ?m__ctor@Class_System_GCs_ConcurrentMSCollector_StackMarkReferenceVisitor@@SIXPAU1@@Z 00c21254 f   kernel.obj
 0001:00010274       ?m_StructCopy@Struct_Microsoft_Singularity_V1_Threads_AutoResetEventHandle@@SIXPAU1@0@Z 00c21274 f   kernel.obj
 0001:00010294       ?m_StructCopy@Struct_Microsoft_Singularity_V1_Threads_AutoResetEventHandle@@SIXPAU1@PAU1@@Z 00c21294 f   kernel.obj
 0001:000102f4       ?g_SetNoGC$_@Struct_Microsoft_Singularity_V1_Threads_AutoResetEventHandle@@SI_NU1@@Z 00c212f4 f   kernel.obj
 0001:00010314       ?g_SetNoGC@Struct_Microsoft_Singularity_V1_Threads_AutoResetEventHandle@@SI_NU1@@Z 00c21314 f   kernel.obj
 0001:00010740       ?g_SetAll$_@Struct_Microsoft_Singularity_V1_Threads_AutoResetEventHandle@@SI_NU1@@Z 00c21740 f   kernel.obj
 0001:000107c0       ?g_SetAll@Struct_Microsoft_Singularity_V1_Threads_AutoResetEventHandle@@SI_NU1@@Z 00c217c0 f   kernel.obj
 0001:00010c64       ?g_Set$_@Struct_Microsoft_Singularity_V1_Threads_AutoResetEventHandle@@SI_NU1@@Z 00c21c64 f   kernel.obj
 0001:00010ce4       ?g_Set@Struct_Microsoft_Singularity_V1_Threads_AutoResetEventHandle@@SI_NU1@@Z 00c21ce4 f   kernel.obj
 0001:00011188       ?g_Reset$_@Struct_Microsoft_Singularity_V1_Threads_AutoResetEventHandle@@SI_NU1@@Z 00c22188 f   kernel.obj
 0001:00011208       ?g_Reset@Struct_Microsoft_Singularity_V1_Threads_AutoResetEventHandle@@SI_NU1@@Z 00c22208 f   kernel.obj
 0001:000116ac       ?m_Equals@Struct_Microsoft_Singularity_V1_Threads_AutoResetEventHandle@@SI_NPAU1@PAUClass_System_Object@@@Z 00c226ac f   kernel.obj
 0001:000116e8       ?m_Equals@Struct_Microsoft_Singularity_V1_Threads_AutoResetEventHandle@@SI_NPAUClass_Microsoft_Singularity_V1_Threads_AutoResetEventHandle@@PAUClass_System_Object@@@Z 00c226e8 f   kernel.obj
 0001:0001172c       ?g_Dispose$_@Struct_Microsoft_Singularity_V1_Threads_AutoResetEventHandle@@SIXU1@@Z 00c2272c f   kernel.obj
 0001:00011754       ?g_Dispose@Struct_Microsoft_Singularity_V1_Threads_AutoResetEventHandle@@SIXU1@@Z 00c22754 f   kernel.obj
 0001:00011be8       ?g_Dispose@Struct_Microsoft_Singularity_V1_Threads_AutoResetEventHandle@@SIXPAUClass_Microsoft_Singularity_Process@@U1@@Z 00c22be8 f   kernel.obj
 0001:00011c20       ?g_CreateImpl$_@Struct_Microsoft_Singularity_V1_Threads_AutoResetEventHandle@@SI_N_NPAU1@@Z 00c22c20 f   kernel.obj
 0001:00011c44       ?g_CreateImpl@Struct_Microsoft_Singularity_V1_Threads_AutoResetEventHandle@@SI_N_NPAU1@@Z 00c22c44 f   kernel.obj
 0001:000120f4       ?g_Create@Struct_Microsoft_Singularity_V1_Threads_AutoResetEventHandle@@SI_N_NPAU1@@Z 00c230f4 f   kernel.obj
 0001:00012180       ?m__ctor@Struct_Microsoft_Singularity_V1_Threads_AutoResetEventHandle@@SIXPAU1@PAUuintPtr@@@Z 00c23180 f   kernel.obj
 0001:000121a0       ?g__cctor@Struct_Microsoft_Singularity_V1_Threads_AutoResetEventHandle@@SIXXZ 00c231a0 f   kernel.obj
 0001:000121bc       ?m_StructCopy@Struct_Microsoft_Singularity_Directory_DirectoryServiceFeederContract_Imp@@SIXPAU1@0@Z 00c231bc f   kernel.obj
 0001:00012290       ?m_StructCopy@Struct_Microsoft_Singularity_Directory_DirectoryServiceFeederContract_Imp@@SIXPAU1@PAU1@@Z 00c23290 f   kernel.obj
 0001:0001250c       ?m_SendGetNewDirectoryChannel@Struct_Microsoft_Singularity_Directory_DirectoryServiceFeederContract_Imp@@SIXPAU1@@Z 00c2350c f   kernel.obj
 0001:000125e4       ?m_RecvNakNewChannel@Struct_Microsoft_Singularity_Directory_DirectoryServiceFeederContract_Imp@@SIXPAU1@PAUStruct_Microsoft_Singularity_Directory_ErrorCode@@@Z 00c235e4 f   kernel.obj
 0001:0001273c       ?m_RecvAckNewChannel@Struct_Microsoft_Singularity_Directory_DirectoryServiceFeederContract_Imp@@SIXPAU1@PAPAUStruct_Microsoft_Singularity_Directory_DirectoryServiceContract_Imp@@@Z 00c2373c f   kernel.obj
 0001:00012894       ?m_Peek@Struct_Microsoft_Singularity_Directory_DirectoryServiceFeederContract_Imp@@SIHPAU1@@Z 00c23894 f   kernel.obj
 0001:000129e0       ?m_HeadMatches@Struct_Microsoft_Singularity_Directory_DirectoryServiceFeederContract_Imp@@SI_NPAU1@HPA_NPAPAUClass_System_Object@@@Z 00c239e0 f   kernel.obj
 0001:00012a80       ?m_HeadMatches@Struct_Microsoft_Singularity_Directory_DirectoryServiceFeederContract_Imp@@SI_NPAUClass_Microsoft_Singularity_Directory_DirectoryServiceFeederContract_Imp@@HPA_NPAPAUClass_System_Object@@@Z 00c23a80 f   kernel.obj
 0001:00012aac       ?m_Equals@Struct_Microsoft_Singularity_Directory_DirectoryServiceFeederContract_Imp@@SI_NPAU1@PAUClass_System_Object@@@Z 00c23aac f   kernel.obj
 0001:00012df4       ?m_Equals@Struct_Microsoft_Singularity_Directory_DirectoryServiceFeederContract_Imp@@SI_NPAUClass_Microsoft_Singularity_Directory_DirectoryServiceFeederContract_Imp@@PAUClass_System_Object@@@Z 00c23df4 f   kernel.obj
 0001:00012e18       ?m_CurrentState@Struct_Microsoft_Singularity_Directory_DirectoryServiceFeederContract_Imp@@SIPAUClass_System_String@@PAU1@@Z 00c23e18 f   kernel.obj
 0001:00012eac       ?m_Accept@Class_Microsoft_Singularity_Hal_Acpi_AmlParser_BCDValue@@SIXPAU1@PAUClass_Microsoft_Singularity_Hal_Acpi_AmlParserNodeVisitor@@@Z 00c23eac f   kernel.obj
 0001:00012ed8       ?m__ctor@Class_Microsoft_Singularity_Hal_Acpi_AmlParser_BCDValue@@SIXPAU1@@Z 00c23ed8 f   kernel.obj
 0001:00012ef8       ?g_Wait$_@Struct_Microsoft_Singularity_V1_Threads_InterruptHandle@@SI_NU1@@Z 00c23ef8 f   kernel.obj
 0001:00012f88       ?g_Wait@Struct_Microsoft_Singularity_V1_Threads_InterruptHandle@@SI_NU1@@Z 00c23f88 f   kernel.obj
 0001:0001342c       ?m_StructCopy@Struct_Microsoft_Singularity_V1_Threads_InterruptHandle@@SIXPAU1@0@Z 00c2442c f   kernel.obj
 0001:0001344c       ?m_StructCopy@Struct_Microsoft_Singularity_V1_Threads_InterruptHandle@@SIXPAU1@PAU1@@Z 00c2444c f   kernel.obj
 0001:000134ac       ?g_Pulse$_@Struct_Microsoft_Singularity_V1_Threads_InterruptHandle@@SIXU1@@Z 00c244ac f   kernel.obj
 0001:0001352c       ?g_Pulse@Struct_Microsoft_Singularity_V1_Threads_InterruptHandle@@SIXU1@@Z 00c2452c f   kernel.obj
 0001:000139c0       ?m_Equals@Struct_Microsoft_Singularity_V1_Threads_InterruptHandle@@SI_NPAU1@PAUClass_System_Object@@@Z 00c249c0 f   kernel.obj
 0001:000139fc       ?m_Equals@Struct_Microsoft_Singularity_V1_Threads_InterruptHandle@@SI_NPAUClass_Microsoft_Singularity_V1_Threads_InterruptHandle@@PAUClass_System_Object@@@Z 00c249fc f   kernel.obj
 0001:00013a40       ?g_Dispose$_@Struct_Microsoft_Singularity_V1_Threads_InterruptHandle@@SI_NU1@@Z 00c24a40 f   kernel.obj
 0001:00013ad0       ?g_Dispose@Struct_Microsoft_Singularity_V1_Threads_InterruptHandle@@SI_NU1@@Z 00c24ad0 f   kernel.obj
 0001:00013f74       ?g_CreateImpl$_@Struct_Microsoft_Singularity_V1_Threads_InterruptHandle@@SI_NEPAU1@@Z 00c24f74 f   kernel.obj
 0001:00013f98       ?g_CreateImpl@Struct_Microsoft_Singularity_V1_Threads_InterruptHandle@@SI_NEPAU1@@Z 00c24f98 f   kernel.obj
 0001:00014448       ?g_Create@Struct_Microsoft_Singularity_V1_Threads_InterruptHandle@@SI_NEPAU1@@Z 00c25448 f   kernel.obj
 0001:000145b0       ?g_Ack$_@Struct_Microsoft_Singularity_V1_Threads_InterruptHandle@@SI_NU1@@Z 00c255b0 f   kernel.obj
 0001:00014640       ?g_Ack@Struct_Microsoft_Singularity_V1_Threads_InterruptHandle@@SI_NU1@@Z 00c25640 f   kernel.obj
 0001:00014ae4       ?m__ctor@Struct_Microsoft_Singularity_V1_Threads_InterruptHandle@@SIXPAU1@PAUuintPtr@@@Z 00c25ae4 f   kernel.obj
 0001:00014b04       ?g__cctor@Struct_Microsoft_Singularity_V1_Threads_InterruptHandle@@SIXXZ 00c25b04 f   kernel.obj
 0001:00014b20       ?m_StructCopy@Struct_Microsoft_Singularity_Hal_RedirectionEntry@@SIXPAU1@0@Z 00c25b20 f   kernel.obj
 0001:00014b50       ?m_StructCopy@Struct_Microsoft_Singularity_Hal_RedirectionEntry@@SIXPAU1@PAU1@@Z 00c25b50 f   kernel.obj
 0001:00014be0       ?m_Equals@Struct_Microsoft_Singularity_Hal_RedirectionEntry@@SI_NPAU1@PAUClass_System_Object@@@Z 00c25be0 f   kernel.obj
 0001:00014c88       ?m_Equals@Struct_Microsoft_Singularity_Hal_RedirectionEntry@@SI_NPAUClass_Microsoft_Singularity_Hal_RedirectionEntry@@PAUClass_System_Object@@@Z 00c25c88 f   kernel.obj
 0001:00014cac       ?m__ctor@Struct_Microsoft_Singularity_Hal_RedirectionEntry@@SIXPAU1@EUStruct_Microsoft_Singularity_Hal_IoBits@@E@Z 00c25cac f   kernel.obj
 0001:00014cdc       ?m_Unlink@Class_Microsoft_Singularity_Channels_ESet$_2$LMicrosoft_Singularity_Diagnostics_Contracts_MemoryContract_Exp_Microsoft_Singularity_Diagnostics_Contracts_MemoryContract_ReadyState$G_Node@@SIPAUStruct_Microsoft_Singularity_Diagnostics_Contracts_MemoryContract_Exp@@PAU1@PAUClass_Microsoft_Singularity_Channels_ESet$_2$LMicrosoft_Singularity_Diagnostics_Contracts_MemoryContract_Exp_Microsoft_Singularity_Diagnostics_Contracts_MemoryContract_ReadyState$G@@@Z 00c25cdc f   kernel.obj
 0001:00014e04       ?m_LinkAsNext@Class_Microsoft_Singularity_Channels_ESet$_2$LMicrosoft_Singularity_Diagnostics_Contracts_MemoryContract_Exp_Microsoft_Singularity_Diagnostics_Contracts_MemoryContract_ReadyState$G_Node@@SIXPAU1@PAUStruct_Microsoft_Singularity_Diagnostics_Contracts_MemoryContract_Exp@@PAUClass_Microsoft_Singularity_Channels_ESet$_2$LMicrosoft_Singularity_Diagnostics_Contracts_MemoryContract_Exp_Microsoft_Singularity_Diagnostics_Contracts_MemoryContract_ReadyState$G@@@Z 00c25e04 f   kernel.obj
 0001:00014e98       ?m_Init@Class_Microsoft_Singularity_Channels_ESet$_2$LMicrosoft_Singularity_Diagnostics_Contracts_MemoryContract_Exp_Microsoft_Singularity_Diagnostics_Contracts_MemoryContract_ReadyState$G_Node@@SIXPAU1@PAUStruct_Microsoft_Singularity_Diagnostics_Contracts_MemoryContract_Exp@@PAUClass_Microsoft_Singularity_Channels_ESet$_2$LMicrosoft_Singularity_Diagnostics_Contracts_MemoryContract_Exp_Microsoft_Singularity_Diagnostics_Contracts_MemoryContract_ReadyState$G@@@Z 00c25e98 f   kernel.obj
 0001:00014ed0       ?m__ctor@Class_Microsoft_Singularity_Channels_ESet$_2$LMicrosoft_Singularity_Diagnostics_Contracts_MemoryContract_Exp_Microsoft_Singularity_Diagnostics_Contracts_MemoryContract_ReadyState$G_Node@@SIXPAU1@PAUStruct_Microsoft_Singularity_Diagnostics_Contracts_MemoryContract_Exp@@PAUClass_Microsoft_Singularity_Channels_ESet$_2$LMicrosoft_Singularity_Diagnostics_Contracts_MemoryContract_Exp_Microsoft_Singularity_Diagnostics_Contracts_MemoryContract_ReadyState$G@@@Z 00c25ed0 f   kernel.obj
 0001:00014f2c       ?m__ctor@Class_Microsoft_Singularity_Channels_ESet$_2$LMicrosoft_Singularity_Diagnostics_Contracts_MemoryContract_Exp_Microsoft_Singularity_Diagnostics_Contracts_MemoryContract_ReadyState$G_Node@@SIXPAU1@PAUClass_Microsoft_Singularity_Channels_ESet$_2$LMicrosoft_Singularity_Diagnostics_Contracts_MemoryContract_Exp_Microsoft_Singularity_Diagnostics_Contracts_MemoryContract_ReadyState$G@@@Z 00c25f2c f   kernel.obj
 0001:00014f78       ?m_get$_ResourceDescriptors@Class_Microsoft_Singularity_Hal_Acpi_AcpiDevice@@SIPAUClassVector_Class_Microsoft_Singularity_Hal_Acpi_ResourceDescriptor@@PAU1@@Z 00c25f78 f   kernel.obj
 0001:00014f94       ?m_get$_DeviceId@Class_Microsoft_Singularity_Hal_Acpi_AcpiDevice@@SIPAUClass_System_String@@PAU1@@Z 00c25f94 f   kernel.obj
 0001:00014fb0       ?m__ctor@Class_Microsoft_Singularity_Hal_Acpi_AcpiDevice@@SIXPAU1@PAUClass_System_String@@PAUClassVector_Class_Microsoft_Singularity_Hal_Acpi_ResourceDescriptor@@@Z 00c25fb0 f   kernel.obj
 0001:00014fec       ?g_VisitWeakRefsPhase2@Class_System_TryAllManager@@SIXPAU1@PAUClass_System_GCs_DirectReferenceVisitor@@@Z 00c25fec f   kernel.obj
 0001:00015058       ?g_VisitWeakRefsPhase1@Class_System_TryAllManager@@SIXPAU1@PAUClass_System_GCs_DirectReferenceVisitor@@@Z 00c26058 f   kernel.obj
 0001:00015090       ?g_VisitWeakRefs@Class_System_TryAllManager@@SIXPAUClass_System_GCs_DirectReferenceVisitor@@@Z 00c26090 f   kernel.obj
 0001:000150c0       ?g_VisitStrongRefs@Class_System_TryAllManager@@SIXPAU1@PAUClass_System_GCs_DirectReferenceVisitor@@@Z 00c260c0 f   kernel.obj
 0001:00015104       ?g_VisitStrongRefs@Class_System_TryAllManager@@SIXPAUClass_System_GCs_DirectReferenceVisitor@@@Z 00c26104 f   kernel.obj
 0001:00015134       ?m_startNestedTryAllHelper@Class_System_TryAllManager@@SIXPAU1@_NH@Z 00c26134 f   kernel.obj
 0001:00015314       ?m_Shake@Class_System_TryAllManager@@SIXPAU1@_N@Z 00c26314 f   kernel.obj
 0001:00015330       ?g_SetDuringGC@Class_System_TryAllManager@@SIX_N@Z 00c26330 f   kernel.obj
 0001:00015348       ?g_ReplenishTokens@Class_System_TryAllManager@@SIXXZ 00c26348 f   kernel.obj
 0001:00015408       ?g_RemoveCache@Class_System_TryAllManager@@SIXPAU1@@Z 00c26408 f   kernel.obj
 0001:00015430       ?g_ReadBarrier@Class_System_TryAllManager@@SIPAUClass_System_Object@@PAUClass_System_GCs_DirectReferenceVisitor@@PAU2@@Z 00c26430 f   kernel.obj
 0001:0001547c       ?m_InitLocallyAllocatedSTMWords@Class_System_TryAllManager@@SIXPAU1@@Z 00c2647c f   kernel.obj
 0001:000155b0       ?g_EnsureCache@Class_System_TryAllManager@@SIXPAU1@@Z 00c265b0 f   kernel.obj
 0001:00015610       ?g_DumpPerCallSiteStats@Class_System_TryAllManager@@SIXXZ 00c26610 f   kernel.obj
 0001:00015624       ?g_doVisitWeakRefs@Class_System_TryAllManager@@SIXPAUClass_System_GCs_DirectReferenceVisitor@@@Z 00c26624 f   kernel.obj
 0001:00015720       ?g_doVisitStrongRefs@Class_System_TryAllManager@@SIXPAUClass_System_GCs_DirectReferenceVisitor@@@Z 00c26720 f   kernel.obj
 0001:000157c4       ?g_doPreGCHook@Class_System_TryAllManager@@SIXXZ 00c267c4 f   kernel.obj
 0001:00015878       ?g_doPostGCHook@Class_System_TryAllManager@@SIXXZ 00c26878 f   kernel.obj
 0001:00015a4c       ?m_becomeInvalid@Class_System_TryAllManager@@SIXPAU1@_N@Z 00c26a4c f   kernel.obj
 0001:00015ab8       ?m_AllocLocallyAllocatedSTMWords@Class_System_TryAllManager@@SIXPAU1@@Z 00c26ab8 f   kernel.obj
 0001:00015b50       ?m__ctor@Class_System_TryAllManager@@SIXPAU1@@Z 00c26b50 f   kernel.obj
 0001:00015f10       ?g__cctor@Class_System_TryAllManager@@SIXXZ 00c26f10 f   kernel.obj
 0001:00015f44       ?m_Invoke@Class_Microsoft_Singularity_Hal_Acpi_AcpiObject_ReservedMethod@@SIXPAU1@PAUClass_Microsoft_Singularity_Hal_Acpi_AmlInterpreterThread@@PAUClassVector_Class_Microsoft_Singularity_Hal_Acpi_AcpiObject_AcpiObject@@PAUClass_Microsoft_Singularity_Hal_Acpi_AcpiNamespace@@@Z 00c26f44 f   kernel.obj
 0001:00015fa8       ?m__ctor@Class_Microsoft_Singularity_Hal_Acpi_AcpiObject_ReservedMethod@@SIXPAU1@EUStruct_Microsoft_Singularity_Hal_Acpi_AcpiObject_SerializeFlag@@EPAUClass_Microsoft_Singularity_Hal_Acpi_AcpiObject_ReservedMethod_AcpiMethodImpl@@@Z 00c26fa8 f   kernel.obj
 0001:00015fe4       ?m_GetBufferSize@Class_Microsoft_Singularity_Eventing_QueryBuffer@@SIGPAU1@@Z 00c26fe4 f   kernel.obj
 0001:00016000       ?m_GetBuffer@Class_Microsoft_Singularity_Eventing_QueryBuffer@@SIPAUClassVector_uint8@@PAU1@@Z 00c27000 f   kernel.obj
 0001:0001601c       ?m__ctor@Class_Microsoft_Singularity_Eventing_QueryBuffer@@SIXPAU1@G@Z 00c2701c f   kernel.obj
 0001:00016070       ?m_StructCopy@Struct_Microsoft_Singularity_Directory_DirectoryServiceContract_NakGetAttributesReparse@@SIXPAU1@0@Z 00c27070 f   kernel.obj
 0001:0001609c       ?m_StructCopy@Struct_Microsoft_Singularity_Directory_DirectoryServiceContract_NakGetAttributesReparse@@SIXPAU1@PAU1@@Z 00c2709c f   kernel.obj
 0001:00016120       ?m_MarshallContent@Struct_Microsoft_Singularity_Directory_DirectoryServiceContract_NakGetAttributesReparse@@SIXPAU1@PAEPAUStruct_Microsoft_Singularity_Channels_Endpoint@@1PAH@Z 00c27120 f   kernel.obj
 0001:0001626c       ?m_MarshallAll@Struct_Microsoft_Singularity_Directory_DirectoryServiceContract_NakGetAttributesReparse@@SIXPAU1@PAEPAUStruct_Microsoft_Singularity_Channels_Endpoint@@PAH@Z 00c2726c f   kernel.obj
 0001:000162bc       ?m_Equals@Struct_Microsoft_Singularity_Directory_DirectoryServiceContract_NakGetAttributesReparse@@SI_NPAU1@PAUClass_System_Object@@@Z 00c272bc f   kernel.obj
 0001:00016310       ?m_Equals@Struct_Microsoft_Singularity_Directory_DirectoryServiceContract_NakGetAttributesReparse@@SI_NPAUClass_Microsoft_Singularity_Directory_DirectoryServiceContract_NakGetAttributesReparse@@PAUClass_System_Object@@@Z 00c27310 f   kernel.obj
 0001:00016334       ?m_StructCopy@Struct_Microsoft_Singularity_Directory_DirectoryServiceContract_AckCreateDirectory@@SIXPAU1@0@Z 00c27334 f   kernel.obj
 0001:00016350       ?m_StructCopy@Struct_Microsoft_Singularity_Directory_DirectoryServiceContract_AckCreateDirectory@@SIXPAU1@PAU1@@Z 00c27350 f   kernel.obj
 0001:000163a4       ?m_MarshallContent@Struct_Microsoft_Singularity_Directory_DirectoryServiceContract_AckCreateDirectory@@SIXPAU1@PAEPAUStruct_Microsoft_Singularity_Channels_Endpoint@@1PAH@Z 00c273a4 f   kernel.obj
 0001:000163c4       ?m_MarshallAll@Struct_Microsoft_Singularity_Directory_DirectoryServiceContract_AckCreateDirectory@@SIXPAU1@PAEPAUStruct_Microsoft_Singularity_Channels_Endpoint@@PAH@Z 00c273c4 f   kernel.obj
 0001:00016414       ?m_Equals@Struct_Microsoft_Singularity_Directory_DirectoryServiceContract_AckCreateDirectory@@SI_NPAU1@PAUClass_System_Object@@@Z 00c27414 f   kernel.obj
 0001:00016448       ?m_Equals@Struct_Microsoft_Singularity_Directory_DirectoryServiceContract_AckCreateDirectory@@SI_NPAUClass_Microsoft_Singularity_Directory_DirectoryServiceContract_AckCreateDirectory@@PAUClass_System_Object@@@Z 00c27448 f   kernel.obj
 0001:0001646c       ?g_Parse@Class_Microsoft_Singularity_Hal_Acpi_ResourceDescriptorParser@@SIPAUClassVector_Class_Microsoft_Singularity_Hal_Acpi_ResourceDescriptor@@PAUClassVector_uint8@@@Z 00c2746c f   kernel.obj
 0001:00017790       ?g_BuildUInt64@Class_Microsoft_Singularity_Hal_Acpi_ResourceDescriptorParser@@SI_KPAUClassVector_uint8@@H@Z 00c28790 f   kernel.obj
 0001:000178d8       ?g_BuildUInt32@Class_Microsoft_Singularity_Hal_Acpi_ResourceDescriptorParser@@SIIPAUClassVector_uint8@@H@Z 00c288d8 f   kernel.obj
 0001:00017954       ?g_BuildUInt16@Class_Microsoft_Singularity_Hal_Acpi_ResourceDescriptorParser@@SIGPAUClassVector_uint8@@H@Z 00c28954 f   kernel.obj
 0001:000179a0       ?m__ctor@Class_Microsoft_Singularity_Hal_Acpi_ResourceDescriptorParser@@SIXPAU1@@Z 00c289a0 f   kernel.obj
 0001:000179b8       ?m_StructCopy@Struct_Microsoft_Singularity_Directory_DirectoryServiceContract_NakCreateFileReparse@@SIXPAU1@0@Z 00c289b8 f   kernel.obj
 0001:000179e4       ?m_StructCopy@Struct_Microsoft_Singularity_Directory_DirectoryServiceContract_NakCreateFileReparse@@SIXPAU1@PAU1@@Z 00c289e4 f   kernel.obj
 0001:00017a68       ?m_MarshallContent@Struct_Microsoft_Singularity_Directory_DirectoryServiceContract_NakCreateFileReparse@@SIXPAU1@PAEPAUStruct_Microsoft_Singularity_Channels_Endpoint@@1PAH@Z 00c28a68 f   kernel.obj
 0001:00017bb4       ?m_MarshallAll@Struct_Microsoft_Singularity_Directory_DirectoryServiceContract_NakCreateFileReparse@@SIXPAU1@PAEPAUStruct_Microsoft_Singularity_Channels_Endpoint@@PAH@Z 00c28bb4 f   kernel.obj
 0001:00017c04       ?m_Equals@Struct_Microsoft_Singularity_Directory_DirectoryServiceContract_NakCreateFileReparse@@SI_NPAU1@PAUClass_System_Object@@@Z 00c28c04 f   kernel.obj
 0001:00017c58       ?m_Equals@Struct_Microsoft_Singularity_Directory_DirectoryServiceContract_NakCreateFileReparse@@SI_NPAUClass_Microsoft_Singularity_Directory_DirectoryServiceContract_NakCreateFileReparse@@PAUClass_System_Object@@@Z 00c28c58 f   kernel.obj
 0001:00017c7c       ?m__ctor@Class_Microsoft_Singularity_Directory_NotificationManager_RequestEntry@@SIXPAU1@PAUClass_Microsoft_Singularity_Directory_DirNode@@PAUClass_System_String@@UStruct_Microsoft_Singularity_Directory_NotifyType@@@Z 00c28c7c f   kernel.obj
 0001:00017cc4       ?m_StructCopy@Struct_Microsoft_Singularity_Diagnostics_Contracts_MemoryContract_GetProcessPeakMemory@@SIXPAU1@0@Z 00c28cc4 f   kernel.obj
 0001:00017ce4       ?m_StructCopy@Struct_Microsoft_Singularity_Diagnostics_Contracts_MemoryContract_GetProcessPeakMemory@@SIXPAU1@PAU1@@Z 00c28ce4 f   kernel.obj
 0001:00017d44       ?m_Equals@Struct_Microsoft_Singularity_Diagnostics_Contracts_MemoryContract_GetProcessPeakMemory@@SI_NPAU1@PAUClass_System_Object@@@Z 00c28d44 f   kernel.obj
 0001:00017d80       ?m_Equals@Struct_Microsoft_Singularity_Diagnostics_Contracts_MemoryContract_GetProcessPeakMemory@@SI_NPAUClass_Microsoft_Singularity_Diagnostics_Contracts_MemoryContract_GetProcessPeakMemory@@PAUClass_System_Object@@@Z 00c28d80 f   kernel.obj
 0001:00017da4       ?m_Push@Class_Microsoft_Singularity_Hal_Acpi_AmlInterpreterThread_AmlStack@@SIXPAU1@PAUClass_Microsoft_Singularity_Hal_Acpi_AmlStackFrame@@@Z 00c28da4 f   kernel.obj
 0001:00017dcc       ?m_Pop@Class_Microsoft_Singularity_Hal_Acpi_AmlInterpreterThread_AmlStack@@SIPAUClass_Microsoft_Singularity_Hal_Acpi_AmlStackFrame@@PAU1@@Z 00c28dcc f   kernel.obj
 0001:00017e08       ?m_Peek@Class_Microsoft_Singularity_Hal_Acpi_AmlInterpreterThread_AmlStack@@SIPAUClass_Microsoft_Singularity_Hal_Acpi_AmlStackFrame@@PAU1@@Z 00c28e08 f   kernel.obj
 0001:00017e44       ?m_IsEmpty@Class_Microsoft_Singularity_Hal_Acpi_AmlInterpreterThread_AmlStack@@SI_NPAU1@@Z 00c28e44 f   kernel.obj
 0001:00017e6c       ?m__ctor@Class_Microsoft_Singularity_Hal_Acpi_AmlInterpreterThread_AmlStack@@SIXPAU1@@Z 00c28e6c f   kernel.obj
 0001:00017eb4       ?m_Load@Class_Microsoft_Singularity_Hal_Acpi_AmlLoader@@SIXPAU1@PAUClass_Microsoft_Singularity_Hal_Acpi_AmlParser_AMLCode@@@Z 00c28eb4 f   kernel.obj
 0001:00017fe8       ?m_get$_OperationRegionAccessor@Class_Microsoft_Singularity_Hal_Acpi_AmlLoader@@SIPAUClass_Microsoft_Singularity_Hal_Acpi_AcpiObject_IOperationRegionAccessor@@PAU1@@Z 00c28fe8 f   kernel.obj
 0001:00018004       ?g_CheckObjectType@Class_Microsoft_Singularity_Hal_Acpi_AmlLoader@@SIXPAUClass_Microsoft_Singularity_Hal_Acpi_AcpiObject_AcpiObject@@UStruct_Microsoft_Singularity_Hal_Acpi_AcpiObject_AcpiObjectType@@@Z 00c29004 f   kernel.obj
 0001:0001806c       ?m__ctor@Class_Microsoft_Singularity_Hal_Acpi_AmlLoader@@SIXPAU1@PAUClass_Microsoft_Singularity_Hal_Acpi_AcpiNamespace@@PAUClass_Microsoft_Singularity_Hal_Acpi_AcpiObject_IOperationRegionAccessor@@@Z 00c2906c f   kernel.obj
 0001:000180a8       ?m_GetChild@Class_Microsoft_Singularity_Xml_XmlNode@@SIPAU1@PAU1@PAUClass_System_String@@@Z 00c290a8 f   kernel.obj
 0001:0001811c       ?m_GetAttributeAsUIntPtr@Class_Microsoft_Singularity_Xml_XmlNode@@SIPAUuintPtr@@PAU1@PAUClass_System_String@@PAU2@@Z 00c2911c f   kernel.obj
 0001:0001819c       ?m_GetAttribute@Class_Microsoft_Singularity_Xml_XmlNode@@SIHPAU1@PAUClass_System_String@@H@Z 00c2919c f   kernel.obj
 0001:0001821c       ?m_GetAttribute@Class_Microsoft_Singularity_Xml_XmlNode@@SIPAUClass_System_String@@PAU1@PAU2@1@Z 00c2921c f   kernel.obj
 0001:00018250       ?m_GetAttribute@Class_Microsoft_Singularity_Xml_XmlNode@@SI_NPAU1@PAUClass_System_String@@_N@Z 00c29250 f   kernel.obj
 0001:000182b0       ?m_get$_Name@Class_Microsoft_Singularity_Xml_XmlNode@@SIPAUClass_System_String@@PAU1@@Z 00c292b0 f   kernel.obj
 0001:000182cc       ?m_get$_Item@Class_Microsoft_Singularity_Xml_XmlNode@@SIPAUClass_System_String@@PAU1@PAU2@@Z 00c292cc f   kernel.obj
 0001:000183b0       ?m_get$_Children@Class_Microsoft_Singularity_Xml_XmlNode@@SIPAUClassVector_Class_Microsoft_Singularity_Xml_XmlNode@@PAU1@@Z 00c293b0 f   kernel.obj
 0001:000184c4       ?m_CountNamedChildren@Class_Microsoft_Singularity_Xml_XmlNode@@SIHPAU1@PAUClass_System_String@@@Z 00c294c4 f   kernel.obj
 0001:00018548       ?m_AddText@Class_Microsoft_Singularity_Xml_XmlNode@@SIXPAU1@PAUClass_System_String@@@Z 00c29548 f   kernel.obj
 0001:0001857c       ?m_AddChild@Class_Microsoft_Singularity_Xml_XmlNode@@SIXPAU1@0@Z 00c2957c f   kernel.obj
 0001:000186c0       ?m_AddAttribute@Class_Microsoft_Singularity_Xml_XmlNode@@SIXPAU1@PAUClass_System_String@@1@Z 00c296c0 f   kernel.obj
 0001:00018890       ?m__ctor@Class_Microsoft_Singularity_Xml_XmlNode@@SIXPAU1@PAUClass_System_String@@@Z 00c29890 f   kernel.obj
 0001:000188d8       ?m_TryReadByteDataArray@Class_Microsoft_Singularity_Hal_Acpi_ByteBufferAmlStreamAdapter@@SI_NPAU1@PAHHPAPAUClassVector_uint8@@@Z 00c298d8 f   kernel.obj
 0001:00018954       ?m_TryReadByteData@Class_Microsoft_Singularity_Hal_Acpi_ByteBufferAmlStreamAdapter@@SI_NPAU1@PAHPAE@Z 00c29954 f   kernel.obj
 0001:000189a0       ?m_ReadWordData@Class_Microsoft_Singularity_Hal_Acpi_ByteBufferAmlStreamAdapter@@SIGPAU1@PAH@Z 00c299a0 f   kernel.obj
 0001:00018a1c       ?m_ReadQWordData@Class_Microsoft_Singularity_Hal_Acpi_ByteBufferAmlStreamAdapter@@SI_KPAU1@PAH@Z 00c29a1c f   kernel.obj
 0001:00018bb8       ?m_ReadDWordData@Class_Microsoft_Singularity_Hal_Acpi_ByteBufferAmlStreamAdapter@@SIIPAU1@PAH@Z 00c29bb8 f   kernel.obj
 0001:00018c68       ?m_ReadChar@Class_Microsoft_Singularity_Hal_Acpi_ByteBufferAmlStreamAdapter@@SI_WPAU1@PAH@Z 00c29c68 f   kernel.obj
 0001:00018cc8       ?m_ReadByteDataArray@Class_Microsoft_Singularity_Hal_Acpi_ByteBufferAmlStreamAdapter@@SIPAUClassVector_uint8@@PAU1@PAHH@Z 00c29cc8 f   kernel.obj
 0001:00018d5c       ?m_ReadByteData@Class_Microsoft_Singularity_Hal_Acpi_ByteBufferAmlStreamAdapter@@SIEPAU1@PAH@Z 00c29d5c f   kernel.obj
 0001:00018db8       ?m__ctor@Class_Microsoft_Singularity_Hal_Acpi_ByteBufferAmlStreamAdapter@@SIXPAU1@PAUClassVector_uint8@@@Z 00c29db8 f   kernel.obj
 0001:00018de0       ?m_VerifyTailedList@Struct_System_GCs_SegregatedFreeList_PageHeaderList@@SIXPAU1@@Z 00c29de0 f   kernel.obj
 0001:00018e74       ?m_StructCopy@Struct_System_GCs_SegregatedFreeList_PageHeaderList@@SIXPAU1@0@Z 00c29e74 f   kernel.obj
 0001:00018e9c       ?m_StructCopy@Struct_System_GCs_SegregatedFreeList_PageHeaderList@@SIXPAU1@PAU1@@Z 00c29e9c f   kernel.obj
 0001:00018f14       ?m_RemoveHead@Struct_System_GCs_SegregatedFreeList_PageHeaderList@@SIPAUStruct_System_GCs_SegregatedFreeList_PageHeader@@PAU1@@Z 00c29f14 f   kernel.obj
 0001:00018f44       ?m_get$_IsEmpty@Struct_System_GCs_SegregatedFreeList_PageHeaderList@@SI_NPAU1@@Z 00c29f44 f   kernel.obj
 0001:00018f64       ?m_Equals@Struct_System_GCs_SegregatedFreeList_PageHeaderList@@SI_NPAU1@PAUClass_System_Object@@@Z 00c29f64 f   kernel.obj
 0001:00018fb0       ?m_Equals@Struct_System_GCs_SegregatedFreeList_PageHeaderList@@SI_NPAUClass_System_GCs_SegregatedFreeList_PageHeaderList@@PAUClass_System_Object@@@Z 00c29fb0 f   kernel.obj
 0001:00018fd4       ?m_Append@Struct_System_GCs_SegregatedFreeList_PageHeaderList@@SIXPAU1@PAUStruct_System_GCs_SegregatedFreeList_PageHeader@@@Z 00c29fd4 f   kernel.obj
 0001:00019024       ?m_Append@Struct_System_GCs_SegregatedFreeList_PageHeaderList@@SIXPAU1@U1@@Z 00c2a024 f   kernel.obj
 0001:00019078       ?g_WritePerfCounter@Class_Microsoft_Singularity_DebugStub@@SI_NI_K@Z 00c2a078 f   kernel.obj
 0001:00019200       ?g_WriteLine@Class_Microsoft_Singularity_DebugStub@@SIXPAUClass_System_String@@@Z 00c2a200 f   kernel.obj
 0001:00019250       ?g_WriteLine@Class_Microsoft_Singularity_DebugStub@@SIXPAUClass_System_String@@UStruct_System_VarargList@@@Z 00c2a250 f   kernel.obj
 0001:000192ac       ?g_WriteLine@Class_Microsoft_Singularity_DebugStub@@SIXPAUClass_System_String@@UStruct_System_ArgIterator@@@Z 00c2a2ac f   kernel.obj
 0001:00019354       ?g_WriteLine@Class_Microsoft_Singularity_DebugStub@@SIXXZ 00c2a354 f   kernel.obj
 0001:000193a0       ?g_Write@Class_Microsoft_Singularity_DebugStub@@SIXPAUClass_System_String@@@Z 00c2a3a0 f   kernel.obj
 0001:000193f0       ?g_Write@Class_Microsoft_Singularity_DebugStub@@SIXPAUClass_System_String@@UStruct_System_VarargList@@@Z 00c2a3f0 f   kernel.obj
 0001:0001944c       ?g_Write@Class_Microsoft_Singularity_DebugStub@@SIXPAUClass_System_String@@UStruct_System_ArgIterator@@@Z 00c2a44c f   kernel.obj
 0001:000194dc       ?g_ReadPerfCounter@Class_Microsoft_Singularity_DebugStub@@SI_KI@Z 00c2a4dc f   kernel.obj
 0001:000195ec       ?g_Print@Class_Microsoft_Singularity_DebugStub@@SIXH@Z 00c2a5ec f   kernel.obj
 0001:00019654       ?g_Print@Class_Microsoft_Singularity_DebugStub@@SIXPAUClass_System_String@@@Z 00c2a654 f   kernel.obj
 0001:000196a4       ?g_Print@Class_Microsoft_Singularity_DebugStub@@SIXPAUClass_System_String@@UStruct_System_VarargList@@@Z 00c2a6a4 f   kernel.obj
 0001:00019700       ?g_Print@Class_Microsoft_Singularity_DebugStub@@SIXPAUClass_System_String@@UStruct_System_ArgIterator@@@Z 00c2a700 f   kernel.obj
 0001:00019790       ?g_failAssert@Class_Microsoft_Singularity_DebugStub@@SIXPAUClass_System_String@@@Z 00c2a790 f   kernel.obj
 0001:00019814       ?g_failAssert@Class_Microsoft_Singularity_DebugStub@@SIXPAUClass_System_String@@UStruct_System_ArgIterator@@@Z 00c2a814 f   kernel.obj
 0001:00019868       ?g_Assert@Class_Microsoft_Singularity_DebugStub@@SIX_N@Z 00c2a868 f   kernel.obj
 0001:0001988c       ?g_Assert@Class_Microsoft_Singularity_DebugStub@@SIX_NPAUClass_System_String@@@Z 00c2a88c f   kernel.obj
 0001:000198b4       ?g_Assert@Class_Microsoft_Singularity_DebugStub@@SIX_NPAUClass_System_String@@UStruct_System_VarargList@@@Z 00c2a8b4 f   kernel.obj
 0001:00019914       ?g_AddToPerfCounter@Class_Microsoft_Singularity_DebugStub@@SI_NI_K@Z 00c2a914 f   kernel.obj
 0001:00019a9c       ?m__ctor@Class_Microsoft_Singularity_DebugStub@@SIXPAU1@@Z 00c2aa9c f   kernel.obj
 0001:00019ab4       ?m_FieldOffset@Class_System_GCs_Barrier_ZeroFieldsVisitor@@SIXPAU1@PAUuintPtr@@PAUStruct_System_GCs_ReferenceVisitor_ObjectDescriptor@@@Z 00c2aab4 f   kernel.obj
 0001:00019b2c       ?m__ctor@Class_System_GCs_Barrier_ZeroFieldsVisitor@@SIXPAU1@@Z 00c2ab2c f   kernel.obj
 0001:00019b4c       ?m_Accept@Class_Microsoft_Singularity_Hal_Acpi_AmlParser_DefBreakPoint@@SIXPAU1@PAUClass_Microsoft_Singularity_Hal_Acpi_AmlParserNodeVisitor@@@Z 00c2ab4c f   kernel.obj
 0001:00019b78       ?m__ctor@Class_Microsoft_Singularity_Hal_Acpi_AmlParser_DefBreakPoint@@SIXPAU1@@Z 00c2ab78 f   kernel.obj
 0001:00019b98       ?m_StructCopy@Struct_Microsoft_Singularity_Isal_IX_EFlags@@SIXPAU1@0@Z 00c2ab98 f   kernel.obj
 0001:00019bb4       ?m_StructCopy@Struct_Microsoft_Singularity_Isal_IX_EFlags@@SIXPAU1@PAU1@@Z 00c2abb4 f   kernel.obj
 0001:00019c08       ?m_Equals@Struct_Microsoft_Singularity_Isal_IX_EFlags@@SI_NPAU1@PAUClass_System_Object@@@Z 00c2ac08 f   kernel.obj
 0001:00019c3c       ?m_Equals@Struct_Microsoft_Singularity_Isal_IX_EFlags@@SI_NPAUClass_Microsoft_Singularity_Isal_IX_EFlags@@PAUClass_System_Object@@@Z 00c2ac3c f   kernel.obj
 0001:00019c60       ?g_TestAllCases@Class_Microsoft_Singularity_Eventing_TestKernelLogging@@SIXXZ 00c2ac60 f   kernel.obj
 0001:00019c78       ?g_TableHeadDelegate@Class_Microsoft_Singularity_Eventing_TestKernelLogging@@SI_NPAUClass_Microsoft_Singularity_Eventing_FieldDescriptor@@PAUClass_System_Object@@PAPAUClass_Microsoft_Singularity_Eventing_EnumerationContext@@@Z 00c2ac78 f   kernel.obj
 0001:00019cc4       ?g_SourceDelegate@Class_Microsoft_Singularity_Eventing_TestKernelLogging@@SI_NPAUuintPtr@@00GPAUClass_System_String@@PAUClass_Microsoft_Singularity_Eventing_EventDescriptor@@PAPAUClass_Microsoft_Singularity_Eventing_EnumerationContext@@@Z 00c2acc4 f   kernel.obj
 0001:00019edc       ?g_ListActiveSources@Class_Microsoft_Singularity_Eventing_TestKernelLogging@@SIXXZ 00c2aedc f   kernel.obj
 0001:00019fe4       ?g_fieldDelegate@Class_Microsoft_Singularity_Eventing_TestKernelLogging@@SI_NPAUClass_Microsoft_Singularity_Eventing_FieldDescriptor@@PAUClass_System_Object@@PAPAUClass_Microsoft_Singularity_Eventing_EnumerationContext@@@Z 00c2afe4 f   kernel.obj
 0001:0001a0dc       ?g_EntryDelegate@Class_Microsoft_Singularity_Eventing_TestKernelLogging@@SI_NPAUClass_Microsoft_Singularity_Eventing_EventDescriptor@@PAUClass_Microsoft_Singularity_Eventing_QueryBuffer@@PAPAUClass_Microsoft_Singularity_Eventing_EnumerationContext@@@Z 00c2b0dc f   kernel.obj
 0001:0001a150       ?g_ActiveFieldDelegate@Class_Microsoft_Singularity_Eventing_TestKernelLogging@@SI_NPAUClass_Microsoft_Singularity_Eventing_FieldDescriptor@@PAUClass_System_Object@@PAPAUClass_Microsoft_Singularity_Eventing_EnumerationContext@@@Z 00c2b150 f   kernel.obj
 0001:0001a1a4       ?g_ActiveEntryDelegate@Class_Microsoft_Singularity_Eventing_TestKernelLogging@@SI_NPAUuintPtr@@HPAUClass_Microsoft_Singularity_Eventing_EventDescriptor@@PAUClass_Microsoft_Singularity_Eventing_QueryBuffer@@PAPAUClass_Microsoft_Singularity_Eventing_EnumerationContext@@@Z 00c2b1a4 f   kernel.obj
 0001:0001a244       ?m__ctor@Class_Microsoft_Singularity_Eventing_TestKernelLogging@@SIXPAU1@@Z 00c2b244 f   kernel.obj
 0001:0001a25c       ?m_Accept@Class_Microsoft_Singularity_Hal_Acpi_AmlParser_DefRefOf@@SIXPAU1@PAUClass_Microsoft_Singularity_Hal_Acpi_AmlParserNodeVisitor@@@Z 00c2b25c f   kernel.obj
 0001:0001a288       ?m__ctor@Class_Microsoft_Singularity_Hal_Acpi_AmlParser_DefRefOf@@SIXPAU1@@Z 00c2b288 f   kernel.obj
 0001:0001a2a8       ?m_StructCopy@Struct_System_UpdateLogWriter@@SIXPAU1@0@Z 00c2b2a8 f   kernel.obj
 0001:0001a2d0       ?m_StructCopy@Struct_System_UpdateLogWriter@@SIXPAU1@PAU1@@Z 00c2b2d0 f   kernel.obj
 0001:0001a348       ?m_Equals@Struct_System_UpdateLogWriter@@SI_NPAU1@PAUClass_System_Object@@@Z 00c2b348 f   kernel.obj
 0001:0001a394       ?m_Equals@Struct_System_UpdateLogWriter@@SI_NPAUClass_System_UpdateLogWriter@@PAUClass_System_Object@@@Z 00c2b394 f   kernel.obj
 0001:0001a3b8       ?m_StructCopy@Struct_Microsoft_Singularity_Directory_DirectoryServiceContract_NakStoreACLReparse@@SIXPAU1@0@Z 00c2b3b8 f   kernel.obj
 0001:0001a3e4       ?m_StructCopy@Struct_Microsoft_Singularity_Directory_DirectoryServiceContract_NakStoreACLReparse@@SIXPAU1@PAU1@@Z 00c2b3e4 f   kernel.obj
 0001:0001a468       ?m_MarshallContent@Struct_Microsoft_Singularity_Directory_DirectoryServiceContract_NakStoreACLReparse@@SIXPAU1@PAEPAUStruct_Microsoft_Singularity_Channels_Endpoint@@1PAH@Z 00c2b468 f   kernel.obj
 0001:0001a5b4       ?m_MarshallAll@Struct_Microsoft_Singularity_Directory_DirectoryServiceContract_NakStoreACLReparse@@SIXPAU1@PAEPAUStruct_Microsoft_Singularity_Channels_Endpoint@@PAH@Z 00c2b5b4 f   kernel.obj
 0001:0001a604       ?m_Equals@Struct_Microsoft_Singularity_Directory_DirectoryServiceContract_NakStoreACLReparse@@SI_NPAU1@PAUClass_System_Object@@@Z 00c2b604 f   kernel.obj
 0001:0001a658       ?m_Equals@Struct_Microsoft_Singularity_Directory_DirectoryServiceContract_NakStoreACLReparse@@SI_NPAUClass_Microsoft_Singularity_Directory_DirectoryServiceContract_NakStoreACLReparse@@PAUClass_System_Object@@@Z 00c2b658 f   kernel.obj
 0001:0001a67c       ?m_Accept@Class_Microsoft_Singularity_Hal_Acpi_AmlParser_ObjReference@@SIXPAU1@PAUClass_Microsoft_Singularity_Hal_Acpi_AmlParserNodeVisitor@@@Z 00c2b67c f   kernel.obj
 0001:0001a6ac       ?m__ctor@Class_Microsoft_Singularity_Hal_Acpi_AmlParser_ObjReference@@SIXPAU1@@Z 00c2b6ac f   kernel.obj
 0001:0001a6cc       ?m_Accept@Class_Microsoft_Singularity_Hal_Acpi_AmlParser_NamedField@@SIXPAU1@PAUClass_Microsoft_Singularity_Hal_Acpi_AmlParserNodeVisitor@@@Z 00c2b6cc f   kernel.obj
 0001:0001a6f8       ?m__ctor@Class_Microsoft_Singularity_Hal_Acpi_AmlParser_NamedField@@SIXPAU1@@Z 00c2b6f8 f   kernel.obj
 0001:0001a718       ?g_SendRequestWaitResponse@Class_Microsoft_Singularity_KernelDebugger_Kd@@SI_NUStruct_Microsoft_Singularity_KernelDebugger_KdPacketType@@PAEH1H1H1HPAH@Z 00c2b718 f   kernel.obj
 0001:0001a890       ?g_SendPacket@Class_Microsoft_Singularity_KernelDebugger_Kd@@SIXUStruct_Microsoft_Singularity_KernelDebugger_KdPacketType@@PAEH1H@Z 00c2b890 f   kernel.obj
 0001:0001a8bc       ?g_IsDebuggerPresent@Class_Microsoft_Singularity_KernelDebugger_Kd@@SI_NXZ 00c2b8bc f   kernel.obj
 0001:0001a8d4       ?g_Dbg@Class_Microsoft_Singularity_KernelDebugger_Kd@@SIXPAUClass_System_String@@@Z 00c2b8d4 f   kernel.obj
 0001:0001a928       ?g_Dbg@Class_Microsoft_Singularity_KernelDebugger_Kd@@SIXPAUClass_System_String@@PAUClassVector_Class_System_Object@@@Z 00c2b928 f   kernel.obj
 0001:0001a950       ?m__ctor@Class_Microsoft_Singularity_KernelDebugger_Kd@@SIXPAU1@@Z 00c2b950 f   kernel.obj
 0001:0001a968       ?m_Accept@Class_Microsoft_Singularity_Hal_Acpi_AmlParser_DefConcat@@SIXPAU1@PAUClass_Microsoft_Singularity_Hal_Acpi_AmlParserNodeVisitor@@@Z 00c2b968 f   kernel.obj
 0001:0001a998       ?m__ctor@Class_Microsoft_Singularity_Hal_Acpi_AmlParser_DefConcat@@SIXPAU1@@Z 00c2b998 f   kernel.obj
 0001:0001a9b8       ?g_CreateNameString@Class_Microsoft_Singularity_Hal_Acpi_AmlParserUnions_PackageElement@@SIPAU1@PAUClass_Microsoft_Singularity_Hal_Acpi_AmlParser_NameString@@@Z 00c2b9b8 f   kernel.obj
 0001:0001a9fc       ?g_CreateDataRefObject@Class_Microsoft_Singularity_Hal_Acpi_AmlParserUnions_PackageElement@@SIPAU1@PAUClass_Microsoft_Singularity_Hal_Acpi_AmlParserUnions_DataRefObject@@@Z 00c2b9fc f   kernel.obj
 0001:0001aa3c       ?m_AcceptAlternative@Class_Microsoft_Singularity_Hal_Acpi_AmlParserUnions_PackageElement@@SIXPAU1@PAUClass_Microsoft_Singularity_Hal_Acpi_AmlParserNodeVisitor@@@Z 00c2ba3c f   kernel.obj
 0001:0001aa78       ?m_Accept@Class_Microsoft_Singularity_Hal_Acpi_AmlParserUnions_PackageElement@@SIXPAU1@PAUClass_Microsoft_Singularity_Hal_Acpi_AmlParserNodeVisitor@@@Z 00c2ba78 f   kernel.obj
 0001:0001aaa4       ?m__ctor@Class_Microsoft_Singularity_Hal_Acpi_AmlParserUnions_PackageElement@@SIXPAU1@UStruct_Microsoft_Singularity_Hal_Acpi_AmlParserUnions_PackageElement_TagValue@@PAUClass_System_Object@@@Z 00c2baa4 f   kernel.obj
 0001:0001aae0       ?m_StructCopy@Struct_Microsoft_Singularity_Isal_IX_PT@@SIXPAU1@0@Z 00c2bae0 f   kernel.obj
 0001:0001ab04       ?m_StructCopy@Struct_Microsoft_Singularity_Isal_IX_PT@@SIXPAU1@PAU1@@Z 00c2bb04 f   kernel.obj
 0001:0001ab70       ?m_Init@Struct_Microsoft_Singularity_Isal_IX_PT@@SIXPAU1@@Z 00c2bb70 f   kernel.obj
 0001:0001ac00       ?m_get$_Item@Struct_Microsoft_Singularity_Isal_IX_PT@@SIPAUStruct_Microsoft_Singularity_Isal_IX_PTE@@PAU1@I@Z 00c2bc00 f   kernel.obj
 0001:0001ac6c       ?m_Equals@Struct_Microsoft_Singularity_Isal_IX_PT@@SI_NPAU1@PAUClass_System_Object@@@Z 00c2bc6c f   kernel.obj
 0001:0001ad0c       ?m_Equals@Struct_Microsoft_Singularity_Isal_IX_PT@@SI_NPAUClass_Microsoft_Singularity_Isal_IX_PT@@PAUClass_System_Object@@@Z 00c2bd0c f   kernel.obj
 0001:0001ad30       ?m_StructCopy@Struct_Microsoft_Singularity_Kd_X86Unaligned128@@SIXPAU1@0@Z 00c2bd30 f   kernel.obj
 0001:0001ad64       ?m_StructCopy@Struct_Microsoft_Singularity_Kd_X86Unaligned128@@SIXPAU1@PAU1@@Z 00c2bd64 f   kernel.obj
 0001:0001ae00       ?m_Equals@Struct_Microsoft_Singularity_Kd_X86Unaligned128@@SI_NPAU1@PAUClass_System_Object@@@Z 00c2be00 f   kernel.obj
 0001:0001ae5c       ?m_Equals@Struct_Microsoft_Singularity_Kd_X86Unaligned128@@SI_NPAUClass_Microsoft_Singularity_Kd_X86Unaligned128@@PAUClass_System_Object@@@Z 00c2be5c f   kernel.obj
 0001:0001ae80       ?m_Write@Class_Microsoft_Singularity_Hal_Acpi_DebugIoLocation@@SIXPAU1@PAUClass_Microsoft_Singularity_Hal_Acpi_AcpiObject_AcpiObject@@@Z 00c2be80 f   kernel.obj
 0001:0001aeb8       ?m_Read@Class_Microsoft_Singularity_Hal_Acpi_DebugIoLocation@@SIPAUClass_Microsoft_Singularity_Hal_Acpi_AcpiObject_AcpiObject@@PAU1@@Z 00c2beb8 f   kernel.obj
 0001:0001aef4       ?m__ctor@Class_Microsoft_Singularity_Hal_Acpi_DebugIoLocation@@SIXPAU1@@Z 00c2bef4 f   kernel.obj
 0001:0001af14       ?m_StructCopy@Struct_Microsoft_Singularity_Io_ConsoleDeviceContract_AckWrite@@SIXPAU1@0@Z 00c2bf14 f   kernel.obj
 0001:0001af34       ?m_StructCopy@Struct_Microsoft_Singularity_Io_ConsoleDeviceContract_AckWrite@@SIXPAU1@PAU1@@Z 00c2bf34 f   kernel.obj
 0001:0001af94       ?m_MarshallContent@Struct_Microsoft_Singularity_Io_ConsoleDeviceContract_AckWrite@@SIXPAU1@PAEPAUStruct_Microsoft_Singularity_Channels_Endpoint@@1PAH@Z 00c2bf94 f   kernel.obj
 0001:0001b040       ?m_MarshallAll@Struct_Microsoft_Singularity_Io_ConsoleDeviceContract_AckWrite@@SIXPAU1@PAEPAUStruct_Microsoft_Singularity_Channels_Endpoint@@PAH@Z 00c2c040 f   kernel.obj
 0001:0001b090       ?m_Equals@Struct_Microsoft_Singularity_Io_ConsoleDeviceContract_AckWrite@@SI_NPAU1@PAUClass_System_Object@@@Z 00c2c090 f   kernel.obj
 0001:0001b0cc       ?m_Equals@Struct_Microsoft_Singularity_Io_ConsoleDeviceContract_AckWrite@@SI_NPAUClass_Microsoft_Singularity_Io_ConsoleDeviceContract_AckWrite@@PAUClass_System_Object@@@Z 00c2c0cc f   kernel.obj
 0001:0001b0f0       ?m_StructCopy@Struct_System_UpdateLog_Location@@SIXPAU1@0@Z 00c2c0f0 f   kernel.obj
 0001:0001b124       ?m_StructCopy@Struct_System_UpdateLog_Location@@SIXPAU1@PAU1@@Z 00c2c124 f   kernel.obj
 0001:0001b1b8       ?m_Equals@Struct_System_UpdateLog_Location@@SI_NPAU1@PAUClass_System_Object@@@Z 00c2c1b8 f   kernel.obj
 0001:0001b20c       ?m_Equals@Struct_System_UpdateLog_Location@@SI_NPAUClass_System_UpdateLog_Location@@PAUClass_System_Object@@@Z 00c2c20c f   kernel.obj
 0001:0001b230       ?m__ctor@Struct_System_UpdateLog_Location@@SIXPAU1@PAUClass_System_UpdateLog_LogChunk@@H@Z 00c2c230 f   kernel.obj
 0001:0001b260       ?m_StructCopy@Struct_Microsoft_Singularity_Io_ConsoleDeviceContract_NakClear@@SIXPAU1@0@Z 00c2c260 f   kernel.obj
 0001:0001b27c       ?m_StructCopy@Struct_Microsoft_Singularity_Io_ConsoleDeviceContract_NakClear@@SIXPAU1@PAU1@@Z 00c2c27c f   kernel.obj
 0001:0001b2d0       ?m_Equals@Struct_Microsoft_Singularity_Io_ConsoleDeviceContract_NakClear@@SI_NPAU1@PAUClass_System_Object@@@Z 00c2c2d0 f   kernel.obj
 0001:0001b304       ?m_Equals@Struct_Microsoft_Singularity_Io_ConsoleDeviceContract_NakClear@@SI_NPAUClass_Microsoft_Singularity_Io_ConsoleDeviceContract_NakClear@@PAUClass_System_Object@@@Z 00c2c304 f   kernel.obj
 0001:0001b328       ?g_DeviceCreate@Class_Microsoft_Singularity_Drivers_PciBusResources@@SIPAUClass_Microsoft_Singularity_Io_IDevice@@PAUClass_Microsoft_Singularity_Io_IoConfig@@PAUClass_System_String@@@Z 00c2c328 f   kernel.obj
 0001:0001b3bc       ?m__ctor@Class_Microsoft_Singularity_Drivers_PciBusResources@@SIXPAU1@@Z 00c2c3bc f   kernel.obj
 0001:0001b3dc       ?m_Visit@Class_System_GCs_Verifier_GenericThreadReferenceVisitor@@SIXPAU1@PAPAUuintPtr@@@Z 00c2c3dc f   kernel.obj
 0001:0001b66c       ?m__ctor@Class_System_GCs_Verifier_GenericThreadReferenceVisitor@@SIXPAU1@@Z 00c2c66c f   kernel.obj
 0001:0001b68c       ?g_TransferOwnership@Struct_Microsoft_Singularity_Directory_FileContract_Exp@@SIXPAUStruct_Microsoft_Singularity_Channels_Endpoint@@PAU1@@Z 00c2c68c f   kernel.obj
 0001:0001b6c8       ?m_TransferContentsOwnership@Struct_Microsoft_Singularity_Directory_FileContract_Exp@@SIXPAU1@PAUStruct_Microsoft_Singularity_Channels_Endpoint@@@Z 00c2c6c8 f   kernel.obj
 0001:0001b6e8       ?m_StructCopy@Struct_Microsoft_Singularity_Directory_FileContract_Exp@@SIXPAU1@0@Z 00c2c6e8 f   kernel.obj
 0001:0001b7a8       ?m_StructCopy@Struct_Microsoft_Singularity_Directory_FileContract_Exp@@SIXPAU1@PAU1@@Z 00c2c7a8 f   kernel.obj
 0001:0001b9e8       ?m_SendSuccess@Struct_Microsoft_Singularity_Directory_FileContract_Exp@@SIXPAU1@@Z 00c2c9e8 f   kernel.obj
 0001:0001bac0       ?m_SendAckWrite@Struct_Microsoft_Singularity_Directory_FileContract_Exp@@SIXPAU1@PAE_JH@Z 00c2cac0 f   kernel.obj
 0001:0001bbcc       ?m_SendAckRead@Struct_Microsoft_Singularity_Directory_FileContract_Exp@@SIXPAU1@PAE_JH@Z 00c2cbcc f   kernel.obj
 0001:0001bcd8       ?m_SendAckClose@Struct_Microsoft_Singularity_Directory_FileContract_Exp@@SIXPAU1@@Z 00c2ccd8 f   kernel.obj
 0001:0001bdb0       ?m_RecvWrite@Struct_Microsoft_Singularity_Directory_FileContract_Exp@@SIXPAU1@PAPAEPA_J22@Z 00c2cdb0 f   kernel.obj
 0001:0001bf60       ?m_RecvRead@Struct_Microsoft_Singularity_Directory_FileContract_Exp@@SIXPAU1@PAPAEPA_J22@Z 00c2cf60 f   kernel.obj
 0001:0001c110       ?m_RecvClose@Struct_Microsoft_Singularity_Directory_FileContract_Exp@@SIXPAU1@@Z 00c2d110 f   kernel.obj
 0001:0001c25c       ?m_Peek@Struct_Microsoft_Singularity_Directory_FileContract_Exp@@SIHPAU1@@Z 00c2d25c f   kernel.obj
 0001:0001c454       ?m_MarshallDeliverRead0@Struct_Microsoft_Singularity_Directory_FileContract_Exp@@SIXPAU1@PAE_J22PAUStruct_Microsoft_Singularity_Channels_Endpoint@@@Z 00c2d454 f   kernel.obj
 0001:0001c4a0       ?m_MarshallContent@Struct_Microsoft_Singularity_Directory_FileContract_Exp@@SIXPAU1@PAEPAUStruct_Microsoft_Singularity_Channels_Endpoint@@1@Z 00c2d4a0 f   kernel.obj
 0001:0001c4c0       ?m_InState@Struct_Microsoft_Singularity_Directory_FileContract_Exp@@SI_NPAU1@H@Z 00c2d4c0 f   kernel.obj
 0001:0001c540       ?m_HeadMatches@Struct_Microsoft_Singularity_Directory_FileContract_Exp@@SI_NPAU1@HPA_NPAPAUClass_System_Object@@@Z 00c2d540 f   kernel.obj
 0001:0001c5e0       ?m_HeadMatches@Struct_Microsoft_Singularity_Directory_FileContract_Exp@@SI_NPAUClass_Microsoft_Singularity_Directory_FileContract_Exp@@HPA_NPAPAUClass_System_Object@@@Z 00c2d5e0 f   kernel.obj
 0001:0001c60c       ?m_Equals@Struct_Microsoft_Singularity_Directory_FileContract_Exp@@SI_NPAU1@PAUClass_System_Object@@@Z 00c2d60c f   kernel.obj
 0001:0001c964       ?m_Equals@Struct_Microsoft_Singularity_Directory_FileContract_Exp@@SI_NPAUClass_Microsoft_Singularity_Directory_FileContract_Exp@@PAUClass_System_Object@@@Z 00c2d964 f   kernel.obj
 0001:0001c988       ?m_Dispose@Struct_Microsoft_Singularity_Directory_FileContract_Exp@@SIXPAU1@@Z 00c2d988 f   kernel.obj
 0001:0001c9a8       ?m_DeliverRead0@Struct_Microsoft_Singularity_Directory_FileContract_Exp@@SIXPAU1@PAE_J22@Z 00c2d9a8 f   kernel.obj
 0001:0001ca00       ?m_CurrentState@Struct_Microsoft_Singularity_Directory_FileContract_Exp@@SIPAUClass_System_String@@PAU1@@Z 00c2da00 f   kernel.obj
 0001:0001caa0       ?m__ctor@Struct_Microsoft_Singularity_Directory_FileContract_Exp@@SIXPAU1@H@Z 00c2daa0 f   kernel.obj
 0001:0001cac0       ?m_ToArray@Class_Microsoft_Singularity_Hal_Acpi_ResourceDescriptorParser_IntList@@SIPAUClassVector_int32@@PAU1@@Z 00c2dac0 f   kernel.obj
 0001:0001cb08       ?m_Add@Class_Microsoft_Singularity_Hal_Acpi_ResourceDescriptorParser_IntList@@SIXPAU1@H@Z 00c2db08 f   kernel.obj
 0001:0001cb50       ?m__ctor@Class_Microsoft_Singularity_Hal_Acpi_ResourceDescriptorParser_IntList@@SIXPAU1@@Z 00c2db50 f   kernel.obj
 0001:0001cb98       ?m_StructCopy@Struct_Microsoft_Singularity_Kd_X86KSpecialRegisters@@SIXPAU1@0@Z 00c2db98 f   kernel.obj
 0001:0001cc44       ?m_StructCopy@Struct_Microsoft_Singularity_Kd_X86KSpecialRegisters@@SIXPAU1@PAU1@@Z 00c2dc44 f   kernel.obj
 0001:0001ce48       ?m_Equals@Struct_Microsoft_Singularity_Kd_X86KSpecialRegisters@@SI_NPAU1@PAUClass_System_Object@@@Z 00c2de48 f   kernel.obj
 0001:0001d050       ?m_Equals@Struct_Microsoft_Singularity_Kd_X86KSpecialRegisters@@SI_NPAUClass_Microsoft_Singularity_Kd_X86KSpecialRegisters@@PAUClass_System_Object@@@Z 00c2e050 f   kernel.obj
 0001:0001d074       ?m_Accept@Class_Microsoft_Singularity_Hal_Acpi_AmlParser_DefFindSetLeftBit@@SIXPAU1@PAUClass_Microsoft_Singularity_Hal_Acpi_AmlParserNodeVisitor@@@Z 00c2e074 f   kernel.obj
 0001:0001d0a4       ?m__ctor@Class_Microsoft_Singularity_Hal_Acpi_AmlParser_DefFindSetLeftBit@@SIXPAU1@@Z 00c2e0a4 f   kernel.obj
 0001:0001d0c4       ?m_StructCopy@Struct_Microsoft_Singularity_KernelDebugger_HostFileIoRequest@@SIXPAU1@0@Z 00c2e0c4 f   kernel.obj
 0001:0001d124       ?m_StructCopy@Struct_Microsoft_Singularity_KernelDebugger_HostFileIoRequest@@SIXPAU1@PAU1@@Z 00c2e124 f   kernel.obj
 0001:0001d244       ?m_Equals@Struct_Microsoft_Singularity_KernelDebugger_HostFileIoRequest@@SI_NPAU1@PAUClass_System_Object@@@Z 00c2e244 f   kernel.obj
 0001:0001d448       ?m_Equals@Struct_Microsoft_Singularity_KernelDebugger_HostFileIoRequest@@SI_NPAUClass_Microsoft_Singularity_KernelDebugger_HostFileIoRequest@@PAUClass_System_Object@@@Z 00c2e448 f   kernel.obj
 0001:0001d46c       ?m_ReleaseResources@Class_Microsoft_Singularity_Hal_PicStub@@SIXPAU1@@Z 00c2e46c f   kernel.obj
 0001:0001d484       ?m_MaskAll@Class_Microsoft_Singularity_Hal_PicStub@@SIXPAU1@@Z 00c2e484 f   kernel.obj
 0001:0001d520       ?m_Initialize@Class_Microsoft_Singularity_Hal_PicStub@@SIEPAU1@E@Z 00c2e520 f   kernel.obj
 0001:0001d8dc       ?m_AckIrq@Class_Microsoft_Singularity_Hal_PicStub@@SIXPAU1@E@Z 00c2e8dc f   kernel.obj
 0001:0001da68       ?m__ctor@Class_Microsoft_Singularity_Hal_PicStub@@SIXPAU1@PAUClass_Microsoft_Singularity_Io_PnpConfig@@@Z 00c2ea68 f   kernel.obj
 0001:0001db5c       ?m_Write@Class_Microsoft_Singularity_Hal_Acpi_AcpiObject_ObjectReference@@SIXPAU1@PAUClass_Microsoft_Singularity_Hal_Acpi_AcpiObject_AcpiObject@@@Z 00c2eb5c f   kernel.obj
 0001:0001db90       ?m_ObjectType@Class_Microsoft_Singularity_Hal_Acpi_AcpiObject_ObjectReference@@SIPAUClass_Microsoft_Singularity_Hal_Acpi_AcpiObject_Integer@@PAU1@@Z 00c2eb90 f   kernel.obj
 0001:0001dbb8       ?m_GetTarget@Class_Microsoft_Singularity_Hal_Acpi_AcpiObject_ObjectReference@@SIPAUClass_Microsoft_Singularity_Hal_Acpi_AcpiObject_AcpiObject@@PAU1@@Z 00c2ebb8 f   kernel.obj
 0001:0001dbdc       ?m_GetAsInt@Class_Microsoft_Singularity_Hal_Acpi_AcpiObject_ObjectReference@@SIPAUClass_Microsoft_Singularity_Hal_Acpi_AcpiObject_Integer@@PAU1@@Z 00c2ebdc f   kernel.obj
 0001:0001dc00       ?m__ctor@Class_Microsoft_Singularity_Hal_Acpi_AcpiObject_ObjectReference@@SIXPAU1@PAUClass_Microsoft_Singularity_Hal_Acpi_AcpiObject_AcpiObjectCell@@@Z 00c2ec00 f   kernel.obj
 0001:0001dc34       ?g_get$_OffsetToStringData@Class_System_Runtime_CompilerServices_RuntimeHelpers@@SIHXZ 00c2ec34 f   kernel.obj
 0001:0001dc4c       ?m__ctor@Class_System_Runtime_CompilerServices_RuntimeHelpers@@SIXPAU1@@Z 00c2ec4c f   kernel.obj
 0001:0001dc64       ?m_Accept@Class_Microsoft_Singularity_Hal_Acpi_AmlParser_FatalType@@SIXPAU1@PAUClass_Microsoft_Singularity_Hal_Acpi_AmlParserNodeVisitor@@@Z 00c2ec64 f   kernel.obj
 0001:0001dc90       ?m__ctor@Class_Microsoft_Singularity_Hal_Acpi_AmlParser_FatalType@@SIXPAU1@@Z 00c2ec90 f   kernel.obj
 0001:0001dcb0       ?m_StructCopy@Struct_Microsoft_Singularity_Kd_ArmContext@@SIXPAU1@0@Z 00c2ecb0 f   kernel.obj
 0001:0001dd38       ?m_StructCopy@Struct_Microsoft_Singularity_Kd_ArmContext@@SIXPAU1@PAU1@@Z 00c2ed38 f   kernel.obj
 0001:0001ded0       ?m_Equals@Struct_Microsoft_Singularity_Kd_ArmContext@@SI_NPAU1@PAUClass_System_Object@@@Z 00c2eed0 f   kernel.obj
 0001:0001dfa8       ?m_Equals@Struct_Microsoft_Singularity_Kd_ArmContext@@SI_NPAUClass_Microsoft_Singularity_Kd_ArmContext@@PAUClass_System_Object@@@Z 00c2efa8 f   kernel.obj
 0001:0001dfcc       ?m_Accept@Class_Microsoft_Singularity_Hal_Acpi_AmlParser_DefMutex@@SIXPAU1@PAUClass_Microsoft_Singularity_Hal_Acpi_AmlParserNodeVisitor@@@Z 00c2efcc f   kernel.obj
 0001:0001dffc       ?m__ctor@Class_Microsoft_Singularity_Hal_Acpi_AmlParser_DefMutex@@SIXPAU1@@Z 00c2effc f   kernel.obj
 0001:0001e01c       ?m_StructCopy@Struct_Microsoft_Singularity_Security_SecurityDiagnosticsContract_Ack@@SIXPAU1@0@Z 00c2f01c f   kernel.obj
 0001:0001e038       ?m_StructCopy@Struct_Microsoft_Singularity_Security_SecurityDiagnosticsContract_Ack@@SIXPAU1@PAU1@@Z 00c2f038 f   kernel.obj
 0001:0001e08c       ?m_MarshallContent@Struct_Microsoft_Singularity_Security_SecurityDiagnosticsContract_Ack@@SIXPAU1@PAEPAUStruct_Microsoft_Singularity_Channels_Endpoint@@1PAH@Z 00c2f08c f   kernel.obj
 0001:0001e0ac       ?m_MarshallAll@Struct_Microsoft_Singularity_Security_SecurityDiagnosticsContract_Ack@@SIXPAU1@PAEPAUStruct_Microsoft_Singularity_Channels_Endpoint@@PAH@Z 00c2f0ac f   kernel.obj
 0001:0001e0fc       ?m_Equals@Struct_Microsoft_Singularity_Security_SecurityDiagnosticsContract_Ack@@SI_NPAU1@PAUClass_System_Object@@@Z 00c2f0fc f   kernel.obj
 0001:0001e130       ?m_Equals@Struct_Microsoft_Singularity_Security_SecurityDiagnosticsContract_Ack@@SI_NPAUClass_Microsoft_Singularity_Security_SecurityDiagnosticsContract_Ack@@PAUClass_System_Object@@@Z 00c2f130 f   kernel.obj
 0001:0001e154       ?m_Accept@Class_Microsoft_Singularity_Hal_Acpi_AmlParser_RegionLen@@SIXPAU1@PAUClass_Microsoft_Singularity_Hal_Acpi_AmlParserNodeVisitor@@@Z 00c2f154 f   kernel.obj
 0001:0001e184       ?m__ctor@Class_Microsoft_Singularity_Hal_Acpi_AmlParser_RegionLen@@SIXPAU1@@Z 00c2f184 f   kernel.obj
 0001:0001e1a4       ?g_ConvertToLong@Class_System_RuntimeTypeHash@@SI_JPAUClassVector_uint8@@H@Z 00c2f1a4 f   kernel.obj
 0001:0001e284       ?g_ComputeHashAndReturnName@Class_System_RuntimeTypeHash@@SIPAUClassVector_uint8@@PAUClass_System_String@@PA_J1@Z 00c2f284 f   kernel.obj
 0001:0001e2e8       ?g_ComputeHash@Class_System_RuntimeTypeHash@@SIXPAUClassVector_uint8@@PA_J1@Z 00c2f2e8 f   kernel.obj
 0001:0001e374       ?g_ComputeHash@Class_System_RuntimeTypeHash@@SIXPAUClass_System_String@@PA_J1@Z 00c2f374 f   kernel.obj
 0001:0001e39c       ?m__ctor@Class_System_RuntimeTypeHash@@SIXPAU1@@Z 00c2f39c f   kernel.obj
 0001:0001e3b4       ?m_StructCopy@Struct_System_UpdateEnlistmentLog_Location@@SIXPAU1@0@Z 00c2f3b4 f   kernel.obj
 0001:0001e3e8       ?m_StructCopy@Struct_System_UpdateEnlistmentLog_Location@@SIXPAU1@PAU1@@Z 00c2f3e8 f   kernel.obj
 0001:0001e47c       ?m_Equals@Struct_System_UpdateEnlistmentLog_Location@@SI_NPAU1@PAUClass_System_Object@@@Z 00c2f47c f   kernel.obj
 0001:0001e4d0       ?m_Equals@Struct_System_UpdateEnlistmentLog_Location@@SI_NPAUClass_System_UpdateEnlistmentLog_Location@@PAUClass_System_Object@@@Z 00c2f4d0 f   kernel.obj
 0001:0001e4f4       ?m__ctor@Struct_System_UpdateEnlistmentLog_Location@@SIXPAU1@PAUClass_System_UpdateEnlistmentLog_LogChunk@@H@Z 00c2f4f4 f   kernel.obj
 0001:0001e524       ?m_VisitUnaryOperator@Class_Microsoft_Singularity_Hal_Acpi_AmlToStackIRVisitor@@SIXPAU1@PAUClass_Microsoft_Singularity_Hal_Acpi_AmlParserNode@@PAUClass_Microsoft_Singularity_Hal_Acpi_AmlParser_Target@@PAUClass_Microsoft_Singularity_Hal_Acpi_StackIR_StackIRNode@@@Z 00c2f524 f   kernel.obj
 0001:0001e5cc       ?m_VisitSequenceReverse@Class_Microsoft_Singularity_Hal_Acpi_AmlToStackIRVisitor@@SIXPAU1@PAUClassVector_Class_Microsoft_Singularity_Hal_Acpi_AmlParserNode@@@Z 00c2f5cc f   kernel.obj
 0001:0001e644       ?m_VisitSequence@Class_Microsoft_Singularity_Hal_Acpi_AmlToStackIRVisitor@@SIXPAU1@PAUClassVector_Class_Microsoft_Singularity_Hal_Acpi_AmlParserNode@@@Z 00c2f644 f   kernel.obj
 0001:0001e6c0       ?m_VisitBinaryOperator@Class_Microsoft_Singularity_Hal_Acpi_AmlToStackIRVisitor@@SIXPAU1@PAUClass_Microsoft_Singularity_Hal_Acpi_AmlParserNode@@1PAUClass_Microsoft_Singularity_Hal_Acpi_AmlParser_Target@@PAUClass_Microsoft_Singularity_Hal_Acpi_StackIR_StackIRNode@@@Z 00c2f6c0 f   kernel.obj
 0001:0001e778       ?m_Visit@Class_Microsoft_Singularity_Hal_Acpi_AmlToStackIRVisitor@@SIXPAU1@PAUClass_Microsoft_Singularity_Hal_Acpi_AmlParserUnions_ComputationalData@@@Z 00c2f778 f   kernel.obj
 0001:0001eb68       ?m_Visit@Class_Microsoft_Singularity_Hal_Acpi_AmlToStackIRVisitor@@SIXPAU1@PAUClass_Microsoft_Singularity_Hal_Acpi_AmlParser_UserTermObj@@@Z 00c2fb68 f   kernel.obj
 0001:0001ec34       ?m_Visit@Class_Microsoft_Singularity_Hal_Acpi_AmlToStackIRVisitor@@SIXPAU1@PAUClass_Microsoft_Singularity_Hal_Acpi_AmlParser_UsecTime@@@Z 00c2fc34 f   kernel.obj
 0001:0001ec60       ?m_Visit@Class_Microsoft_Singularity_Hal_Acpi_AmlToStackIRVisitor@@SIXPAU1@PAUClass_Microsoft_Singularity_Hal_Acpi_AmlParser_Target@@@Z 00c2fc60 f   kernel.obj
 0001:0001ec8c       ?m_Visit@Class_Microsoft_Singularity_Hal_Acpi_AmlToStackIRVisitor@@SIXPAU1@PAUClass_Microsoft_Singularity_Hal_Acpi_AmlParser_StartIndex@@@Z 00c2fc8c f   kernel.obj
 0001:0001ecb8       ?m_Visit@Class_Microsoft_Singularity_Hal_Acpi_AmlToStackIRVisitor@@SIXPAU1@PAUClass_Microsoft_Singularity_Hal_Acpi_AmlParser_SourceBuff@@@Z 00c2fcb8 f   kernel.obj
 0001:0001ece4       ?m_Visit@Class_Microsoft_Singularity_Hal_Acpi_AmlToStackIRVisitor@@SIXPAU1@PAUClass_Microsoft_Singularity_Hal_Acpi_AmlParser_ShiftCount@@@Z 00c2fce4 f   kernel.obj
 0001:0001ed10       ?m_Visit@Class_Microsoft_Singularity_Hal_Acpi_AmlToStackIRVisitor@@SIXPAU1@PAUClass_Microsoft_Singularity_Hal_Acpi_AmlParser_SearchPkg@@@Z 00c2fd10 f   kernel.obj
 0001:0001ed3c       ?m_Visit@Class_Microsoft_Singularity_Hal_Acpi_AmlToStackIRVisitor@@SIXPAU1@PAUClass_Microsoft_Singularity_Hal_Acpi_AmlParser_Remainder@@@Z 00c2fd3c f   kernel.obj
 0001:0001ed68       ?m_Visit@Class_Microsoft_Singularity_Hal_Acpi_AmlToStackIRVisitor@@SIXPAU1@PAUClass_Microsoft_Singularity_Hal_Acpi_AmlParser_RegionOffset@@@Z 00c2fd68 f   kernel.obj
 0001:0001ed94       ?m_Visit@Class_Microsoft_Singularity_Hal_Acpi_AmlToStackIRVisitor@@SIXPAU1@PAUClass_Microsoft_Singularity_Hal_Acpi_AmlParser_RegionLen@@@Z 00c2fd94 f   kernel.obj
 0001:0001edc0       ?m_Visit@Class_Microsoft_Singularity_Hal_Acpi_AmlToStackIRVisitor@@SIXPAU1@PAUClass_Microsoft_Singularity_Hal_Acpi_AmlParser_Quotient@@@Z 00c2fdc0 f   kernel.obj
 0001:0001edec       ?m_Visit@Class_Microsoft_Singularity_Hal_Acpi_AmlToStackIRVisitor@@SIXPAU1@PAUClass_Microsoft_Singularity_Hal_Acpi_AmlParser_Predicate@@@Z 00c2fdec f   kernel.obj
 0001:0001ee18       ?m_Visit@Class_Microsoft_Singularity_Hal_Acpi_AmlToStackIRVisitor@@SIXPAU1@PAUClass_Microsoft_Singularity_Hal_Acpi_AmlParser_Operand@@@Z 00c2fe18 f   kernel.obj
 0001:0001ee44       ?m_Visit@Class_Microsoft_Singularity_Hal_Acpi_AmlToStackIRVisitor@@SIXPAU1@PAUClass_Microsoft_Singularity_Hal_Acpi_AmlParser_ObjReference@@@Z 00c2fe44 f   kernel.obj
 0001:0001ee70       ?m_Visit@Class_Microsoft_Singularity_Hal_Acpi_AmlToStackIRVisitor@@SIXPAU1@PAUClass_Microsoft_Singularity_Hal_Acpi_AmlParser_NumBits@@@Z 00c2fe70 f   kernel.obj
 0001:0001ee9c       ?m_Visit@Class_Microsoft_Singularity_Hal_Acpi_AmlToStackIRVisitor@@SIXPAU1@PAUClass_Microsoft_Singularity_Hal_Acpi_AmlParser_NotifyValue@@@Z 00c2fe9c f   kernel.obj
 0001:0001eec8       ?m_Visit@Class_Microsoft_Singularity_Hal_Acpi_AmlToStackIRVisitor@@SIXPAU1@PAUClass_Microsoft_Singularity_Hal_Acpi_AmlParser_NotifyObject@@@Z 00c2fec8 f   kernel.obj
 0001:0001eef4       ?m_Visit@Class_Microsoft_Singularity_Hal_Acpi_AmlToStackIRVisitor@@SIXPAU1@PAUClass_Microsoft_Singularity_Hal_Acpi_AmlParser_NameString@@@Z 00c2fef4 f   kernel.obj
 0001:0001ef50       ?m_Visit@Class_Microsoft_Singularity_Hal_Acpi_AmlToStackIRVisitor@@SIXPAU1@PAUClass_Microsoft_Singularity_Hal_Acpi_AmlParser_MutexObject@@@Z 00c2ff50 f   kernel.obj
 0001:0001ef7c       ?m_Visit@Class_Microsoft_Singularity_Hal_Acpi_AmlToStackIRVisitor@@SIXPAU1@PAUClass_Microsoft_Singularity_Hal_Acpi_AmlParser_MsecTime@@@Z 00c2ff7c f   kernel.obj
 0001:0001efa8       ?m_Visit@Class_Microsoft_Singularity_Hal_Acpi_AmlToStackIRVisitor@@SIXPAU1@PAUClass_Microsoft_Singularity_Hal_Acpi_AmlParser_LocalObj@@@Z 00c2ffa8 f   kernel.obj
 0001:0001f004       ?m_Visit@Class_Microsoft_Singularity_Hal_Acpi_AmlToStackIRVisitor@@SIXPAU1@PAUClass_Microsoft_Singularity_Hal_Acpi_AmlParser_LengthArg@@@Z 00c30004 f   kernel.obj
 0001:0001f030       ?m_Visit@Class_Microsoft_Singularity_Hal_Acpi_AmlToStackIRVisitor@@SIXPAU1@PAUClass_Microsoft_Singularity_Hal_Acpi_AmlParser_IndexValue@@@Z 00c30030 f   kernel.obj
 0001:0001f05c       ?m_Visit@Class_Microsoft_Singularity_Hal_Acpi_AmlToStackIRVisitor@@SIXPAU1@PAUClass_Microsoft_Singularity_Hal_Acpi_AmlParser_Divisor@@@Z 00c3005c f   kernel.obj
 0001:0001f088       ?m_Visit@Class_Microsoft_Singularity_Hal_Acpi_AmlToStackIRVisitor@@SIXPAU1@PAUClass_Microsoft_Singularity_Hal_Acpi_AmlParser_Dividend@@@Z 00c30088 f   kernel.obj
 0001:0001f0b4       ?m_Visit@Class_Microsoft_Singularity_Hal_Acpi_AmlToStackIRVisitor@@SIXPAU1@PAUClass_Microsoft_Singularity_Hal_Acpi_AmlParser_DefXOr@@@Z 00c300b4 f   kernel.obj
 0001:0001f11c       ?m_Visit@Class_Microsoft_Singularity_Hal_Acpi_AmlToStackIRVisitor@@SIXPAU1@PAUClass_Microsoft_Singularity_Hal_Acpi_AmlParser_DefWhile@@@Z 00c3011c f   kernel.obj
 0001:0001f1f8       ?m_Visit@Class_Microsoft_Singularity_Hal_Acpi_AmlToStackIRVisitor@@SIXPAU1@PAUClass_Microsoft_Singularity_Hal_Acpi_AmlParser_DefToString@@@Z 00c301f8 f   kernel.obj
 0001:0001f27c       ?m_Visit@Class_Microsoft_Singularity_Hal_Acpi_AmlToStackIRVisitor@@SIXPAU1@PAUClass_Microsoft_Singularity_Hal_Acpi_AmlParser_DefToInteger@@@Z 00c3027c f   kernel.obj
 0001:0001f2f0       ?m_Visit@Class_Microsoft_Singularity_Hal_Acpi_AmlToStackIRVisitor@@SIXPAU1@PAUClass_Microsoft_Singularity_Hal_Acpi_AmlParser_DefToBuffer@@@Z 00c302f0 f   kernel.obj
 0001:0001f364       ?m_Visit@Class_Microsoft_Singularity_Hal_Acpi_AmlToStackIRVisitor@@SIXPAU1@PAUClass_Microsoft_Singularity_Hal_Acpi_AmlParser_DefSubtract@@@Z 00c30364 f   kernel.obj
 0001:0001f3c8       ?m_Visit@Class_Microsoft_Singularity_Hal_Acpi_AmlToStackIRVisitor@@SIXPAU1@PAUClass_Microsoft_Singularity_Hal_Acpi_AmlParser_DefStore@@@Z 00c303c8 f   kernel.obj
 0001:0001f43c       ?m_Visit@Class_Microsoft_Singularity_Hal_Acpi_AmlToStackIRVisitor@@SIXPAU1@PAUClass_Microsoft_Singularity_Hal_Acpi_AmlParser_DefStall@@@Z 00c3043c f   kernel.obj
 0001:0001f4a0       ?m_Visit@Class_Microsoft_Singularity_Hal_Acpi_AmlToStackIRVisitor@@SIXPAU1@PAUClass_Microsoft_Singularity_Hal_Acpi_AmlParser_DefSleep@@@Z 00c304a0 f   kernel.obj
 0001:0001f504       ?m_Visit@Class_Microsoft_Singularity_Hal_Acpi_AmlToStackIRVisitor@@SIXPAU1@PAUClass_Microsoft_Singularity_Hal_Acpi_AmlParser_DefSizeOf@@@Z 00c30504 f   kernel.obj
 0001:0001f568       ?m_Visit@Class_Microsoft_Singularity_Hal_Acpi_AmlToStackIRVisitor@@SIXPAU1@PAUClass_Microsoft_Singularity_Hal_Acpi_AmlParser_DefShiftRight@@@Z 00c30568 f   kernel.obj
 0001:0001f5cc       ?m_Visit@Class_Microsoft_Singularity_Hal_Acpi_AmlToStackIRVisitor@@SIXPAU1@PAUClass_Microsoft_Singularity_Hal_Acpi_AmlParser_DefShiftLeft@@@Z 00c305cc f   kernel.obj
 0001:0001f630       ?m_Visit@Class_Microsoft_Singularity_Hal_Acpi_AmlToStackIRVisitor@@SIXPAU1@PAUClass_Microsoft_Singularity_Hal_Acpi_AmlParser_DefReturn@@@Z 00c30630 f   kernel.obj
 0001:0001f694       ?m_Visit@Class_Microsoft_Singularity_Hal_Acpi_AmlToStackIRVisitor@@SIXPAU1@PAUClass_Microsoft_Singularity_Hal_Acpi_AmlParser_DefRelease@@@Z 00c30694 f   kernel.obj
 0001:0001f6f8       ?m_Visit@Class_Microsoft_Singularity_Hal_Acpi_AmlToStackIRVisitor@@SIXPAU1@PAUClass_Microsoft_Singularity_Hal_Acpi_AmlParser_DefPackage@@@Z 00c306f8 f   kernel.obj
 0001:0001f768       ?m_Visit@Class_Microsoft_Singularity_Hal_Acpi_AmlToStackIRVisitor@@SIXPAU1@PAUClass_Microsoft_Singularity_Hal_Acpi_AmlParser_DefOr@@@Z 00c30768 f   kernel.obj
 0001:0001f7d0       ?m_Visit@Class_Microsoft_Singularity_Hal_Acpi_AmlToStackIRVisitor@@SIXPAU1@PAUClass_Microsoft_Singularity_Hal_Acpi_AmlParser_DefOpRegion@@@Z 00c307d0 f   kernel.obj
 0001:0001f860       ?m_Visit@Class_Microsoft_Singularity_Hal_Acpi_AmlToStackIRVisitor@@SIXPAU1@PAUClass_Microsoft_Singularity_Hal_Acpi_AmlParser_DefNotify@@@Z 00c30860 f   kernel.obj
 0001:0001f8d4       ?m_Visit@Class_Microsoft_Singularity_Hal_Acpi_AmlToStackIRVisitor@@SIXPAU1@PAUClass_Microsoft_Singularity_Hal_Acpi_AmlParser_DefNot@@@Z 00c308d4 f   kernel.obj
 0001:0001f934       ?m_Visit@Class_Microsoft_Singularity_Hal_Acpi_AmlToStackIRVisitor@@SIXPAU1@PAUClass_Microsoft_Singularity_Hal_Acpi_AmlParser_DefNOr@@@Z 00c30934 f   kernel.obj
 0001:0001f99c       ?m_Visit@Class_Microsoft_Singularity_Hal_Acpi_AmlToStackIRVisitor@@SIXPAU1@PAUClass_Microsoft_Singularity_Hal_Acpi_AmlParser_DefNoop@@@Z 00c3099c f   kernel.obj
 0001:0001f9b8       ?m_Visit@Class_Microsoft_Singularity_Hal_Acpi_AmlToStackIRVisitor@@SIXPAU1@PAUClass_Microsoft_Singularity_Hal_Acpi_AmlParser_DefNAnd@@@Z 00c309b8 f   kernel.obj
 0001:0001fa20       ?m_Visit@Class_Microsoft_Singularity_Hal_Acpi_AmlToStackIRVisitor@@SIXPAU1@PAUClass_Microsoft_Singularity_Hal_Acpi_AmlParser_DefName@@@Z 00c30a20 f   kernel.obj
 0001:0001fa94       ?m_Visit@Class_Microsoft_Singularity_Hal_Acpi_AmlToStackIRVisitor@@SIXPAU1@PAUClass_Microsoft_Singularity_Hal_Acpi_AmlParser_DefMultiply@@@Z 00c30a94 f   kernel.obj
 0001:0001faf8       ?m_Visit@Class_Microsoft_Singularity_Hal_Acpi_AmlToStackIRVisitor@@SIXPAU1@PAUClass_Microsoft_Singularity_Hal_Acpi_AmlParser_DefMatch@@@Z 00c30af8 f   kernel.obj
 0001:0001fba4       ?m_Visit@Class_Microsoft_Singularity_Hal_Acpi_AmlToStackIRVisitor@@SIXPAU1@PAUClass_Microsoft_Singularity_Hal_Acpi_AmlParser_DefLOr@@@Z 00c30ba4 f   kernel.obj
 0001:0001fc1c       ?m_Visit@Class_Microsoft_Singularity_Hal_Acpi_AmlToStackIRVisitor@@SIXPAU1@PAUClass_Microsoft_Singularity_Hal_Acpi_AmlParser_DefLoad@@@Z 00c30c1c f   kernel.obj
 0001:0001fc90       ?m_Visit@Class_Microsoft_Singularity_Hal_Acpi_AmlToStackIRVisitor@@SIXPAU1@PAUClass_Microsoft_Singularity_Hal_Acpi_AmlParser_DefLNot@@@Z 00c30c90 f   kernel.obj
 0001:0001fcf8       ?m_Visit@Class_Microsoft_Singularity_Hal_Acpi_AmlToStackIRVisitor@@SIXPAU1@PAUClass_Microsoft_Singularity_Hal_Acpi_AmlParser_DefLLessEqual@@@Z 00c30cf8 f   kernel.obj
 0001:0001fd70       ?m_Visit@Class_Microsoft_Singularity_Hal_Acpi_AmlToStackIRVisitor@@SIXPAU1@PAUClass_Microsoft_Singularity_Hal_Acpi_AmlParser_DefLLess@@@Z 00c30d70 f   kernel.obj
 0001:0001fde8       ?m_Visit@Class_Microsoft_Singularity_Hal_Acpi_AmlToStackIRVisitor@@SIXPAU1@PAUClass_Microsoft_Singularity_Hal_Acpi_AmlParser_DefLGreaterEqual@@@Z 00c30de8 f   kernel.obj
 0001:0001fe60       ?m_Visit@Class_Microsoft_Singularity_Hal_Acpi_AmlToStackIRVisitor@@SIXPAU1@PAUClass_Microsoft_Singularity_Hal_Acpi_AmlParser_DefLGreater@@@Z 00c30e60 f   kernel.obj
 0001:0001fed8       ?m_Visit@Class_Microsoft_Singularity_Hal_Acpi_AmlToStackIRVisitor@@SIXPAU1@PAUClass_Microsoft_Singularity_Hal_Acpi_AmlParser_DefLEqual@@@Z 00c30ed8 f   kernel.obj
 0001:0001ff50       ?m_Visit@Class_Microsoft_Singularity_Hal_Acpi_AmlToStackIRVisitor@@SIXPAU1@PAUClass_Microsoft_Singularity_Hal_Acpi_AmlParser_DefLAnd@@@Z 00c30f50 f   kernel.obj
 0001:0001ffc8       ?m_Visit@Class_Microsoft_Singularity_Hal_Acpi_AmlToStackIRVisitor@@SIXPAU1@PAUClass_Microsoft_Singularity_Hal_Acpi_AmlParser_DefIndex@@@Z 00c30fc8 f   kernel.obj
 0001:0002002c       ?m_Visit@Class_Microsoft_Singularity_Hal_Acpi_AmlToStackIRVisitor@@SIXPAU1@PAUClass_Microsoft_Singularity_Hal_Acpi_AmlParser_DefIncrement@@@Z 00c3102c f   kernel.obj
 0001:0002010c       ?m_Visit@Class_Microsoft_Singularity_Hal_Acpi_AmlToStackIRVisitor@@SIXPAU1@PAUClass_Microsoft_Singularity_Hal_Acpi_AmlParser_DefIfElse@@@Z 00c3110c f   kernel.obj
 0001:000201f8       ?m_Visit@Class_Microsoft_Singularity_Hal_Acpi_AmlToStackIRVisitor@@SIXPAU1@PAUClass_Microsoft_Singularity_Hal_Acpi_AmlParser_DefFindSetRightBit@@@Z 00c311f8 f   kernel.obj
 0001:00020254       ?m_Visit@Class_Microsoft_Singularity_Hal_Acpi_AmlToStackIRVisitor@@SIXPAU1@PAUClass_Microsoft_Singularity_Hal_Acpi_AmlParser_DefFindSetLeftBit@@@Z 00c31254 f   kernel.obj
 0001:000202b0       ?m_Visit@Class_Microsoft_Singularity_Hal_Acpi_AmlToStackIRVisitor@@SIXPAU1@PAUClass_Microsoft_Singularity_Hal_Acpi_AmlParser_DefField@@@Z 00c312b0 f   kernel.obj
 0001:00020320       ?m_Visit@Class_Microsoft_Singularity_Hal_Acpi_AmlToStackIRVisitor@@SIXPAU1@PAUClass_Microsoft_Singularity_Hal_Acpi_AmlParser_DefElse@@@Z 00c31320 f   kernel.obj
 0001:00020344       ?m_Visit@Class_Microsoft_Singularity_Hal_Acpi_AmlToStackIRVisitor@@SIXPAU1@PAUClass_Microsoft_Singularity_Hal_Acpi_AmlParser_DefDivide@@@Z 00c31344 f   kernel.obj
 0001:000205dc       ?m_Visit@Class_Microsoft_Singularity_Hal_Acpi_AmlToStackIRVisitor@@SIXPAU1@PAUClass_Microsoft_Singularity_Hal_Acpi_AmlParser_DefDerefOf@@@Z 00c315dc f   kernel.obj
 0001:00020640       ?m_Visit@Class_Microsoft_Singularity_Hal_Acpi_AmlToStackIRVisitor@@SIXPAU1@PAUClass_Microsoft_Singularity_Hal_Acpi_AmlParser_DefDecrement@@@Z 00c31640 f   kernel.obj
 0001:00020720       ?m_Visit@Class_Microsoft_Singularity_Hal_Acpi_AmlToStackIRVisitor@@SIXPAU1@PAUClass_Microsoft_Singularity_Hal_Acpi_AmlParser_DefCreateWordField@@@Z 00c31720 f   kernel.obj
 0001:0002084c       ?m_Visit@Class_Microsoft_Singularity_Hal_Acpi_AmlToStackIRVisitor@@SIXPAU1@PAUClass_Microsoft_Singularity_Hal_Acpi_AmlParser_DefCreateQWordField@@@Z 00c3184c f   kernel.obj
 0001:00020978       ?m_Visit@Class_Microsoft_Singularity_Hal_Acpi_AmlToStackIRVisitor@@SIXPAU1@PAUClass_Microsoft_Singularity_Hal_Acpi_AmlParser_DefCreateField@@@Z 00c31978 f   kernel.obj
 0001:00020a10       ?m_Visit@Class_Microsoft_Singularity_Hal_Acpi_AmlToStackIRVisitor@@SIXPAU1@PAUClass_Microsoft_Singularity_Hal_Acpi_AmlParser_DefCreateDWordField@@@Z 00c31a10 f   kernel.obj
 0001:00020b3c       ?m_Visit@Class_Microsoft_Singularity_Hal_Acpi_AmlToStackIRVisitor@@SIXPAU1@PAUClass_Microsoft_Singularity_Hal_Acpi_AmlParser_DefCreateByteField@@@Z 00c31b3c f   kernel.obj
 0001:00020c68       ?m_Visit@Class_Microsoft_Singularity_Hal_Acpi_AmlToStackIRVisitor@@SIXPAU1@PAUClass_Microsoft_Singularity_Hal_Acpi_AmlParser_DefCreateBitField@@@Z 00c31c68 f   kernel.obj
 0001:00020d34       ?m_Visit@Class_Microsoft_Singularity_Hal_Acpi_AmlToStackIRVisitor@@SIXPAU1@PAUClass_Microsoft_Singularity_Hal_Acpi_AmlParser_DefCondRefOf@@@Z 00c31d34 f   kernel.obj
 0001:00021010       ?m_Visit@Class_Microsoft_Singularity_Hal_Acpi_AmlToStackIRVisitor@@SIXPAU1@PAUClass_Microsoft_Singularity_Hal_Acpi_AmlParser_DefConcat@@@Z 00c32010 f   kernel.obj
 0001:00021074       ?m_Visit@Class_Microsoft_Singularity_Hal_Acpi_AmlToStackIRVisitor@@SIXPAU1@PAUClass_Microsoft_Singularity_Hal_Acpi_AmlParser_DefBuffer@@@Z 00c32074 f   kernel.obj
 0001:000210e8       ?m_Visit@Class_Microsoft_Singularity_Hal_Acpi_AmlToStackIRVisitor@@SIXPAU1@PAUClass_Microsoft_Singularity_Hal_Acpi_AmlParser_DefAnd@@@Z 00c320e8 f   kernel.obj
 0001:0002114c       ?m_Visit@Class_Microsoft_Singularity_Hal_Acpi_AmlToStackIRVisitor@@SIXPAU1@PAUClass_Microsoft_Singularity_Hal_Acpi_AmlParser_DefAdd@@@Z 00c3214c f   kernel.obj
 0001:000211b0       ?m_Visit@Class_Microsoft_Singularity_Hal_Acpi_AmlToStackIRVisitor@@SIXPAU1@PAUClass_Microsoft_Singularity_Hal_Acpi_AmlParser_DefAcquire@@@Z 00c321b0 f   kernel.obj
 0001:00021228       ?m_Visit@Class_Microsoft_Singularity_Hal_Acpi_AmlToStackIRVisitor@@SIXPAU1@PAUClass_Microsoft_Singularity_Hal_Acpi_AmlParser_DebugObj@@@Z 00c32228 f   kernel.obj
 0001:00021278       ?m_Visit@Class_Microsoft_Singularity_Hal_Acpi_AmlToStackIRVisitor@@SIXPAU1@PAUClass_Microsoft_Singularity_Hal_Acpi_AmlParser_DDBHandleObject@@@Z 00c32278 f   kernel.obj
 0001:000212a4       ?m_Visit@Class_Microsoft_Singularity_Hal_Acpi_AmlToStackIRVisitor@@SIXPAU1@PAUClass_Microsoft_Singularity_Hal_Acpi_AmlParser_Data@@@Z 00c322a4 f   kernel.obj
 0001:000212d0       ?m_Visit@Class_Microsoft_Singularity_Hal_Acpi_AmlToStackIRVisitor@@SIXPAU1@PAUClass_Microsoft_Singularity_Hal_Acpi_AmlParser_ByteIndex@@@Z 00c322d0 f   kernel.obj
 0001:000212fc       ?m_Visit@Class_Microsoft_Singularity_Hal_Acpi_AmlToStackIRVisitor@@SIXPAU1@PAUClass_Microsoft_Singularity_Hal_Acpi_AmlParser_BuffPkgStrObj@@@Z 00c322fc f   kernel.obj
 0001:00021328       ?m_Visit@Class_Microsoft_Singularity_Hal_Acpi_AmlToStackIRVisitor@@SIXPAU1@PAUClass_Microsoft_Singularity_Hal_Acpi_AmlParser_BitIndex@@@Z 00c32328 f   kernel.obj
 0001:00021354       ?m_Visit@Class_Microsoft_Singularity_Hal_Acpi_AmlToStackIRVisitor@@SIXPAU1@PAUClass_Microsoft_Singularity_Hal_Acpi_AmlParser_ArgObject@@@Z 00c32354 f   kernel.obj
 0001:00021380       ?m_Visit@Class_Microsoft_Singularity_Hal_Acpi_AmlToStackIRVisitor@@SIXPAU1@PAUClass_Microsoft_Singularity_Hal_Acpi_AmlParser_ArgObj@@@Z 00c32380 f   kernel.obj
 0001:000213dc       ?m_UnhandledNodeType@Class_Microsoft_Singularity_Hal_Acpi_AmlToStackIRVisitor@@SIXPAU1@PAUClass_System_String@@@Z 00c323dc f   kernel.obj
 0001:00021418       ?m_IsNullTarget@Class_Microsoft_Singularity_Hal_Acpi_AmlToStackIRVisitor@@SI_NPAU1@PAUClass_Microsoft_Singularity_Hal_Acpi_AmlParser_Target@@@Z 00c32418 f   kernel.obj
 0001:000214bc       ?m_get$_Result@Class_Microsoft_Singularity_Hal_Acpi_AmlToStackIRVisitor@@SIPAUClassVector_Class_Microsoft_Singularity_Hal_Acpi_StackIR_StackIRNode@@PAU1@@Z 00c324bc f   kernel.obj
 0001:00021550       ?m_DiscardResults@Class_Microsoft_Singularity_Hal_Acpi_AmlToStackIRVisitor@@SIXPAU1@@Z 00c32550 f   kernel.obj
 0001:000215d0       ?m__ctor@Class_Microsoft_Singularity_Hal_Acpi_AmlToStackIRVisitor@@SIXPAU1@@Z 00c325d0 f   kernel.obj
 0001:00021620       ?m_HeadMatches@Class_SurrogateMicrosoft_Singularity_Stress_Contracts_StressContract_Exp@@SI_NPAU1@HPA_NPAPAUClass_System_Object@@@Z 00c32620 f   kernel.obj
 0001:0002164c       ?m_GetWaitHandle@Class_SurrogateMicrosoft_Singularity_Stress_Contracts_StressContract_Exp@@SI?AUStruct_Microsoft_Singularity_V1_Threads_SyncHandle@@PAU1@@Z 00c3264c f   kernel.obj
 0001:0002166c       ?g__ctor@Class_SurrogateMicrosoft_Singularity_Stress_Contracts_StressContract_Exp@@SIXPAU1@PAUStruct_Microsoft_Singularity_Stress_Contracts_StressContract_Exp@@@Z 00c3266c f   kernel.obj
 0001:0002168c       ?m__ctor@Class_System_Runtime_CompilerServices_CalledRarelyAttribute@@SIXPAU1@@Z 00c3268c f   kernel.obj
 0001:000216ac       ?g_Truncate@Class_System_GCs_BootstrapMemory@@SIXXZ 00c326ac f   kernel.obj
 0001:000217dc       ?g_Initialize@Class_System_GCs_BootstrapMemory@@SIXPAUuintPtr@@@Z 00c327dc f   kernel.obj
 0001:00021814       ?g_AllocateBlock@Class_System_GCs_BootstrapMemory@@SIPAUuintPtr@@PAU2@I@Z 00c32814 f   kernel.obj
 0001:0002190c       ?g_Allocate@Class_System_GCs_BootstrapMemory@@SIPAUClass_System_Object@@PAUClass_System_VTable@@@Z 00c3290c f   kernel.obj
 0001:000219a0       ?g_Allocate@Class_System_GCs_BootstrapMemory@@SIPAUClass_System_Object@@PAUClass_System_VTable@@I@Z 00c329a0 f   kernel.obj
 0001:00021a08       ?g_Allocate@Class_System_GCs_BootstrapMemory@@SIPAUClass_System_Object@@PAUClass_System_Type@@@Z 00c32a08 f   kernel.obj
 0001:00021a28       ?g_Allocate@Class_System_GCs_BootstrapMemory@@SIPAUClass_System_Object@@PAUClass_System_Type@@I@Z 00c32a28 f   kernel.obj
 0001:00021a48       ?g_Allocate@Class_System_GCs_BootstrapMemory@@SIPAUClass_System_Object@@PAUClass_System_RuntimeType@@@Z 00c32a48 f   kernel.obj
 0001:00021a68       ?g_Allocate@Class_System_GCs_BootstrapMemory@@SIPAUClass_System_Object@@PAUClass_System_RuntimeType@@I@Z 00c32a68 f   kernel.obj
 0001:00021a8c       ?m__ctor@Class_System_GCs_BootstrapMemory@@SIXPAU1@@Z 00c32a8c f   kernel.obj
 0001:00021aa4       ?m_StructCopy@Struct_Microsoft_Singularity_Kd_ArmKdControlSet@@SIXPAU1@0@Z 00c32aa4 f   kernel.obj
 0001:00021ad8       ?m_StructCopy@Struct_Microsoft_Singularity_Kd_ArmKdControlSet@@SIXPAU1@PAU1@@Z 00c32ad8 f   kernel.obj
 0001:00021b74       ?m_Equals@Struct_Microsoft_Singularity_Kd_ArmKdControlSet@@SI_NPAU1@PAUClass_System_Object@@@Z 00c32b74 f   kernel.obj
 0001:00021bd0       ?m_Equals@Struct_Microsoft_Singularity_Kd_ArmKdControlSet@@SI_NPAUClass_Microsoft_Singularity_Kd_ArmKdControlSet@@PAUClass_System_Object@@@Z 00c32bd0 f   kernel.obj
 0001:00021bf4       ?g_YieldResources@Class_Microsoft_Singularity_Io_IoSystem@@SIPAUClass_Microsoft_Singularity_Io_IoConfig@@PAUClass_System_String@@PAUClass_System_Type@@@Z 00c32bf4 f   kernel.obj
 0001:00021e54       ?g_StartProcess@Class_Microsoft_Singularity_Io_IoSystem@@SIXPAUClass_System_String@@0@Z 00c32e54 f   kernel.obj
 0001:00021fac       ?g_SetFollows@Class_Microsoft_Singularity_Io_IoSystem@@SIXPAUClass_System_String@@@Z 00c32fac f   kernel.obj
 0001:00021ff0       ?g_RerouteIrq@Class_Microsoft_Singularity_Io_IoSystem@@SI_NPAUClass_Microsoft_Singularity_Io_DeviceNode@@HE@Z 00c32ff0 f   kernel.obj
 0001:00022114       ?g_RequestRerouteIrq@Class_Microsoft_Singularity_Io_IoSystem@@SI_NPAUClass_System_String@@HE@Z 00c33114 f   kernel.obj
 0001:00022450       ?g_RegisterKernelDriver@Class_Microsoft_Singularity_Io_IoSystem@@SI_NPAUClass_System_Type@@PAUClass_Microsoft_Singularity_Io_IoDeviceCreate@@@Z 00c33450 f   kernel.obj
 0001:00022670       ?g_RegisterDrivers@Class_Microsoft_Singularity_Io_IoSystem@@SIXXZ 00c33670 f   kernel.obj
 0001:00022a08       ?g_JoinForwardSlashPath@Class_Microsoft_Singularity_Io_IoSystem@@SIPAUClass_System_String@@PAU2@0@Z 00c33a08 f   kernel.obj
 0001:00022ac8       ?g_InitializeVolumeManager@Class_Microsoft_Singularity_Io_IoSystem@@SIXXZ 00c33ac8 f   kernel.obj
 0001:00022aec       ?g_InitializeServiceManager@Class_Microsoft_Singularity_Io_IoSystem@@SIXPAUClass_Microsoft_Singularity_Xml_XmlNode@@@Z 00c33aec f   kernel.obj
 0001:0002353c       ?g_InitializeDirectoryService@Class_Microsoft_Singularity_Io_IoSystem@@SIXXZ 00c3453c f   kernel.obj
 0001:00023930       ?g_Initialize@Class_Microsoft_Singularity_Io_IoSystem@@SIXPAUClass_Microsoft_Singularity_Xml_XmlNode@@@Z 00c34930 f   kernel.obj
 0001:00023a14       ?g_GetMetaData@Class_Microsoft_Singularity_Io_IoSystem@@SIPAUClass_Microsoft_Singularity_Xml_XmlNode@@PAUClass_System_String@@@Z 00c34a14 f   kernel.obj
 0001:00023bfc       ?g_GetMaximumIrq@Class_Microsoft_Singularity_Io_IoSystem@@SIEXZ 00c34bfc f   kernel.obj
 0001:00023c24       ?g_GetActivatableDriver@Class_Microsoft_Singularity_Io_IoSystem@@SIPAUClass_Microsoft_Singularity_Io_DeviceNode@@XZ 00c34c24 f   kernel.obj
 0001:00024124       ?g_FindSingletonDeviceBySignature@Class_Microsoft_Singularity_Io_IoSystem@@SIPAUClass_Microsoft_Singularity_Io_DeviceNode@@PAUClass_System_String@@@Z 00c35124 f   kernel.obj
 0001:000244bc       ?g_FinalizeOldDevices@Class_Microsoft_Singularity_Io_IoSystem@@SIXXZ 00c354bc f   kernel.obj
 0001:0002479c       ?g_Finalize@Class_Microsoft_Singularity_Io_IoSystem@@SIXXZ 00c3579c f   kernel.obj
 0001:000247c0       ?g_EnumerateDevice@Class_Microsoft_Singularity_Io_IoSystem@@SI_NPAUClass_Microsoft_Singularity_Io_IBusDevice@@PAUClass_System_String@@_N@Z 00c357c0 f   kernel.obj
 0001:00024828       ?g_DumpDeviceNode@Class_Microsoft_Singularity_Io_IoSystem@@SIXPAUClass_Microsoft_Singularity_Io_DeviceNode@@_N@Z 00c35828 f   kernel.obj
 0001:000249f0       ?g_Dump@Class_Microsoft_Singularity_Io_IoSystem@@SIX_N@Z 00c359f0 f   kernel.obj
 0001:00025048       ?g_CreateIoRangesFromMetadata@Class_Microsoft_Singularity_Io_IoSystem@@SIPAUClassVector_Class_Microsoft_Singularity_Io_IoRange@@PAUClass_Microsoft_Singularity_Xml_XmlNode@@@Z 00c36048 f   kernel.obj
 0001:000256e4       ?g_CheckFollows@Class_Microsoft_Singularity_Io_IoSystem@@SI_NPAUClass_System_String@@@Z 00c366e4 f   kernel.obj
 0001:0002571c       ?g_CheckDependencies@Class_Microsoft_Singularity_Io_IoSystem@@SI_NPAUClass_Microsoft_Singularity_Io_Driver@@_N@Z 00c3671c f   kernel.obj
 0001:00025968       ?g_Associate@Class_Microsoft_Singularity_Io_IoSystem@@SI_NPAUClass_Microsoft_Singularity_Io_DeviceNode@@@Z 00c36968 f   kernel.obj
 0001:00025d3c       ?g_AddRootDevice@Class_Microsoft_Singularity_Io_IoSystem@@SIXPAUClass_System_String@@PAUClass_Microsoft_Singularity_Io_IBusDevice@@PAUClass_Microsoft_Singularity_Io_IoConfig@@@Z 00c36d3c f   kernel.obj
 0001:00025f40       ?g_AddDevicesToTree@Class_Microsoft_Singularity_Io_IoSystem@@SI_NPAUClass_System_Collections_SortedList@@PAUClass_System_String@@_N@Z 00c36f40 f   kernel.obj
 0001:000263c8       ?g_ActivateDrivers@Class_Microsoft_Singularity_Io_IoSystem@@SIXXZ 00c373c8 f   kernel.obj
 0001:00026d4c       ?m__ctor@Class_Microsoft_Singularity_Io_IoSystem@@SIXPAU1@@Z 00c37d4c f   kernel.obj
 0001:00026d64       ?g__cctor@Class_Microsoft_Singularity_Io_IoSystem@@SIXXZ 00c37d64 f   kernel.obj
 0001:00026f1c       ?g_StableState@Class_Microsoft_Singularity_Directory_NotifyContract@@SIHPAUStruct_Microsoft_Singularity_Channels_StateStack@@@Z 00c37f1c f   kernel.obj
 0001:00026f64       ?g_CanonicalState@Class_Microsoft_Singularity_Directory_NotifyContract@@SIHH@Z 00c37f64 f   kernel.obj
 0001:00026f9c       ?m__ctor@Class_Microsoft_Singularity_Directory_NotifyContract@@SIXPAU1@@Z 00c37f9c f   kernel.obj
 0001:00026fb4       ?m_Accept@Class_Microsoft_Singularity_Hal_Acpi_AmlParser_EventObject@@SIXPAU1@PAUClass_Microsoft_Singularity_Hal_Acpi_AmlParserNodeVisitor@@@Z 00c37fb4 f   kernel.obj
 0001:00026fe0       ?m__ctor@Class_Microsoft_Singularity_Hal_Acpi_AmlParser_EventObject@@SIXPAU1@@Z 00c37fe0 f   kernel.obj
 0001:00027000       ?m_Accept@Class_Microsoft_Singularity_Hal_Acpi_AmlParser_DefNoop@@SIXPAU1@PAUClass_Microsoft_Singularity_Hal_Acpi_AmlParserNodeVisitor@@@Z 00c38000 f   kernel.obj
 0001:00027030       ?m__ctor@Class_Microsoft_Singularity_Hal_Acpi_AmlParser_DefNoop@@SIXPAU1@@Z 00c38030 f   kernel.obj
 0001:00027050       ?m_Accept@Class_Microsoft_Singularity_Hal_Acpi_AmlParser_LocalObj@@SIXPAU1@PAUClass_Microsoft_Singularity_Hal_Acpi_AmlParserNodeVisitor@@@Z 00c38050 f   kernel.obj
 0001:00027080       ?m__ctor@Class_Microsoft_Singularity_Hal_Acpi_AmlParser_LocalObj@@SIXPAU1@@Z 00c38080 f   kernel.obj
 0001:000270a0       ?m_Read@Class_Microsoft_Singularity_Security_AccessControl_StringReader@@SIHPAU1@PAUClassVector_bartok_char@@HH@Z 00c380a0 f   kernel.obj
 0001:00027208       ?m__ctor@Class_Microsoft_Singularity_Security_AccessControl_StringReader@@SIXPAU1@PAUClass_System_String@@@Z 00c38208 f   kernel.obj
 0001:00027294       ?m__ctor@Class_Microsoft_Singularity_Security_AccessControl_DataReader@@SIXPAUClass_Microsoft_Singularity_Security_AccessControl_StringReader@@@Z 00c38294 f   kernel.obj
 0001:000272ac       ?g_DeviceCreate@Class_Microsoft_Singularity_Drivers_IDE_TyanIdeBus@@SIPAUClass_Microsoft_Singularity_Io_IDevice@@PAUClass_Microsoft_Singularity_Io_IoConfig@@PAUClass_System_String@@@Z 00c382ac f   kernel.obj
 0001:00027318       ?m__ctor@Class_Microsoft_Singularity_Drivers_IDE_TyanIdeBus@@SIXPAU1@@Z 00c38318 f   kernel.obj
 0001:00027338       ?m_Print@Class_Microsoft_Singularity_Stress_GcStressDiagnostic@@SIXPAU1@PAUClass_System_String@@@Z 00c38338 f   kernel.obj
 0001:00027460       ?m__ctor@Class_Microsoft_Singularity_Stress_GcStressDiagnostic@@SIXPAU1@PAUClass__Stress_Microsoft_Singularity_Channels_TRef$_2$LMicrosoft_Singularity_Stress_Contracts_StressContract_Exp_Microsoft_Singularity_Stress_Contracts_StressContract_GcStressState$G@@@Z 00c38460 f   kernel.obj
 0001:00027490       ?g__cctor@Class_Microsoft_Singularity_Stress_GcStressDiagnostic@@SIXXZ 00c38490 f   kernel.obj
 0001:000274f0       ?m_StructCopy@Struct_Microsoft_Singularity_Stress_Contracts_StressContract_GcStressDone@@SIXPAU1@0@Z 00c384f0 f   kernel.obj
 0001:0002750c       ?m_StructCopy@Struct_Microsoft_Singularity_Stress_Contracts_StressContract_GcStressDone@@SIXPAU1@PAU1@@Z 00c3850c f   kernel.obj
 0001:00027560       ?m_MarshallContent@Struct_Microsoft_Singularity_Stress_Contracts_StressContract_GcStressDone@@SIXPAU1@PAEPAUStruct_Microsoft_Singularity_Channels_Endpoint@@1PAH@Z 00c38560 f   kernel.obj
 0001:00027580       ?m_MarshallAll@Struct_Microsoft_Singularity_Stress_Contracts_StressContract_GcStressDone@@SIXPAU1@PAEPAUStruct_Microsoft_Singularity_Channels_Endpoint@@PAH@Z 00c38580 f   kernel.obj
 0001:000275d0       ?m_Equals@Struct_Microsoft_Singularity_Stress_Contracts_StressContract_GcStressDone@@SI_NPAU1@PAUClass_System_Object@@@Z 00c385d0 f   kernel.obj
 0001:00027604       ?m_Equals@Struct_Microsoft_Singularity_Stress_Contracts_StressContract_GcStressDone@@SI_NPAUClass_Microsoft_Singularity_Stress_Contracts_StressContract_GcStressDone@@PAUClass_System_Object@@@Z 00c38604 f   kernel.obj
 0001:00027628       ?m_StructCopy@Struct_Microsoft_Singularity_Directory_NotificationManager_NotificationQueueContract_Imp@@SIXPAU1@0@Z 00c38628 f   kernel.obj
 0001:000276c8       ?m_StructCopy@Struct_Microsoft_Singularity_Directory_NotificationManager_NotificationQueueContract_Imp@@SIXPAU1@PAU1@@Z 00c386c8 f   kernel.obj
 0001:000278a8       ?m_SendWaitForData@Struct_Microsoft_Singularity_Directory_NotificationManager_NotificationQueueContract_Imp@@SIXPAU1@@Z 00c388a8 f   kernel.obj
 0001:00027980       ?m_Release@Struct_Microsoft_Singularity_Directory_NotificationManager_NotificationQueueContract_Imp@@SIXPAU1@@Z 00c38980 f   kernel.obj
 0001:00027998       ?m_RecvAckWaitForData@Struct_Microsoft_Singularity_Directory_NotificationManager_NotificationQueueContract_Imp@@SIXPAU1@@Z 00c38998 f   kernel.obj
 0001:00027ae4       ?m_Peek@Struct_Microsoft_Singularity_Directory_NotificationManager_NotificationQueueContract_Imp@@SIHPAU1@@Z 00c38ae4 f   kernel.obj
 0001:00027bd4       ?m_MarshallDeliverAckWaitForData0@Struct_Microsoft_Singularity_Directory_NotificationManager_NotificationQueueContract_Imp@@SIXPAU1@PAUStruct_Microsoft_Singularity_Channels_Endpoint@@@Z 00c38bd4 f   kernel.obj
 0001:00027c0c       ?m_HeadMatches@Struct_Microsoft_Singularity_Directory_NotificationManager_NotificationQueueContract_Imp@@SI_NPAU1@HPA_NPAPAUClass_System_Object@@@Z 00c38c0c f   kernel.obj
 0001:00027cac       ?m_HeadMatches@Struct_Microsoft_Singularity_Directory_NotificationManager_NotificationQueueContract_Imp@@SI_NPAUClass_Microsoft_Singularity_Directory_NotificationManager_NotificationQueueContract_Imp@@HPA_NPAPAUClass_System_Object@@@Z 00c38cac f   kernel.obj
 0001:00027cd8       ?m_Equals@Struct_Microsoft_Singularity_Directory_NotificationManager_NotificationQueueContract_Imp@@SI_NPAU1@PAUClass_System_Object@@@Z 00c38cd8 f   kernel.obj
 0001:00027f20       ?m_Equals@Struct_Microsoft_Singularity_Directory_NotificationManager_NotificationQueueContract_Imp@@SI_NPAUClass_Microsoft_Singularity_Directory_NotificationManager_NotificationQueueContract_Imp@@PAUClass_System_Object@@@Z 00c38f20 f   kernel.obj
 0001:00027f44       ?m_Dispose@Struct_Microsoft_Singularity_Directory_NotificationManager_NotificationQueueContract_Imp@@SIXPAU1@@Z 00c38f44 f   kernel.obj
 0001:00027f64       ?m_DeliverAckWaitForData0@Struct_Microsoft_Singularity_Directory_NotificationManager_NotificationQueueContract_Imp@@SIXPAU1@@Z 00c38f64 f   kernel.obj
 0001:00027f90       ?m_CurrentState@Struct_Microsoft_Singularity_Directory_NotificationManager_NotificationQueueContract_Imp@@SIPAUClass_System_String@@PAU1@@Z 00c38f90 f   kernel.obj
 0001:00027ff4       ?m_Acquire@Struct_Microsoft_Singularity_Directory_NotificationManager_NotificationQueueContract_Imp@@SIXPAU1@@Z 00c38ff4 f   kernel.obj
 0001:0002800c       ?m__ctor@Struct_Microsoft_Singularity_Directory_NotificationManager_NotificationQueueContract_Imp@@SIXPAU1@H@Z 00c3900c f   kernel.obj
 0001:0002802c       ?m_Accept@Class_Microsoft_Singularity_Hal_Acpi_AmlParser_DefIncrement@@SIXPAU1@PAUClass_Microsoft_Singularity_Hal_Acpi_AmlParserNodeVisitor@@@Z 00c3902c f   kernel.obj
 0001:0002805c       ?m__ctor@Class_Microsoft_Singularity_Hal_Acpi_AmlParser_DefIncrement@@SIXPAU1@@Z 00c3905c f   kernel.obj
 0001:0002807c       ?m_StructCopy@Struct_Microsoft_Singularity_Kd_X64XmmSaveArea@@SIXPAU1@0@Z 00c3907c f   kernel.obj
 0001:00028368       ?m_StructCopy@Struct_Microsoft_Singularity_Kd_X64XmmSaveArea@@SIXPAU1@PAU1@@Z 00c39368 f   kernel.obj
 0001:00028c2c       ?m_Equals@Struct_Microsoft_Singularity_Kd_X64XmmSaveArea@@SI_NPAU1@PAUClass_System_Object@@@Z 00c39c2c f   kernel.obj
 0001:0002a0f4       ?m_Equals@Struct_Microsoft_Singularity_Kd_X64XmmSaveArea@@SI_NPAUClass_Microsoft_Singularity_Kd_X64XmmSaveArea@@PAUClass_System_Object@@@Z 00c3b0f4 f   kernel.obj
 0001:0002a118       ?m_Accept@Class_Microsoft_Singularity_Hal_Acpi_AmlParser_DefLNotEqual@@SIXPAU1@PAUClass_Microsoft_Singularity_Hal_Acpi_AmlParserNodeVisitor@@@Z 00c3b118 f   kernel.obj
 0001:0002a144       ?m__ctor@Class_Microsoft_Singularity_Hal_Acpi_AmlParser_DefLNotEqual@@SIXPAU1@@Z 00c3b144 f   kernel.obj
 0001:0002a164       ?m_Write@Class_Microsoft_Singularity_Hal_Acpi_AcpiObject_Buffer@@SIXPAU1@PAUClass_Microsoft_Singularity_Hal_Acpi_AcpiObject_AcpiObject@@@Z 00c3b164 f   kernel.obj
 0001:0002a1a4       ?m_ToString@Class_Microsoft_Singularity_Hal_Acpi_AcpiObject_Buffer@@SIPAUClass_System_String@@PAU1@@Z 00c3b1a4 f   kernel.obj
 0001:0002a270       ?m_SetIndex@Class_Microsoft_Singularity_Hal_Acpi_AcpiObject_Buffer@@SIXPAU1@_KPAUClass_Microsoft_Singularity_Hal_Acpi_AcpiObject_AcpiObject@@@Z 00c3b270 f   kernel.obj
 0001:0002a2e8       ?m_ObjectType@Class_Microsoft_Singularity_Hal_Acpi_AcpiObject_Buffer@@SIPAUClass_Microsoft_Singularity_Hal_Acpi_AcpiObject_Integer@@PAU1@@Z 00c3b2e8 f   kernel.obj
 0001:0002a328       ?m_Index@Class_Microsoft_Singularity_Hal_Acpi_AcpiObject_Buffer@@SIPAUClass_Microsoft_Singularity_Hal_Acpi_AcpiObject_AcpiObject@@PAU1@_K@Z 00c3b328 f   kernel.obj
 0001:0002a3ac       ?m_GetAsBuffer@Class_Microsoft_Singularity_Hal_Acpi_AcpiObject_Buffer@@SIPAU1@PAU1@@Z 00c3b3ac f   kernel.obj
 0001:0002a3c8       ?m_get$_Contents@Class_Microsoft_Singularity_Hal_Acpi_AcpiObject_Buffer@@SIPAUClassVector_uint8@@PAU1@@Z 00c3b3c8 f   kernel.obj
 0001:0002a404       ?m__ctor@Class_Microsoft_Singularity_Hal_Acpi_AcpiObject_Buffer@@SIXPAU1@PAUClassVector_uint8@@@Z 00c3b404 f   kernel.obj
 0001:0002a438       ?m_Visit@Class_System_GCs_GCProfiler_OneObjectVisitor@@SIXPAU1@PAPAUuintPtr@@@Z 00c3b438 f   kernel.obj
 0001:0002a460       ?m__ctor@Class_System_GCs_GCProfiler_OneObjectVisitor@@SIXPAU1@PAUClass_Microsoft_Singularity_GCProfilerLogger@@@Z 00c3b460 f   kernel.obj
 0001:0002a494       ?g_StableState@Class_Microsoft_Singularity_Directory_FileContract@@SIHPAUStruct_Microsoft_Singularity_Channels_StateStack@@@Z 00c3b494 f   kernel.obj
 0001:0002a4f8       ?g_NewChannel@Class_Microsoft_Singularity_Directory_FileContract@@SIXPAPAUStruct_Microsoft_Singularity_Directory_FileContract_Imp@@PAPAUStruct_Microsoft_Singularity_Directory_FileContract_Exp@@@Z 00c3b4f8 f   kernel.obj
 0001:0002a58c       ?g_CanonicalState@Class_Microsoft_Singularity_Directory_FileContract@@SIHH@Z 00c3b58c f   kernel.obj
 0001:0002a5d4       ?m__ctor@Class_Microsoft_Singularity_Directory_FileContract@@SIXPAU1@@Z 00c3b5d4 f   kernel.obj
 0001:0002a5ec       ?m_Accept@Class_Microsoft_Singularity_Hal_Acpi_AmlParser_BufData@@SIXPAU1@PAUClass_Microsoft_Singularity_Hal_Acpi_AmlParserNodeVisitor@@@Z 00c3b5ec f   kernel.obj
 0001:0002a618       ?m__ctor@Class_Microsoft_Singularity_Hal_Acpi_AmlParser_BufData@@SIXPAU1@@Z 00c3b618 f   kernel.obj
 0001:0002a638       ?m_StructCopy@Struct_Microsoft_Singularity_Directory_DirectoryServiceContract_EndEnumeration@@SIXPAU1@0@Z 00c3b638 f   kernel.obj
 0001:0002a654       ?m_StructCopy@Struct_Microsoft_Singularity_Directory_DirectoryServiceContract_EndEnumeration@@SIXPAU1@PAU1@@Z 00c3b654 f   kernel.obj
 0001:0002a6a8       ?m_Equals@Struct_Microsoft_Singularity_Directory_DirectoryServiceContract_EndEnumeration@@SI_NPAU1@PAUClass_System_Object@@@Z 00c3b6a8 f   kernel.obj
 0001:0002a6dc       ?m_Equals@Struct_Microsoft_Singularity_Directory_DirectoryServiceContract_EndEnumeration@@SI_NPAUClass_Microsoft_Singularity_Directory_DirectoryServiceContract_EndEnumeration@@PAUClass_System_Object@@@Z 00c3b6dc f   kernel.obj
 0001:0002a700       ?m_StructCopy@Struct_Microsoft_Singularity_KernelDebugger_WriteHostFileRequest@@SIXPAU1@0@Z 00c3b700 f   kernel.obj
 0001:0002a740       ?m_StructCopy@Struct_Microsoft_Singularity_KernelDebugger_WriteHostFileRequest@@SIXPAU1@PAU1@@Z 00c3b740 f   kernel.obj
 0001:0002a800       ?m_Equals@Struct_Microsoft_Singularity_KernelDebugger_WriteHostFileRequest@@SI_NPAU1@PAUClass_System_Object@@@Z 00c3b800 f   kernel.obj
 0001:0002a888       ?m_Equals@Struct_Microsoft_Singularity_KernelDebugger_WriteHostFileRequest@@SI_NPAUClass_Microsoft_Singularity_KernelDebugger_WriteHostFileRequest@@PAUClass_System_Object@@@Z 00c3b888 f   kernel.obj
 0001:0002a8ac       ?m_Accept@Class_Microsoft_Singularity_Hal_Acpi_AmlParser_NotifyValue@@SIXPAU1@PAUClass_Microsoft_Singularity_Hal_Acpi_AmlParserNodeVisitor@@@Z 00c3b8ac f   kernel.obj
 0001:0002a8dc       ?m__ctor@Class_Microsoft_Singularity_Hal_Acpi_AmlParser_NotifyValue@@SIXPAU1@@Z 00c3b8dc f   kernel.obj
 0001:0002a8fc       ?m_Accept@Class_Microsoft_Singularity_Hal_Acpi_AmlParser_ShiftCount@@SIXPAU1@PAUClass_Microsoft_Singularity_Hal_Acpi_AmlParserNodeVisitor@@@Z 00c3b8fc f   kernel.obj
 0001:0002a92c       ?m__ctor@Class_Microsoft_Singularity_Hal_Acpi_AmlParser_ShiftCount@@SIXPAU1@@Z 00c3b92c f   kernel.obj
 0001:0002a94c       ?m_StructCopy@Struct_Microsoft_Singularity_Diagnostics_Contracts_ProcessContract_ProcessGcStats@@SIXPAU1@0@Z 00c3b94c f   kernel.obj
 0001:0002a98c       ?m_StructCopy@Struct_Microsoft_Singularity_Diagnostics_Contracts_ProcessContract_ProcessGcStats@@SIXPAU1@PAU1@@Z 00c3b98c f   kernel.obj
 0001:0002aa4c       ?m_MarshallContent@Struct_Microsoft_Singularity_Diagnostics_Contracts_ProcessContract_ProcessGcStats@@SIXPAU1@PAEPAUStruct_Microsoft_Singularity_Channels_Endpoint@@1PAH@Z 00c3ba4c f   kernel.obj
 0001:0002aa6c       ?m_MarshallAll@Struct_Microsoft_Singularity_Diagnostics_Contracts_ProcessContract_ProcessGcStats@@SIXPAU1@PAEPAUStruct_Microsoft_Singularity_Channels_Endpoint@@PAH@Z 00c3ba6c f   kernel.obj
 0001:0002aabc       ?m_Equals@Struct_Microsoft_Singularity_Diagnostics_Contracts_ProcessContract_ProcessGcStats@@SI_NPAU1@PAUClass_System_Object@@@Z 00c3babc f   kernel.obj
 0001:0002ab44       ?m_Equals@Struct_Microsoft_Singularity_Diagnostics_Contracts_ProcessContract_ProcessGcStats@@SI_NPAUClass_Microsoft_Singularity_Diagnostics_Contracts_ProcessContract_ProcessGcStats@@PAUClass_System_Object@@@Z 00c3bb44 f   kernel.obj
 0001:0002ab68       ?m_StructCopy@Struct_Microsoft_Singularity_Memory_PhysicalHeap_FreeNode@@SIXPAU1@0@Z 00c3bb68 f   kernel.obj
 0001:0002aba0       ?m_StructCopy@Struct_Microsoft_Singularity_Memory_PhysicalHeap_FreeNode@@SIXPAU1@PAU1@@Z 00c3bba0 f   kernel.obj
 0001:0002ac48       ?m_Remove@Struct_Microsoft_Singularity_Memory_PhysicalHeap_FreeNode@@SIXPAU1@@Z 00c3bc48 f   kernel.obj
 0001:0002ac80       ?g_GetNodeAt@Struct_Microsoft_Singularity_Memory_PhysicalHeap_FreeNode@@SIPAU1@PAUStruct_Microsoft_Singularity_Memory_PhysicalHeap@@PAUuintPtr@@@Z 00c3bc80 f   kernel.obj
 0001:0002afcc       ?m_Equals@Struct_Microsoft_Singularity_Memory_PhysicalHeap_FreeNode@@SI_NPAU1@PAUClass_System_Object@@@Z 00c3bfcc f   kernel.obj
 0001:0002b030       ?m_Equals@Struct_Microsoft_Singularity_Memory_PhysicalHeap_FreeNode@@SI_NPAUClass_Microsoft_Singularity_Memory_PhysicalHeap_FreeNode@@PAUClass_System_Object@@@Z 00c3c030 f   kernel.obj
 0001:0002b054       ?g_Create@Struct_Microsoft_Singularity_Memory_PhysicalHeap_FreeNode@@SIPAU1@PAUStruct_Microsoft_Singularity_Memory_PhysicalHeap@@PAUuintPtr@@1@Z 00c3c054 f   kernel.obj
 0001:0002b34c       ?g_WritePerfCounter$_@Struct_Microsoft_Singularity_V1_Services_DebugService@@SI_NI_K@Z 00c3c34c f   kernel.obj
 0001:0002b4d4       ?g_WritePerfCounter@Struct_Microsoft_Singularity_V1_Services_DebugService@@SI_NI_K@Z 00c3c4d4 f   kernel.obj
 0001:0002b980       ?g_WalkStack$_@Struct_Microsoft_Singularity_V1_Services_DebugService@@SIXXZ 00c3c980 f   kernel.obj
 0001:0002b9a0       ?g_WalkStack@Struct_Microsoft_Singularity_V1_Services_DebugService@@SIXXZ 00c3c9a0 f   kernel.obj
 0001:0002be28       ?m_StructCopy@Struct_Microsoft_Singularity_V1_Services_DebugService@@SIXPAU1@0@Z 00c3ce28 f   kernel.obj
 0001:0002be44       ?m_StructCopy@Struct_Microsoft_Singularity_V1_Services_DebugService@@SIXPAU1@PAU1@@Z 00c3ce44 f   kernel.obj
 0001:0002be98       ?g_ReadPerfCounter$_@Struct_Microsoft_Singularity_V1_Services_DebugService@@SI_KI@Z 00c3ce98 f   kernel.obj
 0001:0002bfa8       ?g_ReadPerfCounter@Struct_Microsoft_Singularity_V1_Services_DebugService@@SI_KI@Z 00c3cfa8 f   kernel.obj
 0001:0002c458       ?g_PrintComplete$_@Struct_Microsoft_Singularity_V1_Services_DebugService@@SIXPA_WH@Z 00c3d458 f   kernel.obj
 0001:0002c478       ?g_PrintComplete@Struct_Microsoft_Singularity_V1_Services_DebugService@@SIXPA_WH@Z 00c3d478 f   kernel.obj
 0001:0002c918       ?g_PrintBeginImpl$_@Struct_Microsoft_Singularity_V1_Services_DebugService@@SIXPAPA_WPAH@Z 00c3d918 f   kernel.obj
 0001:0002c938       ?g_PrintBeginImpl@Struct_Microsoft_Singularity_V1_Services_DebugService@@SIXPAPA_WPAH@Z 00c3d938 f   kernel.obj
 0001:0002cdd8       ?g_PrintBegin@Struct_Microsoft_Singularity_V1_Services_DebugService@@SIXPAPA_WPAH@Z 00c3ddd8 f   kernel.obj
 0001:0002cdf8       ?g_Print$_@Struct_Microsoft_Singularity_V1_Services_DebugService@@SIXPA_W@Z 00c3ddf8 f   kernel.obj
 0001:0002ce18       ?g_Print$_@Struct_Microsoft_Singularity_V1_Services_DebugService@@SIXPA_WH@Z 00c3de18 f   kernel.obj
 0001:0002ce38       ?g_Print$_@Struct_Microsoft_Singularity_V1_Services_DebugService@@SIXE@Z 00c3de38 f   kernel.obj
 0001:0002cea0       ?g_Print$_@Struct_Microsoft_Singularity_V1_Services_DebugService@@SIX_K@Z 00c3dea0 f   kernel.obj
 0001:0002cf10       ?g_Print$_@Struct_Microsoft_Singularity_V1_Services_DebugService@@SIXI@Z 00c3df10 f   kernel.obj
 0001:0002cf78       ?g_Print$_@Struct_Microsoft_Singularity_V1_Services_DebugService@@SIX_J@Z 00c3df78 f   kernel.obj
 0001:0002cfe8       ?g_Print$_@Struct_Microsoft_Singularity_V1_Services_DebugService@@SIXH@Z 00c3dfe8 f   kernel.obj
 0001:0002d050       ?g_Print$_@Struct_Microsoft_Singularity_V1_Services_DebugService@@SIX_W@Z 00c3e050 f   kernel.obj
 0001:0002d0b8       ?g_Print$_@Struct_Microsoft_Singularity_V1_Services_DebugService@@SIX_N@Z 00c3e0b8 f   kernel.obj
 0001:0002d120       ?g_Print@Struct_Microsoft_Singularity_V1_Services_DebugService@@SIXPA_W@Z 00c3e120 f   kernel.obj
 0001:0002d5b4       ?g_Print@Struct_Microsoft_Singularity_V1_Services_DebugService@@SIXPA_WH@Z 00c3e5b4 f   kernel.obj
 0001:0002da54       ?g_Print@Struct_Microsoft_Singularity_V1_Services_DebugService@@SIXE@Z 00c3ea54 f   kernel.obj
 0001:0002dee8       ?g_Print@Struct_Microsoft_Singularity_V1_Services_DebugService@@SIX_K@Z 00c3eee8 f   kernel.obj
 0001:0002e378       ?g_Print@Struct_Microsoft_Singularity_V1_Services_DebugService@@SIXI@Z 00c3f378 f   kernel.obj
 0001:0002e80c       ?g_Print@Struct_Microsoft_Singularity_V1_Services_DebugService@@SIX_J@Z 00c3f80c f   kernel.obj
 0001:0002ec9c       ?g_Print@Struct_Microsoft_Singularity_V1_Services_DebugService@@SIXH@Z 00c3fc9c f   kernel.obj
 0001:0002f130       ?g_Print@Struct_Microsoft_Singularity_V1_Services_DebugService@@SIX_W@Z 00c40130 f   kernel.obj
 0001:0002f5c4       ?g_Print@Struct_Microsoft_Singularity_V1_Services_DebugService@@SIX_N@Z 00c405c4 f   kernel.obj
 0001:0002fa58       ?g_IsDebuggerPresent$_@Struct_Microsoft_Singularity_V1_Services_DebugService@@SI_NXZ 00c40a58 f   kernel.obj
 0001:0002fa70       ?g_IsDebuggerPresent@Struct_Microsoft_Singularity_V1_Services_DebugService@@SI_NXZ 00c40a70 f   kernel.obj
 0001:0002ff08       ?m_Equals@Struct_Microsoft_Singularity_V1_Services_DebugService@@SI_NPAU1@PAUClass_System_Object@@@Z 00c40f08 f   kernel.obj
 0001:0002ff28       ?m_Equals@Struct_Microsoft_Singularity_V1_Services_DebugService@@SI_NPAUClass_Microsoft_Singularity_V1_Services_DebugService@@PAUClass_System_Object@@@Z 00c40f28 f   kernel.obj
 0001:0002ff50       ?g_Break$_@Struct_Microsoft_Singularity_V1_Services_DebugService@@SIXXZ 00c40f50 f   kernel.obj
 0001:0002ff80       ?g_Break@Struct_Microsoft_Singularity_V1_Services_DebugService@@SIXXZ 00c40f80 f   kernel.obj
 0001:00030408       ?g_AddToPerfCounter$_@Struct_Microsoft_Singularity_V1_Services_DebugService@@SI_NI_K@Z 00c41408 f   kernel.obj
 0001:00030590       ?g_AddToPerfCounter@Struct_Microsoft_Singularity_V1_Services_DebugService@@SI_NI_K@Z 00c41590 f   kernel.obj
 0001:00030a3c       ?m_StructCopy@Struct_Microsoft_Singularity_Kd_X86KProcessorState@@SIXPAU1@0@Z 00c41a3c f   kernel.obj
 0001:00030a78       ?m_StructCopy@Struct_Microsoft_Singularity_Kd_X86KProcessorState@@SIXPAU1@PAU1@@Z 00c41a78 f   kernel.obj
 0001:00030b2c       ?m_Equals@Struct_Microsoft_Singularity_Kd_X86KProcessorState@@SI_NPAU1@PAUClass_System_Object@@@Z 00c41b2c f   kernel.obj
 0001:00030c54       ?m_Equals@Struct_Microsoft_Singularity_Kd_X86KProcessorState@@SI_NPAUClass_Microsoft_Singularity_Kd_X86KProcessorState@@PAUClass_System_Object@@@Z 00c41c54 f   kernel.obj
 0001:00030c78       ?m_StructCopy@Struct_Microsoft_Singularity_Diagnostics_Contracts_ProcessContract_GetParentID@@SIXPAU1@0@Z 00c41c78 f   kernel.obj
 0001:00030c98       ?m_StructCopy@Struct_Microsoft_Singularity_Diagnostics_Contracts_ProcessContract_GetParentID@@SIXPAU1@PAU1@@Z 00c41c98 f   kernel.obj
 0001:00030cf8       ?m_Equals@Struct_Microsoft_Singularity_Diagnostics_Contracts_ProcessContract_GetParentID@@SI_NPAU1@PAUClass_System_Object@@@Z 00c41cf8 f   kernel.obj
 0001:00030d34       ?m_Equals@Struct_Microsoft_Singularity_Diagnostics_Contracts_ProcessContract_GetParentID@@SI_NPAUClass_Microsoft_Singularity_Diagnostics_Contracts_ProcessContract_GetParentID@@PAUClass_System_Object@@@Z 00c41d34 f   kernel.obj
 0001:00030d58       ?m__ctor@Class_System_Text_RegularExpressions_MatchSparse@@SIXPAU1@PAUClass_System_Text_RegularExpressions_Regex@@PAUClass_System_Collections_Hashtable@@HPAUClass_System_String@@HHH@Z 00c41d58 f   kernel.obj
 0001:00030d9c       ?g__cctor@Class_System_Text_RegularExpressions_MatchSparse@@SIXXZ 00c41d9c f   kernel.obj
 0001:00030dc4       ?g_CreateDefVarPackage@Class_Microsoft_Singularity_Hal_Acpi_AmlParserUnions_DataObject@@SIPAU1@PAUClass_Microsoft_Singularity_Hal_Acpi_AmlParser_DefVarPackage@@@Z 00c41dc4 f   kernel.obj
 0001:00030e08       ?g_CreateDefPackage@Class_Microsoft_Singularity_Hal_Acpi_AmlParserUnions_DataObject@@SIPAU1@PAUClass_Microsoft_Singularity_Hal_Acpi_AmlParser_DefPackage@@@Z 00c41e08 f   kernel.obj
 0001:00030e4c       ?g_CreateComputationalData@Class_Microsoft_Singularity_Hal_Acpi_AmlParserUnions_DataObject@@SIPAU1@PAUClass_Microsoft_Singularity_Hal_Acpi_AmlParserUnions_ComputationalData@@@Z 00c41e4c f   kernel.obj
 0001:00030e8c       ?m_AcceptAlternative@Class_Microsoft_Singularity_Hal_Acpi_AmlParserUnions_DataObject@@SIXPAU1@PAUClass_Microsoft_Singularity_Hal_Acpi_AmlParserNodeVisitor@@@Z 00c41e8c f   kernel.obj
 0001:00030ec8       ?m_Accept@Class_Microsoft_Singularity_Hal_Acpi_AmlParserUnions_DataObject@@SIXPAU1@PAUClass_Microsoft_Singularity_Hal_Acpi_AmlParserNodeVisitor@@@Z 00c41ec8 f   kernel.obj
 0001:00030ef4       ?m__ctor@Class_Microsoft_Singularity_Hal_Acpi_AmlParserUnions_DataObject@@SIXPAU1@UStruct_Microsoft_Singularity_Hal_Acpi_AmlParserUnions_DataObject_TagValue@@PAUClass_System_Object@@@Z 00c41ef4 f   kernel.obj
 0001:00030f30       ?m_Accept@Class_Microsoft_Singularity_Hal_Acpi_AmlParser_DefMethod@@SIXPAU1@PAUClass_Microsoft_Singularity_Hal_Acpi_AmlParserNodeVisitor@@@Z 00c41f30 f   kernel.obj
 0001:00030f60       ?m__ctor@Class_Microsoft_Singularity_Hal_Acpi_AmlParser_DefMethod@@SIXPAU1@@Z 00c41f60 f   kernel.obj
 0001:00030f80       ?m_StructCopy@Struct_Microsoft_Singularity_Io_ConsoleDeviceContract_CursorPosition@@SIXPAU1@0@Z 00c41f80 f   kernel.obj
 0001:00030fa8       ?m_StructCopy@Struct_Microsoft_Singularity_Io_ConsoleDeviceContract_CursorPosition@@SIXPAU1@PAU1@@Z 00c41fa8 f   kernel.obj
 0001:00031020       ?m_MarshallContent@Struct_Microsoft_Singularity_Io_ConsoleDeviceContract_CursorPosition@@SIXPAU1@PAEPAUStruct_Microsoft_Singularity_Channels_Endpoint@@1PAH@Z 00c42020 f   kernel.obj
 0001:00031040       ?m_MarshallAll@Struct_Microsoft_Singularity_Io_ConsoleDeviceContract_CursorPosition@@SIXPAU1@PAEPAUStruct_Microsoft_Singularity_Channels_Endpoint@@PAH@Z 00c42040 f   kernel.obj
 0001:00031090       ?m_Equals@Struct_Microsoft_Singularity_Io_ConsoleDeviceContract_CursorPosition@@SI_NPAU1@PAUClass_System_Object@@@Z 00c42090 f   kernel.obj
 0001:000310dc       ?m_Equals@Struct_Microsoft_Singularity_Io_ConsoleDeviceContract_CursorPosition@@SI_NPAUClass_Microsoft_Singularity_Io_ConsoleDeviceContract_CursorPosition@@PAUClass_System_Object@@@Z 00c420dc f   kernel.obj
 0001:00031100       ?g_WaitForPending@Struct_System_Finalizer@@SIXXZ 00c42100 f   kernel.obj
 0001:00031130       ?g_VisitBootstrapData@Struct_System_Finalizer@@SIXPAUClass_System_GCs_DirectReferenceVisitor@@@Z 00c42130 f   kernel.obj
 0001:0003118c       ?g_VisitAllRunFinalizer@Struct_System_Finalizer@@SIXPAUClass_System_GCs_DirectReferenceVisitor@@_N1@Z 00c4218c f   kernel.obj
 0001:000312ac       ?g_ThreadLoop@Struct_System_Finalizer@@SIXXZ 00c422ac f   kernel.obj
 0001:00031348       ?m_StructCopy@Struct_System_Finalizer@@SIXPAU1@0@Z 00c42348 f   kernel.obj
 0001:00031364       ?m_StructCopy@Struct_System_Finalizer@@SIXPAU1@PAU1@@Z 00c42364 f   kernel.obj
 0001:000313b8       ?g_StartFinalizerThread@Struct_System_Finalizer@@SIXXZ 00c423b8 f   kernel.obj
 0001:000314b8       ?g_ResurrectCandidates@Struct_System_Finalizer@@SIXPAUClass_System_GCs_DirectReferenceVisitor@@0_N@Z 00c424b8 f   kernel.obj
 0001:00031de4       ?g_ReleaseCollectFinalizers@Struct_System_Finalizer@@SIXXZ 00c42de4 f   kernel.obj
 0001:00031e2c       ?g_RegisterCandidate@Struct_System_Finalizer@@SIXPAUClass_System_Object@@@Z 00c42e2c f   kernel.obj
 0001:00032618       ?g_PrepareCollectFinalizers@Struct_System_Finalizer@@SIXXZ 00c43618 f   kernel.obj
 0001:00032750       ?g_LinkToIndex@Struct_System_Finalizer@@SIHH@Z 00c43750 f   kernel.obj
 0001:0003277c       ?g_IsLink@Struct_System_Finalizer@@SI_NH@Z 00c4377c f   kernel.obj
 0001:0003279c       ?g_IndexToLink@Struct_System_Finalizer@@SIHH@Z 00c4379c f   kernel.obj
 0001:000327bc       ?g_GetObjectFromRun@Struct_System_Finalizer@@SIPAUClass_System_Object@@XZ 00c437bc f   kernel.obj
 0001:0003292c       ?m_Equals@Struct_System_Finalizer@@SI_NPAU1@PAUClass_System_Object@@@Z 00c4392c f   kernel.obj
 0001:00032960       ?m_Equals@Struct_System_Finalizer@@SI_NPAUClass_System_Finalizer@@PAUClass_System_Object@@@Z 00c43960 f   kernel.obj
 0001:00032984       ?g_CompactTables@Struct_System_Finalizer@@SIXXZ 00c43984 f   kernel.obj
 0001:00032998       ?g__cctor@Struct_System_Finalizer@@SIXXZ 00c43998 f   kernel.obj
 0001:00032b28       ?m_StructCopy@Struct_Microsoft_Singularity_Directory_DirectoryServiceContract_Notify@@SIXPAU1@0@Z 00c43b28 f   kernel.obj
 0001:00032b5c       ?m_StructCopy@Struct_Microsoft_Singularity_Directory_DirectoryServiceContract_Notify@@SIXPAU1@PAU1@@Z 00c43b5c f   kernel.obj
 0001:00032bf8       ?m_Equals@Struct_Microsoft_Singularity_Directory_DirectoryServiceContract_Notify@@SI_NPAU1@PAUClass_System_Object@@@Z 00c43bf8 f   kernel.obj
 0001:00032c54       ?m_Equals@Struct_Microsoft_Singularity_Directory_DirectoryServiceContract_Notify@@SI_NPAUClass_Microsoft_Singularity_Directory_DirectoryServiceContract_Notify@@PAUClass_System_Object@@@Z 00c43c54 f   kernel.obj
 0001:00032c78       ?m__ctor@Class_System_Runtime_CompilerServices_NoBarriersAttribute@@SIXPAU1@@Z 00c43c78 f   kernel.obj
 0001:00032c98       ?g_UpdateFrequency@Class_Microsoft_Singularity_Hal_HpetClock@@SIIPAUClass_Microsoft_Singularity_Hal_Hpet@@@Z 00c43c98 f   kernel.obj
 0001:00032d58       ?m_Update@Class_Microsoft_Singularity_Hal_HpetClock@@SIXPAU1@@Z 00c43d58 f   kernel.obj
 0001:00032dbc       ?m_GetKernelTicks@Class_Microsoft_Singularity_Hal_HpetClock@@SI_KPAU1@@Z 00c43dbc f   kernel.obj
 0001:00032e14       ?m_get$_Hpet@Class_Microsoft_Singularity_Hal_HpetClock@@SIPAUClass_Microsoft_Singularity_Hal_Hpet@@PAU1@@Z 00c43e14 f   kernel.obj
 0001:00032e30       ?m_DeltaHpetTicksToKernelTicks@Class_Microsoft_Singularity_Hal_HpetClock@@SIIPAU1@I@Z 00c43e30 f   kernel.obj
 0001:00032e98       ?m__ctor@Class_Microsoft_Singularity_Hal_HpetClock@@SIXPAU1@PAUClass_Microsoft_Singularity_Hal_Hpet@@_K@Z 00c43e98 f   kernel.obj
 0001:00032ee0       ?m_Accept@Class_Microsoft_Singularity_Hal_Acpi_AmlParser_BufferSize@@SIXPAU1@PAUClass_Microsoft_Singularity_Hal_Acpi_AmlParserNodeVisitor@@@Z 00c43ee0 f   kernel.obj
 0001:00032f0c       ?m__ctor@Class_Microsoft_Singularity_Hal_Acpi_AmlParser_BufferSize@@SIXPAU1@@Z 00c43f0c f   kernel.obj
 0001:00032f2c       ?m_StructCopy@Struct_Microsoft_Singularity_Directory_DirectoryServiceFeederContract_InitializationComplete@@SIXPAU1@0@Z 00c43f2c f   kernel.obj
 0001:00032f48       ?m_StructCopy@Struct_Microsoft_Singularity_Directory_DirectoryServiceFeederContract_InitializationComplete@@SIXPAU1@PAU1@@Z 00c43f48 f   kernel.obj
 0001:00032f9c       ?m_Equals@Struct_Microsoft_Singularity_Directory_DirectoryServiceFeederContract_InitializationComplete@@SI_NPAU1@PAUClass_System_Object@@@Z 00c43f9c f   kernel.obj
 0001:00032fd0       ?m_Equals@Struct_Microsoft_Singularity_Directory_DirectoryServiceFeederContract_InitializationComplete@@SI_NPAUClass_Microsoft_Singularity_Directory_DirectoryServiceFeederContract_InitializationComplete@@PAUClass_System_Object@@@Z 00c43fd0 f   kernel.obj
 0001:00032ff4       ?m_StructCopy@Struct_Microsoft_Singularity_Directory_ServiceProviderContract_Connect@@SIXPAU1@0@Z 00c43ff4 f   kernel.obj
 0001:00033014       ?m_StructCopy@Struct_Microsoft_Singularity_Directory_ServiceProviderContract_Connect@@SIXPAU1@PAU1@@Z 00c44014 f   kernel.obj
 0001:00033074       ?m_MarshallContent@Struct_Microsoft_Singularity_Directory_ServiceProviderContract_Connect@@SIXPAU1@PAEPAUStruct_Microsoft_Singularity_Channels_Endpoint@@1PAH@Z 00c44074 f   kernel.obj
 0001:000330e4       ?m_MarshallAll@Struct_Microsoft_Singularity_Directory_ServiceProviderContract_Connect@@SIXPAU1@PAEPAUStruct_Microsoft_Singularity_Channels_Endpoint@@PAH@Z 00c440e4 f   kernel.obj
 0001:00033134       ?m_Equals@Struct_Microsoft_Singularity_Directory_ServiceProviderContract_Connect@@SI_NPAU1@PAUClass_System_Object@@@Z 00c44134 f   kernel.obj
 0001:00033170       ?m_Equals@Struct_Microsoft_Singularity_Directory_ServiceProviderContract_Connect@@SI_NPAUClass_Microsoft_Singularity_Directory_ServiceProviderContract_Connect@@PAUClass_System_Object@@@Z 00c44170 f   kernel.obj
 0001:00033194       ?g_TimeSpanTicksToPitTicks@Class_Microsoft_Singularity_Hal_Timer8254LegacyPC@@SIHH@Z 00c44194 f   kernel.obj
 0001:000331d4       ?m_Timer2Start@Class_Microsoft_Singularity_Hal_Timer8254LegacyPC@@SIXPAU1@@Z 00c441d4 f   kernel.obj
 0001:000332ac       ?m_Timer2Read@Class_Microsoft_Singularity_Hal_Timer8254LegacyPC@@SIHPAU1@@Z 00c442ac f   kernel.obj
 0001:00033538       ?m_Stop@Class_Microsoft_Singularity_Hal_Timer8254LegacyPC@@SIXPAU1@@Z 00c44538 f   kernel.obj
 0001:000335d4       ?m_Start@Class_Microsoft_Singularity_Hal_Timer8254LegacyPC@@SIXPAU1@@Z 00c445d4 f   kernel.obj
 0001:0003363c       ?m_SetTicksPerSecond@Class_Microsoft_Singularity_Hal_Timer8254LegacyPC@@SIXPAU1@H@Z 00c4463c f   kernel.obj
 0001:00033658       ?m_SetNextInterrupt@Class_Microsoft_Singularity_Hal_Timer8254LegacyPC@@SIXPAU1@UStruct_System_TimeSpan@@@Z 00c44658 f   kernel.obj
 0001:00033738       ?m_SetKeepAliveInterrupt@Class_Microsoft_Singularity_Hal_Timer8254LegacyPC@@SIXPAU1@@Z 00c44738 f   kernel.obj
 0001:00033764       ?m_ReleaseResources@Class_Microsoft_Singularity_Hal_Timer8254LegacyPC@@SIXPAU1@@Z 00c44764 f   kernel.obj
 0001:00033794       ?m_PitWrite@Class_Microsoft_Singularity_Hal_Timer8254LegacyPC@@SIXPAU1@H@Z 00c44794 f   kernel.obj
 0001:00033b94       ?g_PitTicksToTimeSpanTicks@Class_Microsoft_Singularity_Hal_Timer8254LegacyPC@@SIHH@Z 00c44b94 f   kernel.obj
 0001:00033bd4       ?m_Initialize@Class_Microsoft_Singularity_Hal_Timer8254LegacyPC@@SIEPAU1@@Z 00c44bd4 f   kernel.obj
 0001:00033c48       ?m_get$_MinInterruptInterval@Class_Microsoft_Singularity_Hal_Timer8254LegacyPC@@SI?AUStruct_System_TimeSpan@@PAU1@@Z 00c44c48 f   kernel.obj
 0001:00033c7c       ?m_get$_MaxInterruptInterval@Class_Microsoft_Singularity_Hal_Timer8254LegacyPC@@SI?AUStruct_System_TimeSpan@@PAU1@@Z 00c44c7c f   kernel.obj
 0001:00033cb0       ?m_get$_InterruptPending@Class_Microsoft_Singularity_Hal_Timer8254LegacyPC@@SI_NPAU1@@Z 00c44cb0 f   kernel.obj
 0001:00033ccc       ?m_ClearInterrupt@Class_Microsoft_Singularity_Hal_Timer8254LegacyPC@@SIXPAU1@@Z 00c44ccc f   kernel.obj
 0001:00033d2c       ?m__ctor@Class_Microsoft_Singularity_Hal_Timer8254LegacyPC@@SIXPAU1@PAUClass_Microsoft_Singularity_Io_PnpConfig@@PAUClass_Microsoft_Singularity_Hal_Pic@@@Z 00c44d2c f   kernel.obj
 0001:00033fbc       ?g__cctor@Class_Microsoft_Singularity_Hal_Timer8254LegacyPC@@SIXXZ 00c44fbc f   kernel.obj
 0001:00033fd0       ?m__ctor@Class_System_Runtime_CompilerServices_InlineAttribute@@SIXPAU1@@Z 00c44fd0 f   kernel.obj
 0001:00033ff0       ?m_StructCopy@Struct_System_ReadEnlistmentLog_Entry@@SIXPAU1@0@Z 00c44ff0 f   kernel.obj
 0001:00034028       ?m_StructCopy@Struct_System_ReadEnlistmentLog_Entry@@SIXPAU1@PAU1@@Z 00c45028 f   kernel.obj
 0001:000340d0       ?m_Equals@Struct_System_ReadEnlistmentLog_Entry@@SI_NPAU1@PAUClass_System_Object@@@Z 00c450d0 f   kernel.obj
 0001:000341c4       ?m_Equals@Struct_System_ReadEnlistmentLog_Entry@@SI_NPAUClass_System_ReadEnlistmentLog_Entry@@PAUClass_System_Object@@@Z 00c451c4 f   kernel.obj
 0001:000341e8       ?m_Accept@Class_Microsoft_Singularity_Hal_Acpi_StackIR_Store@@SIXPAU1@PAUClass_Microsoft_Singularity_Hal_Acpi_InterpretStepVisitor@@@Z 00c451e8 f   kernel.obj
 0001:00034214       ?m__ctor@Class_Microsoft_Singularity_Hal_Acpi_StackIR_Store@@SIXPAU1@@Z 00c45214 f   kernel.obj
 0001:00034234       ?m_GetNextEntry@Class_Microsoft_Singularity_Eventing_GlobalStorage@@SIPAUuintPtr@@PAU1@PAU2@PAPAUClass_Microsoft_Singularity_Eventing_QueryBuffer@@@Z 00c45234 f   kernel.obj
 0001:00034300       ?m_GetController@Class_Microsoft_Singularity_Eventing_GlobalStorage@@SIPAUClass_Microsoft_Singularity_Eventing_LocalController@@PAU1@@Z 00c45300 f   kernel.obj
 0001:00034334       ?m_Finalize@Class_Microsoft_Singularity_Eventing_GlobalStorage@@SIXPAU1@@Z 00c45334 f   kernel.obj
 0001:00034374       ?m_Destroy@Class_Microsoft_Singularity_Eventing_GlobalStorage@@SIXPAU1@@Z 00c45374 f   kernel.obj
 0001:000343b8       ?m_DeleteQueryView@Class_Microsoft_Singularity_Eventing_GlobalStorage@@SIXPAU1@PAUuintPtr@@@Z 00c453b8 f   kernel.obj
 0001:000343f0       ?m_CreateQueryView@Class_Microsoft_Singularity_Eventing_GlobalStorage@@SIPAUuintPtr@@PAU1@_N@Z 00c453f0 f   kernel.obj
 0001:00034434       ?m__ctor@Class_Microsoft_Singularity_Eventing_GlobalStorage@@SIXPAU1@PAUuintPtr@@@Z 00c45434 f   kernel.obj
 0001:00034478       ?m_StructCopy@Struct_Microsoft_Singularity_Isal_IX_Gdte64@@SIXPAU1@0@Z 00c45478 f   kernel.obj
 0001:000344c8       ?m_StructCopy@Struct_Microsoft_Singularity_Isal_IX_Gdte64@@SIXPAU1@PAU1@@Z 00c454c8 f   kernel.obj
 0001:000345b8       ?m_Equals@Struct_Microsoft_Singularity_Isal_IX_Gdte64@@SI_NPAU1@PAUClass_System_Object@@@Z 00c455b8 f   kernel.obj
 0001:00034638       ?m_Equals@Struct_Microsoft_Singularity_Isal_IX_Gdte64@@SI_NPAUClass_Microsoft_Singularity_Isal_IX_Gdte64@@PAUClass_System_Object@@@Z 00c45638 f   kernel.obj
 0001:0003465c       ?m_Accept@Class_Microsoft_Singularity_Hal_Acpi_StackIR_Load@@SIXPAU1@PAUClass_Microsoft_Singularity_Hal_Acpi_InterpretStepVisitor@@@Z 00c4565c f   kernel.obj
 0001:00034688       ?m__ctor@Class_Microsoft_Singularity_Hal_Acpi_StackIR_Load@@SIXPAU1@PAUClass_Microsoft_Singularity_Hal_Acpi_AcpiNamespace_NodePath@@@Z 00c45688 f   kernel.obj
 0001:000346bc       ?m_StructCopy@Struct_Microsoft_Singularity_Directory_DirectoryServiceContract_NakDeleteDirectory@@SIXPAU1@0@Z 00c456bc f   kernel.obj
 0001:000346dc       ?m_StructCopy@Struct_Microsoft_Singularity_Directory_DirectoryServiceContract_NakDeleteDirectory@@SIXPAU1@PAU1@@Z 00c456dc f   kernel.obj
 0001:0003473c       ?m_MarshallContent@Struct_Microsoft_Singularity_Directory_DirectoryServiceContract_NakDeleteDirectory@@SIXPAU1@PAEPAUStruct_Microsoft_Singularity_Channels_Endpoint@@1PAH@Z 00c4573c f   kernel.obj
 0001:0003475c       ?m_MarshallAll@Struct_Microsoft_Singularity_Directory_DirectoryServiceContract_NakDeleteDirectory@@SIXPAU1@PAEPAUStruct_Microsoft_Singularity_Channels_Endpoint@@PAH@Z 00c4575c f   kernel.obj
 0001:000347ac       ?m_Equals@Struct_Microsoft_Singularity_Directory_DirectoryServiceContract_NakDeleteDirectory@@SI_NPAU1@PAUClass_System_Object@@@Z 00c457ac f   kernel.obj
 0001:00034834       ?m_Equals@Struct_Microsoft_Singularity_Directory_DirectoryServiceContract_NakDeleteDirectory@@SI_NPAUClass_Microsoft_Singularity_Directory_DirectoryServiceContract_NakDeleteDirectory@@PAUClass_System_Object@@@Z 00c45834 f   kernel.obj
 0001:00034858       ?m_StructCopy@Struct_Microsoft_Singularity_Diagnostics_Contracts_ChannelContract_Imp@@SIXPAU1@0@Z 00c45858 f   kernel.obj
 0001:0003492c       ?m_StructCopy@Struct_Microsoft_Singularity_Diagnostics_Contracts_ChannelContract_Imp@@SIXPAU1@PAU1@@Z 00c4592c f   kernel.obj
 0001:00034ba8       ?m_Peek@Struct_Microsoft_Singularity_Diagnostics_Contracts_ChannelContract_Imp@@SIHPAU1@@Z 00c45ba8 f   kernel.obj
 0001:00034d48       ?m_MarshallDeliverReady0@Struct_Microsoft_Singularity_Diagnostics_Contracts_ChannelContract_Imp@@SIXPAU1@PAUStruct_Microsoft_Singularity_Channels_Endpoint@@@Z 00c45d48 f   kernel.obj
 0001:00034d80       ?m_MarshallDeliverChannelStats0@Struct_Microsoft_Singularity_Diagnostics_Contracts_ChannelContract_Imp@@SIXPAU1@_J11PAUStruct_Microsoft_Singularity_Channels_Endpoint@@@Z 00c45d80 f   kernel.obj
 0001:00034dcc       ?m_MarshallDeliverChannels0@Struct_Microsoft_Singularity_Diagnostics_Contracts_ChannelContract_Imp@@SIXPAU1@PAUStruct_Microsoft_Singularity_Diagnostics_Contracts_ChannelInfo@@PAUStruct_Microsoft_Singularity_Channels_Endpoint@@@Z 00c45dcc f   kernel.obj
 0001:00034e04       ?m_HeadMatches@Struct_Microsoft_Singularity_Diagnostics_Contracts_ChannelContract_Imp@@SI_NPAU1@HPA_NPAPAUClass_System_Object@@@Z 00c45e04 f   kernel.obj
 0001:00034ea4       ?m_HeadMatches@Struct_Microsoft_Singularity_Diagnostics_Contracts_ChannelContract_Imp@@SI_NPAUClass_Microsoft_Singularity_Diagnostics_Contracts_ChannelContract_Imp@@HPA_NPAPAUClass_System_Object@@@Z 00c45ea4 f   kernel.obj
 0001:00034ed0       ?m_Equals@Struct_Microsoft_Singularity_Diagnostics_Contracts_ChannelContract_Imp@@SI_NPAU1@PAUClass_System_Object@@@Z 00c45ed0 f   kernel.obj
 0001:00035250       ?m_Equals@Struct_Microsoft_Singularity_Diagnostics_Contracts_ChannelContract_Imp@@SI_NPAUClass_Microsoft_Singularity_Diagnostics_Contracts_ChannelContract_Imp@@PAUClass_System_Object@@@Z 00c46250 f   kernel.obj
 0001:00035274       ?m_DeliverReady0@Struct_Microsoft_Singularity_Diagnostics_Contracts_ChannelContract_Imp@@SIXPAU1@@Z 00c46274 f   kernel.obj
 0001:000352a0       ?m_DeliverChannelStats0@Struct_Microsoft_Singularity_Diagnostics_Contracts_ChannelContract_Imp@@SIXPAU1@_J11@Z 00c462a0 f   kernel.obj
 0001:000352f4       ?m_DeliverChannels0@Struct_Microsoft_Singularity_Diagnostics_Contracts_ChannelContract_Imp@@SIXPAU1@PAUStruct_Microsoft_Singularity_Diagnostics_Contracts_ChannelInfo@@@Z 00c462f4 f   kernel.obj
 0001:00035328       ?m_StructCopy@Struct_Microsoft_Singularity_ProcessorContext@@SIXPAU1@0@Z 00c46328 f   kernel.obj
 0001:0003539c       ?m_StructCopy@Struct_Microsoft_Singularity_ProcessorContext@@SIXPAU1@PAU1@@Z 00c4639c f   kernel.obj
 0001:000354f8       ?m_get$_processor@Struct_Microsoft_Singularity_ProcessorContext@@SIPAUClass_Microsoft_Singularity_Processor@@PAU1@@Z 00c464f8 f   kernel.obj
 0001:00035518       ?m_Equals@Struct_Microsoft_Singularity_ProcessorContext@@SI_NPAU1@PAUClass_System_Object@@@Z 00c46518 f   kernel.obj
 0001:00035634       ?m_Equals@Struct_Microsoft_Singularity_ProcessorContext@@SI_NPAUClass_Microsoft_Singularity_ProcessorContext@@PAUClass_System_Object@@@Z 00c46634 f   kernel.obj
 0001:00035658       ?m_SetAll@Class_System_Threading_AutoResetEvent@@SI_NPAU1@@Z 00c46658 f   kernel.obj
 0001:00035680       ?m_Set@Class_System_Threading_AutoResetEvent@@SI_NPAU1@@Z 00c46680 f   kernel.obj
 0001:000356a4       ?m_Reset@Class_System_Threading_AutoResetEvent@@SI_NPAU1@@Z 00c466a4 f   kernel.obj
 0001:000356c8       ?m__ctor@Class_System_Threading_AutoResetEvent@@SIXPAU1@_N@Z 00c466c8 f   kernel.obj
 0001:000356fc       ?m_ZeroIfMustBeQuiescent@Struct_System_MultiUseWord_STMSnapshot@@SIIPAU1@@Z 00c466fc f   kernel.obj
 0001:00035724       ?m_Visit@Struct_System_MultiUseWord_STMSnapshot@@SIXPAU1@PAUClass_System_GCs_DirectReferenceVisitor@@@Z 00c46724 f   kernel.obj
 0001:00035890       ?m_StructCopy@Struct_System_MultiUseWord_STMSnapshot@@SIXPAU1@0@Z 00c46890 f   kernel.obj
 0001:000358b0       ?m_StructCopy@Struct_System_MultiUseWord_STMSnapshot@@SIXPAU1@PAU1@@Z 00c468b0 f   kernel.obj
 0001:00035910       ?m_GetSTMWord@Struct_System_MultiUseWord_STMSnapshot@@SI?AUStruct_System_STMWord@@PAU1@@Z 00c46910 f   kernel.obj
 0001:00035994       ?m_Equals@Struct_System_MultiUseWord_STMSnapshot@@SI_NPAU1@PAUClass_System_Object@@@Z 00c46994 f   kernel.obj
 0001:000359d0       ?m_Equals@Struct_System_MultiUseWord_STMSnapshot@@SI_NPAUClass_System_MultiUseWord_STMSnapshot@@PAUClass_System_Object@@@Z 00c469d0 f   kernel.obj
 0001:000359f4       ?m_Eq@Struct_System_MultiUseWord_STMSnapshot@@SI_NPAU1@U1@@Z 00c469f4 f   kernel.obj
 0001:00035a14       ?m__ctor@Struct_System_MultiUseWord_STMSnapshot@@SIXPAU1@UStruct_System_MultiUseWord@@@Z 00c46a14 f   kernel.obj
 0001:00035a34       ?m_Release@Class__Directory_Contracts_Microsoft_Singularity_Channels_TRef$_2$LMicrosoft_Singularity_Directory_ServiceProviderContract_Imp_Microsoft_Singularity_Directory_ServiceProviderContract_Start$G@@SIXPAU1@PAUStruct_Microsoft_Singularity_Directory_ServiceProviderContract_Imp@@@Z 00c46a34 f   kernel.obj
 0001:00035b64       ?m_Finalize@Class__Directory_Contracts_Microsoft_Singularity_Channels_TRef$_2$LMicrosoft_Singularity_Directory_ServiceProviderContract_Imp_Microsoft_Singularity_Directory_ServiceProviderContract_Start$G@@SIXPAU1@@Z 00c46b64 f   kernel.obj
 0001:00035bec       ?m_Acquire@Class__Directory_Contracts_Microsoft_Singularity_Channels_TRef$_2$LMicrosoft_Singularity_Directory_ServiceProviderContract_Imp_Microsoft_Singularity_Directory_ServiceProviderContract_Start$G@@SIPAUStruct_Microsoft_Singularity_Directory_ServiceProviderContract_Imp@@PAU1@@Z 00c46bec f   kernel.obj
 0001:00035d10       ?m__ctor@Class__Directory_Contracts_Microsoft_Singularity_Channels_TRef$_2$LMicrosoft_Singularity_Directory_ServiceProviderContract_Imp_Microsoft_Singularity_Directory_ServiceProviderContract_Start$G@@SIXPAU1@PAUStruct_Microsoft_Singularity_Directory_ServiceProviderContract_Imp@@@Z 00c46d10 f   kernel.obj
 0001:00035e5c       ?m_StructCopy@Struct_Microsoft_Singularity_Kd_ArmRuntimeFunctionException@@SIXPAU1@0@Z 00c46e5c f   kernel.obj
 0001:00035e84       ?m_StructCopy@Struct_Microsoft_Singularity_Kd_ArmRuntimeFunctionException@@SIXPAU1@PAU1@@Z 00c46e84 f   kernel.obj
 0001:00035efc       ?m_Equals@Struct_Microsoft_Singularity_Kd_ArmRuntimeFunctionException@@SI_NPAU1@PAUClass_System_Object@@@Z 00c46efc f   kernel.obj
 0001:00035f48       ?m_Equals@Struct_Microsoft_Singularity_Kd_ArmRuntimeFunctionException@@SI_NPAUClass_Microsoft_Singularity_Kd_ArmRuntimeFunctionException@@PAUClass_System_Object@@@Z 00c46f48 f   kernel.obj
 0001:00035f6c       ?m__ctor@Class_Microsoft_Singularity_Process_StringArg@@SIXPAU1@PAUClass_System_String@@@Z 00c46f6c f   kernel.obj
 0001:00035fa0       ?m_StructCopy@Struct_Microsoft_Singularity_Io_ConsoleDeviceContract_AckClearCursorToEndOfLine@@SIXPAU1@0@Z 00c46fa0 f   kernel.obj
 0001:00035fbc       ?m_StructCopy@Struct_Microsoft_Singularity_Io_ConsoleDeviceContract_AckClearCursorToEndOfLine@@SIXPAU1@PAU1@@Z 00c46fbc f   kernel.obj
 0001:00036010       ?m_MarshallContent@Struct_Microsoft_Singularity_Io_ConsoleDeviceContract_AckClearCursorToEndOfLine@@SIXPAU1@PAEPAUStruct_Microsoft_Singularity_Channels_Endpoint@@1PAH@Z 00c47010 f   kernel.obj
 0001:00036030       ?m_MarshallAll@Struct_Microsoft_Singularity_Io_ConsoleDeviceContract_AckClearCursorToEndOfLine@@SIXPAU1@PAEPAUStruct_Microsoft_Singularity_Channels_Endpoint@@PAH@Z 00c47030 f   kernel.obj
 0001:00036080       ?m_Equals@Struct_Microsoft_Singularity_Io_ConsoleDeviceContract_AckClearCursorToEndOfLine@@SI_NPAU1@PAUClass_System_Object@@@Z 00c47080 f   kernel.obj
 0001:000360b4       ?m_Equals@Struct_Microsoft_Singularity_Io_ConsoleDeviceContract_AckClearCursorToEndOfLine@@SI_NPAUClass_Microsoft_Singularity_Io_ConsoleDeviceContract_AckClearCursorToEndOfLine@@PAUClass_System_Object@@@Z 00c470b4 f   kernel.obj
 0001:000360d8       ?g_get$_NullMessage@Class_System_ArgumentNullException@@SIPAUClass_System_String@@XZ 00c470d8 f   kernel.obj
 0001:0003610c       ?m__ctor@Class_System_ArgumentNullException@@SIXPAU1@@Z 00c4710c f   kernel.obj
 0001:00036134       ?m__ctor@Class_System_ArgumentNullException@@SIXPAU1@PAUClass_System_String@@@Z 00c47134 f   kernel.obj
 0001:00036164       ?m__ctor@Class_System_ArgumentNullException@@SIXPAU1@PAUClass_System_String@@1@Z 00c47164 f   kernel.obj
 0001:0003618c       ?g__cctor@Class_System_ArgumentNullException@@SIXXZ 00c4718c f   kernel.obj
 0001:000361a0       ?m_Accept@Class_Microsoft_Singularity_Hal_Acpi_AmlParser_DefReset@@SIXPAU1@PAUClass_Microsoft_Singularity_Hal_Acpi_AmlParserNodeVisitor@@@Z 00c471a0 f   kernel.obj
 0001:000361cc       ?m__ctor@Class_Microsoft_Singularity_Hal_Acpi_AmlParser_DefReset@@SIXPAU1@@Z 00c471cc f   kernel.obj
 0001:000361ec       ?m_Accept@Class_Microsoft_Singularity_Hal_Acpi_AmlParser_DefDerefOf@@SIXPAU1@PAUClass_Microsoft_Singularity_Hal_Acpi_AmlParserNodeVisitor@@@Z 00c471ec f   kernel.obj
 0001:0003621c       ?m__ctor@Class_Microsoft_Singularity_Hal_Acpi_AmlParser_DefDerefOf@@SIXPAU1@@Z 00c4721c f   kernel.obj
 0001:0003623c       ?m_StructCopy@Struct_Microsoft_Singularity_Hal_HalMemory_MemoryAffinity@@SIXPAU1@0@Z 00c4723c f   kernel.obj
 0001:00036298       ?m_StructCopy@Struct_Microsoft_Singularity_Hal_HalMemory_MemoryAffinity@@SIXPAU1@PAU1@@Z 00c47298 f   kernel.obj
 0001:000363ac       ?m_Equals@Struct_Microsoft_Singularity_Hal_HalMemory_MemoryAffinity@@SI_NPAU1@PAUClass_System_Object@@@Z 00c473ac f   kernel.obj
 0001:00036464       ?m_Equals@Struct_Microsoft_Singularity_Hal_HalMemory_MemoryAffinity@@SI_NPAUClass_Microsoft_Singularity_Hal_HalMemory_MemoryAffinity@@PAUClass_System_Object@@@Z 00c47464 f   kernel.obj
 0001:00036488       ?g_GetNumBits@Class_Microsoft_Singularity_Hal_Acpi_AcpiObject_AcpiObjectUtils@@SI_K_K@Z 00c47488 f   kernel.obj
 0001:00036540       ?m__ctor@Class_Microsoft_Singularity_Hal_Acpi_AcpiObject_AcpiObjectUtils@@SIXPAU1@@Z 00c47540 f   kernel.obj
 0001:00036558       ?m_HeadMatches@Class_Microsoft_Singularity_Channels_ESet$_2$LMicrosoft_Singularity_Stress_Contracts_StressContract_Exp_Microsoft_Singularity_Stress_Contracts_StressContract_ReadyState$G@@SI_NPAU1@HPA_NPAPAUClass_System_Object@@@Z 00c47558 f   kernel.obj
 0001:00036694       ?m_GetWaitHandle@Class_Microsoft_Singularity_Channels_ESet$_2$LMicrosoft_Singularity_Stress_Contracts_StressContract_Exp_Microsoft_Singularity_Stress_Contracts_StressContract_ReadyState$G@@SI?AUStruct_Microsoft_Singularity_V1_Threads_SyncHandle@@PAU1@@Z 00c47694 f   kernel.obj
 0001:00036704       ?m_GetFreshNode@Class_Microsoft_Singularity_Channels_ESet$_2$LMicrosoft_Singularity_Stress_Contracts_StressContract_Exp_Microsoft_Singularity_Stress_Contracts_StressContract_ReadyState$G@@SIPAUClass_Microsoft_Singularity_Channels_ESet$_2$LMicrosoft_Singularity_Stress_Contracts_StressContract_Exp_Microsoft_Singularity_Stress_Contracts_StressContract_ReadyState$G_Node@@PAU1@PAUStruct_Microsoft_Singularity_Stress_Contracts_StressContract_Exp@@0@Z 00c47704 f   kernel.obj
 0001:00036790       ?m_get$_NextScanStart@Class_Microsoft_Singularity_Channels_ESet$_2$LMicrosoft_Singularity_Stress_Contracts_StressContract_Exp_Microsoft_Singularity_Stress_Contracts_StressContract_ReadyState$G@@SIPAUClass_Microsoft_Singularity_Channels_ESet$_2$LMicrosoft_Singularity_Stress_Contracts_StressContract_Exp_Microsoft_Singularity_Stress_Contracts_StressContract_ReadyState$G_Node@@PAU1@@Z 00c47790 f   kernel.obj
 0001:000367dc       ?m_Extract@Class_Microsoft_Singularity_Channels_ESet$_2$LMicrosoft_Singularity_Stress_Contracts_StressContract_Exp_Microsoft_Singularity_Stress_Contracts_StressContract_ReadyState$G@@SIPAUStruct_Microsoft_Singularity_Stress_Contracts_StressContract_Exp@@PAU1@PAUClass_System_Object@@@Z 00c477dc f   kernel.obj
 0001:0003687c       ?m_Dispose@Class_Microsoft_Singularity_Channels_ESet$_2$LMicrosoft_Singularity_Stress_Contracts_StressContract_Exp_Microsoft_Singularity_Stress_Contracts_StressContract_ReadyState$G@@SIXPAU1@@Z 00c4787c f   kernel.obj
 0001:00036968       ?m_Add@Class_Microsoft_Singularity_Channels_ESet$_2$LMicrosoft_Singularity_Stress_Contracts_StressContract_Exp_Microsoft_Singularity_Stress_Contracts_StressContract_ReadyState$G@@SIXPAU1@PAUStruct_Microsoft_Singularity_Stress_Contracts_StressContract_Exp@@@Z 00c47968 f   kernel.obj
 0001:00036990       ?m__ctor@Class_Microsoft_Singularity_Channels_ESet$_2$LMicrosoft_Singularity_Stress_Contracts_StressContract_Exp_Microsoft_Singularity_Stress_Contracts_StressContract_ReadyState$G@@SIXPAU1@@Z 00c47990 f   kernel.obj
 0001:00036a34       ?m_StructCopy@Struct_Microsoft_Singularity_Memory_SharedHeap_AllocationOwnerId@@SIXPAU1@0@Z 00c47a34 f   kernel.obj
 0001:00036a54       ?m_StructCopy@Struct_Microsoft_Singularity_Memory_SharedHeap_AllocationOwnerId@@SIXPAU1@PAU1@@Z 00c47a54 f   kernel.obj
 0001:00036ab4       ?m_IterateMatchingForModify@Struct_Microsoft_Singularity_Memory_SharedHeap_AllocationOwnerId@@SIXPAU1@PAUClass_Microsoft_Singularity_Memory_SharedHeap_AllocationMatches@@PAUClass_Microsoft_Singularity_Memory_SharedHeap_AllocationVisitor@@@Z 00c47ab4 f   kernel.obj
 0001:00036adc       ?m_Iterate@Struct_Microsoft_Singularity_Memory_SharedHeap_AllocationOwnerId@@SIXPAU1@PAUClass_Microsoft_Singularity_Memory_SharedHeap_AllocationVisitor@@@Z 00c47adc f   kernel.obj
 0001:00036b00       ?m_Equals@Struct_Microsoft_Singularity_Memory_SharedHeap_AllocationOwnerId@@SI_NPAU1@PAUClass_System_Object@@@Z 00c47b00 f   kernel.obj
 0001:00036b3c       ?m_Equals@Struct_Microsoft_Singularity_Memory_SharedHeap_AllocationOwnerId@@SI_NPAUClass_Microsoft_Singularity_Memory_SharedHeap_AllocationOwnerId@@PAUClass_System_Object@@@Z 00c47b3c f   kernel.obj
 0001:00036b60       ?m_Visit@Struct_System_MultiUseWord_STMHandle@@SI_NPAU1@PAUClass_System_GCs_DirectReferenceVisitor@@@Z 00c47b60 f   kernel.obj
 0001:00036bb0       ?m_StructCopy@Struct_System_MultiUseWord_STMHandle@@SIXPAU1@0@Z 00c47bb0 f   kernel.obj
 0001:00036bd0       ?m_StructCopy@Struct_System_MultiUseWord_STMHandle@@SIXPAU1@PAU1@@Z 00c47bd0 f   kernel.obj
 0001:00036c30       ?m_SetSTMWordAtGC@Struct_System_MultiUseWord_STMHandle@@SIXPAU1@PAUClass_System_GCs_DirectReferenceVisitor@@UStruct_System_STMWord@@@Z 00c47c30 f   kernel.obj
 0001:00036cf8       ?m_SetMark@Struct_System_MultiUseWord_STMHandle@@SIXPAU1@_N@Z 00c47cf8 f   kernel.obj
 0001:00036d78       ?m_IsMarked@Struct_System_MultiUseWord_STMHandle@@SI_NPAU1@@Z 00c47d78 f   kernel.obj
 0001:00036db4       ?m_GetSTMSnapshot@Struct_System_MultiUseWord_STMHandle@@SI?AUStruct_System_MultiUseWord_STMSnapshot@@PAU1@@Z 00c47db4 f   kernel.obj
 0001:00036df8       ?m_Equals@Struct_System_MultiUseWord_STMHandle@@SI_NPAU1@PAUClass_System_Object@@@Z 00c47df8 f   kernel.obj
 0001:00036e34       ?m_Equals@Struct_System_MultiUseWord_STMHandle@@SI_NPAUClass_System_MultiUseWord_STMHandle@@PAUClass_System_Object@@@Z 00c47e34 f   kernel.obj
 0001:00036e58       ?m_StructCopy@Struct_Microsoft_Singularity_Diagnostics_Contracts_ProcessContract_GetProcessGcStats@@SIXPAU1@0@Z 00c47e58 f   kernel.obj
 0001:00036e78       ?m_StructCopy@Struct_Microsoft_Singularity_Diagnostics_Contracts_ProcessContract_GetProcessGcStats@@SIXPAU1@PAU1@@Z 00c47e78 f   kernel.obj
 0001:00036ed8       ?m_Equals@Struct_Microsoft_Singularity_Diagnostics_Contracts_ProcessContract_GetProcessGcStats@@SI_NPAU1@PAUClass_System_Object@@@Z 00c47ed8 f   kernel.obj
 0001:00036f14       ?m_Equals@Struct_Microsoft_Singularity_Diagnostics_Contracts_ProcessContract_GetProcessGcStats@@SI_NPAUClass_Microsoft_Singularity_Diagnostics_Contracts_ProcessContract_GetProcessGcStats@@PAUClass_System_Object@@@Z 00c47f14 f   kernel.obj
 0001:00036f38       ?m_ToArray@Class_Microsoft_Singularity_Hal_Acpi_AmlToStackIRVisitor_StackIRNodeList@@SIPAUClassVector_Class_Microsoft_Singularity_Hal_Acpi_StackIR_StackIRNode@@PAU1@@Z 00c47f38 f   kernel.obj
 0001:00036f80       ?m_get$_Last@Class_Microsoft_Singularity_Hal_Acpi_AmlToStackIRVisitor_StackIRNodeList@@SIPAUClass_Microsoft_Singularity_Hal_Acpi_StackIR_StackIRNode@@PAU1@@Z 00c47f80 f   kernel.obj
 0001:00036fcc       ?m_get$_Count@Class_Microsoft_Singularity_Hal_Acpi_AmlToStackIRVisitor_StackIRNodeList@@SIHPAU1@@Z 00c47fcc f   kernel.obj
 0001:00036ff0       ?m_Add@Class_Microsoft_Singularity_Hal_Acpi_AmlToStackIRVisitor_StackIRNodeList@@SIXPAU1@PAUClass_Microsoft_Singularity_Hal_Acpi_StackIR_StackIRNode@@@Z 00c47ff0 f   kernel.obj
 0001:00037018       ?m__ctor@Class_Microsoft_Singularity_Hal_Acpi_AmlToStackIRVisitor_StackIRNodeList@@SIXPAU1@@Z 00c48018 f   kernel.obj
 0001:00037060       ?m__ctor@Class_System_Runtime_CompilerServices_NoInlineAttribute@@SIXPAU1@@Z 00c48060 f   kernel.obj
 0001:00037080       ?m_StructCopy@Struct_Microsoft_Singularity_Extending_ExtensionContract_NakShutdown@@SIXPAU1@0@Z 00c48080 f   kernel.obj
 0001:0003709c       ?m_StructCopy@Struct_Microsoft_Singularity_Extending_ExtensionContract_NakShutdown@@SIXPAU1@PAU1@@Z 00c4809c f   kernel.obj
 0001:000370f0       ?m_Equals@Struct_Microsoft_Singularity_Extending_ExtensionContract_NakShutdown@@SI_NPAU1@PAUClass_System_Object@@@Z 00c480f0 f   kernel.obj
 0001:00037124       ?m_Equals@Struct_Microsoft_Singularity_Extending_ExtensionContract_NakShutdown@@SI_NPAUClass_Microsoft_Singularity_Extending_ExtensionContract_NakShutdown@@PAUClass_System_Object@@@Z 00c48124 f   kernel.obj
 0001:00037148       ?m_Write@Class_Microsoft_Singularity_Hal_Apic@@SIXPAU1@II@Z 00c48148 f   kernel.obj
 0001:00037200       ?m_SetId@Class_Microsoft_Singularity_Hal_Apic@@SIXPAU1@E@Z 00c48200 f   kernel.obj
 0001:00037270       ?m_SetEnabled@Class_Microsoft_Singularity_Hal_Apic@@SIXPAU1@_N@Z 00c48270 f   kernel.obj
 0001:000372c4       ?m_SendSingleStartupIPI@Class_Microsoft_Singularity_Hal_Apic@@SIXPAU1@IE@Z 00c482c4 f   kernel.obj
 0001:00037354       ?m_SendIPI@Class_Microsoft_Singularity_Hal_Apic@@SI_NPAU1@II@Z 00c48354 f   kernel.obj
 0001:00037418       ?m_SendFixedIPI@Class_Microsoft_Singularity_Hal_Apic@@SIXPAU1@EHH@Z 00c48418 f   kernel.obj
 0001:00037480       ?m_ReleaseResources@Class_Microsoft_Singularity_Hal_Apic@@SIXPAU1@@Z 00c48480 f   kernel.obj
 0001:00037498       ?m_Read@Class_Microsoft_Singularity_Hal_Apic@@SIIPAU1@I@Z 00c48498 f   kernel.obj
 0001:00037560       ?m_PrintIoApics@Class_Microsoft_Singularity_Hal_Apic@@SIXPAU1@@Z 00c48560 f   kernel.obj
 0001:00037578       ?m_IsrIsSet@Class_Microsoft_Singularity_Hal_Apic@@SI_NPAU1@E@Z 00c48578 f   kernel.obj
 0001:000375f0       ?m_IrqToInterrupt@Class_Microsoft_Singularity_Hal_Apic@@SIEPAU1@E@Z 00c485f0 f   kernel.obj
 0001:00037634       ?m_InterruptToIrq@Class_Microsoft_Singularity_Hal_Apic@@SIEPAU1@E@Z 00c48634 f   kernel.obj
 0001:00037674       ?m_InitializeRouteableEntries@Class_Microsoft_Singularity_Hal_Apic@@SIXPAU1@@Z 00c48674 f   kernel.obj
 0001:0003785c       ?m_InitializeMpResourceEntries@Class_Microsoft_Singularity_Hal_Apic@@SIXPAU1@@Z 00c4885c f   kernel.obj
 0001:00037c38       ?m_Initialize@Class_Microsoft_Singularity_Hal_Apic@@SIXPAU1@@Z 00c48c38 f   kernel.obj
 0001:00037c58       ?m_Initialize@Class_Microsoft_Singularity_Hal_Apic@@SIXPAU1@E@Z 00c48c58 f   kernel.obj
 0001:00037f6c       ?m_GetIoApic@Class_Microsoft_Singularity_Hal_Apic@@SIPAUClass_Microsoft_Singularity_Hal_IoApic@@PAU1@H@Z 00c48f6c f   kernel.obj
 0001:00037fe8       ?m_get$_MaximumIrq@Class_Microsoft_Singularity_Hal_Apic@@SIEPAU1@@Z 00c48fe8 f   kernel.obj
 0001:00038004       ?m_get$_IsBsp@Class_Microsoft_Singularity_Hal_Apic@@SI_NPAU1@@Z 00c49004 f   kernel.obj
 0001:00038040       ?m_get$_Id@Class_Microsoft_Singularity_Hal_Apic@@SIEPAU1@@Z 00c49040 f   kernel.obj
 0001:00038068       ?m_EnableIrq@Class_Microsoft_Singularity_Hal_Apic@@SIXPAU1@E@Z 00c49068 f   kernel.obj
 0001:00038110       ?m_DisableIrq@Class_Microsoft_Singularity_Hal_Apic@@SIXPAU1@E@Z 00c49110 f   kernel.obj
 0001:000381b8       ?g_Delay@Class_Microsoft_Singularity_Hal_Apic@@SIXI@Z 00c491b8 f   kernel.obj
 0001:000381d8       ?m_ConfigurePciInterrupt@Class_Microsoft_Singularity_Hal_Apic@@SIXPAU1@PAUClass_Microsoft_Singularity_Hal_IoApic@@PAUClass_Microsoft_Singularity_Hal_MpInterruptEntry@@@Z 00c491d8 f   kernel.obj
 0001:000382e8       ?m_ConfigureIsaInterrupt@Class_Microsoft_Singularity_Hal_Apic@@SIXPAU1@PAUClass_Microsoft_Singularity_Hal_IoApic@@PAUClass_Microsoft_Singularity_Hal_MpInterruptEntry@@@Z 00c492e8 f   kernel.obj
 0001:000383f8       ?m_ClearInterrupt@Class_Microsoft_Singularity_Hal_Apic@@SIXPAU1@E@Z 00c493f8 f   kernel.obj
 0001:00038468       ?m_ClearFixedIPI@Class_Microsoft_Singularity_Hal_Apic@@SIXPAU1@H@Z 00c49468 f   kernel.obj
 0001:000384a0       ?m_BroadcastResetIPI@Class_Microsoft_Singularity_Hal_Apic@@SIXPAU1@@Z 00c494a0 f   kernel.obj
 0001:000384d4       ?m_BroadcastFreezeIPI@Class_Microsoft_Singularity_Hal_Apic@@SIXPAU1@@Z 00c494d4 f   kernel.obj
 0001:000385cc       ?m_BroadcastFixedIPI@Class_Microsoft_Singularity_Hal_Apic@@SIXPAU1@E_N@Z 00c495cc f   kernel.obj
 0001:00038644       ?m_AckIrq@Class_Microsoft_Singularity_Hal_Apic@@SIXPAU1@E@Z 00c49644 f   kernel.obj
 0001:00038694       ?m__ctor@Class_Microsoft_Singularity_Hal_Apic@@SIXPAU1@@Z 00c49694 f   kernel.obj
 0001:000386fc       ?m__ctor@Class_Microsoft_Singularity_Hal_Apic@@SIXPAU1@PAUClassVector_Class_Microsoft_Singularity_Hal_IoApic@@@Z 00c496fc f   kernel.obj
 0001:000387a4       ?m_System_Collections_IEnumerable_GetEnumerator@Class_System_Collections_SortedList@@SIPAUClass_System_Collections_IEnumerator@@PAU1@@Z 00c497a4 f   kernel.obj
 0001:000387f0       ?m_set$_Item@Class_System_Collections_SortedList@@SIXPAU1@PAUClass_System_Object@@1@Z 00c497f0 f   kernel.obj
 0001:000388bc       ?m_set$_Capacity@Class_System_Collections_SortedList@@SIXPAU1@H@Z 00c498bc f   kernel.obj
 0001:000389e0       ?m_RemoveAt@Class_System_Collections_SortedList@@SIXPAU1@H@Z 00c499e0 f   kernel.obj
 0001:00038ad4       ?m_Remove@Class_System_Collections_SortedList@@SIXPAU1@PAUClass_System_Object@@@Z 00c49ad4 f   kernel.obj
 0001:00038b0c       ?m_Insert@Class_System_Collections_SortedList@@SIXPAU1@HPAUClass_System_Object@@1@Z 00c49b0c f   kernel.obj
 0001:00038bf8       ?m_IndexOfKey@Class_System_Collections_SortedList@@SIHPAU1@PAUClass_System_Object@@@Z 00c49bf8 f   kernel.obj
 0001:00038c80       ?m_GetValueList@Class_System_Collections_SortedList@@SIPAUClass_System_Collections_IList@@PAU1@@Z 00c49c80 f   kernel.obj
 0001:00038cd8       ?m_GetKey@Class_System_Collections_SortedList@@SIPAUClass_System_Object@@PAU1@H@Z 00c49cd8 f   kernel.obj
 0001:00038d48       ?m_GetEnumerator@Class_System_Collections_SortedList@@SIPAUClass_System_Collections_IDictionaryEnumerator@@PAU1@@Z 00c49d48 f   kernel.obj
 0001:00038d94       ?m_GetByIndex@Class_System_Collections_SortedList@@SIPAUClass_System_Object@@PAU1@H@Z 00c49d94 f   kernel.obj
 0001:00038e04       ?m_get$_Values@Class_System_Collections_SortedList@@SIPAUClass_System_Collections_ICollection@@PAU1@@Z 00c49e04 f   kernel.obj
 0001:00038e24       ?m_get$_SyncRoot@Class_System_Collections_SortedList@@SIPAUClass_System_Object@@PAU1@@Z 00c49e24 f   kernel.obj
 0001:00038e40       ?m_get$_Item@Class_System_Collections_SortedList@@SIPAUClass_System_Object@@PAU1@PAU2@@Z 00c49e40 f   kernel.obj
 0001:00038e88       ?m_get$_Count@Class_System_Collections_SortedList@@SIHPAU1@@Z 00c49e88 f   kernel.obj
 0001:00038ea4       ?m_EnsureCapacity@Class_System_Collections_SortedList@@SIXPAU1@H@Z 00c49ea4 f   kernel.obj
 0001:00038ef4       ?m_CopyTo@Class_System_Collections_SortedList@@SIXPAU1@PAUClass_System_Array@@H@Z 00c49ef4 f   kernel.obj
 0001:00039148       ?m_ContainsKey@Class_System_Collections_SortedList@@SI_NPAU1@PAUClass_System_Object@@@Z 00c4a148 f   kernel.obj
 0001:00039170       ?m_Contains@Class_System_Collections_SortedList@@SI_NPAU1@PAUClass_System_Object@@@Z 00c4a170 f   kernel.obj
 0001:00039198       ?m_Add@Class_System_Collections_SortedList@@SIXPAU1@PAUClass_System_Object@@1@Z 00c4a198 f   kernel.obj
 0001:00039260       ?m__ctor@Class_System_Collections_SortedList@@SIXPAU1@@Z 00c4a260 f   kernel.obj
 0001:000392e0       ?g_Run@Class_Microsoft_Singularity_Hal_CalibrateTimers@@SIXPAUClass_Microsoft_Singularity_Hal_RTClockLegacyPC@@PAUClass_Microsoft_Singularity_Hal_Timer8254LegacyPC@@@Z 00c4a2e0 f   kernel.obj
 0001:0003951c       ?g_Run@Class_Microsoft_Singularity_Hal_CalibrateTimers@@SI_NPAUClass_Microsoft_Singularity_Hal_Acpi_PMTimer@@PAUClass_Microsoft_Singularity_Hal_Timer8254LegacyPC@@@Z 00c4a51c f   kernel.obj
 0001:00039e94       ?g_MinSpread@Class_Microsoft_Singularity_Hal_CalibrateTimers@@SIHPAUClassVector_uint64@@H@Z 00c4ae94 f   kernel.obj
 0001:00039ff4       ?g_DisplayResults@Class_Microsoft_Singularity_Hal_CalibrateTimers@@SIX_KH@Z 00c4aff4 f   kernel.obj
 0001:0003a0c4       ?g_ApproxLog10@Class_Microsoft_Singularity_Hal_CalibrateTimers@@SIH_K@Z 00c4b0c4 f   kernel.obj
 0001:0003a14c       ?m__ctor@Class_Microsoft_Singularity_Hal_CalibrateTimers@@SIXPAU1@@Z 00c4b14c f   kernel.obj
 0001:0003a164       ?m_ReportConfig@Class_Microsoft_Singularity_Drivers_PseudoBus@@SIPAUClass_Microsoft_Singularity_Drivers_PseudoConfig@@PAU1@@Z 00c4b164 f   kernel.obj
 0001:0003a1d8       ?m_RegisterPseudoDevice@Class_Microsoft_Singularity_Drivers_PseudoBus@@SIXPAU1@PAUClass_System_String@@PAUClass_Microsoft_Singularity_Io_IoConfig@@@Z 00c4b1d8 f   kernel.obj
 0001:0003a204       ?m_RegisterBootPseudoDevices@Class_Microsoft_Singularity_Drivers_PseudoBus@@SIXPAU1@@Z 00c4b204 f   kernel.obj
 0001:0003a27c       ?m_Microsoft_Singularity_Io_IDevice_Initialize@Class_Microsoft_Singularity_Drivers_PseudoBus@@SIXPAU1@@Z 00c4b27c f   kernel.obj
 0001:0003a2b8       ?m_Microsoft_Singularity_Io_IDevice_Finalize@Class_Microsoft_Singularity_Drivers_PseudoBus@@SIXPAU1@@Z 00c4b2b8 f   kernel.obj
 0001:0003a2d0       ?m_Microsoft_Singularity_Io_IBusDevice_Enumerate@Class_Microsoft_Singularity_Drivers_PseudoBus@@SIPAUClass_System_Collections_SortedList@@PAU1@@Z 00c4b2d0 f   kernel.obj
 0001:0003a300       ?m__ctor@Class_Microsoft_Singularity_Drivers_PseudoBus@@SIXPAU1@@Z 00c4b300 f   kernel.obj
 0001:0003a348       ?g__cctor@Class_Microsoft_Singularity_Drivers_PseudoBus@@SIXXZ 00c4b348 f   kernel.obj
 0001:0003a35c       ?m_StructCopy@Struct_Microsoft_Singularity_Kd_ArmRuntimeFunction@@SIXPAU1@0@Z 00c4b35c f   kernel.obj
 0001:0003a384       ?m_StructCopy@Struct_Microsoft_Singularity_Kd_ArmRuntimeFunction@@SIXPAU1@PAU1@@Z 00c4b384 f   kernel.obj
 0001:0003a3fc       ?m_Equals@Struct_Microsoft_Singularity_Kd_ArmRuntimeFunction@@SI_NPAU1@PAUClass_System_Object@@@Z 00c4b3fc f   kernel.obj
 0001:0003a448       ?m_Equals@Struct_Microsoft_Singularity_Kd_ArmRuntimeFunction@@SI_NPAUClass_Microsoft_Singularity_Kd_ArmRuntimeFunction@@PAUClass_System_Object@@@Z 00c4b448 f   kernel.obj
 0001:0003a46c       ?m_StructCopy@Struct_Microsoft_Singularity_Directory_DirectoryServiceContract_NakGetAttributes@@SIXPAU1@0@Z 00c4b46c f   kernel.obj
 0001:0003a48c       ?m_StructCopy@Struct_Microsoft_Singularity_Directory_DirectoryServiceContract_NakGetAttributes@@SIXPAU1@PAU1@@Z 00c4b48c f   kernel.obj
 0001:0003a4ec       ?m_MarshallContent@Struct_Microsoft_Singularity_Directory_DirectoryServiceContract_NakGetAttributes@@SIXPAU1@PAEPAUStruct_Microsoft_Singularity_Channels_Endpoint@@1PAH@Z 00c4b4ec f   kernel.obj
 0001:0003a50c       ?m_MarshallAll@Struct_Microsoft_Singularity_Directory_DirectoryServiceContract_NakGetAttributes@@SIXPAU1@PAEPAUStruct_Microsoft_Singularity_Channels_Endpoint@@PAH@Z 00c4b50c f   kernel.obj
 0001:0003a55c       ?m_Equals@Struct_Microsoft_Singularity_Directory_DirectoryServiceContract_NakGetAttributes@@SI_NPAU1@PAUClass_System_Object@@@Z 00c4b55c f   kernel.obj
 0001:0003a5e4       ?m_Equals@Struct_Microsoft_Singularity_Directory_DirectoryServiceContract_NakGetAttributes@@SI_NPAUClass_Microsoft_Singularity_Directory_DirectoryServiceContract_NakGetAttributes@@PAUClass_System_Object@@@Z 00c4b5e4 f   kernel.obj
 0001:0003a608       ?m_Tidy@Class_System_Text_RegularExpressions_Match@@SIXPAU1@H@Z 00c4b608 f   kernel.obj
 0001:0003a7d4       ?m_Reset@Class_System_Text_RegularExpressions_Match@@SIXPAU1@PAUClass_System_Text_RegularExpressions_Regex@@PAUClass_System_String@@HHH@Z 00c4b7d4 f   kernel.obj
 0001:0003a86c       ?m_RemoveMatch@Class_System_Text_RegularExpressions_Match@@SIXPAU1@H@Z 00c4b86c f   kernel.obj
 0001:0003a89c       ?m_MatchLength@Class_System_Text_RegularExpressions_Match@@SIHPAU1@H@Z 00c4b89c f   kernel.obj
 0001:0003a91c       ?m_MatchIndex@Class_System_Text_RegularExpressions_Match@@SIHPAU1@H@Z 00c4b91c f   kernel.obj
 0001:0003a998       ?m_IsMatched@Class_System_Text_RegularExpressions_Match@@SI_NPAU1@H@Z 00c4b998 f   kernel.obj
 0001:0003a9fc       ?g_get$_Empty@Class_System_Text_RegularExpressions_Match@@SIPAU1@XZ 00c4b9fc f   kernel.obj
 0001:0003aa14       ?m_BalanceMatch@Class_System_Text_RegularExpressions_Match@@SIXPAU1@H@Z 00c4ba14 f   kernel.obj
 0001:0003aafc       ?m_AddMatch@Class_System_Text_RegularExpressions_Match@@SIXPAU1@HHH@Z 00c4bafc f   kernel.obj
 0001:0003ac90       ?m__ctor@Class_System_Text_RegularExpressions_Match@@SIXPAU1@PAUClass_System_Text_RegularExpressions_Regex@@HPAUClass_System_String@@HHH@Z 00c4bc90 f   kernel.obj
 0001:0003ad90       ?g__cctor@Class_System_Text_RegularExpressions_Match@@SIXXZ 00c4bd90 f   kernel.obj
 0001:0003ae00       ?m_Release@Class__Stress_Microsoft_Singularity_Channels_TRef$_2$LMicrosoft_Singularity_Stress_Contracts_StressContract_Exp_Microsoft_Singularity_Stress_Contracts_StressContract_GcStressState$G@@SIXPAU1@PAUStruct_Microsoft_Singularity_Stress_Contracts_StressContract_Exp@@@Z 00c4be00 f   kernel.obj
 0001:0003af30       ?m_Finalize@Class__Stress_Microsoft_Singularity_Channels_TRef$_2$LMicrosoft_Singularity_Stress_Contracts_StressContract_Exp_Microsoft_Singularity_Stress_Contracts_StressContract_GcStressState$G@@SIXPAU1@@Z 00c4bf30 f   kernel.obj
 0001:0003afb8       ?m_Acquire@Class__Stress_Microsoft_Singularity_Channels_TRef$_2$LMicrosoft_Singularity_Stress_Contracts_StressContract_Exp_Microsoft_Singularity_Stress_Contracts_StressContract_GcStressState$G@@SIPAUStruct_Microsoft_Singularity_Stress_Contracts_StressContract_Exp@@PAU1@@Z 00c4bfb8 f   kernel.obj
 0001:0003b0dc       ?m__ctor@Class__Stress_Microsoft_Singularity_Channels_TRef$_2$LMicrosoft_Singularity_Stress_Contracts_StressContract_Exp_Microsoft_Singularity_Stress_Contracts_StressContract_GcStressState$G@@SIXPAU1@PAUStruct_Microsoft_Singularity_Stress_Contracts_StressContract_Exp@@@Z 00c4c0dc f   kernel.obj
 0001:0003b228       ?g_TransferOwnership@Struct_Microsoft_Singularity_Directory_ServiceProviderContract_Imp@@SIXPAUStruct_Microsoft_Singularity_Channels_Endpoint@@PAU1@@Z 00c4c228 f   kernel.obj
 0001:0003b264       ?m_TransferContentsOwnership@Struct_Microsoft_Singularity_Directory_ServiceProviderContract_Imp@@SIXPAU1@PAUStruct_Microsoft_Singularity_Channels_Endpoint@@@Z 00c4c264 f   kernel.obj
 0001:0003b284       ?m_StructCopy@Struct_Microsoft_Singularity_Directory_ServiceProviderContract_Imp@@SIXPAU1@0@Z 00c4c284 f   kernel.obj
 0001:0003b334       ?m_StructCopy@Struct_Microsoft_Singularity_Directory_ServiceProviderContract_Imp@@SIXPAU1@PAU1@@Z 00c4c334 f   kernel.obj
 0001:0003b544       ?m_SendConnect@Struct_Microsoft_Singularity_Directory_ServiceProviderContract_Imp@@SIXPAU1@PAUStruct_Microsoft_Singularity_Directory_ServiceContract_Exp@@@Z 00c4c544 f   kernel.obj
 0001:0003b6a8       ?m_Release@Struct_Microsoft_Singularity_Directory_ServiceProviderContract_Imp@@SIXPAU1@@Z 00c4c6a8 f   kernel.obj
 0001:0003b6c0       ?m_RecvNackConnect@Struct_Microsoft_Singularity_Directory_ServiceProviderContract_Imp@@SIXPAU1@PAPAUStruct_Microsoft_Singularity_Directory_ServiceContract_Exp@@@Z 00c4c6c0 f   kernel.obj
 0001:0003b818       ?m_RecvAckConnect@Struct_Microsoft_Singularity_Directory_ServiceProviderContract_Imp@@SIXPAU1@@Z 00c4c818 f   kernel.obj
 0001:0003b964       ?m_Peek@Struct_Microsoft_Singularity_Directory_ServiceProviderContract_Imp@@SIHPAU1@@Z 00c4c964 f   kernel.obj
 0001:0003ba54       ?m_MarshallDeliverNackConnect0@Struct_Microsoft_Singularity_Directory_ServiceProviderContract_Imp@@SIXPAU1@PAUStruct_Microsoft_Singularity_Directory_ServiceContract_Exp@@PAUStruct_Microsoft_Singularity_Channels_Endpoint@@@Z 00c4ca54 f   kernel.obj
 0001:0003ba8c       ?m_MarshallDeliverAckConnect0@Struct_Microsoft_Singularity_Directory_ServiceProviderContract_Imp@@SIXPAU1@PAUStruct_Microsoft_Singularity_Channels_Endpoint@@@Z 00c4ca8c f   kernel.obj
 0001:0003bac4       ?m_MarshallContent@Struct_Microsoft_Singularity_Directory_ServiceProviderContract_Imp@@SIXPAU1@PAEPAUStruct_Microsoft_Singularity_Channels_Endpoint@@1@Z 00c4cac4 f   kernel.obj
 0001:0003bae4       ?m_InState@Struct_Microsoft_Singularity_Directory_ServiceProviderContract_Imp@@SI_NPAU1@H@Z 00c4cae4 f   kernel.obj
 0001:0003bb64       ?m_HeadMatches@Struct_Microsoft_Singularity_Directory_ServiceProviderContract_Imp@@SI_NPAU1@HPA_NPAPAUClass_System_Object@@@Z 00c4cb64 f   kernel.obj
 0001:0003bc04       ?m_HeadMatches@Struct_Microsoft_Singularity_Directory_ServiceProviderContract_Imp@@SI_NPAUClass_Microsoft_Singularity_Directory_ServiceProviderContract_Imp@@HPA_NPAPAUClass_System_Object@@@Z 00c4cc04 f   kernel.obj
 0001:0003bc30       ?m_Equals@Struct_Microsoft_Singularity_Directory_ServiceProviderContract_Imp@@SI_NPAU1@PAUClass_System_Object@@@Z 00c4cc30 f   kernel.obj
 0001:0003bed4       ?m_Equals@Struct_Microsoft_Singularity_Directory_ServiceProviderContract_Imp@@SI_NPAUClass_Microsoft_Singularity_Directory_ServiceProviderContract_Imp@@PAUClass_System_Object@@@Z 00c4ced4 f   kernel.obj
 0001:0003bef8       ?m_Dispose@Struct_Microsoft_Singularity_Directory_ServiceProviderContract_Imp@@SIXPAU1@@Z 00c4cef8 f   kernel.obj
 0001:0003bf18       ?m_DeliverNackConnect0@Struct_Microsoft_Singularity_Directory_ServiceProviderContract_Imp@@SIXPAU1@PAUStruct_Microsoft_Singularity_Directory_ServiceContract_Exp@@@Z 00c4cf18 f   kernel.obj
 0001:0003bf4c       ?m_DeliverAckConnect0@Struct_Microsoft_Singularity_Directory_ServiceProviderContract_Imp@@SIXPAU1@@Z 00c4cf4c f   kernel.obj
 0001:0003bf78       ?m_CurrentState@Struct_Microsoft_Singularity_Directory_ServiceProviderContract_Imp@@SIPAUClass_System_String@@PAU1@@Z 00c4cf78 f   kernel.obj
 0001:0003bfdc       ?m_Acquire@Struct_Microsoft_Singularity_Directory_ServiceProviderContract_Imp@@SIXPAU1@@Z 00c4cfdc f   kernel.obj
 0001:0003bff4       ?m__ctor@Struct_Microsoft_Singularity_Directory_ServiceProviderContract_Imp@@SIXPAU1@H@Z 00c4cff4 f   kernel.obj
 0001:0003c014       ?m_Write@Class_Microsoft_Singularity_Hal_Acpi_AcpiObject_Package@@SIXPAU1@PAUClass_Microsoft_Singularity_Hal_Acpi_AcpiObject_AcpiObject@@@Z 00c4d014 f   kernel.obj
 0001:0003c054       ?m_ObjectType@Class_Microsoft_Singularity_Hal_Acpi_AcpiObject_Package@@SIPAUClass_Microsoft_Singularity_Hal_Acpi_AcpiObject_Integer@@PAU1@@Z 00c4d054 f   kernel.obj
 0001:0003c094       ?m_Index@Class_Microsoft_Singularity_Hal_Acpi_AcpiObject_Package@@SIPAUClass_Microsoft_Singularity_Hal_Acpi_AcpiObject_AcpiObject@@PAU1@_K@Z 00c4d094 f   kernel.obj
 0001:0003c0ec       ?m__ctor@Class_Microsoft_Singularity_Hal_Acpi_AcpiObject_Package@@SIXPAU1@PAUClassVector_Class_Microsoft_Singularity_Hal_Acpi_AcpiObject_AcpiObjectCell@@@Z 00c4d0ec f   kernel.obj
 0001:0003c120       ?m__ctor@Class_Microsoft_Singularity_KernelDebugger_KdFilesNamespace_ServiceThread_FileState@@SIXPAU1@PAUClass_System_String@@@Z 00c4d120 f   kernel.obj
 0001:0003c15c       ?m_StructCopy@Struct_Microsoft_Singularity_Directory_DirectoryServiceContract_NakDeregister@@SIXPAU1@0@Z 00c4d15c f   kernel.obj
 0001:0003c17c       ?m_StructCopy@Struct_Microsoft_Singularity_Directory_DirectoryServiceContract_NakDeregister@@SIXPAU1@PAU1@@Z 00c4d17c f   kernel.obj
 0001:0003c1dc       ?m_MarshallContent@Struct_Microsoft_Singularity_Directory_DirectoryServiceContract_NakDeregister@@SIXPAU1@PAEPAUStruct_Microsoft_Singularity_Channels_Endpoint@@1PAH@Z 00c4d1dc f   kernel.obj
 0001:0003c1fc       ?m_MarshallAll@Struct_Microsoft_Singularity_Directory_DirectoryServiceContract_NakDeregister@@SIXPAU1@PAEPAUStruct_Microsoft_Singularity_Channels_Endpoint@@PAH@Z 00c4d1fc f   kernel.obj
 0001:0003c24c       ?m_Equals@Struct_Microsoft_Singularity_Directory_DirectoryServiceContract_NakDeregister@@SI_NPAU1@PAUClass_System_Object@@@Z 00c4d24c f   kernel.obj
 0001:0003c2d4       ?m_Equals@Struct_Microsoft_Singularity_Directory_DirectoryServiceContract_NakDeregister@@SI_NPAUClass_Microsoft_Singularity_Directory_DirectoryServiceContract_NakDeregister@@PAUClass_System_Object@@@Z 00c4d2d4 f   kernel.obj
 0001:0003c2f8       ?m_InitializeServices@Class_Microsoft_Singularity_Hal_Cpu@@SIXPAU1@@Z 00c4d2f8 f   kernel.obj
 0001:0003c310       ?m_Initialize@Class_Microsoft_Singularity_Hal_Cpu@@SIXPAU1@@Z 00c4d310 f   kernel.obj
 0001:0003c358       ?m_DispatchInterrupt@Class_Microsoft_Singularity_Hal_Cpu@@SIXPAU1@PAUStruct_Microsoft_Singularity_Isal_InterruptContext@@@Z 00c4d358 f   kernel.obj
 0001:0003c65c       ?m__ctor@Class_Microsoft_Singularity_Hal_Cpu@@SIXPAU1@@Z 00c4d65c f   kernel.obj
 0001:0003c674       ?m__ctor@Class_Microsoft_Singularity_Hal_HpetResources@@SIXPAU1@@Z 00c4d674 f   kernel.obj
 0001:0003c694       ?g_WaitForPendingFinalizers@Class_System_GC@@SIXXZ 00c4d694 f   kernel.obj
 0001:0003c6ac       ?g_ThreadStartNotification@Class_System_GC@@SIXH@Z 00c4d6ac f   kernel.obj
 0001:0003c6d4       ?g_ThreadDormantGCNotification@Class_System_GC@@SIXH@Z 00c4d6d4 f   kernel.obj
 0001:0003c6fc       ?g_Shutdown@Class_System_GC@@SIXXZ 00c4d6fc f   kernel.obj
 0001:0003c720       ?g_SetProfiler@Class_System_GC@@SIXPAUClass_Microsoft_Singularity_GCProfilerLogger@@@Z 00c4d720 f   kernel.obj
 0001:0003c750       ?g_PerformanceCounters@Class_System_GC@@SIXPAHPA_J1@Z 00c4d750 f   kernel.obj
 0001:0003c798       ?g_NewThreadNotification@Class_System_GC@@SIXPAUClass_System_Threading_Thread@@_N@Z 00c4d798 f   kernel.obj
 0001:0003c7c8       ?g_IsUserCollectionRequest@Class_System_GC@@SI_NH@Z 00c4d7c8 f   kernel.obj
 0001:0003c7e8       ?g_IsRealCollectionRequest@Class_System_GC@@SI_NH@Z 00c4d7e8 f   kernel.obj
 0001:0003c81c       ?g_InvokeCollection@Class_System_GC@@SIXPAUClass_System_Threading_Thread@@@Z 00c4d81c f   kernel.obj
 0001:0003c844       ?g_Initialize@Class_System_GC@@SIXXZ 00c4d844 f   kernel.obj
 0001:0003c87c       ?g_get$_MaxGeneration@Class_System_GC@@SIHXZ 00c4d87c f   kernel.obj
 0001:0003c89c       ?g_get$_IsProfiling@Class_System_GC@@SI_NXZ 00c4d89c f   kernel.obj
 0001:0003c8b4       ?g_FinishInitializeThread@Class_System_GC@@SIXXZ 00c4d8b4 f   kernel.obj
 0001:0003c8cc       ?g_EnableHeap@Class_System_GC@@SIXXZ 00c4d8cc f   kernel.obj
 0001:0003c90c       ?g_DestructHeap@Class_System_GC@@SIXXZ 00c4d90c f   kernel.obj
 0001:0003c930       ?g_DeadThreadNotification@Class_System_GC@@SIXPAUClass_System_Threading_Thread@@@Z 00c4d930 f   kernel.obj
 0001:0003c958       ?g_ConstructHeap@Class_System_GC@@SIXXZ 00c4d958 f   kernel.obj
 0001:0003c9f0       ?g_CollectTransition@Class_System_GC@@SIXPAUClass_System_Threading_Thread@@H@Z 00c4d9f0 f   kernel.obj
 0001:0003ca10       ?g_CollectBody@Class_System_GC@@SIPAUClass_System_Threading_Thread@@PAU2@H@Z 00c4da10 f   kernel.obj
 0001:0003ca60       ?g_Collect@Class_System_GC@@SIXXZ 00c4da60 f   kernel.obj
 0001:0003caa0       ?g_CheckForNeededGCWork@Class_System_GC@@SIXPAUClass_System_Threading_Thread@@@Z 00c4daa0 f   kernel.obj
 0001:0003cac8       ?g_AllocateVector@Class_System_GC@@SIPAUClass_System_Array@@PAUClass_System_VTable@@H@Z 00c4dac8 f   kernel.obj
 0001:0003cb50       ?g_AllocateVector@Class_System_GC@@SIPAUClass_System_Array@@PAUClass_System_VTable@@HPAUClass_System_Threading_Thread@@@Z 00c4db50 f   kernel.obj
 0001:0003cbc8       ?g_AllocateString@Class_System_GC@@SIPAUClass_System_String@@H@Z 00c4dbc8 f   kernel.obj
 0001:0003cc48       ?g_AllocateString@Class_System_GC@@SIPAUClass_System_String@@HPAUClass_System_Threading_Thread@@@Z 00c4dc48 f   kernel.obj
 0001:0003ccb8       ?g_AllocateObjectNoInline@Class_System_GC@@SIPAUClass_System_Object@@PAUClass_System_VTable@@@Z 00c4dcb8 f   kernel.obj
 0001:0003d1d8       ?g_AllocateObjectNoInline@Class_System_GC@@SIPAUClass_System_Object@@PAUClass_System_VTable@@PAUClass_System_Threading_Thread@@@Z 00c4e1d8 f   kernel.obj
 0001:0003d6d8       ?g_AllocateObject@Class_System_GC@@SIPAUClass_System_Object@@PAUClass_System_VTable@@@Z 00c4e6d8 f   kernel.obj
 0001:0003dbe8       ?g_AllocateObject@Class_System_GC@@SIPAUClass_System_Object@@PAUClass_System_VTable@@PAUuintPtr@@IPAUClass_System_Threading_Thread@@@Z 00c4ebe8 f   kernel.obj
 0001:0003e098       ?g_AllocateObject@Class_System_GC@@SIPAUClass_System_Object@@PAUClass_System_VTable@@PAUClass_System_Threading_Thread@@@Z 00c4f098 f   kernel.obj
 0001:0003e588       ?g_AllocateArray@Class_System_GC@@SIPAUClass_System_Array@@PAUClass_System_VTable@@HH@Z 00c4f588 f   kernel.obj
 0001:0003e614       ?g_AllocateArray@Class_System_GC@@SIPAUClass_System_Array@@PAUClass_System_VTable@@HHPAUClass_System_Threading_Thread@@@Z 00c4f614 f   kernel.obj
 0001:0003e690       ?m__ctor@Class_System_GC@@SIXPAU1@@Z 00c4f690 f   kernel.obj
 0001:0003e6a8       ?g__cctor@Class_System_GC@@SIXXZ 00c4f6a8 f   kernel.obj
 0001:0003e6f4       ?g_WriteNewLine@Class_System_Console@@SIXXZ 00c4f6f4 f   kernel.obj
 0001:0003e714       ?g_WriteLine@Class_System_Console@@SIXPAUClass_System_String@@@Z 00c4f714 f   kernel.obj
 0001:0003e738       ?g_WriteLine@Class_System_Console@@SIXPAUClass_System_String@@PAUClassVector_Class_System_Object@@@Z 00c4f738 f   kernel.obj
 0001:0003e764       ?g_WriteLine@Class_System_Console@@SIXPAUClass_System_String@@PAUClass_System_Object@@@Z 00c4f764 f   kernel.obj
 0001:0003e790       ?g_WriteLine@Class_System_Console@@SIXPAUClass_System_String@@PAUClass_System_Object@@1@Z 00c4f790 f   kernel.obj
 0001:0003e7c4       ?g_WriteLine@Class_System_Console@@SIXPAUClass_System_String@@PAUClass_System_Object@@11@Z 00c4f7c4 f   kernel.obj
 0001:0003e7f8       ?g_WriteLine@Class_System_Console@@SIXXZ 00c4f7f8 f   kernel.obj
 0001:0003e810       ?g_WriteInternal@Class_System_Console@@SIXPAUClass_System_String@@@Z 00c4f810 f   kernel.obj
 0001:0003e8f8       ?g_Write@Class_System_Console@@SIXPAUClass_System_String@@@Z 00c4f8f8 f   kernel.obj
 0001:0003e918       ?g_Write@Class_System_Console@@SIXPAUClass_System_String@@PAUClass_System_Object@@@Z 00c4f918 f   kernel.obj
 0001:0003e940       ?g_set$_Screen@Class_System_Console@@SIXPAUClass_Microsoft_Singularity_Hal_HalScreenDirect@@@Z 00c4f940 f   kernel.obj
 0001:0003e968       ?g_get$_Screen@Class_System_Console@@SIPAUClass_Microsoft_Singularity_Hal_HalScreenDirect@@XZ 00c4f968 f   kernel.obj
 0001:0003e980       ?m__ctor@Class_System_Console@@SIXPAU1@@Z 00c4f980 f   kernel.obj
 0001:0003e998       ?g__cctor@Class_System_Console@@SIXXZ 00c4f998 f   kernel.obj
 0001:0003ea6c       ?m_StructCopy@Struct_Microsoft_Singularity_Io_ConsoleDeviceContract_PutChar@@SIXPAU1@0@Z 00c4fa6c f   kernel.obj
 0001:0003ea90       ?m_StructCopy@Struct_Microsoft_Singularity_Io_ConsoleDeviceContract_PutChar@@SIXPAU1@PAU1@@Z 00c4fa90 f   kernel.obj
 0001:0003eafc       ?m_Equals@Struct_Microsoft_Singularity_Io_ConsoleDeviceContract_PutChar@@SI_NPAU1@PAUClass_System_Object@@@Z 00c4fafc f   kernel.obj
 0001:0003eb3c       ?m_Equals@Struct_Microsoft_Singularity_Io_ConsoleDeviceContract_PutChar@@SI_NPAUClass_Microsoft_Singularity_Io_ConsoleDeviceContract_PutChar@@PAUClass_System_Object@@@Z 00c4fb3c f   kernel.obj
 0001:0003eb60       ?g_StartNotificationThread@Class_Microsoft_Singularity_Directory_NotificationManager@@SIXXZ 00c4fb60 f   kernel.obj
 0001:0003ebcc       ?g_ReturnTRef@Class_Microsoft_Singularity_Directory_NotificationManager@@SIXPAUStruct_Microsoft_Singularity_Directory_NotifyContract_Imp@@PAUClass_Microsoft_Singularity_Directory_NotificationManager_RequestEntry@@@Z 00c4fbcc f   kernel.obj
 0001:0003ec58       ?g_Notify@Class_Microsoft_Singularity_Directory_NotificationManager@@SIXPAUClass_Microsoft_Singularity_Directory_NotificationManager_RequestEntry@@PAUClass_Microsoft_Singularity_Channels_EMap$_3$LMicrosoft_Singularity_Directory_NotifyContract_Imp_Microsoft_Singularity_Directory_NotifyContract_NotifyAck_optional_Microsoft_Contracts_NonNullType__Microsoft_Singularity_Directory_NotificationManager_RequestEntry$G@@@Z 00c4fc58 f   kernel.obj
 0001:0003ef54       ?g_NotificationWorkerMain@Class_Microsoft_Singularity_Directory_NotificationManager@@SIXXZ 00c4ff54 f   kernel.obj
 0001:0003f0fc       ?g_isMatch@Class_Microsoft_Singularity_Directory_NotificationManager@@SI_NPAUClass_System_String@@0@Z 00c500fc f   kernel.obj
 0001:0003f23c       ?g_Initialize@Class_Microsoft_Singularity_Directory_NotificationManager@@SIXXZ 00c5023c f   kernel.obj
 0001:0003f350       ?g_EnqueueNotification@Class_Microsoft_Singularity_Directory_NotificationManager@@SI_NPAUClass_Microsoft_Singularity_Directory_DirNode@@PAUClass_System_String@@UStruct_Microsoft_Singularity_Directory_NotifyType@@@Z 00c50350 f   kernel.obj
 0001:0003f438       ?g_DequeueWork@Class_Microsoft_Singularity_Directory_NotificationManager@@SIXPAUClass_Microsoft_Singularity_Channels_EMap$_3$LMicrosoft_Singularity_Directory_NotifyContract_Imp_Microsoft_Singularity_Directory_NotifyContract_NotifyAck_optional_Microsoft_Contracts_NonNullType__Microsoft_Singularity_Directory_NotificationManager_RequestEntry$G@@@Z 00c50438 f   kernel.obj
 0001:0003f558       ?g__cctor@Class_Microsoft_Singularity_Directory_NotificationManager@@SIXXZ 00c50558 f   kernel.obj
 0001:0003f5f0       ?m_ToString@int64@@SIPAUClass_System_String@@PA_J@Z 00c505f0 f   kernel.obj
 0001:0003f610       ?m_ToString@int64@@SIPAUClass_System_String@@PA_JPAU2@@Z 00c50610 f   kernel.obj
 0001:0003f65c       ?m_ToString@int64@@SIPAUClass_System_String@@PAUClass_System_Int64@@@Z 00c5065c f   kernel.obj
 0001:0003f67c       ?m_ToString@int64@@SIPAUClass_System_String@@PAUClass_System_Int64@@PAU2@@Z 00c5067c f   kernel.obj
 0001:0003f6a0       ?m_GetHashCode@int64@@SIHPA_J@Z 00c506a0 f   kernel.obj
 0001:0003f6c8       ?m_GetHashCode@int64@@SIHPAUClass_System_Int64@@@Z 00c506c8 f   kernel.obj
 0001:0003f6e8       ?m_Equals@int64@@SI_NPA_JPAUClass_System_Object@@@Z 00c506e8 f   kernel.obj
 0001:0003f74c       ?m_Equals@int64@@SI_NPAUClass_System_Int64@@PAUClass_System_Object@@@Z 00c5074c f   kernel.obj
 0001:0003f770       ?m_CompareTo@int64@@SIHPA_JPAUClass_System_Object@@@Z 00c50770 f   kernel.obj
 0001:0003f83c       ?m_CompareTo@int64@@SIHPAUClass_System_Int64@@PAUClass_System_Object@@@Z 00c5083c f   kernel.obj
 0001:0003f860       ?m_StructCopy@Struct_System_GCs_SegregatedFreeList_PageHeader@@SIXPAU1@0@Z 00c50860 f   kernel.obj
 0001:0003f89c       ?m_StructCopy@Struct_System_GCs_SegregatedFreeList_PageHeader@@SIXPAU1@PAU1@@Z 00c5089c f   kernel.obj
 0001:0003f950       ?g_get$_Size@Struct_System_GCs_SegregatedFreeList_PageHeader@@SIHXZ 00c50950 f   kernel.obj
 0001:0003f968       ?m_Equals@Struct_System_GCs_SegregatedFreeList_PageHeader@@SI_NPAU1@PAUClass_System_Object@@@Z 00c50968 f   kernel.obj
 0001:0003f9d0       ?m_Equals@Struct_System_GCs_SegregatedFreeList_PageHeader@@SI_NPAUClass_System_GCs_SegregatedFreeList_PageHeader@@PAUClass_System_Object@@@Z 00c509d0 f   kernel.obj
 0001:0003f9f4       ?g_WaypointDump$_@Struct_Microsoft_Singularity_V1_Services_ProcessService@@SIXXZ 00c509f4 f   kernel.obj
 0001:0003fa0c       ?g_WaypointDump@Struct_Microsoft_Singularity_V1_Services_ProcessService@@SIXXZ 00c50a0c f   kernel.obj
 0001:0003fe94       ?g_WaypointDone$_@Struct_Microsoft_Singularity_V1_Services_ProcessService@@SIXXZ 00c50e94 f   kernel.obj
 0001:0003feac       ?g_WaypointDone@Struct_Microsoft_Singularity_V1_Services_ProcessService@@SIXXZ 00c50eac f   kernel.obj
 0001:00040334       ?g_Waypoint0$_@Struct_Microsoft_Singularity_V1_Services_ProcessService@@SIXXZ 00c51334 f   kernel.obj
 0001:0004034c       ?g_Waypoint0@Struct_Microsoft_Singularity_V1_Services_ProcessService@@SIXXZ 00c5134c f   kernel.obj
 0001:000407d4       ?g_Waypoint$_@Struct_Microsoft_Singularity_V1_Services_ProcessService@@SIXH@Z 00c517d4 f   kernel.obj
 0001:000407f4       ?g_Waypoint@Struct_Microsoft_Singularity_V1_Services_ProcessService@@SIXH@Z 00c517f4 f   kernel.obj
 0001:00040c88       ?m_StructCopy@Struct_Microsoft_Singularity_V1_Services_ProcessService@@SIXPAU1@0@Z 00c51c88 f   kernel.obj
 0001:00040ca4       ?m_StructCopy@Struct_Microsoft_Singularity_V1_Services_ProcessService@@SIXPAU1@PAU1@@Z 00c51ca4 f   kernel.obj
 0001:00040cf8       ?g_Stop$_@Struct_Microsoft_Singularity_V1_Services_ProcessService@@SIXH@Z 00c51cf8 f   kernel.obj
 0001:00040d30       ?g_Stop@Struct_Microsoft_Singularity_V1_Services_ProcessService@@SIXH@Z 00c51d30 f   kernel.obj
 0001:000411c4       ?g_SetStartupEndpoint$_@Struct_Microsoft_Singularity_V1_Services_ProcessService@@SIXHPAUStruct_Microsoft_Singularity_V1_Services_SharedHeapService_Allocation@@@Z 00c521c4 f   kernel.obj
 0001:00041200       ?g_SetStartupEndpoint@Struct_Microsoft_Singularity_V1_Services_ProcessService@@SIXHPAUStruct_Microsoft_Singularity_V1_Services_SharedHeapService_Allocation@@@Z 00c52200 f   kernel.obj
 0001:000416a0       ?g_SetGcPerformanceCounters$_@Struct_Microsoft_Singularity_V1_Services_ProcessService@@SIXUStruct_System_TimeSpan@@_J@Z 00c526a0 f   kernel.obj
 0001:000416dc       ?g_SetGcPerformanceCounters@Struct_Microsoft_Singularity_V1_Services_ProcessService@@SIXUStruct_System_TimeSpan@@_J@Z 00c526dc f   kernel.obj
 0001:00041b7c       ?g_GetUtcTime$_@Struct_Microsoft_Singularity_V1_Services_ProcessService@@SI?AUStruct_System_DateTime@@XZ 00c52b7c f   kernel.obj
 0001:00041bc0       ?g_GetUtcTime@Struct_Microsoft_Singularity_V1_Services_ProcessService@@SI?AUStruct_System_DateTime@@XZ 00c52bc0 f   kernel.obj
 0001:00042064       ?g_GetUpTime$_@Struct_Microsoft_Singularity_V1_Services_ProcessService@@SI?AUStruct_System_TimeSpan@@XZ 00c53064 f   kernel.obj
 0001:000420a8       ?g_GetUpTime@Struct_Microsoft_Singularity_V1_Services_ProcessService@@SI?AUStruct_System_TimeSpan@@XZ 00c530a8 f   kernel.obj
 0001:0004254c       ?g_GetThreadTime$_@Struct_Microsoft_Singularity_V1_Services_ProcessService@@SI?AUStruct_System_TimeSpan@@XZ 00c5354c f   kernel.obj
 0001:00042584       ?g_GetThreadTime@Struct_Microsoft_Singularity_V1_Services_ProcessService@@SI?AUStruct_System_TimeSpan@@XZ 00c53584 f   kernel.obj
 0001:00042a28       ?g_GetThreadsCreatedCount$_@Struct_Microsoft_Singularity_V1_Services_ProcessService@@SI_JXZ 00c53a28 f   kernel.obj
 0001:00042a40       ?g_GetThreadsCreatedCount@Struct_Microsoft_Singularity_V1_Services_ProcessService@@SI_JXZ 00c53a40 f   kernel.obj
 0001:00042ee4       ?g_GetStartupStringArrayArgImpl$_@Struct_Microsoft_Singularity_V1_Services_ProcessService@@SI?AUStruct_Microsoft_Singularity_V1_Services_ParameterCode@@HPA_WPAH11@Z 00c53ee4 f   kernel.obj
 0001:00042f88       ?g_GetStartupStringArrayArgImpl@Struct_Microsoft_Singularity_V1_Services_ProcessService@@SI?AUStruct_Microsoft_Singularity_V1_Services_ParameterCode@@HPA_WPAH11@Z 00c53f88 f   kernel.obj
 0001:00043444       ?g_GetStartupStringArrayArgCount$_@Struct_Microsoft_Singularity_V1_Services_ProcessService@@SIHXZ 00c54444 f   kernel.obj
 0001:00043468       ?g_GetStartupStringArrayArgCount@Struct_Microsoft_Singularity_V1_Services_ProcessService@@SIHXZ 00c54468 f   kernel.obj
 0001:00043900       ?g_GetStartupStringArgImpl$_@Struct_Microsoft_Singularity_V1_Services_ProcessService@@SI?AUStruct_Microsoft_Singularity_V1_Services_ParameterCode@@HPA_WPAH@Z 00c54900 f   kernel.obj
 0001:00043928       ?g_GetStartupStringArgImpl@Struct_Microsoft_Singularity_V1_Services_ProcessService@@SI?AUStruct_Microsoft_Singularity_V1_Services_ParameterCode@@HPA_WPAH@Z 00c54928 f   kernel.obj
 0001:00043ddc       ?g_GetStartupStringArgCount$_@Struct_Microsoft_Singularity_V1_Services_ProcessService@@SIHXZ 00c54ddc f   kernel.obj
 0001:00043e00       ?g_GetStartupStringArgCount@Struct_Microsoft_Singularity_V1_Services_ProcessService@@SIHXZ 00c54e00 f   kernel.obj
 0001:00044298       ?g_GetStartupStringArg@Struct_Microsoft_Singularity_V1_Services_ProcessService@@SI?AUStruct_Microsoft_Singularity_V1_Services_ParameterCode@@HPA_WPAH@Z 00c55298 f   kernel.obj
 0001:00044370       ?g_GetStartupLongArgImpl$_@Struct_Microsoft_Singularity_V1_Services_ProcessService@@SI?AUStruct_Microsoft_Singularity_V1_Services_ParameterCode@@HPA_J@Z 00c55370 f   kernel.obj
 0001:00044390       ?g_GetStartupLongArgImpl@Struct_Microsoft_Singularity_V1_Services_ProcessService@@SI?AUStruct_Microsoft_Singularity_V1_Services_ParameterCode@@HPA_J@Z 00c55390 f   kernel.obj
 0001:00044840       ?g_GetStartupLongArgCount$_@Struct_Microsoft_Singularity_V1_Services_ProcessService@@SIHXZ 00c55840 f   kernel.obj
 0001:00044864       ?g_GetStartupLongArgCount@Struct_Microsoft_Singularity_V1_Services_ProcessService@@SIHXZ 00c55864 f   kernel.obj
 0001:00044cfc       ?g_GetStartupLongArg@Struct_Microsoft_Singularity_V1_Services_ProcessService@@SI?AUStruct_Microsoft_Singularity_V1_Services_ParameterCode@@HPA_J@Z 00c55cfc f   kernel.obj
 0001:00044d2c       ?g_GetStartupEndpointCount$_@Struct_Microsoft_Singularity_V1_Services_ProcessService@@SIHXZ 00c55d2c f   kernel.obj
 0001:00044d50       ?g_GetStartupEndpointCount@Struct_Microsoft_Singularity_V1_Services_ProcessService@@SIHXZ 00c55d50 f   kernel.obj
 0001:000451e8       ?g_GetStartupEndpoint$_@Struct_Microsoft_Singularity_V1_Services_ProcessService@@SIPAUStruct_Microsoft_Singularity_V1_Services_SharedHeapService_Allocation@@H@Z 00c561e8 f   kernel.obj
 0001:00045214       ?g_GetStartupEndpoint@Struct_Microsoft_Singularity_V1_Services_ProcessService@@SIPAUStruct_Microsoft_Singularity_V1_Services_SharedHeapService_Allocation@@H@Z 00c56214 f   kernel.obj
 0001:000456b8       ?g_GetStartupBoolArgImpl$_@Struct_Microsoft_Singularity_V1_Services_ProcessService@@SI?AUStruct_Microsoft_Singularity_V1_Services_ParameterCode@@HPA_N@Z 00c566b8 f   kernel.obj
 0001:000456d8       ?g_GetStartupBoolArgImpl@Struct_Microsoft_Singularity_V1_Services_ProcessService@@SI?AUStruct_Microsoft_Singularity_V1_Services_ParameterCode@@HPA_N@Z 00c566d8 f   kernel.obj
 0001:00045b88       ?g_GetStartupBoolArgCount$_@Struct_Microsoft_Singularity_V1_Services_ProcessService@@SIHXZ 00c56b88 f   kernel.obj
 0001:00045bac       ?g_GetStartupBoolArgCount@Struct_Microsoft_Singularity_V1_Services_ProcessService@@SIHXZ 00c56bac f   kernel.obj
 0001:00046044       ?g_GetStartupBoolArg@Struct_Microsoft_Singularity_V1_Services_ProcessService@@SI?AUStruct_Microsoft_Singularity_V1_Services_ParameterCode@@HPA_N@Z 00c57044 f   kernel.obj
 0001:00046074       ?g_GetStartupArgCount$_@Struct_Microsoft_Singularity_V1_Services_ProcessService@@SIHXZ 00c57074 f   kernel.obj
 0001:00046098       ?g_GetStartupArgCount@Struct_Microsoft_Singularity_V1_Services_ProcessService@@SIHXZ 00c57098 f   kernel.obj
 0001:00046530       ?g_GetStartupArg$_@Struct_Microsoft_Singularity_V1_Services_ProcessService@@SIHHPA_WH@Z 00c57530 f   kernel.obj
 0001:000465cc       ?g_GetStartupArg@Struct_Microsoft_Singularity_V1_Services_ProcessService@@SIHHPA_WH@Z 00c575cc f   kernel.obj
 0001:00046a80       ?g_GetSharedSourceHandlesImpl$_@Struct_Microsoft_Singularity_V1_Services_ProcessService@@SI_NIPAPAUuintPtr@@00@Z 00c57a80 f   kernel.obj
 0001:00046ab0       ?g_GetSharedSourceHandlesImpl@Struct_Microsoft_Singularity_V1_Services_ProcessService@@SI_NIPAPAUuintPtr@@00@Z 00c57ab0 f   kernel.obj
 0001:00046f68       ?g_GetSharedSourceHandles@Struct_Microsoft_Singularity_V1_Services_ProcessService@@SI_NIPAPAUuintPtr@@00@Z 00c57f68 f   kernel.obj
 0001:00046fac       ?g_GetNamespaceEndpoint$_@Struct_Microsoft_Singularity_V1_Services_ProcessService@@SIPAUStruct_Microsoft_Singularity_V1_Services_SharedHeapService_Allocation@@XZ 00c57fac f   kernel.obj
 0001:00046fd0       ?g_GetNamespaceEndpoint@Struct_Microsoft_Singularity_V1_Services_ProcessService@@SIPAUStruct_Microsoft_Singularity_V1_Services_SharedHeapService_Allocation@@XZ 00c57fd0 f   kernel.obj
 0001:00047468       ?g_GetKernelInterruptCount$_@Struct_Microsoft_Singularity_V1_Services_ProcessService@@SI_JXZ 00c58468 f   kernel.obj
 0001:00047518       ?g_GetKernelInterruptCount@Struct_Microsoft_Singularity_V1_Services_ProcessService@@SI_JXZ 00c58518 f   kernel.obj
 0001:000479bc       ?g_GetKernelGcCount$_@Struct_Microsoft_Singularity_V1_Services_ProcessService@@SI_JXZ 00c589bc f   kernel.obj
 0001:00047a0c       ?g_GetKernelGcCount@Struct_Microsoft_Singularity_V1_Services_ProcessService@@SI_JXZ 00c58a0c f   kernel.obj
 0001:00047eb0       ?g_GetKernelBootCount$_@Struct_Microsoft_Singularity_V1_Services_ProcessService@@SI_JXZ 00c58eb0 f   kernel.obj
 0001:00047ecc       ?g_GetKernelBootCount@Struct_Microsoft_Singularity_V1_Services_ProcessService@@SI_JXZ 00c58ecc f   kernel.obj
 0001:00048370       ?g_GetCyclesPerSecond$_@Struct_Microsoft_Singularity_V1_Services_ProcessService@@SI_JXZ 00c59370 f   kernel.obj
 0001:00048394       ?g_GetCyclesPerSecond@Struct_Microsoft_Singularity_V1_Services_ProcessService@@SI_JXZ 00c59394 f   kernel.obj
 0001:00048838       ?g_GetCycleCount$_@Struct_Microsoft_Singularity_V1_Services_ProcessService@@SI_JXZ 00c59838 f   kernel.obj
 0001:00048850       ?g_GetCycleCount@Struct_Microsoft_Singularity_V1_Services_ProcessService@@SI_JXZ 00c59850 f   kernel.obj
 0001:00048cf4       ?g_GetCurrentProcessId$_@Struct_Microsoft_Singularity_V1_Services_ProcessService@@SIGXZ 00c59cf4 f   kernel.obj
 0001:00048d18       ?g_GetCurrentProcessId@Struct_Microsoft_Singularity_V1_Services_ProcessService@@SIGXZ 00c59d18 f   kernel.obj
 0001:000491b0       ?g_GetCpuCount$_@Struct_Microsoft_Singularity_V1_Services_ProcessService@@SIHXZ 00c5a1b0 f   kernel.obj
 0001:000491c8       ?g_GetCpuCount@Struct_Microsoft_Singularity_V1_Services_ProcessService@@SIHXZ 00c5a1c8 f   kernel.obj
 0001:00049660       ?g_GetContextSwitchCount$_@Struct_Microsoft_Singularity_V1_Services_ProcessService@@SI_JXZ 00c5a660 f   kernel.obj
 0001:00049710       ?g_GetContextSwitchCount@Struct_Microsoft_Singularity_V1_Services_ProcessService@@SI_JXZ 00c5a710 f   kernel.obj
 0001:00049bb4       ?g_FlattenStringArray@Struct_Microsoft_Singularity_V1_Services_ProcessService@@SIHPAUClassVector_Class_System_String@@PAHPA_W@Z 00c5abb4 f   kernel.obj
 0001:00049d34       ?m_Equals@Struct_Microsoft_Singularity_V1_Services_ProcessService@@SI_NPAU1@PAUClass_System_Object@@@Z 00c5ad34 f   kernel.obj
 0001:00049d68       ?m_Equals@Struct_Microsoft_Singularity_V1_Services_ProcessService@@SI_NPAUClass_Microsoft_Singularity_V1_Services_ProcessService@@PAUClass_System_Object@@@Z 00c5ad68 f   kernel.obj
 0001:00049d8c       ?m_ToPrint@Class_Microsoft_Singularity_Io_PciDeviceConfig@@SIPAUClass_System_String@@PAU1@@Z 00c5ad8c f   kernel.obj
 0001:00049ee8       ?m_Read@Class_Microsoft_Singularity_Io_PciDeviceConfig@@SIXPAU1@@Z 00c5aee8 f   kernel.obj
 0001:0004a028       ?m_get$_Capabilities@Class_Microsoft_Singularity_Io_PciDeviceConfig@@SIEPAU1@@Z 00c5b028 f   kernel.obj
 0001:0004a044       ?m__ctor@Class_Microsoft_Singularity_Io_PciDeviceConfig@@SIXPAU1@PAUClass_Microsoft_Singularity_Io_PciPort@@@Z 00c5b044 f   kernel.obj
 0001:0004a06c       ?m_Accept@Class_Microsoft_Singularity_Hal_Acpi_AmlParser_DefIfElse@@SIXPAU1@PAUClass_Microsoft_Singularity_Hal_Acpi_AmlParserNodeVisitor@@@Z 00c5b06c f   kernel.obj
 0001:0004a09c       ?m__ctor@Class_Microsoft_Singularity_Hal_Acpi_AmlParser_DefIfElse@@SIXPAU1@@Z 00c5b09c f   kernel.obj
 0001:0004a0bc       ?m_InvokeStaticStub@Class_Microsoft_Singularity_Security_AccessControl_AclParser_AcceptMethod@@SIPAUClass_Microsoft_Singularity_Security_AccessControl_AclToken@@PAU1@@Z 00c5b0bc f   kernel.obj
 0001:0004a0e0       ?m_Invoke@Class_Microsoft_Singularity_Security_AccessControl_AclParser_AcceptMethod@@SIPAUClass_Microsoft_Singularity_Security_AccessControl_AclToken@@PAU1@@Z 00c5b0e0 f   kernel.obj
 0001:0004a120       ?m_EndInvoke@Class_Microsoft_Singularity_Security_AccessControl_AclParser_AcceptMethod@@SIPAUClass_Microsoft_Singularity_Security_AccessControl_AclToken@@PAU1@PAUClass_System_IAsyncResult@@@Z 00c5b120 f   kernel.obj
 0001:0004a13c       ?m_BeginInvoke@Class_Microsoft_Singularity_Security_AccessControl_AclParser_AcceptMethod@@SIPAUClass_System_IAsyncResult@@PAU1@PAUClass_System_AsyncCallback@@PAUClass_System_Object@@@Z 00c5b13c f   kernel.obj
 0001:0004a15c       ?m__ctor@Class_Microsoft_Singularity_Security_AccessControl_AclParser_AcceptMethod@@SIXPAU1@PAUClass_System_Object@@PAUintPtr@@@Z 00c5b15c f   kernel.obj
 0001:0004a1c0       ?m_ToString@Class_System_String@@SIPAU1@PAU1@@Z 00c5b1c0 f   kernel.obj
 0001:0004a1dc       ?m_ToLower@Class_System_String@@SIPAU1@PAU1@@Z 00c5b1dc f   kernel.obj
 0001:0004a214       ?m_ToCharArray@Class_System_String@@SIPAUClassVector_bartok_char@@PAU1@@Z 00c5b214 f   kernel.obj
 0001:0004a23c       ?m_ToCharArray@Class_System_String@@SIPAUClassVector_bartok_char@@PAU1@HH@Z 00c5b23c f   kernel.obj
 0001:0004a304       ?m_System_Collections_IEnumerable_GetEnumerator@Class_System_String@@SIPAUClass_System_Collections_IEnumerator@@PAU1@@Z 00c5b304 f   kernel.obj
 0001:0004a344       ?m_Substring@Class_System_String@@SIPAU1@PAU1@H@Z 00c5b344 f   kernel.obj
 0001:0004a374       ?m_Substring@Class_System_String@@SIPAU1@PAU1@HH@Z 00c5b374 f   kernel.obj
 0001:0004a450       ?g_StringCTOR@Class_System_String@@SIPAU1@PAEHH@Z 00c5b450 f   kernel.obj
 0001:0004a4fc       ?g_StringCTOR@Class_System_String@@SIPAU1@PA_W@Z 00c5b4fc f   kernel.obj
 0001:0004a5a8       ?g_StringCTOR@Class_System_String@@SIPAU1@PA_WHH@Z 00c5b5a8 f   kernel.obj
 0001:0004a658       ?g_StringCTOR@Class_System_String@@SIPAU1@PAUClassVector_bartok_char@@@Z 00c5b658 f   kernel.obj
 0001:0004a6b8       ?g_StringCTOR@Class_System_String@@SIPAU1@PAUClassVector_bartok_char@@HH@Z 00c5b6b8 f   kernel.obj
 0001:0004a794       ?m_StartsWith@Class_System_String@@SI_NPAU1@0@Z 00c5b794 f   kernel.obj
 0001:0004a828       ?m_Split@Class_System_String@@SIPAUClassVector_Class_System_String@@PAU1@PAUClassVector_bartok_char@@@Z 00c5b828 f   kernel.obj
 0001:0004a850       ?m_Split@Class_System_String@@SIPAUClassVector_Class_System_String@@PAU1@PAUClassVector_bartok_char@@H@Z 00c5b850 f   kernel.obj
 0001:0004aa78       ?m_SetLength@Class_System_String@@SIXPAU1@H@Z 00c5ba78 f   kernel.obj
 0001:0004aaac       ?m_Replace@Class_System_String@@SIPAU1@PAU1@_W1@Z 00c5baac f   kernel.obj
 0001:0004aaf4       ?m_Replace@Class_System_String@@SIXPAU1@_W10@Z 00c5baf4 f   kernel.obj
 0001:0004abb8       ?m_RemoveRange@Class_System_String@@SIXPAU1@HH@Z 00c5bbb8 f   kernel.obj
 0001:0004ac44       ?m_Remove@Class_System_String@@SIPAU1@PAU1@HH@Z 00c5bc44 f   kernel.obj
 0001:0004ad28       ?m_PadRight@Class_System_String@@SIPAU1@PAU1@H_W@Z 00c5bd28 f   kernel.obj
 0001:0004ad54       ?m_PadLeft@Class_System_String@@SIPAU1@PAU1@H_W@Z 00c5bd54 f   kernel.obj
 0001:0004ad80       ?m_PadHelper@Class_System_String@@SIPAU1@PAU1@H_W_N@Z 00c5bd80 f   kernel.obj
 0001:0004ae40       ?g_op$_Inequality@Class_System_String@@SI_NPAU1@0@Z 00c5be40 f   kernel.obj
 0001:0004ae68       ?g_op$_Equality@Class_System_String@@SI_NPAU1@0@Z 00c5be68 f   kernel.obj
 0001:0004ae88       ?m_NullTerminate@Class_System_String@@SIXPAU1@@Z 00c5be88 f   kernel.obj
 0001:0004aecc       ?g_MakeSeparatorList@Class_System_String@@SIHPAU1@PAUClassVector_bartok_char@@PAUClassVector_int32@@H@Z 00c5becc f   kernel.obj
 0001:0004b028       ?g_LimitedFormatTo@Class_System_String@@SIHPAU1@UStruct_System_ArgIterator@@PA_WH@Z 00c5c028 f   kernel.obj
 0001:0004b670       ?m_LastIndexOf@Class_System_String@@SIHPAU1@_W@Z 00c5c670 f   kernel.obj
 0001:0004b6b0       ?m_LastIndexOf@Class_System_String@@SIHPAU1@_WH@Z 00c5c6b0 f   kernel.obj
 0001:0004b6e4       ?m_LastIndexOf@Class_System_String@@SIHPAU1@_WHH@Z 00c5c6e4 f   kernel.obj
 0001:0004b7fc       ?g_Join@Class_System_String@@SIPAU1@PAU1@PAUClassVector_Class_System_String@@@Z 00c5c7fc f   kernel.obj
 0001:0004b860       ?g_Join@Class_System_String@@SIPAU1@PAU1@PAUClassVector_Class_System_String@@HH@Z 00c5c860 f   kernel.obj
 0001:0004bac4       ?m_InternalSetCharNoBoundsCheck@Class_System_String@@SIXPAU1@H_W@Z 00c5cac4 f   kernel.obj
 0001:0004bb10       ?m_InternalLength@Class_System_String@@SIHPAU1@@Z 00c5cb10 f   kernel.obj
 0001:0004bb2c       ?m_InternalGetChars@Class_System_String@@SIHPAU1@PA_WH@Z 00c5cb2c f   kernel.obj
 0001:0004bbb8       ?m_InternalGetChar@Class_System_String@@SI_WPAU1@H@Z 00c5cbb8 f   kernel.obj
 0001:0004bc14       ?m_InternalCopyTo@Class_System_String@@SIXPAU1@HPAUClassVector_bartok_char@@HH@Z 00c5cc14 f   kernel.obj
 0001:0004bcf0       ?g_InternalCopy@Class_System_String@@SIPAU1@PAU1@@Z 00c5ccf0 f   kernel.obj
 0001:0004bd40       ?g_InternalCopy@Class_System_String@@SIXPAU1@PAUClassVector_uint8@@H@Z 00c5cd40 f   kernel.obj
 0001:0004bddc       ?m_InitializeStringLength@Class_System_String@@SIXPAU1@H@Z 00c5cddc f   kernel.obj
 0001:0004be00       ?m_IndexOf@Class_System_String@@SIHPAU1@0@Z 00c5ce00 f   kernel.obj
 0001:0004be3c       ?m_IndexOf@Class_System_String@@SIHPAU1@_W@Z 00c5ce3c f   kernel.obj
 0001:0004be6c       ?m_IndexOf@Class_System_String@@SIHPAU1@_WH@Z 00c5ce6c f   kernel.obj
 0001:0004bea4       ?m_IndexOf@Class_System_String@@SIHPAU1@_WHH@Z 00c5cea4 f   kernel.obj
 0001:0004bfb4       ?g_GetStringForStringBuilder@Class_System_String@@SIPAU1@PAU1@H@Z 00c5cfb4 f   kernel.obj
 0001:0004c044       ?m_GetHashCode@Class_System_String@@SIHPAU1@@Z 00c5d044 f   kernel.obj
 0001:0004c124       ?m_get$_Length@Class_System_String@@SIHPAU1@@Z 00c5d124 f   kernel.obj
 0001:0004c144       ?m_get$_Item@Class_System_String@@SI_WPAU1@H@Z 00c5d144 f   kernel.obj
 0001:0004c164       ?m_get$_Capacity@Class_System_String@@SIHPAU1@@Z 00c5d164 f   kernel.obj
 0001:0004c184       ?m_get$_ArrayLength@Class_System_String@@SIHPAU1@@Z 00c5d184 f   kernel.obj
 0001:0004c1a0       ?g_Format@Class_System_String@@SIPAU1@PAU1@PAUClassVector_Class_System_Object@@@Z 00c5d1a0 f   kernel.obj
 0001:0004c278       ?g_Format@Class_System_String@@SIPAU1@PAU1@PAUClass_System_Object@@@Z 00c5d278 f   kernel.obj
 0001:0004c2c8       ?g_Format@Class_System_String@@SIPAU1@PAU1@PAUClass_System_Object@@1@Z 00c5d2c8 f   kernel.obj
 0001:0004c330       ?g_Format@Class_System_String@@SIPAU1@PAU1@PAUClass_System_Object@@11@Z 00c5d330 f   kernel.obj
 0001:0004c3ac       ?g_FillSubstring@Class_System_String@@SIXPAU1@H0HH@Z 00c5d3ac f   kernel.obj
 0001:0004c40c       ?g_FillStringEx@Class_System_String@@SIXPAU1@H0H@Z 00c5d40c f   kernel.obj
 0001:0004c454       ?g_FillStringChecked@Class_System_String@@SIXPAU1@H0@Z 00c5d454 f   kernel.obj
 0001:0004c4e0       ?g_FillStringCharPtr@Class_System_String@@SIXPAU1@HPA_WH@Z 00c5d4e0 f   kernel.obj
 0001:0004c53c       ?g_FillStringChar@Class_System_String@@SIXPAU1@H_WH@Z 00c5d53c f   kernel.obj
 0001:0004c624       ?g_FillStringBytePtr@Class_System_String@@SIXPAU1@HPAEH@Z 00c5d624 f   kernel.obj
 0001:0004c6d4       ?g_FillStringArray@Class_System_String@@SIXPAU1@HPAUClassVector_bartok_char@@HH@Z 00c5d6d4 f   kernel.obj
 0001:0004c730       ?g_FillString@Class_System_String@@SIXPAU1@H0@Z 00c5d730 f   kernel.obj
 0001:0004c780       ?g_FastAllocateString@Class_System_String@@SIPAU1@H@Z 00c5d780 f   kernel.obj
 0001:0004c80c       ?g_Equals@Class_System_String@@SI_NPAU1@0@Z 00c5d80c f   kernel.obj
 0001:0004c850       ?m_Equals@Class_System_String@@SI_NPAU1@0@Z 00c5d850 f   kernel.obj
 0001:0004c90c       ?m_Equals@Class_System_String@@SI_NPAU1@PAUClass_System_Object@@@Z 00c5d90c f   kernel.obj
 0001:0004c958       ?m_EndsWith@Class_System_String@@SI_NPAU1@0@Z 00c5d958 f   kernel.obj
 0001:0004c9fc       ?g_CountDigits@Class_System_String@@SIH_KI@Z 00c5d9fc f   kernel.obj
 0001:0004cab4       ?m_CopyTo@Class_System_String@@SIXPAU1@HPAUClassVector_bartok_char@@HH@Z 00c5dab4 f   kernel.obj
 0001:0004cc0c       ?g_ConcatArray@Class_System_String@@SIPAU1@PAUClassVector_Class_System_String@@H@Z 00c5dc0c f   kernel.obj
 0001:0004cd14       ?g_Concat@Class_System_String@@SIPAU1@PAUClassVector_Class_System_String@@@Z 00c5dd14 f   kernel.obj
 0001:0004ce1c       ?g_Concat@Class_System_String@@SIPAU1@PAUClassVector_Class_System_Object@@@Z 00c5de1c f   kernel.obj
 0001:0004cf38       ?g_Concat@Class_System_String@@SIPAU1@PAU1@0@Z 00c5df38 f   kernel.obj
 0001:0004cfc0       ?g_Concat@Class_System_String@@SIPAU1@PAU1@00@Z 00c5dfc0 f   kernel.obj
 0001:0004d0d4       ?g_Concat@Class_System_String@@SIPAU1@PAU1@000@Z 00c5e0d4 f   kernel.obj
 0001:0004d240       ?g_Concat@Class_System_String@@SIPAU1@PAUClass_System_Object@@@Z 00c5e240 f   kernel.obj
 0001:0004d26c       ?g_Concat@Class_System_String@@SIPAU1@PAUClass_System_Object@@0@Z 00c5e26c f   kernel.obj
 0001:0004d2c4       ?g_Concat@Class_System_String@@SIPAU1@PAUClass_System_Object@@00@Z 00c5e2c4 f   kernel.obj
 0001:0004d344       ?m_CompareTo@Class_System_String@@SIHPAU1@0@Z 00c5e344 f   kernel.obj
 0001:0004d38c       ?m_CompareTo@Class_System_String@@SIHPAU1@PAUClass_System_Object@@@Z 00c5e38c f   kernel.obj
 0001:0004d404       ?g_Compare@Class_System_String@@SIHPAU1@H0HH@Z 00c5e404 f   kernel.obj
 0001:0004d4b4       ?g_Compare@Class_System_String@@SIHPAU1@H0HH_N@Z 00c5e4b4 f   kernel.obj
 0001:0004d5a0       ?g_Compare@Class_System_String@@SIHPAU1@0@Z 00c5e5a0 f   kernel.obj
 0001:0004d5e0       ?g_Compare@Class_System_String@@SIHPAU1@0_N@Z 00c5e5e0 f   kernel.obj
 0001:0004d64c       ?m_ClearPostNullChar@Class_System_String@@SIXPAU1@@Z 00c5e64c f   kernel.obj
 0001:0004d6a4       ?g_ArrayContains@Class_System_String@@SIH_WPAUClassVector_bartok_char@@@Z 00c5e6a4 f   kernel.obj
 0001:0004d710       ?m_AppendInPlace@Class_System_String@@SIXPAU1@PAUClassVector_bartok_char@@HHH@Z 00c5e710 f   kernel.obj
 0001:0004d798       ?m_AppendInPlace@Class_System_String@@SIXPAU1@0H@Z 00c5e798 f   kernel.obj
 0001:0004d814       ?m_AppendInPlace@Class_System_String@@SIXPAU1@0HHH@Z 00c5e814 f   kernel.obj
 0001:0004d8cc       ?m_AppendInPlace@Class_System_String@@SIXPAU1@_WH@Z 00c5e8cc f   kernel.obj
 0001:0004d94c       ?m_AppendInPlace@Class_System_String@@SIXPAU1@_WHH@Z 00c5e94c f   kernel.obj
 0001:0004da0c       ?g_AddString@Class_System_String@@SIPA_WPA_W00HH@Z 00c5ea0c f   kernel.obj
 0001:0004dae8       ?g_AddString@Class_System_String@@SIPA_WPA_W0PAU1@H@Z 00c5eae8 f   kernel.obj
 0001:0004db34       ?g_AddNumber@Class_System_String@@SIPA_WPA_W0_KHI_W2@Z 00c5eb34 f   kernel.obj
 0001:0004dd94       ?g_AddChar@Class_System_String@@SIPA_WPA_W0_WH@Z 00c5ed94 f   kernel.obj
 0001:0004de44       ?g__cctor@Class_System_String@@SIXXZ 00c5ee44 f   kernel.obj
 0001:0004de58       ?m_Finalize@Class__Directory_Contracts_Microsoft_Singularity_Channels_TRef$_2$LMicrosoft_Singularity_Directory_ServiceProviderContract_Exp_Microsoft_Singularity_Directory_ServiceProviderContract_Start$G@@SIXPAU1@@Z 00c5ee58 f   kernel.obj
 0001:0004dee0       ?m_Acquire@Class__Directory_Contracts_Microsoft_Singularity_Channels_TRef$_2$LMicrosoft_Singularity_Directory_ServiceProviderContract_Exp_Microsoft_Singularity_Directory_ServiceProviderContract_Start$G@@SIPAUStruct_Microsoft_Singularity_Directory_ServiceProviderContract_Exp@@PAU1@@Z 00c5eee0 f   kernel.obj
 0001:0004e004       ?m__ctor@Class__Directory_Contracts_Microsoft_Singularity_Channels_TRef$_2$LMicrosoft_Singularity_Directory_ServiceProviderContract_Exp_Microsoft_Singularity_Directory_ServiceProviderContract_Start$G@@SIXPAU1@PAUStruct_Microsoft_Singularity_Directory_ServiceProviderContract_Exp@@@Z 00c5f004 f   kernel.obj
 0001:0004e150       ?m_InvokeStaticStub@Class_System_TryAllManager_GCHookMethod@@SIXPAU1@@Z 00c5f150 f   kernel.obj
 0001:0004e170       ?m_Invoke@Class_System_TryAllManager_GCHookMethod@@SIXPAU1@@Z 00c5f170 f   kernel.obj
 0001:0004e1ac       ?m_EndInvoke@Class_System_TryAllManager_GCHookMethod@@SIXPAU1@PAUClass_System_IAsyncResult@@@Z 00c5f1ac f   kernel.obj
 0001:0004e1c8       ?m_BeginInvoke@Class_System_TryAllManager_GCHookMethod@@SIPAUClass_System_IAsyncResult@@PAU1@PAUClass_System_AsyncCallback@@PAUClass_System_Object@@@Z 00c5f1c8 f   kernel.obj
 0001:0004e1e8       ?m__ctor@Class_System_TryAllManager_GCHookMethod@@SIXPAU1@PAUClass_System_Object@@PAUintPtr@@@Z 00c5f1e8 f   kernel.obj
 0001:0004e22c       ?m_StructCopy@Struct_Microsoft_Singularity_Isal_IX_PDE@@SIXPAU1@0@Z 00c5f22c f   kernel.obj
 0001:0004e258       ?m_StructCopy@Struct_Microsoft_Singularity_Isal_IX_PDE@@SIXPAU1@PAU1@@Z 00c5f258 f   kernel.obj
 0001:0004e2dc       ?m_set$_Writeable@Struct_Microsoft_Singularity_Isal_IX_PDE@@SIXPAU1@_N@Z 00c5f2dc f   kernel.obj
 0001:0004e318       ?m_set$_Valid@Struct_Microsoft_Singularity_Isal_IX_PDE@@SIXPAU1@_N@Z 00c5f318 f   kernel.obj
 0001:0004e354       ?m_set$_User@Struct_Microsoft_Singularity_Isal_IX_PDE@@SIXPAU1@_N@Z 00c5f354 f   kernel.obj
 0001:0004e390       ?m_set$_Address@Struct_Microsoft_Singularity_Isal_IX_PDE@@SIXPAU1@_K@Z 00c5f390 f   kernel.obj
 0001:0004e408       ?m_Init@Struct_Microsoft_Singularity_Isal_IX_PDE@@SIXPAU1@@Z 00c5f408 f   kernel.obj
 0001:0004e430       ?m_get$_Valid@Struct_Microsoft_Singularity_Isal_IX_PDE@@SI_NPAU1@@Z 00c5f430 f   kernel.obj
 0001:0004e460       ?m_get$_User@Struct_Microsoft_Singularity_Isal_IX_PDE@@SI_NPAU1@@Z 00c5f460 f   kernel.obj
 0001:0004e490       ?m_get$_Address@Struct_Microsoft_Singularity_Isal_IX_PDE@@SI_KPAU1@@Z 00c5f490 f   kernel.obj
 0001:0004e4b8       ?m_Equals@Struct_Microsoft_Singularity_Isal_IX_PDE@@SI_NPAU1@PAUClass_System_Object@@@Z 00c5f4b8 f   kernel.obj
 0001:0004e510       ?m_Equals@Struct_Microsoft_Singularity_Isal_IX_PDE@@SI_NPAUClass_Microsoft_Singularity_Isal_IX_PDE@@PAUClass_System_Object@@@Z 00c5f510 f   kernel.obj
 0001:0004e534       ?m_Accept@Class_Microsoft_Singularity_Hal_Acpi_AmlParser_DefNotify@@SIXPAU1@PAUClass_Microsoft_Singularity_Hal_Acpi_AmlParserNodeVisitor@@@Z 00c5f534 f   kernel.obj
 0001:0004e564       ?m__ctor@Class_Microsoft_Singularity_Hal_Acpi_AmlParser_DefNotify@@SIXPAU1@@Z 00c5f564 f   kernel.obj
 0001:0004e584       ?m__ctor@Class_System_IndexOutOfRangeException@@SIXPAU1@@Z 00c5f584 f   kernel.obj
 0001:0004e5a8       ?m__ctor@Class_System_IndexOutOfRangeException@@SIXPAU1@PAUClass_System_String@@@Z 00c5f5a8 f   kernel.obj
 0001:0004e5c8       ?m__ctor@Class_System_IndexOutOfRangeException@@SIXPAU1@PAUClass_System_String@@PAUClass_System_Exception@@@Z 00c5f5c8 f   kernel.obj
 0001:0004e5f0       ?g_Min@Class_System_Math@@SIIII@Z 00c5f5f0 f   kernel.obj
 0001:0004e618       ?g_Min@Class_System_Math@@SI_J_J0@Z 00c5f618 f   kernel.obj
 0001:0004e654       ?g_Min@Class_System_Math@@SIHHH@Z 00c5f654 f   kernel.obj
 0001:0004e67c       ?g_Max@Class_System_Math@@SIHHH@Z 00c5f67c f   kernel.obj
 0001:0004e6a4       ?m__ctor@Class_System_Math@@SIXPAU1@@Z 00c5f6a4 f   kernel.obj
 0001:0004e6bc       ?g__cctor@Class_System_Math@@SIXXZ 00c5f6bc f   kernel.obj
 0001:0004e6f8       ?m_StructCopy@Struct_Microsoft_Singularity_V1_Types_SystemType@@SIXPAU1@0@Z 00c5f6f8 f   kernel.obj
 0001:0004e718       ?m_StructCopy@Struct_Microsoft_Singularity_V1_Types_SystemType@@SIXPAU1@PAU1@@Z 00c5f718 f   kernel.obj
 0001:0004e778       ?g_RootSystemType$_@Struct_Microsoft_Singularity_V1_Types_SystemType@@SI?AU1@XZ 00c5f778 f   kernel.obj
 0001:0004e7cc       ?g_RootSystemType@Struct_Microsoft_Singularity_V1_Types_SystemType@@SI?AU1@XZ 00c5f7cc f   kernel.obj
 0001:0004ec64       ?g_Register$_@Struct_Microsoft_Singularity_V1_Types_SystemType@@SI?AU1@PA_WH_J1U1@@Z 00c5fc64 f   kernel.obj
 0001:0004ecac       ?g_Register@Struct_Microsoft_Singularity_V1_Types_SystemType@@SI?AU1@PA_WH_J1U1@@Z 00c5fcac f   kernel.obj
 0001:0004f174       ?g_Register@Struct_Microsoft_Singularity_V1_Types_SystemType@@SI?AU1@PAUClass_System_String@@_J1U1@@Z 00c60174 f   kernel.obj
 0001:0004f204       ?g_IsSubtype$_@Struct_Microsoft_Singularity_V1_Types_SystemType@@SI_NPAUStruct_Microsoft_Singularity_V1_Services_SharedHeapService_Allocation@@U1@@Z 00c60204 f   kernel.obj
 0001:0004f238       ?g_IsSubtype$_@Struct_Microsoft_Singularity_V1_Types_SystemType@@SI_NU1@0@Z 00c60238 f   kernel.obj
 0001:0004f258       ?g_IsSubtype@Struct_Microsoft_Singularity_V1_Types_SystemType@@SI_NPAUStruct_Microsoft_Singularity_V1_Services_SharedHeapService_Allocation@@U1@@Z 00c60258 f   kernel.obj
 0001:0004f708       ?g_IsSubtype@Struct_Microsoft_Singularity_V1_Types_SystemType@@SI_NPAUStruct_Microsoft_Singularity_Memory_SharedHeap_Allocation@@U1@@Z 00c60708 f   kernel.obj
 0001:0004f73c       ?g_IsSubtype@Struct_Microsoft_Singularity_V1_Types_SystemType@@SI_NPAUuintPtr@@0@Z 00c6073c f   kernel.obj
 0001:0004f7c8       ?g_IsSubtype@Struct_Microsoft_Singularity_V1_Types_SystemType@@SI_NU1@0@Z 00c607c8 f   kernel.obj
 0001:0004fc78       ?g_IsNull@Struct_Microsoft_Singularity_V1_Types_SystemType@@SI_NU1@@Z 00c60c78 f   kernel.obj
 0001:0004fc98       ?m_get$_TypeId@Struct_Microsoft_Singularity_V1_Types_SystemType@@SIPAUuintPtr@@PAU1@@Z 00c60c98 f   kernel.obj
 0001:0004fcb4       ?m_Equals@Struct_Microsoft_Singularity_V1_Types_SystemType@@SI_NPAU1@PAUClass_System_Object@@@Z 00c60cb4 f   kernel.obj
 0001:0004fcf0       ?m_Equals@Struct_Microsoft_Singularity_V1_Types_SystemType@@SI_NPAUClass_Microsoft_Singularity_V1_Types_SystemType@@PAUClass_System_Object@@@Z 00c60cf0 f   kernel.obj
 0001:0004fd14       ?m__ctor@Struct_Microsoft_Singularity_V1_Types_SystemType@@SIXPAU1@PAUuintPtr@@@Z 00c60d14 f   kernel.obj
 0001:0004fd34       ?g_StableState@Class_Microsoft_Singularity_Io_DeviceContract@@SIHPAUStruct_Microsoft_Singularity_Channels_StateStack@@@Z 00c60d34 f   kernel.obj
 0001:0004fd98       ?m__ctor@Class_Microsoft_Singularity_Io_DeviceContract@@SIXPAUClass_Microsoft_Singularity_Io_ConsoleDeviceContract@@@Z 00c60d98 f   kernel.obj
 0001:0004fdb0       ?m__ctor@Class_System_GCs_Verifier@@SIXPAU1@PAUClass_System_GCs_NonNullReferenceVisitor@@1PAUClass_System_GCs_ObjectLayout_ObjectVisitor@@PAUClass_System_GCs_Verifier_GenericStackVerifier@@@Z 00c60db0 f   kernel.obj
 0001:0004fe10       ?g__cctor@Class_System_GCs_Verifier@@SIXXZ 00c60e10 f   kernel.obj
 0001:0004ff4c       ?m_StructCopy@Struct_Microsoft_Singularity_Isal_IX_PDT@@SIXPAU1@0@Z 00c60f4c f   kernel.obj
 0001:0004ff70       ?m_StructCopy@Struct_Microsoft_Singularity_Isal_IX_PDT@@SIXPAU1@PAU1@@Z 00c60f70 f   kernel.obj
 0001:0004ffdc       ?m_Init@Struct_Microsoft_Singularity_Isal_IX_PDT@@SIXPAU1@@Z 00c60fdc f   kernel.obj
 0001:0005006c       ?m_get$_Item@Struct_Microsoft_Singularity_Isal_IX_PDT@@SIPAUStruct_Microsoft_Singularity_Isal_IX_PDE@@PAU1@I@Z 00c6106c f   kernel.obj
 0001:000500d8       ?m_Equals@Struct_Microsoft_Singularity_Isal_IX_PDT@@SI_NPAU1@PAUClass_System_Object@@@Z 00c610d8 f   kernel.obj
 0001:00050178       ?m_Equals@Struct_Microsoft_Singularity_Isal_IX_PDT@@SI_NPAUClass_Microsoft_Singularity_Isal_IX_PDT@@PAUClass_System_Object@@@Z 00c61178 f   kernel.obj
 0001:0005019c       ?m_Accept@Class_Microsoft_Singularity_Hal_Acpi_AmlParser_ReservedField@@SIXPAU1@PAUClass_Microsoft_Singularity_Hal_Acpi_AmlParserNodeVisitor@@@Z 00c6119c f   kernel.obj
 0001:000501c8       ?m__ctor@Class_Microsoft_Singularity_Hal_Acpi_AmlParser_ReservedField@@SIXPAU1@@Z 00c611c8 f   kernel.obj
 0001:000501e8       ?m_ToArray@Class_Microsoft_Singularity_Hal_Acpi_AmlParser_AmlObjectList@@SIPAUClassVector_Class_Microsoft_Singularity_Hal_Acpi_AmlParserUnions_AmlObject@@PAU1@@Z 00c611e8 f   kernel.obj
 0001:00050230       ?m_Add@Class_Microsoft_Singularity_Hal_Acpi_AmlParser_AmlObjectList@@SIXPAU1@PAUClass_Microsoft_Singularity_Hal_Acpi_AmlParserUnions_AmlObject@@@Z 00c61230 f   kernel.obj
 0001:00050258       ?m__ctor@Class_Microsoft_Singularity_Hal_Acpi_AmlParser_AmlObjectList@@SIXPAU1@@Z 00c61258 f   kernel.obj
 0001:000502a0       ?m__ctor@Class_Microsoft_Contracts_UnreachableException@@SIXPAU1@@Z 00c612a0 f   kernel.obj
 0001:000502c0       ?m_Visit@Class_System_GCs_MemoryAccounting_InstanceReckoner@@SIPAUuintPtr@@PAU1@PAUClass_System_Object@@@Z 00c612c0 f   kernel.obj
 0001:00050324       ?m__ctor@Class_System_GCs_MemoryAccounting_InstanceReckoner@@SIXPAU1@@Z 00c61324 f   kernel.obj
 0001:00050344       ?g_Unlock@Struct_Microsoft_Singularity_Memory_SharedHeap_AllocationOwner@@SIXPAU1@_N@Z 00c61344 f   kernel.obj
 0001:0005043c       ?m_StructCopy@Struct_Microsoft_Singularity_Memory_SharedHeap_AllocationOwner@@SIXPAU1@0@Z 00c6143c f   kernel.obj
 0001:00050478       ?m_StructCopy@Struct_Microsoft_Singularity_Memory_SharedHeap_AllocationOwner@@SIXPAU1@PAU1@@Z 00c61478 f   kernel.obj
 0001:0005052c       ?g_ReuseOrCreateOwner@Struct_Microsoft_Singularity_Memory_SharedHeap_AllocationOwner@@SIXPAUClass_Microsoft_Singularity_Memory_SharedHeap@@PAUStruct_Microsoft_Singularity_Memory_SharedHeap_AllocationOwnerId@@@Z 00c6152c f   kernel.obj
 0001:00050640       ?g_Lock@Struct_Microsoft_Singularity_Memory_SharedHeap_AllocationOwner@@SI_NPAU1@@Z 00c61640 f   kernel.obj
 0001:00050788       ?g_IterateMatchingForModify@Struct_Microsoft_Singularity_Memory_SharedHeap_AllocationOwner@@SIXUStruct_Microsoft_Singularity_Memory_SharedHeap_AllocationOwnerId@@PAUClass_Microsoft_Singularity_Memory_SharedHeap_AllocationMatches@@PAUClass_Microsoft_Singularity_Memory_SharedHeap_AllocationVisitor@@@Z 00c61788 f   kernel.obj
 0001:0005090c       ?g_Iterate@Struct_Microsoft_Singularity_Memory_SharedHeap_AllocationOwner@@SIXPAU1@PAUClass_Microsoft_Singularity_Memory_SharedHeap_AllocationVisitor@@@Z 00c6190c f   kernel.obj
 0001:000509a8       ?m_Equals@Struct_Microsoft_Singularity_Memory_SharedHeap_AllocationOwner@@SI_NPAU1@PAUClass_System_Object@@@Z 00c619a8 f   kernel.obj
 0001:00050a7c       ?m_Equals@Struct_Microsoft_Singularity_Memory_SharedHeap_AllocationOwner@@SI_NPAUClass_Microsoft_Singularity_Memory_SharedHeap_AllocationOwner@@PAUClass_System_Object@@@Z 00c61a7c f   kernel.obj
 0001:00050aa0       ?m__ctor@Class_System_ReadEnlistmentLog_LogChunk@@SIXPAU1@PAUClassVector_Struct_System_ReadEnlistmentLog_Entry@@0@Z 00c61aa0 f   kernel.obj
 0001:00050acc       ?m_Accept@Class_Microsoft_Singularity_Hal_Acpi_AmlParser_Divisor@@SIXPAU1@PAUClass_Microsoft_Singularity_Hal_Acpi_AmlParserNodeVisitor@@@Z 00c61acc f   kernel.obj
 0001:00050afc       ?m__ctor@Class_Microsoft_Singularity_Hal_Acpi_AmlParser_Divisor@@SIXPAU1@@Z 00c61afc f   kernel.obj
 0001:00050b1c       ?m_InvokeStaticStub@Class_Microsoft_Singularity_Eventing_QueryEntryDelegate@@SI_NPAU1@PAUClass_Microsoft_Singularity_Eventing_EventDescriptor@@PAUClass_Microsoft_Singularity_Eventing_QueryBuffer@@PAPAUClass_Microsoft_Singularity_Eventing_EnumerationContext@@@Z 00c61b1c f   kernel.obj
 0001:00050b54       ?m_Invoke@Class_Microsoft_Singularity_Eventing_QueryEntryDelegate@@SI_NPAU1@PAUClass_Microsoft_Singularity_Eventing_EventDescriptor@@PAUClass_Microsoft_Singularity_Eventing_QueryBuffer@@PAPAUClass_Microsoft_Singularity_Eventing_EnumerationContext@@@Z 00c61b54 f   kernel.obj
 0001:00050ba8       ?m_EndInvoke@Class_Microsoft_Singularity_Eventing_QueryEntryDelegate@@SI_NPAU1@PAPAUClass_Microsoft_Singularity_Eventing_EnumerationContext@@PAUClass_System_IAsyncResult@@@Z 00c61ba8 f   kernel.obj
 0001:00050bc8       ?m_BeginInvoke@Class_Microsoft_Singularity_Eventing_QueryEntryDelegate@@SIPAUClass_System_IAsyncResult@@PAU1@PAUClass_Microsoft_Singularity_Eventing_EventDescriptor@@PAUClass_Microsoft_Singularity_Eventing_QueryBuffer@@PAPAUClass_Microsoft_Singularity_Eventing_EnumerationContext@@PAUClass_System_AsyncCallback@@PAUClass_System_Object@@@Z 00c61bc8 f   kernel.obj
 0001:00050be8       ?m__ctor@Class_Microsoft_Singularity_Eventing_QueryEntryDelegate@@SIXPAU1@PAUClass_System_Object@@PAUintPtr@@@Z 00c61be8 f   kernel.obj
 0001:00050c2c       ?m_Accept@Class_Microsoft_Singularity_Hal_Acpi_AmlParser_DefLGreater@@SIXPAU1@PAUClass_Microsoft_Singularity_Hal_Acpi_AmlParserNodeVisitor@@@Z 00c61c2c f   kernel.obj
 0001:00050c5c       ?m__ctor@Class_Microsoft_Singularity_Hal_Acpi_AmlParser_DefLGreater@@SIXPAU1@@Z 00c61c5c f   kernel.obj
 0001:00050c7c       ?m_Callback@Class_Microsoft_Singularity_Processor_ResumeThreadCallback@@SIPAUuintPtr@@PAU1@PAU2@@Z 00c61c7c f   kernel.obj
 0001:00050ce8       ?m__ctor@Class_Microsoft_Singularity_Processor_ResumeThreadCallback@@SIXPAU1@@Z 00c61ce8 f   kernel.obj
 0001:00050d08       ?m_StructCopy@Struct_System_GCs_SegregatedFreeList_TempList@@SIXPAU1@0@Z 00c61d08 f   kernel.obj
 0001:00050d28       ?m_StructCopy@Struct_System_GCs_SegregatedFreeList_TempList@@SIXPAU1@PAU1@@Z 00c61d28 f   kernel.obj
 0001:00050d88       ?m_GetList@Struct_System_GCs_SegregatedFreeList_TempList@@SIPAUuintPtr@@PAU1@@Z 00c61d88 f   kernel.obj
 0001:00050db4       ?m_Equals@Struct_System_GCs_SegregatedFreeList_TempList@@SI_NPAU1@PAUClass_System_Object@@@Z 00c61db4 f   kernel.obj
 0001:00050df0       ?m_Equals@Struct_System_GCs_SegregatedFreeList_TempList@@SI_NPAUClass_System_GCs_SegregatedFreeList_TempList@@PAUClass_System_Object@@@Z 00c61df0 f   kernel.obj
 0001:00050e14       ?m_Add@Struct_System_GCs_SegregatedFreeList_TempList@@SIXPAU1@PAUuintPtr@@@Z 00c61e14 f   kernel.obj
 0001:00050e38       ?m_StructCopy@Struct_Microsoft_Singularity_Kd_Ia64KdControlSet@@SIXPAU1@0@Z 00c61e38 f   kernel.obj
 0001:00050e7c       ?m_StructCopy@Struct_Microsoft_Singularity_Kd_Ia64KdControlSet@@SIXPAU1@PAU1@@Z 00c61e7c f   kernel.obj
 0001:00050f48       ?m_Equals@Struct_Microsoft_Singularity_Kd_Ia64KdControlSet@@SI_NPAU1@PAUClass_System_Object@@@Z 00c61f48 f   kernel.obj
 0001:00050fd8       ?m_Equals@Struct_Microsoft_Singularity_Kd_Ia64KdControlSet@@SI_NPAUClass_Microsoft_Singularity_Kd_Ia64KdControlSet@@PAUClass_System_Object@@@Z 00c61fd8 f   kernel.obj
 0001:00050ffc       ?m__ctor@Class_Microsoft_Singularity_Hal_Acpi_AmlToStackIRException@@SIXPAU1@@Z 00c61ffc f   kernel.obj
 0001:0005101c       ?m_Finalize@Class_Microsoft_Singularity_Io_ExtensionDevice@@SIXPAU1@@Z 00c6201c f   kernel.obj
 0001:000511c8       ?m_Activate@Class_Microsoft_Singularity_Io_ExtensionDevice@@SI_NPAU1@@Z 00c621c8 f   kernel.obj
 0001:00052178       ?m__ctor@Class_Microsoft_Singularity_Io_ExtensionDevice@@SIXPAU1@PAUClass_Microsoft_Singularity_Io_Driver@@PAUClass_Microsoft_Singularity_Io_DeviceNode@@@Z 00c63178 f   kernel.obj
 0001:00052204       ?g__cctor@Class_Microsoft_Singularity_Io_ExtensionDevice@@SIXXZ 00c63204 f   kernel.obj
 0001:000522d4       ?m_StructCopy@Struct_Microsoft_Singularity_Io_ChannelDeliveryContract_Imp@@SIXPAU1@0@Z 00c632d4 f   kernel.obj
 0001:00052384       ?m_StructCopy@Struct_Microsoft_Singularity_Io_ChannelDeliveryContract_Imp@@SIXPAU1@PAU1@@Z 00c63384 f   kernel.obj
 0001:00052594       ?m_Peek@Struct_Microsoft_Singularity_Io_ChannelDeliveryContract_Imp@@SIHPAU1@@Z 00c63594 f   kernel.obj
 0001:00052638       ?m_MarshallDeliverReady0@Struct_Microsoft_Singularity_Io_ChannelDeliveryContract_Imp@@SIXPAU1@PAUStruct_Microsoft_Singularity_Channels_Endpoint@@@Z 00c63638 f   kernel.obj
 0001:00052670       ?m_HeadMatches@Struct_Microsoft_Singularity_Io_ChannelDeliveryContract_Imp@@SI_NPAU1@HPA_NPAPAUClass_System_Object@@@Z 00c63670 f   kernel.obj
 0001:00052710       ?m_HeadMatches@Struct_Microsoft_Singularity_Io_ChannelDeliveryContract_Imp@@SI_NPAUClass_Microsoft_Singularity_Io_ChannelDeliveryContract_Imp@@HPA_NPAPAUClass_System_Object@@@Z 00c63710 f   kernel.obj
 0001:0005273c       ?m_Equals@Struct_Microsoft_Singularity_Io_ChannelDeliveryContract_Imp@@SI_NPAU1@PAUClass_System_Object@@@Z 00c6373c f   kernel.obj
 0001:000529dc       ?m_Equals@Struct_Microsoft_Singularity_Io_ChannelDeliveryContract_Imp@@SI_NPAUClass_Microsoft_Singularity_Io_ChannelDeliveryContract_Imp@@PAUClass_System_Object@@@Z 00c639dc f   kernel.obj
 0001:00052a00       ?m_DeliverReady0@Struct_Microsoft_Singularity_Io_ChannelDeliveryContract_Imp@@SIXPAU1@@Z 00c63a00 f   kernel.obj
 0001:00052a2c       ?m_Accept@Class_Microsoft_Singularity_Hal_Acpi_AmlParser_DefMatch@@SIXPAU1@PAUClass_Microsoft_Singularity_Hal_Acpi_AmlParserNodeVisitor@@@Z 00c63a2c f   kernel.obj
 0001:00052a5c       ?m__ctor@Class_Microsoft_Singularity_Hal_Acpi_AmlParser_DefMatch@@SIXPAU1@@Z 00c63a5c f   kernel.obj
 0001:00052a7c       ?g_Yield@Class_System_Threading_Thread@@SIXXZ 00c63a7c f   kernel.obj
 0001:00052ab4       ?m_WaitUntilReadyForContextSwitch@Class_System_Threading_Thread@@SIXPAU1@@Z 00c63ab4 f   kernel.obj
 0001:00052afc       ?g_WaitForGCEvent@Class_System_Threading_Thread@@SIXH@Z 00c63afc f   kernel.obj
 0001:00052b4c       ?g_WaitForGCEvent@Class_System_Threading_Thread@@SIXHUStruct_System_SchedulerTime@@@Z 00c63b4c f   kernel.obj
 0001:00052c84       ?m_WaitForEvent@Class_System_Threading_Thread@@SI_NPAU1@UStruct_System_TimeSpan@@@Z 00c63c84 f   kernel.obj
 0001:00052cbc       ?m_WaitAny@Class_System_Threading_Thread@@SIHPAU1@PAUClassVector_Class_System_Threading_WaitHandle@@HUStruct_System_SchedulerTime@@@Z 00c63cbc f   kernel.obj
 0001:00052cf4       ?g_VisitBootstrapData@Class_System_Threading_Thread@@SIXPAUClass_System_GCs_ReferenceVisitor@@@Z 00c63cf4 f   kernel.obj
 0001:00052d28       ?m_Unblock@Class_System_Threading_Thread@@SIHPAU1@H@Z 00c63d28 f   kernel.obj
 0001:00052e34       ?m_TurnOnInsideOfContextSwitch@Class_System_Threading_Thread@@SIXPAU1@@Z 00c63e34 f   kernel.obj
 0001:00052e60       ?m_TurnOffInsideOfContextSwitch@Class_System_Threading_Thread@@SIXPAU1@@Z 00c63e60 f   kernel.obj
 0001:00052e8c       ?m_TryChangeSchedulerState@Class_System_Threading_Thread@@SI_NPAU1@UStruct_System_Threading_ThreadState@@UStruct_System_Threading_Thread_SchedulerInfo@@@Z 00c63e8c f   kernel.obj
 0001:00052f30       ?g_ThreadStub@Class_System_Threading_Thread@@SIXH@Z 00c63f30 f   kernel.obj
 0001:00053194       ?m_Suspend@Class_System_Threading_Thread@@SIXPAU1@_N@Z 00c64194 f   kernel.obj
 0001:000531cc       ?m_StopSuspended@Class_System_Threading_Thread@@SIXPAU1@@Z 00c641cc f   kernel.obj
 0001:000532b0       ?m_StartRunningThread@Class_System_Threading_Thread@@SIXPAU1@@Z 00c642b0 f   kernel.obj
 0001:00053330       ?m_Start@Class_System_Threading_Thread@@SIXPAU1@@Z 00c64330 f   kernel.obj
 0001:00053360       ?g_SpinWait@Class_System_Threading_Thread@@SIXH@Z 00c64360 f   kernel.obj
 0001:000533a4       ?g_Sleep@Class_System_Threading_Thread@@SIXUStruct_System_TimeSpan@@@Z 00c643a4 f   kernel.obj
 0001:0005344c       ?g_Sleep@Class_System_Threading_Thread@@SIXUStruct_System_SchedulerTime@@@Z 00c6444c f   kernel.obj
 0001:00053494       ?g_Sleep@Class_System_Threading_Thread@@SIXH@Z 00c64494 f   kernel.obj
 0001:000534f0       ?g_SignalGCEvent@Class_System_Threading_Thread@@SIXH@Z 00c644f0 f   kernel.obj
 0001:00053518       ?g_SignalGCEvent@Class_System_Threading_Thread@@SIXHH@Z 00c64518 f   kernel.obj
 0001:00053610       ?m_SignalEvent@Class_System_Threading_Thread@@SIXPAU1@@Z 00c64610 f   kernel.obj
 0001:00053634       ?m_ShouldStop@Class_System_Threading_Thread@@SI_NPAU1@@Z 00c64634 f   kernel.obj
 0001:0005366c       ?m_ShouldCallSchedulerUnBlock@Class_System_Threading_Thread@@SI_NPAU1@H@Z 00c6466c f   kernel.obj
 0001:000536bc       ?g_SetThreadLocalValue@Class_System_Threading_Thread@@SIXPAUuintPtr@@@Z 00c646bc f   kernel.obj
 0001:000536e4       ?m_SetMainThreadRunning@Class_System_Threading_Thread@@SIXPAU1@@Z 00c646e4 f   kernel.obj
 0001:0005372c       ?m_SetKernelMode@Class_System_Threading_Thread@@SIXPAU1@@Z 00c6472c f   kernel.obj
 0001:00053754       ?m_SetAffinity@Class_System_Threading_Thread@@SIXPAU1@H@Z 00c64754 f   kernel.obj
 0001:00053780       ?m_set$_Type@Class_System_Threading_Thread@@SIXPAU1@UStruct_System_Threading_Thread_ThreadType@@@Z 00c64780 f   kernel.obj
 0001:000537a4       ?m_set$_Dispatcher@Class_System_Threading_Thread@@SIXPAU1@PAUClass_Microsoft_Singularity_Scheduling_ProcessorDispatcher@@@Z 00c647a4 f   kernel.obj
 0001:000537cc       ?m_ServiceStopped@Class_System_Threading_Thread@@SIXPAU1@@Z 00c647cc f   kernel.obj
 0001:00053fdc       ?m_Resume@Class_System_Threading_Thread@@SIXPAU1@@Z 00c64fdc f   kernel.obj
 0001:00054010       ?m_PushSelectSyncHandles@Class_System_Threading_Thread@@SIXPAU1@PAUClassVector_Struct_Microsoft_Singularity_V1_Threads_SyncHandle@@@Z 00c65010 f   kernel.obj
 0001:00054078       ?m_PushSelectObjects@Class_System_Threading_Thread@@SIXPAU1@PAUClassVector_Class_Microsoft_Singularity_Channels_ISelectable@@@Z 00c65078 f   kernel.obj
 0001:000540fc       ?m_PushSelectBools@Class_System_Threading_Thread@@SIXPAU1@PAUClassVector_bool@@@Z 00c650fc f   kernel.obj
 0001:00054124       ?m_ProcessAbortIfRequired@Class_System_Threading_Thread@@SIXPAU1@@Z 00c65124 f   kernel.obj
 0001:00054198       ?m_ProcessAbortIfRequested@Class_System_Threading_Thread@@SIXPAU1@UStruct_System_Threading_AbortRequestSource@@@Z 00c65198 f   kernel.obj
 0001:000541b4       ?g_PrepareKernelThread@Class_System_Threading_Thread@@SIPAU1@PAUClass_Microsoft_Singularity_Processor@@@Z 00c651b4 f   kernel.obj
 0001:00054204       ?m_PrepareForBlocking@Class_System_Threading_Thread@@SIHPAU1@@Z 00c65204 f   kernel.obj
 0001:00054324       ?m_PopSelectSyncHandles@Class_System_Threading_Thread@@SIPAUClassVector_Struct_Microsoft_Singularity_V1_Threads_SyncHandle@@PAU1@H@Z 00c65324 f   kernel.obj
 0001:000543d0       ?m_PopSelectObjects@Class_System_Threading_Thread@@SIPAUClassVector_Class_Microsoft_Singularity_Channels_ISelectable@@PAU1@H@Z 00c653d0 f   kernel.obj
 0001:0005447c       ?m_PopSelectBools@Class_System_Threading_Thread@@SIPAUClassVector_bool@@PAU1@H@Z 00c6547c f   kernel.obj
 0001:00054528       ?m_NotifySpinLockReleased@Class_System_Threading_Thread@@SIXPAU1@H@Z 00c65528 f   kernel.obj
 0001:0005462c       ?m_NotifySpinLockAboutToAcquire@Class_System_Threading_Thread@@SIXPAU1@H@Z 00c6562c f   kernel.obj
 0001:000546e8       ?m_Join@Class_System_Threading_Thread@@SIXPAU1@@Z 00c656e8 f   kernel.obj
 0001:00054738       ?m_Join@Class_System_Threading_Thread@@SI_NPAU1@UStruct_System_TimeSpan@@@Z 00c65738 f   kernel.obj
 0001:000547c0       ?m_Join@Class_System_Threading_Thread@@SI_NPAU1@UStruct_System_SchedulerTime@@@Z 00c657c0 f   kernel.obj
 0001:0005484c       ?m_IsStopped@Class_System_Threading_Thread@@SI_NPAU1@@Z 00c6584c f   kernel.obj
 0001:0005487c       ?m_IsInsideOfContextSwitch@Class_System_Threading_Thread@@SI_NPAU1@@Z 00c6587c f   kernel.obj
 0001:0005489c       ?m_IsAborted@Class_System_Threading_Thread@@SI_NPAU1@@Z 00c6589c f   kernel.obj
 0001:000548d0       ?m_IsAbortDelayed@Class_System_Threading_Thread@@SI_NPAU1@@Z 00c658d0 f   kernel.obj
 0001:00054908       ?m_IncrementFreezeCounter@Class_System_Threading_Thread@@SIXPAU1@@Z 00c65908 f   kernel.obj
 0001:00054a98       ?m_GetWaitEntries@Class_System_Threading_Thread@@SIPAUClassVector_Class_Microsoft_Singularity_Scheduling_ThreadEntry@@PAU1@H@Z 00c65a98 f   kernel.obj
 0001:00054bb8       ?g_GetThreadLocalValue@Class_System_Threading_Thread@@SIPAUuintPtr@@XZ 00c65bb8 f   kernel.obj
 0001:00054bd8       ?m_GetThreadId@Class_System_Threading_Thread@@SIHPAU1@@Z 00c65bd8 f   kernel.obj
 0001:00054bf4       ?m_GetSyncHandles@Class_System_Threading_Thread@@SIPAUClassVector_Class_System_Threading_WaitHandle@@PAU1@H@Z 00c65bf4 f   kernel.obj
 0001:00054c50       ?g_GetCurrentThreadNative@Class_System_Threading_Thread@@SIPAU1@XZ 00c65c50 f   kernel.obj
 0001:00054c68       ?g_GetCurrentThreadIndex@Class_System_Threading_Thread@@SIHXZ 00c65c68 f   kernel.obj
 0001:00054c84       ?m_get$_UnblockedBy@Class_System_Threading_Thread@@SIHPAU1@@Z 00c65c84 f   kernel.obj
 0001:00054cb4       ?m_get$_ThreadState@Class_System_Threading_Thread@@SI?AUStruct_System_Threading_ThreadState@@PAU1@@Z 00c65cb4 f   kernel.obj
 0001:00054ce0       ?m_get$_ThreadSchedulerInfo@Class_System_Threading_Thread@@SI?AUStruct_System_Threading_Thread_SchedulerInfo@@PAU1@@Z 00c65ce0 f   kernel.obj
 0001:00054d14       ?m_get$_Process@Class_System_Threading_Thread@@SIPAUClass_Microsoft_Singularity_Process@@PAU1@@Z 00c65d14 f   kernel.obj
 0001:00054d34       ?m_get$_IsRunning@Class_System_Threading_Thread@@SI_NPAU1@@Z 00c65d34 f   kernel.obj
 0001:00054d60       ?m_get$_IsRunnable@Class_System_Threading_Thread@@SI_NPAU1@@Z 00c65d60 f   kernel.obj
 0001:00054d8c       ?m_get$_IsIdle@Class_System_Threading_Thread@@SI_NPAU1@@Z 00c65d8c f   kernel.obj
 0001:00054db0       ?m_get$_IsBlocked@Class_System_Threading_Thread@@SI_NPAU1@@Z 00c65db0 f   kernel.obj
 0001:00054ddc       ?m_get$_Handle@Class_System_Threading_Thread@@SI?AUStruct_Microsoft_Singularity_V1_Threads_ThreadHandle@@PAU1@@Z 00c65ddc f   kernel.obj
 0001:00054dfc       ?m_get$_FreezeCount@Class_System_Threading_Thread@@SIHPAU1@@Z 00c65dfc f   kernel.obj
 0001:00054e2c       ?m_get$_ExecutionTime@Class_System_Threading_Thread@@SI?AUStruct_System_TimeSpan@@PAU1@@Z 00c65e2c f   kernel.obj
 0001:00054e60       ?m_get$_Dispatcher@Class_System_Threading_Thread@@SIPAUClass_Microsoft_Singularity_Scheduling_ProcessorDispatcher@@PAU1@@Z 00c65e60 f   kernel.obj
 0001:00054e7c       ?g_get$_CurrentProcess@Class_System_Threading_Thread@@SIPAUClass_Microsoft_Singularity_Process@@XZ 00c65e7c f   kernel.obj
 0001:00054e9c       ?m_get$_BlockedUntil@Class_System_Threading_Thread@@SI?AUStruct_System_SchedulerTime@@PAU1@@Z 00c65e9c f   kernel.obj
 0001:00054ed4       ?g_FinishInitializeThread@Class_System_Threading_Thread@@SIXXZ 00c65ed4 f   kernel.obj
 0001:00055068       ?g_DispatcherThreadStub@Class_System_Threading_Thread@@SIXH@Z 00c66068 f   kernel.obj
 0001:00055160       ?g_DiscardSkippedStackSegments@Class_System_Threading_Thread@@SIXPAUStruct_System_GCs_CallStack_TransitionRecord@@0@Z 00c66160 f   kernel.obj
 0001:000551f8       ?g_DeriveNewSchedulerState@Class_System_Threading_Thread@@SI?AUStruct_System_Threading_ThreadState@@UStruct_System_Threading_Thread_SchedulerInfo@@U2@@Z 00c661f8 f   kernel.obj
 0001:00055408       ?g_DeriveCurrentSchedulerState@Class_System_Threading_Thread@@SI?AUStruct_System_Threading_ThreadState@@UStruct_System_Threading_Thread_SchedulerInfo@@@Z 00c66408 f   kernel.obj
 0001:0005549c       ?m_DelayStop@Class_System_Threading_Thread@@SIXPAU1@_N@Z 00c6649c f   kernel.obj
 0001:00055590       ?m_DecrementFreezeCounter@Class_System_Threading_Thread@@SIHPAU1@PA_N@Z 00c66590 f   kernel.obj
 0001:00055724       ?g_CreateThread@Class_System_Threading_Thread@@SIPAU1@PAUClass_Microsoft_Singularity_Process@@PAUClass_System_Threading_ThreadStart@@@Z 00c66724 f   kernel.obj
 0001:00055748       ?g_CreateThread@Class_System_Threading_Thread@@SIPAU1@PAUClass_Microsoft_Singularity_Process@@PAUClass_System_Threading_ThreadStart@@_N@Z 00c66748 f   kernel.obj
 0001:000557f8       ?g_CreateIdleThread@Class_System_Threading_Thread@@SIPAU1@PAUClass_Microsoft_Singularity_Processor@@@Z 00c667f8 f   kernel.obj
 0001:0005586c       ?g_CheckKernelProcessBoundary@Class_System_Threading_Thread@@SIPAUuintPtr@@PAU2@0PAUClass_System_Exception@@@Z 00c6686c f   kernel.obj
 0001:0005596c       ?m_ChangeSchedulerState@Class_System_Threading_Thread@@SI?AUStruct_System_Threading_ThreadState@@PAU1@U2@@Z 00c6696c f   kernel.obj
 0001:00055b00       ?g_BindKernelThread@Class_System_Threading_Thread@@SIXPAU1@PAUuintPtr@@1@Z 00c66b00 f   kernel.obj
 0001:00055b88       ?m_Abort@Class_System_Threading_Thread@@SIXPAU1@@Z 00c66b88 f   kernel.obj
 0001:00055c78       ?m__ctor@Class_System_Threading_Thread@@SIXPAU1@@Z 00c66c78 f   kernel.obj
 0001:00055c90       ?m__ctor@Class_System_Threading_Thread@@SIXPAU1@PAUClass_Microsoft_Singularity_Process@@@Z 00c66c90 f   kernel.obj
 0001:00056320       ?m__ctor@Class_System_Threading_Thread@@SIXPAU1@PAUClass_Microsoft_Singularity_Process@@PAUClass_System_Threading_ThreadStart@@@Z 00c67320 f   kernel.obj
 0001:000563cc       ?m__ctor@Class_System_Threading_Thread@@SIXPAU1@_N@Z 00c673cc f   kernel.obj
 0001:00056430       ?g__cctor@Class_System_Threading_Thread@@SIXXZ 00c67430 f   kernel.obj
 0001:0005668c       ?m_Accept@Class_Microsoft_Singularity_Hal_Acpi_AmlParser_AMLCode@@SIXPAU1@PAUClass_Microsoft_Singularity_Hal_Acpi_AmlParserNodeVisitor@@@Z 00c6768c f   kernel.obj
 0001:000566b8       ?m__ctor@Class_Microsoft_Singularity_Hal_Acpi_AmlParser_AMLCode@@SIXPAU1@@Z 00c676b8 f   kernel.obj
 0001:000566d8       ?m_StructCopy@Struct_Microsoft_Singularity_Isal_IX_EFlagsShift@@SIXPAU1@0@Z 00c676d8 f   kernel.obj
 0001:000566f4       ?m_StructCopy@Struct_Microsoft_Singularity_Isal_IX_EFlagsShift@@SIXPAU1@PAU1@@Z 00c676f4 f   kernel.obj
 0001:00056748       ?m_Equals@Struct_Microsoft_Singularity_Isal_IX_EFlagsShift@@SI_NPAU1@PAUClass_System_Object@@@Z 00c67748 f   kernel.obj
 0001:0005677c       ?m_Equals@Struct_Microsoft_Singularity_Isal_IX_EFlagsShift@@SI_NPAUClass_Microsoft_Singularity_Isal_IX_EFlagsShift@@PAUClass_System_Object@@@Z 00c6777c f   kernel.obj
 0001:000567a0       ?m_StructCopy@Struct_Microsoft_Singularity_Io_ConsoleDeviceContract_Imp@@SIXPAU1@0@Z 00c677a0 f   kernel.obj
 0001:00056994       ?m_StructCopy@Struct_Microsoft_Singularity_Io_ConsoleDeviceContract_Imp@@SIXPAU1@PAU1@@Z 00c67994 f   kernel.obj
 0001:00056f70       ?m_Peek@Struct_Microsoft_Singularity_Io_ConsoleDeviceContract_Imp@@SIHPAU1@@Z 00c67f70 f   kernel.obj
 0001:00057470       ?m_MarshallDeliverSuccess0@Struct_Microsoft_Singularity_Io_ConsoleDeviceContract_Imp@@SIXPAU1@PAUStruct_Microsoft_Singularity_Channels_Endpoint@@@Z 00c68470 f   kernel.obj
 0001:000574a8       ?m_MarshallDeliverInvalidPosition0@Struct_Microsoft_Singularity_Io_ConsoleDeviceContract_Imp@@SIXPAU1@PAUStruct_Microsoft_Singularity_Channels_Endpoint@@@Z 00c684a8 f   kernel.obj
 0001:000574e0       ?m_MarshallDeliverDisplayDimensions0@Struct_Microsoft_Singularity_Io_ConsoleDeviceContract_Imp@@SIXPAU1@HHPAUStruct_Microsoft_Singularity_Channels_Endpoint@@@Z 00c684e0 f   kernel.obj
 0001:0005751c       ?m_MarshallDeliverCursorPosition0@Struct_Microsoft_Singularity_Io_ConsoleDeviceContract_Imp@@SIXPAU1@HHPAUStruct_Microsoft_Singularity_Channels_Endpoint@@@Z 00c6851c f   kernel.obj
 0001:00057558       ?m_MarshallDeliverAckWrite0@Struct_Microsoft_Singularity_Io_ConsoleDeviceContract_Imp@@SIXPAU1@PA_WPAUStruct_Microsoft_Singularity_Channels_Endpoint@@@Z 00c68558 f   kernel.obj
 0001:00057590       ?m_MarshallDeliverAckSetCursorSize0@Struct_Microsoft_Singularity_Io_ConsoleDeviceContract_Imp@@SIXPAU1@PAUStruct_Microsoft_Singularity_Channels_Endpoint@@@Z 00c68590 f   kernel.obj
 0001:000575c8       ?m_MarshallDeliverAckSetCursorPosition0@Struct_Microsoft_Singularity_Io_ConsoleDeviceContract_Imp@@SIXPAU1@PAUStruct_Microsoft_Singularity_Channels_Endpoint@@@Z 00c685c8 f   kernel.obj
 0001:00057600       ?m_MarshallDeliverAckPutCharAt0@Struct_Microsoft_Singularity_Io_ConsoleDeviceContract_Imp@@SIXPAU1@PAUStruct_Microsoft_Singularity_Channels_Endpoint@@@Z 00c68600 f   kernel.obj
 0001:00057638       ?m_MarshallDeliverAckPutChar0@Struct_Microsoft_Singularity_Io_ConsoleDeviceContract_Imp@@SIXPAU1@PAUStruct_Microsoft_Singularity_Channels_Endpoint@@@Z 00c68638 f   kernel.obj
 0001:00057670       ?m_MarshallDeliverAckCursorShow0@Struct_Microsoft_Singularity_Io_ConsoleDeviceContract_Imp@@SIXPAU1@PAUStruct_Microsoft_Singularity_Channels_Endpoint@@@Z 00c68670 f   kernel.obj
 0001:000576a8       ?m_MarshallDeliverAckCursorHide0@Struct_Microsoft_Singularity_Io_ConsoleDeviceContract_Imp@@SIXPAU1@PAUStruct_Microsoft_Singularity_Channels_Endpoint@@@Z 00c686a8 f   kernel.obj
 0001:000576e0       ?m_MarshallDeliverAckCursorFlash0@Struct_Microsoft_Singularity_Io_ConsoleDeviceContract_Imp@@SIXPAU1@PAUStruct_Microsoft_Singularity_Channels_Endpoint@@@Z 00c686e0 f   kernel.obj
 0001:00057718       ?m_MarshallDeliverAckClearCursorToEndOfLine0@Struct_Microsoft_Singularity_Io_ConsoleDeviceContract_Imp@@SIXPAU1@PAUStruct_Microsoft_Singularity_Channels_Endpoint@@@Z 00c68718 f   kernel.obj
 0001:00057750       ?m_MarshallDeliverAckClear0@Struct_Microsoft_Singularity_Io_ConsoleDeviceContract_Imp@@SIXPAU1@PAUStruct_Microsoft_Singularity_Channels_Endpoint@@@Z 00c68750 f   kernel.obj
 0001:00057788       ?m_HeadMatches@Struct_Microsoft_Singularity_Io_ConsoleDeviceContract_Imp@@SI_NPAU1@HPA_NPAPAUClass_System_Object@@@Z 00c68788 f   kernel.obj
 0001:00057828       ?m_HeadMatches@Struct_Microsoft_Singularity_Io_ConsoleDeviceContract_Imp@@SI_NPAUClass_Microsoft_Singularity_Io_ConsoleDeviceContract_Imp@@HPA_NPAPAUClass_System_Object@@@Z 00c68828 f   kernel.obj
 0001:00057854       ?m_Equals@Struct_Microsoft_Singularity_Io_ConsoleDeviceContract_Imp@@SI_NPAU1@PAUClass_System_Object@@@Z 00c68854 f   kernel.obj
 0001:000581bc       ?m_Equals@Struct_Microsoft_Singularity_Io_ConsoleDeviceContract_Imp@@SI_NPAUClass_Microsoft_Singularity_Io_ConsoleDeviceContract_Imp@@PAUClass_System_Object@@@Z 00c691bc f   kernel.obj
 0001:000581e0       ?m_DeliverSuccess0@Struct_Microsoft_Singularity_Io_ConsoleDeviceContract_Imp@@SIXPAU1@@Z 00c691e0 f   kernel.obj
 0001:0005820c       ?m_DeliverInvalidPosition0@Struct_Microsoft_Singularity_Io_ConsoleDeviceContract_Imp@@SIXPAU1@@Z 00c6920c f   kernel.obj
 0001:00058238       ?m_DeliverDisplayDimensions0@Struct_Microsoft_Singularity_Io_ConsoleDeviceContract_Imp@@SIXPAU1@HH@Z 00c69238 f   kernel.obj
 0001:00058274       ?m_DeliverCursorPosition0@Struct_Microsoft_Singularity_Io_ConsoleDeviceContract_Imp@@SIXPAU1@HH@Z 00c69274 f   kernel.obj
 0001:000582b0       ?m_DeliverAckWrite0@Struct_Microsoft_Singularity_Io_ConsoleDeviceContract_Imp@@SIXPAU1@PA_W@Z 00c692b0 f   kernel.obj
 0001:000582e4       ?m_DeliverAckSetCursorSize0@Struct_Microsoft_Singularity_Io_ConsoleDeviceContract_Imp@@SIXPAU1@@Z 00c692e4 f   kernel.obj
 0001:00058310       ?m_DeliverAckSetCursorPosition0@Struct_Microsoft_Singularity_Io_ConsoleDeviceContract_Imp@@SIXPAU1@@Z 00c69310 f   kernel.obj
 0001:0005833c       ?m_DeliverAckPutCharAt0@Struct_Microsoft_Singularity_Io_ConsoleDeviceContract_Imp@@SIXPAU1@@Z 00c6933c f   kernel.obj
 0001:00058368       ?m_DeliverAckPutChar0@Struct_Microsoft_Singularity_Io_ConsoleDeviceContract_Imp@@SIXPAU1@@Z 00c69368 f   kernel.obj
 0001:00058394       ?m_DeliverAckCursorShow0@Struct_Microsoft_Singularity_Io_ConsoleDeviceContract_Imp@@SIXPAU1@@Z 00c69394 f   kernel.obj
 0001:000583c0       ?m_DeliverAckCursorHide0@Struct_Microsoft_Singularity_Io_ConsoleDeviceContract_Imp@@SIXPAU1@@Z 00c693c0 f   kernel.obj
 0001:000583ec       ?m_DeliverAckCursorFlash0@Struct_Microsoft_Singularity_Io_ConsoleDeviceContract_Imp@@SIXPAU1@@Z 00c693ec f   kernel.obj
 0001:00058418       ?m_DeliverAckClearCursorToEndOfLine0@Struct_Microsoft_Singularity_Io_ConsoleDeviceContract_Imp@@SIXPAU1@@Z 00c69418 f   kernel.obj
 0001:00058444       ?m_DeliverAckClear0@Struct_Microsoft_Singularity_Io_ConsoleDeviceContract_Imp@@SIXPAU1@@Z 00c69444 f   kernel.obj
 0001:00058470       ?m_GetEnumerator@Class_System_Collections_SortedList_ValueList@@SIPAUClass_System_Collections_IEnumerator@@PAU1@@Z 00c69470 f   kernel.obj
 0001:000584cc       ?m_get$_SyncRoot@Class_System_Collections_SortedList_ValueList@@SIPAUClass_System_Object@@PAU1@@Z 00c694cc f   kernel.obj
 0001:000584f0       ?m_get$_Count@Class_System_Collections_SortedList_ValueList@@SIHPAU1@@Z 00c694f0 f   kernel.obj
 0001:00058510       ?m_CopyTo@Class_System_Collections_SortedList_ValueList@@SIXPAU1@PAUClass_System_Array@@H@Z 00c69510 f   kernel.obj
 0001:00058594       ?m__ctor@Class_System_Collections_SortedList_ValueList@@SIXPAU1@PAUClass_System_Collections_SortedList@@@Z 00c69594 f   kernel.obj
 0001:000585bc       ?m__ctor@Class_Microsoft_Singularity_Hal_Acpi_GenericRegisterDescriptor@@SIXPAU1@UStruct_Microsoft_Singularity_Hal_Acpi_GenericRegisterDescriptor_AddressSpace@@EEUStruct_Microsoft_Singularity_Hal_Acpi_GenericRegisterDescriptor_AddressSize@@_K@Z 00c695bc f   kernel.obj
 0001:00058608       ?m_Accept@Class_Microsoft_Singularity_Hal_Acpi_AmlParser_DefOr@@SIXPAU1@PAUClass_Microsoft_Singularity_Hal_Acpi_AmlParserNodeVisitor@@@Z 00c69608 f   kernel.obj
 0001:00058638       ?m__ctor@Class_Microsoft_Singularity_Hal_Acpi_AmlParser_DefOr@@SIXPAU1@@Z 00c69638 f   kernel.obj
 0001:00058658       ?g_Truncate$_@Struct_Microsoft_Singularity_V1_Services_SharedHeapService@@SIXPAUStruct_Microsoft_Singularity_V1_Services_SharedHeapService_Allocation@@PAUuintPtr@@@Z 00c69658 f   kernel.obj
 0001:00058688       ?g_Truncate@Struct_Microsoft_Singularity_V1_Services_SharedHeapService@@SIXPAUStruct_Microsoft_Singularity_V1_Services_SharedHeapService_Allocation@@PAUuintPtr@@@Z 00c69688 f   kernel.obj
 0001:00058b28       ?m_StructCopy@Struct_Microsoft_Singularity_V1_Services_SharedHeapService@@SIXPAU1@0@Z 00c69b28 f   kernel.obj
 0001:00058b44       ?m_StructCopy@Struct_Microsoft_Singularity_V1_Services_SharedHeapService@@SIXPAU1@PAU1@@Z 00c69b44 f   kernel.obj
 0001:00058b98       ?g_Split$_@Struct_Microsoft_Singularity_V1_Services_SharedHeapService@@SIPAUStruct_Microsoft_Singularity_V1_Services_SharedHeapService_Allocation@@PAU2@PAUuintPtr@@@Z 00c69b98 f   kernel.obj
 0001:00058be8       ?g_Split@Struct_Microsoft_Singularity_V1_Services_SharedHeapService@@SIPAUStruct_Microsoft_Singularity_V1_Services_SharedHeapService_Allocation@@PAU2@PAUuintPtr@@@Z 00c69be8 f   kernel.obj
 0001:00059098       ?g_Share$_@Struct_Microsoft_Singularity_V1_Services_SharedHeapService@@SIPAUStruct_Microsoft_Singularity_V1_Services_SharedHeapService_Allocation@@PAU2@PAUuintPtr@@1@Z 00c6a098 f   kernel.obj
 0001:000590ec       ?g_Share@Struct_Microsoft_Singularity_V1_Services_SharedHeapService@@SIPAUStruct_Microsoft_Singularity_V1_Services_SharedHeapService_Allocation@@PAU2@PAUuintPtr@@1@Z 00c6a0ec f   kernel.obj
 0001:000595a0       ?g_GetType$_@Struct_Microsoft_Singularity_V1_Services_SharedHeapService@@SIPAUuintPtr@@PAUStruct_Microsoft_Singularity_V1_Services_SharedHeapService_Allocation@@@Z 00c6a5a0 f   kernel.obj
 0001:000595c0       ?g_GetType@Struct_Microsoft_Singularity_V1_Services_SharedHeapService@@SIPAUuintPtr@@PAUStruct_Microsoft_Singularity_V1_Services_SharedHeapService_Allocation@@@Z 00c6a5c0 f   kernel.obj
 0001:00059a64       ?g_GetSize$_@Struct_Microsoft_Singularity_V1_Services_SharedHeapService@@SIPAUuintPtr@@PAUStruct_Microsoft_Singularity_V1_Services_SharedHeapService_Allocation@@@Z 00c6aa64 f   kernel.obj
 0001:00059a84       ?g_GetSize@Struct_Microsoft_Singularity_V1_Services_SharedHeapService@@SIPAUuintPtr@@PAUStruct_Microsoft_Singularity_V1_Services_SharedHeapService_Allocation@@@Z 00c6aa84 f   kernel.obj
 0001:00059f28       ?g_GetData$_@Struct_Microsoft_Singularity_V1_Services_SharedHeapService@@SIPAUuintPtr@@PAUStruct_Microsoft_Singularity_V1_Services_SharedHeapService_Allocation@@@Z 00c6af28 f   kernel.obj
 0001:00059f48       ?g_GetData@Struct_Microsoft_Singularity_V1_Services_SharedHeapService@@SIPAUuintPtr@@PAUStruct_Microsoft_Singularity_V1_Services_SharedHeapService_Allocation@@@Z 00c6af48 f   kernel.obj
 0001:0005a3ec       ?g_Free$_@Struct_Microsoft_Singularity_V1_Services_SharedHeapService@@SI_NPAUStruct_Microsoft_Singularity_V1_Services_SharedHeapService_Allocation@@@Z 00c6b3ec f   kernel.obj
 0001:0005a434       ?g_Free@Struct_Microsoft_Singularity_V1_Services_SharedHeapService@@SI_NPAUStruct_Microsoft_Singularity_V1_Services_SharedHeapService_Allocation@@@Z 00c6b434 f   kernel.obj
 0001:0005a8d8       ?m_Equals@Struct_Microsoft_Singularity_V1_Services_SharedHeapService@@SI_NPAU1@PAUClass_System_Object@@@Z 00c6b8d8 f   kernel.obj
 0001:0005a8f8       ?m_Equals@Struct_Microsoft_Singularity_V1_Services_SharedHeapService@@SI_NPAUClass_Microsoft_Singularity_V1_Services_SharedHeapService@@PAUClass_System_Object@@@Z 00c6b8f8 f   kernel.obj
 0001:0005a920       ?g_Allocate$_@Struct_Microsoft_Singularity_V1_Services_SharedHeapService@@SIPAUStruct_Microsoft_Singularity_V1_Services_SharedHeapService_Allocation@@PAUuintPtr@@UStruct_Microsoft_Singularity_V1_Types_SystemType@@I@Z 00c6b920 f   kernel.obj
 0001:0005a97c       ?g_Allocate@Struct_Microsoft_Singularity_V1_Services_SharedHeapService@@SIPAUStruct_Microsoft_Singularity_V1_Services_SharedHeapService_Allocation@@PAUuintPtr@@UStruct_Microsoft_Singularity_V1_Types_SystemType@@I@Z 00c6b97c f   kernel.obj
 0001:0005ae30       ?m_StructCopy@Struct_Microsoft_Singularity_Kd_Ia64KdControlReport@@SIXPAU1@0@Z 00c6be30 f   kernel.obj
 0001:0005ae60       ?m_StructCopy@Struct_Microsoft_Singularity_Kd_Ia64KdControlReport@@SIXPAU1@PAU1@@Z 00c6be60 f   kernel.obj
 0001:0005aef0       ?m_Equals@Struct_Microsoft_Singularity_Kd_Ia64KdControlReport@@SI_NPAU1@PAUClass_System_Object@@@Z 00c6bef0 f   kernel.obj
 0001:0005afa0       ?m_Equals@Struct_Microsoft_Singularity_Kd_Ia64KdControlReport@@SI_NPAUClass_Microsoft_Singularity_Kd_Ia64KdControlReport@@PAUClass_System_Object@@@Z 00c6bfa0 f   kernel.obj
 0001:0005afc4       ?g_Compute@Class_Microsoft_Singularity_Hal_Acpi_AcpiChecksum@@SIEPAUClass_Microsoft_Singularity_Io_IoMemory@@@Z 00c6bfc4 f   kernel.obj
 0001:0005aff0       ?g_Compute@Class_Microsoft_Singularity_Hal_Acpi_AcpiChecksum@@SIEPAUClass_Microsoft_Singularity_Io_IoMemory@@II@Z 00c6bff0 f   kernel.obj
 0001:0005b0b0       ?m__ctor@Class_Microsoft_Singularity_Hal_Acpi_AcpiChecksum@@SIXPAU1@@Z 00c6c0b0 f   kernel.obj
 0001:0005b0c8       ?m_Accept@Class_Microsoft_Singularity_Hal_Acpi_StackIR_ToString@@SIXPAU1@PAUClass_Microsoft_Singularity_Hal_Acpi_InterpretStepVisitor@@@Z 00c6c0c8 f   kernel.obj
 0001:0005b0f4       ?m__ctor@Class_Microsoft_Singularity_Hal_Acpi_StackIR_ToString@@SIXPAU1@@Z 00c6c0f4 f   kernel.obj
 0001:0005b114       ?m_Step@Class_Microsoft_Singularity_Hal_Acpi_AmlInterpreterThread@@SIXPAU1@@Z 00c6c114 f   kernel.obj
 0001:0005b19c       ?m_Return@Class_Microsoft_Singularity_Hal_Acpi_AmlInterpreterThread@@SIXPAU1@PAUClass_Microsoft_Singularity_Hal_Acpi_AcpiObject_AcpiObject@@@Z 00c6c19c f   kernel.obj
 0001:0005b218       ?m_PushFrame@Class_Microsoft_Singularity_Hal_Acpi_AmlInterpreterThread@@SIXPAU1@PAUClass_Microsoft_Singularity_Hal_Acpi_AmlStackFrame@@@Z 00c6c218 f   kernel.obj
 0001:0005b240       ?m_Push@Class_Microsoft_Singularity_Hal_Acpi_AmlInterpreterThread@@SIXPAU1@PAUClass_Microsoft_Singularity_Hal_Acpi_IoLocation@@@Z 00c6c240 f   kernel.obj
 0001:0005b268       ?m_Pop@Class_Microsoft_Singularity_Hal_Acpi_AmlInterpreterThread@@SIPAUClass_Microsoft_Singularity_Hal_Acpi_IoLocation@@PAU1@@Z 00c6c268 f   kernel.obj
 0001:0005b28c       ?m_Notify@Class_Microsoft_Singularity_Hal_Acpi_AmlInterpreterThread@@SIXPAU1@@Z 00c6c28c f   kernel.obj
 0001:0005b2a8       ?m_LookupNode@Class_Microsoft_Singularity_Hal_Acpi_AmlInterpreterThread@@SIPAUClass_Microsoft_Singularity_Hal_Acpi_AcpiNamespace_Node@@PAU1@PAUClass_Microsoft_Singularity_Hal_Acpi_AcpiNamespace_NodePath@@@Z 00c6c2a8 f   kernel.obj
 0001:0005b2dc       ?m_InvokeMethod@Class_Microsoft_Singularity_Hal_Acpi_AmlInterpreterThread@@SIXPAU1@PAUClass_Microsoft_Singularity_Hal_Acpi_AcpiObject_Method@@PAUClassVector_Class_Microsoft_Singularity_Hal_Acpi_AcpiObject_AcpiObject@@@Z 00c6c2dc f   kernel.obj
 0001:0005b31c       ?m_InvokeMethod@Class_Microsoft_Singularity_Hal_Acpi_AmlInterpreterThread@@SIXPAU1@PAUClass_Microsoft_Singularity_Hal_Acpi_AcpiNamespace_AbsoluteNodePath@@PAUClassVector_Class_Microsoft_Singularity_Hal_Acpi_AcpiObject_AcpiObject@@@Z 00c6c31c f   kernel.obj
 0001:0005b3f0       ?m_get$_OperationRegionAccessor@Class_Microsoft_Singularity_Hal_Acpi_AmlInterpreterThread@@SIPAUClass_Microsoft_Singularity_Hal_Acpi_AcpiObject_IOperationRegionAccessor@@PAU1@@Z 00c6c3f0 f   kernel.obj
 0001:0005b40c       ?m_get$_ExitValue@Class_Microsoft_Singularity_Hal_Acpi_AmlInterpreterThread@@SIPAUClass_Microsoft_Singularity_Hal_Acpi_AcpiObject_AcpiObject@@PAU1@@Z 00c6c40c f   kernel.obj
 0001:0005b428       ?m_get$_Exited@Class_Microsoft_Singularity_Hal_Acpi_AmlInterpreterThread@@SI_NPAU1@@Z 00c6c428 f   kernel.obj
 0001:0005b444       ?m_get$_CurrentFrame@Class_Microsoft_Singularity_Hal_Acpi_AmlInterpreterThread@@SIPAUClass_Microsoft_Singularity_Hal_Acpi_AmlStackFrame@@PAU1@@Z 00c6c444 f   kernel.obj
 0001:0005b468       ?m_get$_Blocked@Class_Microsoft_Singularity_Hal_Acpi_AmlInterpreterThread@@SI_NPAU1@@Z 00c6c468 f   kernel.obj
 0001:0005b484       ?m_Exit@Class_Microsoft_Singularity_Hal_Acpi_AmlInterpreterThread@@SIXPAU1@PAUClass_Microsoft_Singularity_Hal_Acpi_AcpiObject_AcpiObject@@@Z 00c6c484 f   kernel.obj
 0001:0005b4b0       ?m_CreateNodeAt@Class_Microsoft_Singularity_Hal_Acpi_AmlInterpreterThread@@SIPAUClass_Microsoft_Singularity_Hal_Acpi_AcpiNamespace_Node@@PAU1@PAUClass_Microsoft_Singularity_Hal_Acpi_AcpiNamespace_NodePath@@@Z 00c6c4b0 f   kernel.obj
 0001:0005b510       ?m_Block@Class_Microsoft_Singularity_Hal_Acpi_AmlInterpreterThread@@SIXPAU1@@Z 00c6c510 f   kernel.obj
 0001:0005b52c       ?m__ctor@Class_Microsoft_Singularity_Hal_Acpi_AmlInterpreterThread@@SIXPAU1@PAUClass_Microsoft_Singularity_Hal_Acpi_AcpiNamespace@@PAUClass_Microsoft_Singularity_Hal_Acpi_MethodResultCallback@@PAUClass_Microsoft_Singularity_Hal_Acpi_AcpiObject_IOperationRegionAccessor@@@Z 00c6c52c f   kernel.obj
 0001:0005b5ec       ?m_StructCopy@Struct_Microsoft_Singularity_Io_ConsoleDeviceContract_AckPutCharAt@@SIXPAU1@0@Z 00c6c5ec f   kernel.obj
 0001:0005b608       ?m_StructCopy@Struct_Microsoft_Singularity_Io_ConsoleDeviceContract_AckPutCharAt@@SIXPAU1@PAU1@@Z 00c6c608 f   kernel.obj
 0001:0005b65c       ?m_MarshallContent@Struct_Microsoft_Singularity_Io_ConsoleDeviceContract_AckPutCharAt@@SIXPAU1@PAEPAUStruct_Microsoft_Singularity_Channels_Endpoint@@1PAH@Z 00c6c65c f   kernel.obj
 0001:0005b67c       ?m_MarshallAll@Struct_Microsoft_Singularity_Io_ConsoleDeviceContract_AckPutCharAt@@SIXPAU1@PAEPAUStruct_Microsoft_Singularity_Channels_Endpoint@@PAH@Z 00c6c67c f   kernel.obj
 0001:0005b6cc       ?m_Equals@Struct_Microsoft_Singularity_Io_ConsoleDeviceContract_AckPutCharAt@@SI_NPAU1@PAUClass_System_Object@@@Z 00c6c6cc f   kernel.obj
 0001:0005b700       ?m_Equals@Struct_Microsoft_Singularity_Io_ConsoleDeviceContract_AckPutCharAt@@SI_NPAUClass_Microsoft_Singularity_Io_ConsoleDeviceContract_AckPutCharAt@@PAUClass_System_Object@@@Z 00c6c700 f   kernel.obj
 0001:0005b724       ?m_StructCopy@Struct_Microsoft_Singularity_Loader_ImportTable_ImportDescriptor@@SIXPAU1@0@Z 00c6c724 f   kernel.obj
 0001:0005b75c       ?m_StructCopy@Struct_Microsoft_Singularity_Loader_ImportTable_ImportDescriptor@@SIXPAU1@PAU1@@Z 00c6c75c f   kernel.obj
 0001:0005b804       ?m_Equals@Struct_Microsoft_Singularity_Loader_ImportTable_ImportDescriptor@@SI_NPAU1@PAUClass_System_Object@@@Z 00c6c804 f   kernel.obj
 0001:0005b868       ?m_Equals@Struct_Microsoft_Singularity_Loader_ImportTable_ImportDescriptor@@SI_NPAUClass_Microsoft_Singularity_Loader_ImportTable_ImportDescriptor@@PAUClass_System_Object@@@Z 00c6c868 f   kernel.obj
 0001:0005b88c       ?m__ctor@Struct_Microsoft_Singularity_Loader_ImportTable_ImportDescriptor@@SIXPAU1@PAUClass_Microsoft_Singularity_Io_IoMemory@@PAH@Z 00c6c88c f   kernel.obj
 0001:0005b940       ?m_StructCopy@Struct_Microsoft_Singularity_Directory_NotifyContract_ChangeNotification@@SIXPAU1@0@Z 00c6c940 f   kernel.obj
 0001:0005b968       ?m_StructCopy@Struct_Microsoft_Singularity_Directory_NotifyContract_ChangeNotification@@SIXPAU1@PAU1@@Z 00c6c968 f   kernel.obj
 0001:0005b9e0       ?m_MarshallContent@Struct_Microsoft_Singularity_Directory_NotifyContract_ChangeNotification@@SIXPAU1@PAEPAUStruct_Microsoft_Singularity_Channels_Endpoint@@1PAH@Z 00c6c9e0 f   kernel.obj
 0001:0005ba8c       ?m_MarshallAll@Struct_Microsoft_Singularity_Directory_NotifyContract_ChangeNotification@@SIXPAU1@PAEPAUStruct_Microsoft_Singularity_Channels_Endpoint@@PAH@Z 00c6ca8c f   kernel.obj
 0001:0005badc       ?m_Equals@Struct_Microsoft_Singularity_Directory_NotifyContract_ChangeNotification@@SI_NPAU1@PAUClass_System_Object@@@Z 00c6cadc f   kernel.obj
 0001:0005bb6c       ?m_Equals@Struct_Microsoft_Singularity_Directory_NotifyContract_ChangeNotification@@SI_NPAUClass_Microsoft_Singularity_Directory_NotifyContract_ChangeNotification@@PAUClass_System_Object@@@Z 00c6cb6c f   kernel.obj
 0001:0005bb90       ?m_StructCopy@Struct_System_UpdateEnlistmentLog_Entry@@SIXPAU1@0@Z 00c6cb90 f   kernel.obj
 0001:0005bbf0       ?m_StructCopy@Struct_System_UpdateEnlistmentLog_Entry@@SIXPAU1@PAU1@@Z 00c6cbf0 f   kernel.obj
 0001:0005bd10       ?m_Equals@Struct_System_UpdateEnlistmentLog_Entry@@SI_NPAU1@PAUClass_System_Object@@@Z 00c6cd10 f   kernel.obj
 0001:0005be3c       ?m_Equals@Struct_System_UpdateEnlistmentLog_Entry@@SI_NPAUClass_System_UpdateEnlistmentLog_Entry@@PAUClass_System_Object@@@Z 00c6ce3c f   kernel.obj
 0001:0005be60       ?m_StructCopy@Struct_System_GCs_OverflowFrameDescriptor@@SIXPAU1@0@Z 00c6ce60 f   kernel.obj
 0001:0005be88       ?m_StructCopy@Struct_System_GCs_OverflowFrameDescriptor@@SIXPAU1@PAU1@@Z 00c6ce88 f   kernel.obj
 0001:0005bf00       ?m_Equals@Struct_System_GCs_OverflowFrameDescriptor@@SI_NPAU1@PAUClass_System_Object@@@Z 00c6cf00 f   kernel.obj
 0001:0005bf4c       ?m_Equals@Struct_System_GCs_OverflowFrameDescriptor@@SI_NPAUClass_System_GCs_OverflowFrameDescriptor@@PAUClass_System_Object@@@Z 00c6cf4c f   kernel.obj
 0001:0005bf70       ?m_Accept@Class_Microsoft_Singularity_Hal_Acpi_StackIR_Index@@SIXPAU1@PAUClass_Microsoft_Singularity_Hal_Acpi_InterpretStepVisitor@@@Z 00c6cf70 f   kernel.obj
 0001:0005bf9c       ?m__ctor@Class_Microsoft_Singularity_Hal_Acpi_StackIR_Index@@SIXPAU1@@Z 00c6cf9c f   kernel.obj
 0001:0005bfbc       ?m_Accept@Class_Microsoft_Singularity_Hal_Acpi_AmlParser_DefToDecimalString@@SIXPAU1@PAUClass_Microsoft_Singularity_Hal_Acpi_AmlParserNodeVisitor@@@Z 00c6cfbc f   kernel.obj
 0001:0005bfe8       ?m__ctor@Class_Microsoft_Singularity_Hal_Acpi_AmlParser_DefToDecimalString@@SIXPAU1@@Z 00c6cfe8 f   kernel.obj
 0001:0005c008       ?m_StructCopy@Struct_Microsoft_Singularity_Directory_IoMemFSContract_Exp@@SIXPAU1@0@Z 00c6d008 f   kernel.obj
 0001:0005c0a8       ?m_StructCopy@Struct_Microsoft_Singularity_Directory_IoMemFSContract_Exp@@SIXPAU1@PAU1@@Z 00c6d0a8 f   kernel.obj
 0001:0005c288       ?m_SendAckConnect@Struct_Microsoft_Singularity_Directory_IoMemFSContract_Exp@@SIXPAU1@@Z 00c6d288 f   kernel.obj
 0001:0005c360       ?m_Release@Struct_Microsoft_Singularity_Directory_IoMemFSContract_Exp@@SIXPAU1@@Z 00c6d360 f   kernel.obj
 0001:0005c378       ?m_RecvConnect@Struct_Microsoft_Singularity_Directory_IoMemFSContract_Exp@@SIXPAU1@PAPAUStruct_Microsoft_Singularity_Directory_FileContract_Exp@@PAPAUuintPtr@@PAH@Z 00c6d378 f   kernel.obj
 0001:0005c4f0       ?m_Peek@Struct_Microsoft_Singularity_Directory_IoMemFSContract_Exp@@SIHPAU1@@Z 00c6d4f0 f   kernel.obj
 0001:0005c5e0       ?m_MarshallDeliverConnect0@Struct_Microsoft_Singularity_Directory_IoMemFSContract_Exp@@SIXPAU1@PAUStruct_Microsoft_Singularity_Directory_FileContract_Exp@@PAUuintPtr@@HPAUStruct_Microsoft_Singularity_Channels_Endpoint@@@Z 00c6d5e0 f   kernel.obj
 0001:0005c620       ?m_HeadMatches@Struct_Microsoft_Singularity_Directory_IoMemFSContract_Exp@@SI_NPAU1@HPA_NPAPAUClass_System_Object@@@Z 00c6d620 f   kernel.obj
 0001:0005c6c0       ?m_HeadMatches@Struct_Microsoft_Singularity_Directory_IoMemFSContract_Exp@@SI_NPAUClass_Microsoft_Singularity_Directory_IoMemFSContract_Exp@@HPA_NPAPAUClass_System_Object@@@Z 00c6d6c0 f   kernel.obj
 0001:0005c6ec       ?m_Equals@Struct_Microsoft_Singularity_Directory_IoMemFSContract_Exp@@SI_NPAU1@PAUClass_System_Object@@@Z 00c6d6ec f   kernel.obj
 0001:0005c95c       ?m_Equals@Struct_Microsoft_Singularity_Directory_IoMemFSContract_Exp@@SI_NPAUClass_Microsoft_Singularity_Directory_IoMemFSContract_Exp@@PAUClass_System_Object@@@Z 00c6d95c f   kernel.obj
 0001:0005c980       ?m_Dispose@Struct_Microsoft_Singularity_Directory_IoMemFSContract_Exp@@SIXPAU1@@Z 00c6d980 f   kernel.obj
 0001:0005c9a0       ?m_DeliverConnect0@Struct_Microsoft_Singularity_Directory_IoMemFSContract_Exp@@SIXPAU1@PAUStruct_Microsoft_Singularity_Directory_FileContract_Exp@@PAUuintPtr@@H@Z 00c6d9a0 f   kernel.obj
 0001:0005c9e0       ?m_CurrentState@Struct_Microsoft_Singularity_Directory_IoMemFSContract_Exp@@SIPAUClass_System_String@@PAU1@@Z 00c6d9e0 f   kernel.obj
 0001:0005ca54       ?m_Acquire@Struct_Microsoft_Singularity_Directory_IoMemFSContract_Exp@@SIXPAU1@@Z 00c6da54 f   kernel.obj
 0001:0005ca6c       ?m__ctor@Struct_Microsoft_Singularity_Directory_IoMemFSContract_Exp@@SIXPAU1@H@Z 00c6da6c f   kernel.obj
 0001:0005ca8c       ?m_StructCopy@Struct_Microsoft_Singularity_Eventing_QualityOfService@@SIXPAU1@0@Z 00c6da8c f   kernel.obj
 0001:0005cac0       ?m_StructCopy@Struct_Microsoft_Singularity_Eventing_QualityOfService@@SIXPAU1@PAU1@@Z 00c6dac0 f   kernel.obj
 0001:0005cb5c       ?m_Equals@Struct_Microsoft_Singularity_Eventing_QualityOfService@@SI_NPAU1@PAUClass_System_Object@@@Z 00c6db5c f   kernel.obj
 0001:0005cbb8       ?m_Equals@Struct_Microsoft_Singularity_Eventing_QualityOfService@@SI_NPAUClass_Microsoft_Singularity_Eventing_QualityOfService@@PAUClass_System_Object@@@Z 00c6dbb8 f   kernel.obj
 0001:0005cbdc       ?g_get$_InvariantCulture@Class_System_Globalization_CultureInfo@@SIPAU1@XZ 00c6dbdc f   kernel.obj
 0001:0005cbf4       ?g_get$_CurrentCulture@Class_System_Globalization_CultureInfo@@SIPAU1@XZ 00c6dbf4 f   kernel.obj
 0001:0005cc0c       ?m__ctor@Class_System_Globalization_CultureInfo@@SIXPAU1@@Z 00c6dc0c f   kernel.obj
 0001:0005cc24       ?g__cctor@Class_System_Globalization_CultureInfo@@SIXXZ 00c6dc24 f   kernel.obj
 0001:0005d218       ?m_Accept@Class_Microsoft_Singularity_Hal_Acpi_AmlParser_StartIndex@@SIXPAU1@PAUClass_Microsoft_Singularity_Hal_Acpi_AmlParserNodeVisitor@@@Z 00c6e218 f   kernel.obj
 0001:0005d248       ?m__ctor@Class_Microsoft_Singularity_Hal_Acpi_AmlParser_StartIndex@@SIXPAU1@@Z 00c6e248 f   kernel.obj
 0001:0005d268       ?m_StructCopy@Struct_Microsoft_Singularity_Directory_DirectoryServiceContract_NakGetLinkValueReparse@@SIXPAU1@0@Z 00c6e268 f   kernel.obj
 0001:0005d294       ?m_StructCopy@Struct_Microsoft_Singularity_Directory_DirectoryServiceContract_NakGetLinkValueReparse@@SIXPAU1@PAU1@@Z 00c6e294 f   kernel.obj
 0001:0005d318       ?m_MarshallContent@Struct_Microsoft_Singularity_Directory_DirectoryServiceContract_NakGetLinkValueReparse@@SIXPAU1@PAEPAUStruct_Microsoft_Singularity_Channels_Endpoint@@1PAH@Z 00c6e318 f   kernel.obj
 0001:0005d464       ?m_MarshallAll@Struct_Microsoft_Singularity_Directory_DirectoryServiceContract_NakGetLinkValueReparse@@SIXPAU1@PAEPAUStruct_Microsoft_Singularity_Channels_Endpoint@@PAH@Z 00c6e464 f   kernel.obj
 0001:0005d4b4       ?m_Equals@Struct_Microsoft_Singularity_Directory_DirectoryServiceContract_NakGetLinkValueReparse@@SI_NPAU1@PAUClass_System_Object@@@Z 00c6e4b4 f   kernel.obj
 0001:0005d508       ?m_Equals@Struct_Microsoft_Singularity_Directory_DirectoryServiceContract_NakGetLinkValueReparse@@SI_NPAUClass_Microsoft_Singularity_Directory_DirectoryServiceContract_NakGetLinkValueReparse@@PAUClass_System_Object@@@Z 00c6e508 f   kernel.obj
 0001:0005d52c       ?m_StructCopy@Struct_Microsoft_Singularity_Directory_ServiceProviderContract_AckConnect@@SIXPAU1@0@Z 00c6e52c f   kernel.obj
 0001:0005d548       ?m_StructCopy@Struct_Microsoft_Singularity_Directory_ServiceProviderContract_AckConnect@@SIXPAU1@PAU1@@Z 00c6e548 f   kernel.obj
 0001:0005d59c       ?m_MarshallContent@Struct_Microsoft_Singularity_Directory_ServiceProviderContract_AckConnect@@SIXPAU1@PAEPAUStruct_Microsoft_Singularity_Channels_Endpoint@@1PAH@Z 00c6e59c f   kernel.obj
 0001:0005d5bc       ?m_MarshallAll@Struct_Microsoft_Singularity_Directory_ServiceProviderContract_AckConnect@@SIXPAU1@PAEPAUStruct_Microsoft_Singularity_Channels_Endpoint@@PAH@Z 00c6e5bc f   kernel.obj
 0001:0005d60c       ?m_Equals@Struct_Microsoft_Singularity_Directory_ServiceProviderContract_AckConnect@@SI_NPAU1@PAUClass_System_Object@@@Z 00c6e60c f   kernel.obj
 0001:0005d640       ?m_Equals@Struct_Microsoft_Singularity_Directory_ServiceProviderContract_AckConnect@@SI_NPAUClass_Microsoft_Singularity_Directory_ServiceProviderContract_AckConnect@@PAUClass_System_Object@@@Z 00c6e640 f   kernel.obj
 0001:0005d664       ?m_get$_Value@Class_Microsoft_Singularity_Hal_Acpi_PMTimer@@SIIPAU1@@Z 00c6e664 f   kernel.obj
 0001:0005d7d8       ?g_Create@Class_Microsoft_Singularity_Hal_Acpi_PMTimer@@SIPAU1@PAUClass_Microsoft_Singularity_Hal_Acpi_Fadt@@@Z 00c6e7d8 f   kernel.obj
 0001:0005d860       ?m__ctor@Class_Microsoft_Singularity_Hal_Acpi_PMTimer@@SIXPAU1@IH@Z 00c6e860 f   kernel.obj
 0001:0005d8f0       ?m_Accept@Class_Microsoft_Singularity_Hal_Acpi_AmlParser_ByteIndex@@SIXPAU1@PAUClass_Microsoft_Singularity_Hal_Acpi_AmlParserNodeVisitor@@@Z 00c6e8f0 f   kernel.obj
 0001:0005d920       ?m__ctor@Class_Microsoft_Singularity_Hal_Acpi_AmlParser_ByteIndex@@SIXPAU1@@Z 00c6e920 f   kernel.obj
 0001:0005d940       ?g_UIntPtrPad@Class_System_GCs_Util@@SIPAUuintPtr@@PAU2@@Z 00c6e940 f   kernel.obj
 0001:0005d968       ?g_PrintPageContents@Class_System_GCs_Util@@SIXPAUuintPtr@@@Z 00c6e968 f   kernel.obj
 0001:0005d9e0       ?g_PrintMemoryContents@Class_System_GCs_Util@@SIXPAUuintPtr@@0@Z 00c6e9e0 f   kernel.obj
 0001:0005e0c0       ?g_Pad@Class_System_GCs_Util@@SIPAUuintPtr@@PAU2@0@Z 00c6f0c0 f   kernel.obj
 0001:0005e0ec       ?g_MemCopy@Class_System_GCs_Util@@SIXPAUuintPtr@@00@Z 00c6f0ec f   kernel.obj
 0001:0005e114       ?g_MemClear@Class_System_GCs_Util@@SIXPAUuintPtr@@0@Z 00c6f114 f   kernel.obj
 0001:0005e134       ?m__ctor@Class_System_GCs_Util@@SIXPAU1@@Z 00c6f134 f   kernel.obj
 0001:0005e14c       ?g_CreateUserTermObj@Class_Microsoft_Singularity_Hal_Acpi_AmlParserUnions_Type6Opcode@@SIPAU1@PAUClass_Microsoft_Singularity_Hal_Acpi_AmlParser_UserTermObj@@@Z 00c6f14c f   kernel.obj
 0001:0005e190       ?g_CreateDefRefOf@Class_Microsoft_Singularity_Hal_Acpi_AmlParserUnions_Type6Opcode@@SIPAU1@PAUClass_Microsoft_Singularity_Hal_Acpi_AmlParser_DefRefOf@@@Z 00c6f190 f   kernel.obj
 0001:0005e1d0       ?g_CreateDefIndex@Class_Microsoft_Singularity_Hal_Acpi_AmlParserUnions_Type6Opcode@@SIPAU1@PAUClass_Microsoft_Singularity_Hal_Acpi_AmlParser_DefIndex@@@Z 00c6f1d0 f   kernel.obj
 0001:0005e214       ?g_CreateDefDerefOf@Class_Microsoft_Singularity_Hal_Acpi_AmlParserUnions_Type6Opcode@@SIPAU1@PAUClass_Microsoft_Singularity_Hal_Acpi_AmlParser_DefDerefOf@@@Z 00c6f214 f   kernel.obj
 0001:0005e258       ?m_AcceptAlternative@Class_Microsoft_Singularity_Hal_Acpi_AmlParserUnions_Type6Opcode@@SIXPAU1@PAUClass_Microsoft_Singularity_Hal_Acpi_AmlParserNodeVisitor@@@Z 00c6f258 f   kernel.obj
 0001:0005e294       ?m_Accept@Class_Microsoft_Singularity_Hal_Acpi_AmlParserUnions_Type6Opcode@@SIXPAU1@PAUClass_Microsoft_Singularity_Hal_Acpi_AmlParserNodeVisitor@@@Z 00c6f294 f   kernel.obj
 0001:0005e2c0       ?m__ctor@Class_Microsoft_Singularity_Hal_Acpi_AmlParserUnions_Type6Opcode@@SIXPAU1@UStruct_Microsoft_Singularity_Hal_Acpi_AmlParserUnions_Type6Opcode_TagValue@@PAUClass_System_Object@@@Z 00c6f2c0 f   kernel.obj
 0001:0005e2fc       ?m_StructCopy@Struct_Microsoft_Singularity_Kd_X64Context@@SIXPAU1@0@Z 00c6f2fc f   kernel.obj
 0001:0005e638       ?m_StructCopy@Struct_Microsoft_Singularity_Kd_X64Context@@SIXPAU1@PAU1@@Z 00c6f638 f   kernel.obj
 0001:0005efec       ?m_Equals@Struct_Microsoft_Singularity_Kd_X64Context@@SI_NPAU1@PAUClass_System_Object@@@Z 00c6ffec f   kernel.obj
 0001:0005f7f0       ?m_Equals@Struct_Microsoft_Singularity_Kd_X64Context@@SI_NPAUClass_Microsoft_Singularity_Kd_X64Context@@PAUClass_System_Object@@@Z 00c707f0 f   kernel.obj
 0001:0005f814       ?m_StructCopy@Struct_Microsoft_Singularity_Memory_PhysicalAddress@@SIXPAU1@0@Z 00c70814 f   kernel.obj
 0001:0005f840       ?m_StructCopy@Struct_Microsoft_Singularity_Memory_PhysicalAddress@@SIXPAU1@PAU1@@Z 00c70840 f   kernel.obj
 0001:0005f8c4       ?g_op$_Inequality@Struct_Microsoft_Singularity_Memory_PhysicalAddress@@SI_NU1@0@Z 00c708c4 f   kernel.obj
 0001:0005f904       ?g_op$_Equality@Struct_Microsoft_Singularity_Memory_PhysicalAddress@@SI_NU1@0@Z 00c70904 f   kernel.obj
 0001:0005f94c       ?m_GetHashCode@Struct_Microsoft_Singularity_Memory_PhysicalAddress@@SIHPAU1@@Z 00c7094c f   kernel.obj
 0001:0005f96c       ?m_GetHashCode@Struct_Microsoft_Singularity_Memory_PhysicalAddress@@SIHPAUClass_Microsoft_Singularity_Memory_PhysicalAddress@@@Z 00c7096c f   kernel.obj
 0001:0005f98c       ?m_get$_Value@Struct_Microsoft_Singularity_Memory_PhysicalAddress@@SI_KPAU1@@Z 00c7098c f   kernel.obj
 0001:0005f9ac       ?g_get$_Null@Struct_Microsoft_Singularity_Memory_PhysicalAddress@@SI?AU1@XZ 00c709ac f   kernel.obj
 0001:0005fa00       ?m_Equals@Struct_Microsoft_Singularity_Memory_PhysicalAddress@@SI_NPAU1@PAUClass_System_Object@@@Z 00c70a00 f   kernel.obj
 0001:0005fa78       ?m_Equals@Struct_Microsoft_Singularity_Memory_PhysicalAddress@@SI_NPAUClass_Microsoft_Singularity_Memory_PhysicalAddress@@PAUClass_System_Object@@@Z 00c70a78 f   kernel.obj
 0001:0005fa9c       ?m__ctor@Struct_Microsoft_Singularity_Memory_PhysicalAddress@@SIXPAU1@PAUuintPtr@@@Z 00c70a9c f   kernel.obj
 0001:0005fac0       ?m__ctor@Struct_Microsoft_Singularity_Memory_PhysicalAddress@@SIXPAU1@_K@Z 00c70ac0 f   kernel.obj
 0001:0005fae8       ?m_StructCopy@Struct_Microsoft_Singularity_Directory_DirectoryServiceContract_NakCreateDirectory@@SIXPAU1@0@Z 00c70ae8 f   kernel.obj
 0001:0005fb08       ?m_StructCopy@Struct_Microsoft_Singularity_Directory_DirectoryServiceContract_NakCreateDirectory@@SIXPAU1@PAU1@@Z 00c70b08 f   kernel.obj
 0001:0005fb68       ?m_MarshallContent@Struct_Microsoft_Singularity_Directory_DirectoryServiceContract_NakCreateDirectory@@SIXPAU1@PAEPAUStruct_Microsoft_Singularity_Channels_Endpoint@@1PAH@Z 00c70b68 f   kernel.obj
 0001:0005fb88       ?m_MarshallAll@Struct_Microsoft_Singularity_Directory_DirectoryServiceContract_NakCreateDirectory@@SIXPAU1@PAEPAUStruct_Microsoft_Singularity_Channels_Endpoint@@PAH@Z 00c70b88 f   kernel.obj
 0001:0005fbd8       ?m_Equals@Struct_Microsoft_Singularity_Directory_DirectoryServiceContract_NakCreateDirectory@@SI_NPAU1@PAUClass_System_Object@@@Z 00c70bd8 f   kernel.obj
 0001:0005fc60       ?m_Equals@Struct_Microsoft_Singularity_Directory_DirectoryServiceContract_NakCreateDirectory@@SI_NPAUClass_Microsoft_Singularity_Directory_DirectoryServiceContract_NakCreateDirectory@@PAUClass_System_Object@@@Z 00c70c60 f   kernel.obj
 0001:0005fc84       ?g_SetEndpoint@Class_Microsoft_Singularity_Loader_Binder@@SI_NPAUClass_Microsoft_Singularity_Process@@HPAUStruct_Microsoft_Singularity_Channels_Endpoint@@@Z 00c70c84 f   kernel.obj
 0001:0005fcdc       ?g_openDir@Class_Microsoft_Singularity_Loader_Binder@@SIPAUStruct_Microsoft_Singularity_Directory_DirectoryServiceContract_Imp@@PAUClass_System_String@@@Z 00c70cdc f   kernel.obj
 0001:0005fe34       ?g_LockedAttachFirstInstance@Class_Microsoft_Singularity_Loader_Binder@@SI_NPAUStruct_Microsoft_Singularity_Directory_DirectoryServiceContract_Imp@@PAUClass_System_String@@PAUStruct_Microsoft_Singularity_Directory_ServiceContract_Exp@@@Z 00c70e34 f   kernel.obj
 0001:00060078       ?g_LoadImage@Class_Microsoft_Singularity_Loader_Binder@@SIPAUClass_Microsoft_Singularity_Io_IoMemory@@PAUClass_Microsoft_Singularity_Process@@PAUClass_System_String@@PAPAUClass_Microsoft_Singularity_Loader_Manifest@@@Z 00c71078 f   kernel.obj
 0001:000604b4       ?g_IsServiceContractStartable@Class_Microsoft_Singularity_Loader_Binder@@SI_NPAUClass_System_String@@@Z 00c714b4 f   kernel.obj
 0001:00060588       ?g_IsServiceContractAvailable@Class_Microsoft_Singularity_Loader_Binder@@SI_NPAUClass_System_String@@@Z 00c71588 f   kernel.obj
 0001:00060654       ?g_Initialize@Class_Microsoft_Singularity_Loader_Binder@@SIXPAUClass_Microsoft_Singularity_Xml_XmlNode@@@Z 00c71654 f   kernel.obj
 0001:000608e8       ?g_GetSystemManifest@Class_Microsoft_Singularity_Loader_Binder@@SIPAUClass_Microsoft_Singularity_Io_IoMemory@@XZ 00c718e8 f   kernel.obj
 0001:00060918       ?g_GetManifest@Class_Microsoft_Singularity_Loader_Binder@@SIPAUClass_Microsoft_Singularity_Loader_Manifest@@PAUClass_System_String@@PAUStruct_Microsoft_Singularity_Directory_DirectoryServiceContract_Imp@@PAPAU3@@Z 00c71918 f   kernel.obj
 0001:00060af0       ?g_GetEndpointType@Class_Microsoft_Singularity_Loader_Binder@@SI?AUStruct_Microsoft_Singularity_V1_Types_SystemType@@PAUClass_Microsoft_Singularity_Xml_XmlNode@@@Z 00c71af0 f   kernel.obj
 0001:00060cb8       ?g_get$_Initialized@Class_Microsoft_Singularity_Loader_Binder@@SI_NXZ 00c71cb8 f   kernel.obj
 0001:00060cec       ?g_FindFileImage@Class_Microsoft_Singularity_Loader_Binder@@SIPAUClass_Microsoft_Singularity_Io_IoMemory@@PAUClass_System_String@@PAUStruct_Microsoft_Singularity_Directory_DirectoryServiceContract_Imp@@@Z 00c71cec f   kernel.obj
 0001:000611fc       ?g_CreatePublicSymlink@Class_Microsoft_Singularity_Loader_Binder@@SIXPAUClass_System_String@@0@Z 00c721fc f   kernel.obj
 0001:00061570       ?g_CreateChannel@Class_Microsoft_Singularity_Loader_Binder@@SIXPAPAUStruct_Microsoft_Singularity_Channels_Endpoint@@0UStruct_Microsoft_Singularity_V1_Types_SystemType@@1H@Z 00c72570 f   kernel.obj
 0001:00061678       ?g_ClaimServiceContract@Class_Microsoft_Singularity_Loader_Binder@@SIPAUClass_System_String@@PAU2@@Z 00c72678 f   kernel.obj
 0001:00061808       ?g_BindToService@Class_Microsoft_Singularity_Loader_Binder@@SI_NPAUClass_Microsoft_Singularity_Process@@UStruct_Microsoft_Singularity_V1_Types_SystemType@@1PAUClass_System_String@@HH@Z 00c72808 f   kernel.obj
 0001:00061a70       ?g_BindServiceUser@Class_Microsoft_Singularity_Loader_Binder@@SI_NPAUClass_Microsoft_Singularity_Process@@HPAUClass_System_String@@PAUClass_Microsoft_Singularity_Xml_XmlNode@@@Z 00c72a70 f   kernel.obj
 0001:00061b48       ?g_BindServiceProvider@Class_Microsoft_Singularity_Loader_Binder@@SIPAUStruct_Microsoft_Singularity_Directory_ServiceProviderContract_Exp@@PAUClass_System_String@@0PA_NPAPAU3@@Z 00c72b48 f   kernel.obj
 0001:00061e08       ?g_AlreadyExists@Class_Microsoft_Singularity_Loader_Binder@@SI_NPAUClass_System_String@@@Z 00c72e08 f   kernel.obj
 0001:00061f38       ?m__ctor@Class_Microsoft_Singularity_Loader_Binder@@SIXPAU1@@Z 00c72f38 f   kernel.obj
 0001:00061f50       ?g__cctor@Class_Microsoft_Singularity_Loader_Binder@@SIXXZ 00c72f50 f   kernel.obj
 0001:00062070       ?m_StructCopy@Struct_Microsoft_Singularity_Directory_DirectoryServiceFeederContract_Exp@@SIXPAU1@0@Z 00c73070 f   kernel.obj
 0001:00062110       ?m_StructCopy@Struct_Microsoft_Singularity_Directory_DirectoryServiceFeederContract_Exp@@SIXPAU1@PAU1@@Z 00c73110 f   kernel.obj
 0001:000622f0       ?m_Peek@Struct_Microsoft_Singularity_Directory_DirectoryServiceFeederContract_Exp@@SIHPAU1@@Z 00c732f0 f   kernel.obj
 0001:0006243c       ?m_MarshallDeliverGetNewDirectoryChannel0@Struct_Microsoft_Singularity_Directory_DirectoryServiceFeederContract_Exp@@SIXPAU1@PAUStruct_Microsoft_Singularity_Channels_Endpoint@@@Z 00c7343c f   kernel.obj
 0001:00062474       ?m_HeadMatches@Struct_Microsoft_Singularity_Directory_DirectoryServiceFeederContract_Exp@@SI_NPAU1@HPA_NPAPAUClass_System_Object@@@Z 00c73474 f   kernel.obj
 0001:00062514       ?m_HeadMatches@Struct_Microsoft_Singularity_Directory_DirectoryServiceFeederContract_Exp@@SI_NPAUClass_Microsoft_Singularity_Directory_DirectoryServiceFeederContract_Exp@@HPA_NPAPAUClass_System_Object@@@Z 00c73514 f   kernel.obj
 0001:00062540       ?m_Equals@Struct_Microsoft_Singularity_Directory_DirectoryServiceFeederContract_Exp@@SI_NPAU1@PAUClass_System_Object@@@Z 00c73540 f   kernel.obj
 0001:00062788       ?m_Equals@Struct_Microsoft_Singularity_Directory_DirectoryServiceFeederContract_Exp@@SI_NPAUClass_Microsoft_Singularity_Directory_DirectoryServiceFeederContract_Exp@@PAUClass_System_Object@@@Z 00c73788 f   kernel.obj
 0001:000627ac       ?m_DeliverGetNewDirectoryChannel0@Struct_Microsoft_Singularity_Directory_DirectoryServiceFeederContract_Exp@@SIXPAU1@@Z 00c737ac f   kernel.obj
 0001:000627d8       ?m_StructCopy@Struct_Microsoft_Singularity_Io_ConsoleDeviceContract_Exp@@SIXPAU1@0@Z 00c737d8 f   kernel.obj
 0001:00062934       ?m_StructCopy@Struct_Microsoft_Singularity_Io_ConsoleDeviceContract_Exp@@SIXPAU1@PAU1@@Z 00c73934 f   kernel.obj
 0001:00062d48       ?m_SendSuccess@Struct_Microsoft_Singularity_Io_ConsoleDeviceContract_Exp@@SIXPAU1@@Z 00c73d48 f   kernel.obj
 0001:00062e20       ?m_SendInvalidPosition@Struct_Microsoft_Singularity_Io_ConsoleDeviceContract_Exp@@SIXPAU1@@Z 00c73e20 f   kernel.obj
 0001:00062f68       ?m_SendDisplayDimensions@Struct_Microsoft_Singularity_Io_ConsoleDeviceContract_Exp@@SIXPAU1@HH@Z 00c73f68 f   kernel.obj
 0001:00063054       ?m_SendCursorPosition@Struct_Microsoft_Singularity_Io_ConsoleDeviceContract_Exp@@SIXPAU1@HH@Z 00c74054 f   kernel.obj
 0001:00063140       ?m_SendAckWrite@Struct_Microsoft_Singularity_Io_ConsoleDeviceContract_Exp@@SIXPAU1@PA_W@Z 00c74140 f   kernel.obj
 0001:00063238       ?m_SendAckSetCursorSize@Struct_Microsoft_Singularity_Io_ConsoleDeviceContract_Exp@@SIXPAU1@@Z 00c74238 f   kernel.obj
 0001:00063310       ?m_SendAckSetCursorPosition@Struct_Microsoft_Singularity_Io_ConsoleDeviceContract_Exp@@SIXPAU1@@Z 00c74310 f   kernel.obj
 0001:000633e8       ?m_SendAckPutCharAt@Struct_Microsoft_Singularity_Io_ConsoleDeviceContract_Exp@@SIXPAU1@@Z 00c743e8 f   kernel.obj
 0001:000634c0       ?m_SendAckPutChar@Struct_Microsoft_Singularity_Io_ConsoleDeviceContract_Exp@@SIXPAU1@@Z 00c744c0 f   kernel.obj
 0001:00063598       ?m_SendAckCursorShow@Struct_Microsoft_Singularity_Io_ConsoleDeviceContract_Exp@@SIXPAU1@@Z 00c74598 f   kernel.obj
 0001:00063670       ?m_SendAckCursorHide@Struct_Microsoft_Singularity_Io_ConsoleDeviceContract_Exp@@SIXPAU1@@Z 00c74670 f   kernel.obj
 0001:00063748       ?m_SendAckCursorFlash@Struct_Microsoft_Singularity_Io_ConsoleDeviceContract_Exp@@SIXPAU1@@Z 00c74748 f   kernel.obj
 0001:00063820       ?m_SendAckClearCursorToEndOfLine@Struct_Microsoft_Singularity_Io_ConsoleDeviceContract_Exp@@SIXPAU1@@Z 00c74820 f   kernel.obj
 0001:000638f8       ?m_SendAckClear@Struct_Microsoft_Singularity_Io_ConsoleDeviceContract_Exp@@SIXPAU1@@Z 00c748f8 f   kernel.obj
 0001:000639d0       ?m_RecvWrite@Struct_Microsoft_Singularity_Io_ConsoleDeviceContract_Exp@@SIXPAU1@PAPA_WPAH2@Z 00c749d0 f   kernel.obj
 0001:00063b48       ?m_RecvSetCursorSize@Struct_Microsoft_Singularity_Io_ConsoleDeviceContract_Exp@@SIXPAU1@PAUStruct_Microsoft_Singularity_Io_CursorSize@@@Z 00c74b48 f   kernel.obj
 0001:00063c9c       ?m_RecvSetCursorPosition@Struct_Microsoft_Singularity_Io_ConsoleDeviceContract_Exp@@SIXPAU1@PAH1@Z 00c74c9c f   kernel.obj
 0001:00063e04       ?m_RecvPutCharAt@Struct_Microsoft_Singularity_Io_ConsoleDeviceContract_Exp@@SIXPAU1@PA_WPAH2@Z 00c74e04 f   kernel.obj
 0001:00063f7c       ?m_RecvPutChar@Struct_Microsoft_Singularity_Io_ConsoleDeviceContract_Exp@@SIXPAU1@PA_W@Z 00c74f7c f   kernel.obj
 0001:000640d4       ?m_RecvGetDisplayDimensions@Struct_Microsoft_Singularity_Io_ConsoleDeviceContract_Exp@@SIXPAU1@@Z 00c750d4 f   kernel.obj
 0001:00064220       ?m_RecvGetCursorPosition@Struct_Microsoft_Singularity_Io_ConsoleDeviceContract_Exp@@SIXPAU1@@Z 00c75220 f   kernel.obj
 0001:0006436c       ?m_RecvCursorShow@Struct_Microsoft_Singularity_Io_ConsoleDeviceContract_Exp@@SIXPAU1@@Z 00c7536c f   kernel.obj
 0001:000644b8       ?m_RecvCursorHide@Struct_Microsoft_Singularity_Io_ConsoleDeviceContract_Exp@@SIXPAU1@@Z 00c754b8 f   kernel.obj
 0001:00064604       ?m_RecvCursorFlash@Struct_Microsoft_Singularity_Io_ConsoleDeviceContract_Exp@@SIXPAU1@@Z 00c75604 f   kernel.obj
 0001:00064750       ?m_RecvClearCursorToEndOfLine@Struct_Microsoft_Singularity_Io_ConsoleDeviceContract_Exp@@SIXPAU1@@Z 00c75750 f   kernel.obj
 0001:0006489c       ?m_RecvClear@Struct_Microsoft_Singularity_Io_ConsoleDeviceContract_Exp@@SIXPAU1@@Z 00c7589c f   kernel.obj
 0001:000649e8       ?m_Peek@Struct_Microsoft_Singularity_Io_ConsoleDeviceContract_Exp@@SIHPAU1@@Z 00c759e8 f   kernel.obj
 0001:00064ee8       ?m_HeadMatches@Struct_Microsoft_Singularity_Io_ConsoleDeviceContract_Exp@@SI_NPAU1@HPA_NPAPAUClass_System_Object@@@Z 00c75ee8 f   kernel.obj
 0001:00064f88       ?m_HeadMatches@Struct_Microsoft_Singularity_Io_ConsoleDeviceContract_Exp@@SI_NPAUClass_Microsoft_Singularity_Io_ConsoleDeviceContract_Exp@@HPA_NPAPAUClass_System_Object@@@Z 00c75f88 f   kernel.obj
 0001:00064fb4       ?m_Equals@Struct_Microsoft_Singularity_Io_ConsoleDeviceContract_Exp@@SI_NPAU1@PAUClass_System_Object@@@Z 00c75fb4 f   kernel.obj
 0001:0006564c       ?m_Equals@Struct_Microsoft_Singularity_Io_ConsoleDeviceContract_Exp@@SI_NPAUClass_Microsoft_Singularity_Io_ConsoleDeviceContract_Exp@@PAUClass_System_Object@@@Z 00c7664c f   kernel.obj
 0001:00065670       ?m_Dispose@Struct_Microsoft_Singularity_Io_ConsoleDeviceContract_Exp@@SIXPAU1@@Z 00c76670 f   kernel.obj
 0001:00065690       ?m_CurrentState@Struct_Microsoft_Singularity_Io_ConsoleDeviceContract_Exp@@SIPAUClass_System_String@@PAU1@@Z 00c76690 f   kernel.obj
 0001:00065860       ?m_StructCopy@Struct_Microsoft_Singularity_Diagnostics_Contracts_MemoryContract_GetProcessUsedMemory@@SIXPAU1@0@Z 00c76860 f   kernel.obj
 0001:00065880       ?m_StructCopy@Struct_Microsoft_Singularity_Diagnostics_Contracts_MemoryContract_GetProcessUsedMemory@@SIXPAU1@PAU1@@Z 00c76880 f   kernel.obj
 0001:000658e0       ?m_Equals@Struct_Microsoft_Singularity_Diagnostics_Contracts_MemoryContract_GetProcessUsedMemory@@SI_NPAU1@PAUClass_System_Object@@@Z 00c768e0 f   kernel.obj
 0001:0006591c       ?m_Equals@Struct_Microsoft_Singularity_Diagnostics_Contracts_MemoryContract_GetProcessUsedMemory@@SI_NPAUClass_Microsoft_Singularity_Diagnostics_Contracts_MemoryContract_GetProcessUsedMemory@@PAUClass_System_Object@@@Z 00c7691c f   kernel.obj
 0001:00065940       ?m_StructCopy@Struct_Microsoft_Singularity_Io_ConsoleDeviceContract_AckPutChar@@SIXPAU1@0@Z 00c76940 f   kernel.obj
 0001:0006595c       ?m_StructCopy@Struct_Microsoft_Singularity_Io_ConsoleDeviceContract_AckPutChar@@SIXPAU1@PAU1@@Z 00c7695c f   kernel.obj
 0001:000659b0       ?m_MarshallContent@Struct_Microsoft_Singularity_Io_ConsoleDeviceContract_AckPutChar@@SIXPAU1@PAEPAUStruct_Microsoft_Singularity_Channels_Endpoint@@1PAH@Z 00c769b0 f   kernel.obj
 0001:000659d0       ?m_MarshallAll@Struct_Microsoft_Singularity_Io_ConsoleDeviceContract_AckPutChar@@SIXPAU1@PAEPAUStruct_Microsoft_Singularity_Channels_Endpoint@@PAH@Z 00c769d0 f   kernel.obj
 0001:00065a20       ?m_Equals@Struct_Microsoft_Singularity_Io_ConsoleDeviceContract_AckPutChar@@SI_NPAU1@PAUClass_System_Object@@@Z 00c76a20 f   kernel.obj
 0001:00065a54       ?m_Equals@Struct_Microsoft_Singularity_Io_ConsoleDeviceContract_AckPutChar@@SI_NPAUClass_Microsoft_Singularity_Io_ConsoleDeviceContract_AckPutChar@@PAUClass_System_Object@@@Z 00c76a54 f   kernel.obj
 0001:00065a78       ?g_IsWhiteSpace@Class_System_Globalization_CharacterInfo@@SI_N_W@Z 00c76a78 f   kernel.obj
 0001:00065ad0       ?g_IsUpper@Class_System_Globalization_CharacterInfo@@SI_N_W@Z 00c76ad0 f   kernel.obj
 0001:00065af4       ?g_IsLowSurrogate@Class_System_Globalization_CharacterInfo@@SI_N_W@Z 00c76af4 f   kernel.obj
 0001:00065b28       ?g_IsHighSurrogate@Class_System_Globalization_CharacterInfo@@SI_N_W@Z 00c76b28 f   kernel.obj
 0001:00065b5c       ?g_IsDigit@Class_System_Globalization_CharacterInfo@@SI_N_W@Z 00c76b5c f   kernel.obj
 0001:00065b8c       ?g_GetUnicodeCategory@Class_System_Globalization_CharacterInfo@@SI?AUStruct_System_Globalization_UnicodeCategory@@_W@Z 00c76b8c f   kernel.obj
 0001:00065c28       ?m__ctor@Class_System_Globalization_CharacterInfo@@SIXPAU1@@Z 00c76c28 f   kernel.obj
 0001:00065c40       ?g__cctor@Class_System_Globalization_CharacterInfo@@SIXXZ 00c76c40 f   kernel.obj
 0001:00065c54       ?m_Accept@Class_Microsoft_Singularity_Hal_Acpi_AmlParser_DefWhile@@SIXPAU1@PAUClass_Microsoft_Singularity_Hal_Acpi_AmlParserNodeVisitor@@@Z 00c76c54 f   kernel.obj
 0001:00065c84       ?m__ctor@Class_Microsoft_Singularity_Hal_Acpi_AmlParser_DefWhile@@SIXPAU1@@Z 00c76c84 f   kernel.obj
 0001:00065ca4       ?m_Accept@Class_Microsoft_Singularity_Hal_Acpi_AmlParser_DefStall@@SIXPAU1@PAUClass_Microsoft_Singularity_Hal_Acpi_AmlParserNodeVisitor@@@Z 00c76ca4 f   kernel.obj
 0001:00065cd4       ?m__ctor@Class_Microsoft_Singularity_Hal_Acpi_AmlParser_DefStall@@SIXPAU1@@Z 00c76cd4 f   kernel.obj
 0001:00065cf4       ?m_StructCopy@Struct_Microsoft_Singularity_Isal_IX_Fpcw@@SIXPAU1@0@Z 00c76cf4 f   kernel.obj
 0001:00065d10       ?m_StructCopy@Struct_Microsoft_Singularity_Isal_IX_Fpcw@@SIXPAU1@PAU1@@Z 00c76d10 f   kernel.obj
 0001:00065d64       ?m_Equals@Struct_Microsoft_Singularity_Isal_IX_Fpcw@@SI_NPAU1@PAUClass_System_Object@@@Z 00c76d64 f   kernel.obj
 0001:00065d98       ?m_Equals@Struct_Microsoft_Singularity_Isal_IX_Fpcw@@SI_NPAUClass_Microsoft_Singularity_Isal_IX_Fpcw@@PAUClass_System_Object@@@Z 00c76d98 f   kernel.obj
 0001:00065dbc       ?m_StructCopy@Struct_Microsoft_Singularity_Io_ConsoleDeviceContract_CursorFlash@@SIXPAU1@0@Z 00c76dbc f   kernel.obj
 0001:00065dd8       ?m_StructCopy@Struct_Microsoft_Singularity_Io_ConsoleDeviceContract_CursorFlash@@SIXPAU1@PAU1@@Z 00c76dd8 f   kernel.obj
 0001:00065e2c       ?m_Equals@Struct_Microsoft_Singularity_Io_ConsoleDeviceContract_CursorFlash@@SI_NPAU1@PAUClass_System_Object@@@Z 00c76e2c f   kernel.obj
 0001:00065e60       ?m_Equals@Struct_Microsoft_Singularity_Io_ConsoleDeviceContract_CursorFlash@@SI_NPAUClass_Microsoft_Singularity_Io_ConsoleDeviceContract_CursorFlash@@PAUClass_System_Object@@@Z 00c76e60 f   kernel.obj
 0001:00065e84       ?g_UnmapRange@Class_Microsoft_Singularity_Memory_VMManager@@SIXPAUuintPtr@@0@Z 00c76e84 f   kernel.obj
 0001:00065f18       ?g_UnmapPhysicalMemory@Class_Microsoft_Singularity_Memory_VMManager@@SIXPAUClass_Microsoft_Singularity_Memory_VirtualMemoryRange@@PAUClass_Microsoft_Singularity_Process@@PAUuintPtr@@2@Z 00c76f18 f   kernel.obj
 0001:00065fbc       ?g_UnmapPage@Class_Microsoft_Singularity_Memory_VMManager@@SI?AUStruct_Microsoft_Singularity_Memory_PhysicalAddress@@PAUuintPtr@@@Z 00c76fbc f   kernel.obj
 0001:00066080       ?g_TranslatePhysicalRange@Class_Microsoft_Singularity_Memory_VMManager@@SIPAUuintPtr@@UStruct_Microsoft_Singularity_Memory_PhysicalAddress@@PAU2@@Z 00c77080 f   kernel.obj
 0001:00066450       ?g_PostGCInitialize@Class_Microsoft_Singularity_Memory_VMManager@@SIXXZ 00c77450 f   kernel.obj
 0001:00066498       ?g_MapRange@Class_Microsoft_Singularity_Memory_VMManager@@SIXUStruct_Microsoft_Singularity_Memory_PhysicalAddress@@PAUuintPtr@@1PAUClass_Microsoft_Singularity_ProtectionDomain@@@Z 00c77498 f   kernel.obj
 0001:00066968       ?g_MapPhysicalMemory@Class_Microsoft_Singularity_Memory_VMManager@@SIPAUuintPtr@@PAUClass_Microsoft_Singularity_Memory_VirtualMemoryRange@@PAUClass_Microsoft_Singularity_Process@@UStruct_Microsoft_Singularity_Memory_PhysicalAddress@@PAU2@@Z 00c77968 f   kernel.obj
 0001:00066b4c       ?g_MapPageNoLock@Class_Microsoft_Singularity_Memory_VMManager@@SIXUStruct_Microsoft_Singularity_Memory_PhysicalAddress@@PAUuintPtr@@@Z 00c77b4c f   kernel.obj
 0001:00066bb4       ?g_MapPageInternal@Class_Microsoft_Singularity_Memory_VMManager@@SIXUStruct_Microsoft_Singularity_Memory_PhysicalAddress@@PAUuintPtr@@@Z 00c77bb4 f   kernel.obj
 0001:00066be8       ?g_MapPageInternal@Class_Microsoft_Singularity_Memory_VMManager@@SIXUStruct_Microsoft_Singularity_Memory_PhysicalAddress@@PAUuintPtr@@_N@Z 00c77be8 f   kernel.obj
 0001:00066c90       ?g_MapPage@Class_Microsoft_Singularity_Memory_VMManager@@SIXUStruct_Microsoft_Singularity_Memory_PhysicalAddress@@PAUuintPtr@@PAUClass_Microsoft_Singularity_ProtectionDomain@@@Z 00c77c90 f   kernel.obj
 0001:0006705c       ?g_IsUserDescriptorPageMapped@Class_Microsoft_Singularity_Memory_VMManager@@SI_NPAUuintPtr@@@Z 00c7805c f   kernel.obj
 0001:000670c4       ?g_IsPermaMapped@Class_Microsoft_Singularity_Memory_VMManager@@SI_NPAUuintPtr@@0@Z 00c780c4 f   kernel.obj
 0001:00067148       ?g_IsPageMapped@Class_Microsoft_Singularity_Memory_VMManager@@SI_NPAUuintPtr@@@Z 00c78148 f   kernel.obj
 0001:00067234       ?g_IsKernelDescriptorPageMapped@Class_Microsoft_Singularity_Memory_VMManager@@SI_NPAUuintPtr@@@Z 00c78234 f   kernel.obj
 0001:0006729c       ?g_Initialize@Class_Microsoft_Singularity_Memory_VMManager@@SIXXZ 00c7829c f   kernel.obj
 0001:00068424       ?g_GetPTE@Class_Microsoft_Singularity_Memory_VMManager@@SIPAUStruct_Microsoft_Singularity_Isal_IX_PTE@@PAUuintPtr@@@Z 00c79424 f   kernel.obj
 0001:000684a8       ?g_GetPT@Class_Microsoft_Singularity_Memory_VMManager@@SIPAUStruct_Microsoft_Singularity_Isal_IX_PT@@PAUuintPtr@@@Z 00c794a8 f   kernel.obj
 0001:0006856c       ?g_GetPDT@Class_Microsoft_Singularity_Memory_VMManager@@SIPAUStruct_Microsoft_Singularity_Isal_IX_PDT@@PAUuintPtr@@@Z 00c7956c f   kernel.obj
 0001:00068640       ?g_GetPDPE@Class_Microsoft_Singularity_Memory_VMManager@@SIPAUStruct_Microsoft_Singularity_Isal_IX_PDPE@@PAUuintPtr@@@Z 00c79640 f   kernel.obj
 0001:00068690       ?g_GetPDE@Class_Microsoft_Singularity_Memory_VMManager@@SIPAUStruct_Microsoft_Singularity_Isal_IX_PDE@@PAUuintPtr@@@Z 00c79690 f   kernel.obj
 0001:0006870c       ?g_GetBootstrapSpace@Class_Microsoft_Singularity_Memory_VMManager@@SI?AUStruct_Microsoft_Singularity_Memory_AddressSpace@@XZ 00c7970c f   kernel.obj
 0001:00068740       ?g_get$_UserHeapLimit@Class_Microsoft_Singularity_Memory_VMManager@@SIPAUuintPtr@@XZ 00c79740 f   kernel.obj
 0001:00068758       ?g_get$_UserHeapBase@Class_Microsoft_Singularity_Memory_VMManager@@SIPAUuintPtr@@XZ 00c79758 f   kernel.obj
 0001:00068770       ?g_get$_KernelHeapLimit@Class_Microsoft_Singularity_Memory_VMManager@@SIPAUuintPtr@@XZ 00c79770 f   kernel.obj
 0001:00068788       ?g_get$_KernelHeapBase@Class_Microsoft_Singularity_Memory_VMManager@@SIPAUuintPtr@@XZ 00c79788 f   kernel.obj
 0001:000687a0       ?g_Finalize@Class_Microsoft_Singularity_Memory_VMManager@@SIXXZ 00c797a0 f   kernel.obj
 0001:00068838       ?g_EnsurePTE@Class_Microsoft_Singularity_Memory_VMManager@@SIPAUStruct_Microsoft_Singularity_Isal_IX_PTE@@PAUuintPtr@@@Z 00c79838 f   kernel.obj
 0001:00068894       ?g_EnsurePT@Class_Microsoft_Singularity_Memory_VMManager@@SIPAUStruct_Microsoft_Singularity_Isal_IX_PT@@PAUuintPtr@@@Z 00c79894 f   kernel.obj
 0001:000689b8       ?g_EnsurePDT@Class_Microsoft_Singularity_Memory_VMManager@@SIPAUStruct_Microsoft_Singularity_Isal_IX_PDT@@PAUuintPtr@@@Z 00c799b8 f   kernel.obj
 0001:00068ac8       ?g_EnsurePDE@Class_Microsoft_Singularity_Memory_VMManager@@SIPAUStruct_Microsoft_Singularity_Isal_IX_PDE@@PAUuintPtr@@@Z 00c79ac8 f   kernel.obj
 0001:00068b28       ?g_CreateBootstrapSpace@Class_Microsoft_Singularity_Memory_VMManager@@SI?AUStruct_Microsoft_Singularity_Memory_AddressSpace@@XZ 00c79b28 f   kernel.obj
 0001:000691f8       ?g_BootstrapMapRange@Class_Microsoft_Singularity_Memory_VMManager@@SIXPAUStruct_Microsoft_Singularity_Isal_IX_PDPT@@PAUuintPtr@@1UStruct_Microsoft_Singularity_Memory_PhysicalAddress@@_N33@Z 00c7a1f8 f   kernel.obj
 0001:00069514       ?g_BootstrapMapPageTable@Class_Microsoft_Singularity_Memory_VMManager@@SIXPAUStruct_Microsoft_Singularity_Isal_IX_PDPT@@@Z 00c7a514 f   kernel.obj
 0001:00069974       ?g_BootstrapMapPage@Class_Microsoft_Singularity_Memory_VMManager@@SIXPAUStruct_Microsoft_Singularity_Isal_IX_PDPT@@PAUuintPtr@@UStruct_Microsoft_Singularity_Memory_PhysicalAddress@@_N@Z 00c7a974 f   kernel.obj
 0001:00069b74       ?g_BootstrapEnsurePTs@Class_Microsoft_Singularity_Memory_VMManager@@SIXPAUStruct_Microsoft_Singularity_Isal_IX_PDPT@@PAUuintPtr@@1@Z 00c7ab74 f   kernel.obj
 0001:00069d20       ?g_BootstrapEnsurePDTs@Class_Microsoft_Singularity_Memory_VMManager@@SIXPAUStruct_Microsoft_Singularity_Isal_IX_PDPT@@PAUuintPtr@@1@Z 00c7ad20 f   kernel.obj
 0001:00069e00       ?m__ctor@Class_Microsoft_Singularity_Memory_VMManager@@SIXPAU1@@Z 00c7ae00 f   kernel.obj
 0001:00069e18       ?m__ctor@Class_Microsoft_Contracts_AssumeException@@SIXPAU1@@Z 00c7ae18 f   kernel.obj
 0001:00069e38       ?m_StructCopy@Struct_Microsoft_Singularity_KernelDebugger_CreateHostFileResponse@@SIXPAU1@0@Z 00c7ae38 f   kernel.obj
 0001:00069e74       ?m_StructCopy@Struct_Microsoft_Singularity_KernelDebugger_CreateHostFileResponse@@SIXPAU1@PAU1@@Z 00c7ae74 f   kernel.obj
 0001:00069f28       ?m_Equals@Struct_Microsoft_Singularity_KernelDebugger_CreateHostFileResponse@@SI_NPAU1@PAUClass_System_Object@@@Z 00c7af28 f   kernel.obj
 0001:00069fac       ?m_Equals@Struct_Microsoft_Singularity_KernelDebugger_CreateHostFileResponse@@SI_NPAUClass_Microsoft_Singularity_KernelDebugger_CreateHostFileResponse@@PAUClass_System_Object@@@Z 00c7afac f   kernel.obj
 0001:00069fd0       ?m_Accept@Class_Microsoft_Singularity_Hal_Acpi_AmlParser_DefAcquire@@SIXPAU1@PAUClass_Microsoft_Singularity_Hal_Acpi_AmlParserNodeVisitor@@@Z 00c7afd0 f   kernel.obj
 0001:0006a000       ?m__ctor@Class_Microsoft_Singularity_Hal_Acpi_AmlParser_DefAcquire@@SIXPAU1@@Z 00c7b000 f   kernel.obj
 0001:0006a020       ?m_StructCopy@Struct_Microsoft_Singularity_Security_SecurityDiagnosticsContract_GetStatistics@@SIXPAU1@0@Z 00c7b020 f   kernel.obj
 0001:0006a03c       ?m_StructCopy@Struct_Microsoft_Singularity_Security_SecurityDiagnosticsContract_GetStatistics@@SIXPAU1@PAU1@@Z 00c7b03c f   kernel.obj
 0001:0006a090       ?m_Equals@Struct_Microsoft_Singularity_Security_SecurityDiagnosticsContract_GetStatistics@@SI_NPAU1@PAUClass_System_Object@@@Z 00c7b090 f   kernel.obj
 0001:0006a0c4       ?m_Equals@Struct_Microsoft_Singularity_Security_SecurityDiagnosticsContract_GetStatistics@@SI_NPAUClass_Microsoft_Singularity_Security_SecurityDiagnosticsContract_GetStatistics@@PAUClass_System_Object@@@Z 00c7b0c4 f   kernel.obj
 0001:0006a0e8       ?g_Create@Class_Microsoft_Singularity_Hal_Acpi_LocalApic@@SIPAUClass_System_Object@@PAUClass_Microsoft_Singularity_Io_IoMemory@@H@Z 00c7b0e8 f   kernel.obj
 0001:0006a144       ?m__ctor@Class_Microsoft_Singularity_Hal_Acpi_LocalApic@@SIXPAU1@PAUClass_Microsoft_Singularity_Io_IoMemory@@H@Z 00c7b144 f   kernel.obj
 0001:0006a378       ?m_ResourceDescriptorsToIoConfig@Class_Microsoft_Singularity_Drivers_AcpiBus@@SIPAUClass_Microsoft_Singularity_Io_IoConfig@@PAU1@PAUClass_System_String@@PAUClassVector_Class_Microsoft_Singularity_Hal_Acpi_ResourceDescriptor@@@Z 00c7b378 f   kernel.obj
 0001:0006a920       ?m_ReportConfig@Class_Microsoft_Singularity_Drivers_AcpiBus@@SIPAUClass_Microsoft_Singularity_Io_PnpConfig@@PAU1@@Z 00c7b920 f   kernel.obj
 0001:0006a9bc       ?g_ProcessExceptions@Class_Microsoft_Singularity_Drivers_AcpiBus@@SIPAUClass_Microsoft_Singularity_Io_IoRange@@PAUClass_System_String@@PAU2@@Z 00c7b9bc f   kernel.obj
 0001:0006aa80       ?m_Initialize@Class_Microsoft_Singularity_Drivers_AcpiBus@@SIXPAU1@@Z 00c7ba80 f   kernel.obj
 0001:0006aa98       ?m_Finalize@Class_Microsoft_Singularity_Drivers_AcpiBus@@SIXPAU1@@Z 00c7ba98 f   kernel.obj
 0001:0006aab0       ?m_Enumerate@Class_Microsoft_Singularity_Drivers_AcpiBus@@SIPAUClass_System_Collections_SortedList@@PAU1@@Z 00c7bab0 f   kernel.obj
 0001:0006ad64       ?m__ctor@Class_Microsoft_Singularity_Drivers_AcpiBus@@SIXPAU1@PAUClassVector_Class_Microsoft_Singularity_Hal_Acpi_AcpiDevice@@@Z 00c7bd64 f   kernel.obj
 0001:0006ad8c       ?m_StructCopy@Struct_Microsoft_Singularity_Kd_X64KProcessorState@@SIXPAU1@0@Z 00c7bd8c f   kernel.obj
 0001:0006ade8       ?m_StructCopy@Struct_Microsoft_Singularity_Kd_X64KProcessorState@@SIXPAU1@PAU1@@Z 00c7bde8 f   kernel.obj
 0001:0006aefc       ?m_Equals@Struct_Microsoft_Singularity_Kd_X64KProcessorState@@SI_NPAU1@PAUClass_System_Object@@@Z 00c7befc f   kernel.obj
 0001:0006b054       ?m_Equals@Struct_Microsoft_Singularity_Kd_X64KProcessorState@@SI_NPAUClass_Microsoft_Singularity_Kd_X64KProcessorState@@PAUClass_System_Object@@@Z 00c7c054 f   kernel.obj
 0001:0006b078       ?m_StructCopy@Struct_Microsoft_Singularity_Isal_IX_TSS@@SIXPAU1@0@Z 00c7c078 f   kernel.obj
 0001:0006b1a8       ?m_StructCopy@Struct_Microsoft_Singularity_Isal_IX_TSS@@SIXPAU1@PAU1@@Z 00c7c1a8 f   kernel.obj
 0001:0006b538       ?m_Equals@Struct_Microsoft_Singularity_Isal_IX_TSS@@SI_NPAU1@PAUClass_System_Object@@@Z 00c7c538 f   kernel.obj
 0001:0006b738       ?m_Equals@Struct_Microsoft_Singularity_Isal_IX_TSS@@SI_NPAUClass_Microsoft_Singularity_Isal_IX_TSS@@PAUClass_System_Object@@@Z 00c7c738 f   kernel.obj
 0001:0006b75c       ?m_ToString@Class_Microsoft_Singularity_Io_IoIrqRange@@SIPAUClass_System_String@@PAU1@@Z 00c7c75c f   kernel.obj
 0001:0006b7c4       ?m_IrqAtOffset@Class_Microsoft_Singularity_Io_IoIrqRange@@SIPAUClass_Microsoft_Singularity_Io_IoIrq@@PAU1@E@Z 00c7c7c4 f   kernel.obj
 0001:0006b854       ?m_get$_Size@Class_Microsoft_Singularity_Io_IoIrqRange@@SIEPAU1@@Z 00c7c854 f   kernel.obj
 0001:0006b870       ?m_get$_RangeLength@Class_Microsoft_Singularity_Io_IoIrqRange@@SIIPAU1@@Z 00c7c870 f   kernel.obj
 0001:0006b88c       ?m_get$_RangeBase@Class_Microsoft_Singularity_Io_IoIrqRange@@SIIPAU1@@Z 00c7c88c f   kernel.obj
 0001:0006b8a8       ?m_get$_Line@Class_Microsoft_Singularity_Io_IoIrqRange@@SIEPAU1@@Z 00c7c8a8 f   kernel.obj
 0001:0006b8c4       ?m_get$_Irq@Class_Microsoft_Singularity_Io_IoIrqRange@@SIEPAU1@@Z 00c7c8c4 f   kernel.obj
 0001:0006b8e0       ?m__ctor@Class_Microsoft_Singularity_Io_IoIrqRange@@SIXPAU1@EE@Z 00c7c8e0 f   kernel.obj
 0001:0006b914       ?g_WalkStackFrame@Class_System_GCs_CallStack@@SI_NPAPAPAUuintPtr@@0PAUStruct_System_GCs_CalleeSaveLocations@@PAPAU2@PAUClass_System_GCs_NonNullReferenceVisitor@@3UStruct_System_GCs_CompressedFrameDescriptor@@PAUStruct_System_GCs_CallStack_TransitionRecord@@PAUClass_System_Threading_Thread@@@Z 00c7c914 f   kernel.obj
 0001:0006bff4       ?g_VisitIfNotContext@Class_System_GCs_CallStack@@SIXPAUClass_System_Threading_Thread@@PAUClass_System_GCs_NonNullReferenceVisitor@@PAPAUuintPtr@@@Z 00c7cff4 f   kernel.obj
 0001:0006c01c       ?g_SkipUnlinkStackFrame@Class_System_GCs_CallStack@@SIPAUuintPtr@@PAPAPAU2@0@Z 00c7d01c f   kernel.obj
 0001:0006c044       ?g_SkipLinkStackStubFrame@Class_System_GCs_CallStack@@SIPAUuintPtr@@PAPAPAU2@0@Z 00c7d044 f   kernel.obj
 0001:0006c074       ?g_SkipLinkStackFrame@Class_System_GCs_CallStack@@SIPAUuintPtr@@PAPAPAU2@0@Z 00c7d074 f   kernel.obj
 0001:0006c0a4       ?g_ScanStackSegment@Class_System_GCs_CallStack@@SIIPAUStruct_System_GCs_CalleeSaveLocations@@PAUuintPtr@@PAPAU3@2PAUStruct_System_GCs_CallStack_TransitionRecord@@PAUClass_System_GCs_NonNullReferenceVisitor@@4PAUClass_System_Threading_Thread@@@Z 00c7d0a4 f   kernel.obj
 0001:0006c2c4       ?g_ScanStacks@Class_System_GCs_CallStack@@SIHPAUClass_System_GCs_NonNullReferenceVisitor@@0@Z 00c7d2c4 f   kernel.obj
 0001:0006c35c       ?g_ScanStack@Class_System_GCs_CallStack@@SIIPAUClass_System_Threading_Thread@@PAUClass_System_GCs_NonNullReferenceVisitor@@1@Z 00c7d35c f   kernel.obj
 0001:0006c564       ?g_Initialize@Class_System_GCs_CallStack@@SIXXZ 00c7d564 f   kernel.obj
 0001:0006c6bc       ?g_FrameContainsTransitionRecord@Class_System_GCs_CallStack@@SI_NPAPAUuintPtr@@0PAUStruct_System_GCs_CallStack_TransitionRecord@@@Z 00c7d6bc f   kernel.obj
 0001:0006c704       ?g_CountBits@Class_System_GCs_CallStack@@SIHPAUuintPtr@@@Z 00c7d704 f   kernel.obj
 0001:0006c748       ?g_CallSiteTableNumber@Class_System_GCs_CallStack@@SIHPAUuintPtr@@@Z 00c7d748 f   kernel.obj
 0001:0006c810       ?g_CallSiteSetNumber@Class_System_GCs_CallStack@@SIHPAUuintPtr@@H@Z 00c7d810 f   kernel.obj
 0001:0006c8e4       ?m__ctor@Class_System_GCs_CallStack@@SIXPAU1@@Z 00c7d8e4 f   kernel.obj
 0001:0006c8fc       ?m_StructCopy@Struct_System_Threading_Thread_SchedulerInfo@@SIXPAU1@0@Z 00c7d8fc f   kernel.obj
 0001:0006c928       ?m_StructCopy@Struct_System_Threading_Thread_SchedulerInfo@@SIXPAU1@PAU1@@Z 00c7d928 f   kernel.obj
 0001:0006c9ac       ?m_set$_UnblockedBy@Struct_System_Threading_Thread_SchedulerInfo@@SIXPAU1@H@Z 00c7d9ac f   kernel.obj
 0001:0006c9ec       ?m_set$_State@Struct_System_Threading_Thread_SchedulerInfo@@SIXPAU1@UStruct_System_Threading_ThreadState@@@Z 00c7d9ec f   kernel.obj
 0001:0006ca2c       ?m_set$_IsAborted@Struct_System_Threading_Thread_SchedulerInfo@@SIXPAU1@_N@Z 00c7da2c f   kernel.obj
 0001:0006ca74       ?m_set$_FreezeCount@Struct_System_Threading_Thread_SchedulerInfo@@SIXPAU1@G@Z 00c7da74 f   kernel.obj
 0001:0006cab8       ?m_IncrementDelayAbortCount@Struct_System_Threading_Thread_SchedulerInfo@@SIXPAU1@@Z 00c7dab8 f   kernel.obj
 0001:0006cb00       ?m_get$_UnblockedBy@Struct_System_Threading_Thread_SchedulerInfo@@SIHPAU1@@Z 00c7db00 f   kernel.obj
 0001:0006cb20       ?m_get$_State@Struct_System_Threading_Thread_SchedulerInfo@@SI?AUStruct_System_Threading_ThreadState@@PAU1@@Z 00c7db20 f   kernel.obj
 0001:0006cb40       ?m_get$_IsAborted@Struct_System_Threading_Thread_SchedulerInfo@@SI_NPAU1@@Z 00c7db40 f   kernel.obj
 0001:0006cb68       ?m_get$_FreezeCount@Struct_System_Threading_Thread_SchedulerInfo@@SIGPAU1@@Z 00c7db68 f   kernel.obj
 0001:0006cb8c       ?m_get$_DelayAbortCount@Struct_System_Threading_Thread_SchedulerInfo@@SIEPAU1@@Z 00c7db8c f   kernel.obj
 0001:0006cbb4       ?m_Equals@Struct_System_Threading_Thread_SchedulerInfo@@SI_NPAU1@PAUClass_System_Object@@@Z 00c7dbb4 f   kernel.obj
 0001:0006cc0c       ?m_Equals@Struct_System_Threading_Thread_SchedulerInfo@@SI_NPAUClass_System_Threading_Thread_SchedulerInfo@@PAUClass_System_Object@@@Z 00c7dc0c f   kernel.obj
 0001:0006cc30       ?m_DecrementDelayAbortCount@Struct_System_Threading_Thread_SchedulerInfo@@SIXPAU1@@Z 00c7dc30 f   kernel.obj
 0001:0006cc74       ?g_DeviceCreate@Class_Microsoft_Singularity_Drivers_NvPciLpcResources@@SIPAUClass_Microsoft_Singularity_Io_IDevice@@PAUClass_Microsoft_Singularity_Io_IoConfig@@PAUClass_System_String@@@Z 00c7dc74 f   kernel.obj
 0001:0006cce0       ?m__ctor@Class_Microsoft_Singularity_Drivers_NvPciLpcResources@@SIXPAU1@@Z 00c7dce0 f   kernel.obj
 0001:0006cd00       ?m_StructCopy@Struct_Microsoft_Singularity_V1_Threads_ContainerHandle@@SIXPAU1@0@Z 00c7dd00 f   kernel.obj
 0001:0006cd20       ?m_StructCopy@Struct_Microsoft_Singularity_V1_Threads_ContainerHandle@@SIXPAU1@PAU1@@Z 00c7dd20 f   kernel.obj
 0001:0006cd80       ?m_Equals@Struct_Microsoft_Singularity_V1_Threads_ContainerHandle@@SI_NPAU1@PAUClass_System_Object@@@Z 00c7dd80 f   kernel.obj
 0001:0006cdbc       ?m_Equals@Struct_Microsoft_Singularity_V1_Threads_ContainerHandle@@SI_NPAUClass_Microsoft_Singularity_V1_Threads_ContainerHandle@@PAUClass_System_Object@@@Z 00c7ddbc f   kernel.obj
 0001:0006ce00       ?g_Dispose$_@Struct_Microsoft_Singularity_V1_Threads_ContainerHandle@@SIXU1@@Z 00c7de00 f   kernel.obj
 0001:0006ce38       ?g_Dispose@Struct_Microsoft_Singularity_V1_Threads_ContainerHandle@@SIXU1@@Z 00c7de38 f   kernel.obj
 0001:0006d2cc       ?g_CreateImpl$_@Struct_Microsoft_Singularity_V1_Threads_ContainerHandle@@SI_NPAU1@@Z 00c7e2cc f   kernel.obj
 0001:0006d2ec       ?g_CreateImpl@Struct_Microsoft_Singularity_V1_Threads_ContainerHandle@@SI_NPAU1@@Z 00c7e2ec f   kernel.obj
 0001:0006d790       ?g_Create@Struct_Microsoft_Singularity_V1_Threads_ContainerHandle@@SI_NPAU1@@Z 00c7e790 f   kernel.obj
 0001:0006d7ec       ?m__ctor@Struct_Microsoft_Singularity_V1_Threads_ContainerHandle@@SIXPAU1@PAUuintPtr@@@Z 00c7e7ec f   kernel.obj
 0001:0006d80c       ?g__cctor@Struct_Microsoft_Singularity_V1_Threads_ContainerHandle@@SIXXZ 00c7e80c f   kernel.obj
 0001:0006d828       ?m_Release@Class__Directory_Microsoft_Singularity_Channels_TRef$_2$LMicrosoft_Singularity_Directory_IoMemFSContract_Imp_Microsoft_Singularity_Directory_IoMemFSContract_Ready$G@@SIXPAU1@PAUStruct_Microsoft_Singularity_Directory_IoMemFSContract_Imp@@@Z 00c7e828 f   kernel.obj
 0001:0006d958       ?m_Finalize@Class__Directory_Microsoft_Singularity_Channels_TRef$_2$LMicrosoft_Singularity_Directory_IoMemFSContract_Imp_Microsoft_Singularity_Directory_IoMemFSContract_Ready$G@@SIXPAU1@@Z 00c7e958 f   kernel.obj
 0001:0006d9e0       ?m_Acquire@Class__Directory_Microsoft_Singularity_Channels_TRef$_2$LMicrosoft_Singularity_Directory_IoMemFSContract_Imp_Microsoft_Singularity_Directory_IoMemFSContract_Ready$G@@SIPAUStruct_Microsoft_Singularity_Directory_IoMemFSContract_Imp@@PAU1@@Z 00c7e9e0 f   kernel.obj
 0001:0006db04       ?m__ctor@Class__Directory_Microsoft_Singularity_Channels_TRef$_2$LMicrosoft_Singularity_Directory_IoMemFSContract_Imp_Microsoft_Singularity_Directory_IoMemFSContract_Ready$G@@SIXPAU1@PAUStruct_Microsoft_Singularity_Directory_IoMemFSContract_Imp@@@Z 00c7eb04 f   kernel.obj
 0001:0006dc50       ?m_Accept@Class_Microsoft_Singularity_Hal_Acpi_AmlParser_DefField@@SIXPAU1@PAUClass_Microsoft_Singularity_Hal_Acpi_AmlParserNodeVisitor@@@Z 00c7ec50 f   kernel.obj
 0001:0006dc80       ?m__ctor@Class_Microsoft_Singularity_Hal_Acpi_AmlParser_DefField@@SIXPAU1@@Z 00c7ec80 f   kernel.obj
 0001:0006dca0       ?m_StructCopy@Struct_Microsoft_Singularity_Directory_NotifyContract_Begin@@SIXPAU1@0@Z 00c7eca0 f   kernel.obj
 0001:0006dcbc       ?m_StructCopy@Struct_Microsoft_Singularity_Directory_NotifyContract_Begin@@SIXPAU1@PAU1@@Z 00c7ecbc f   kernel.obj
 0001:0006dd10       ?m_MarshallContent@Struct_Microsoft_Singularity_Directory_NotifyContract_Begin@@SIXPAU1@PAEPAUStruct_Microsoft_Singularity_Channels_Endpoint@@1PAH@Z 00c7ed10 f   kernel.obj
 0001:0006dd30       ?m_MarshallAll@Struct_Microsoft_Singularity_Directory_NotifyContract_Begin@@SIXPAU1@PAEPAUStruct_Microsoft_Singularity_Channels_Endpoint@@PAH@Z 00c7ed30 f   kernel.obj
 0001:0006dd80       ?m_Equals@Struct_Microsoft_Singularity_Directory_NotifyContract_Begin@@SI_NPAU1@PAUClass_System_Object@@@Z 00c7ed80 f   kernel.obj
 0001:0006ddb4       ?m_Equals@Struct_Microsoft_Singularity_Directory_NotifyContract_Begin@@SI_NPAUClass_Microsoft_Singularity_Directory_NotifyContract_Begin@@PAUClass_System_Object@@@Z 00c7edb4 f   kernel.obj
 0001:0006ddd8       ?m__ctor@Class_System_UndoLog@@SIXPAU1@@Z 00c7edd8 f   kernel.obj
 0001:0006de10       ?m_Accept@Class_Microsoft_Singularity_Hal_Acpi_AmlParser_DefFatal@@SIXPAU1@PAUClass_Microsoft_Singularity_Hal_Acpi_AmlParserNodeVisitor@@@Z 00c7ee10 f   kernel.obj
 0001:0006de3c       ?m__ctor@Class_Microsoft_Singularity_Hal_Acpi_AmlParser_DefFatal@@SIXPAU1@@Z 00c7ee3c f   kernel.obj
 0001:0006de5c       ?g_StableState@Class_Microsoft_Singularity_Extending_ExtensionContract@@SIHPAUStruct_Microsoft_Singularity_Channels_StateStack@@@Z 00c7ee5c f   kernel.obj
 0001:0006dee0       ?g_NewChannel@Class_Microsoft_Singularity_Extending_ExtensionContract@@SIXPAPAUStruct_Microsoft_Singularity_Extending_ExtensionContract_Imp@@PAPAUStruct_Microsoft_Singularity_Extending_ExtensionContract_Exp@@@Z 00c7eee0 f   kernel.obj
 0001:0006df74       ?m__ctor@Class_Microsoft_Singularity_Extending_ExtensionContract@@SIXPAU1@@Z 00c7ef74 f   kernel.obj
 0001:0006df8c       ?m_System_Collections_IEnumerator_get$_Current@Class_System_CharEnumerator@@SIPAUClass_System_Object@@PAU1@@Z 00c7ef8c f   kernel.obj
 0001:0006e020       ?m_MoveNext@Class_System_CharEnumerator@@SI_NPAU1@@Z 00c7f020 f   kernel.obj
 0001:0006e088       ?m__ctor@Class_System_CharEnumerator@@SIXPAU1@PAUClass_System_String@@@Z 00c7f088 f   kernel.obj
 0001:0006e0bc       ?m_Accept@Class_Microsoft_Singularity_Hal_Acpi_AmlParser_DefToHexString@@SIXPAU1@PAUClass_Microsoft_Singularity_Hal_Acpi_AmlParserNodeVisitor@@@Z 00c7f0bc f   kernel.obj
 0001:0006e0e8       ?m__ctor@Class_Microsoft_Singularity_Hal_Acpi_AmlParser_DefToHexString@@SIXPAU1@@Z 00c7f0e8 f   kernel.obj
 0001:0006e108       ?g_UnmapPhysicalRange$_@Struct_Microsoft_Singularity_V1_Services_DeviceService@@SIXPAUuintPtr@@0@Z 00c7f108 f   kernel.obj
 0001:0006e128       ?g_UnmapPhysicalRange@Struct_Microsoft_Singularity_V1_Services_DeviceService@@SIXPAUuintPtr@@0@Z 00c7f128 f   kernel.obj
 0001:0006e5c8       ?m_StructCopy@Struct_Microsoft_Singularity_V1_Services_DeviceService@@SIXPAU1@0@Z 00c7f5c8 f   kernel.obj
 0001:0006e5e4       ?m_StructCopy@Struct_Microsoft_Singularity_V1_Services_DeviceService@@SIXPAU1@PAU1@@Z 00c7f5e4 f   kernel.obj
 0001:0006e638       ?g_MapPhysicalRange$_@Struct_Microsoft_Singularity_V1_Services_DeviceService@@SIPAUuintPtr@@PAU2@0_N1@Z 00c7f638 f   kernel.obj
 0001:0006e68c       ?g_MapPhysicalRange@Struct_Microsoft_Singularity_V1_Services_DeviceService@@SIPAUuintPtr@@PAU2@0_N1@Z 00c7f68c f   kernel.obj
 0001:0006eb48       ?g_GetPnpSignature$_@Struct_Microsoft_Singularity_V1_Services_DeviceService@@SIIHPA_WI@Z 00c7fb48 f   kernel.obj
 0001:0006ec1c       ?g_GetPnpSignature@Struct_Microsoft_Singularity_V1_Services_DeviceService@@SIIHPA_WI@Z 00c7fc1c f   kernel.obj
 0001:0006f0d0       ?g_GetPciPort$_@Struct_Microsoft_Singularity_V1_Services_DeviceService@@SI_NPAUStruct_Microsoft_Singularity_V1_Services_PciPortHandle@@@Z 00c800d0 f   kernel.obj
 0001:0006f0f0       ?g_GetPciPort@Struct_Microsoft_Singularity_V1_Services_DeviceService@@SI_NPAUStruct_Microsoft_Singularity_V1_Services_PciPortHandle@@@Z 00c800f0 f   kernel.obj
 0001:0006f598       ?g_GetIrqCount$_@Struct_Microsoft_Singularity_V1_Services_DeviceService@@SIHE@Z 00c80598 f   kernel.obj
 0001:0006f60c       ?g_GetIrqCount@Struct_Microsoft_Singularity_V1_Services_DeviceService@@SIHE@Z 00c8060c f   kernel.obj
 0001:0006fab0       ?g_GetFixedIoRangeCount$_@Struct_Microsoft_Singularity_V1_Services_DeviceService@@SIIXZ 00c80ab0 f   kernel.obj
 0001:0006fb28       ?g_GetFixedIoRangeCount@Struct_Microsoft_Singularity_V1_Services_DeviceService@@SIIXZ 00c80b28 f   kernel.obj
 0001:0006ffc0       ?g_GetFixedIoPortRangeImpl$_@Struct_Microsoft_Singularity_V1_Services_DeviceService@@SI_NIPAG0PA_N1@Z 00c80fc0 f   kernel.obj
 0001:0006fffc       ?g_GetFixedIoPortRangeImpl@Struct_Microsoft_Singularity_V1_Services_DeviceService@@SI_NIPAG0PA_N1@Z 00c80ffc f   kernel.obj
 0001:000704b8       ?g_GetFixedIoPortRange@Struct_Microsoft_Singularity_V1_Services_DeviceService@@SI_NIPAG0PA_N1@Z 00c814b8 f   kernel.obj
 0001:000705c0       ?g_GetFixedIoMemoryRangeImpl$_@Struct_Microsoft_Singularity_V1_Services_DeviceService@@SI_NIPAPAEPAIPA_N2@Z 00c815c0 f   kernel.obj
 0001:000705fc       ?g_GetFixedIoMemoryRangeImpl@Struct_Microsoft_Singularity_V1_Services_DeviceService@@SI_NIPAPAEPAIPA_N2@Z 00c815fc f   kernel.obj
 0001:00070ab8       ?g_GetFixedIoMemoryRange@Struct_Microsoft_Singularity_V1_Services_DeviceService@@SI_NIPAPAEPAIPA_N2@Z 00c81ab8 f   kernel.obj
 0001:00070be8       ?g_GetFixedIoIrqRangeImpl$_@Struct_Microsoft_Singularity_V1_Services_DeviceService@@SI_NIPAE0@Z 00c81be8 f   kernel.obj
 0001:00070c10       ?g_GetFixedIoIrqRangeImpl@Struct_Microsoft_Singularity_V1_Services_DeviceService@@SI_NIPAE0@Z 00c81c10 f   kernel.obj
 0001:000710c4       ?g_GetFixedIoIrqRange@Struct_Microsoft_Singularity_V1_Services_DeviceService@@SI_NIPAE0@Z 00c820c4 f   kernel.obj
 0001:0007119c       ?g_GetFixedIoDmaRangeImpl$_@Struct_Microsoft_Singularity_V1_Services_DeviceService@@SI_NIPAE0@Z 00c8219c f   kernel.obj
 0001:000711c4       ?g_GetFixedIoDmaRangeImpl@Struct_Microsoft_Singularity_V1_Services_DeviceService@@SI_NIPAE0@Z 00c821c4 f   kernel.obj
 0001:00071678       ?g_GetFixedIoDmaRange@Struct_Microsoft_Singularity_V1_Services_DeviceService@@SI_NIPAE0@Z 00c82678 f   kernel.obj
 0001:00071750       ?g_GetDynamicIoRangeCount$_@Struct_Microsoft_Singularity_V1_Services_DeviceService@@SIIXZ 00c82750 f   kernel.obj
 0001:000717c4       ?g_GetDynamicIoRangeCount@Struct_Microsoft_Singularity_V1_Services_DeviceService@@SIIXZ 00c827c4 f   kernel.obj
 0001:00071c5c       ?g_GetDynamicIoPortRangeImpl$_@Struct_Microsoft_Singularity_V1_Services_DeviceService@@SI_NIPAG0PA_N1@Z 00c82c5c f   kernel.obj
 0001:00071c98       ?g_GetDynamicIoPortRangeImpl@Struct_Microsoft_Singularity_V1_Services_DeviceService@@SI_NIPAG0PA_N1@Z 00c82c98 f   kernel.obj
 0001:00072154       ?g_GetDynamicIoPortRange@Struct_Microsoft_Singularity_V1_Services_DeviceService@@SI_NIPAG0PA_N1@Z 00c83154 f   kernel.obj
 0001:0007225c       ?g_GetDynamicIoMemoryRangeImpl$_@Struct_Microsoft_Singularity_V1_Services_DeviceService@@SI_NIPAPAEPAIPA_N2@Z 00c8325c f   kernel.obj
 0001:00072298       ?g_GetDynamicIoMemoryRangeImpl@Struct_Microsoft_Singularity_V1_Services_DeviceService@@SI_NIPAPAEPAIPA_N2@Z 00c83298 f   kernel.obj
 0001:00072754       ?g_GetDynamicIoMemoryRange@Struct_Microsoft_Singularity_V1_Services_DeviceService@@SI_NIPAPAEPAIPA_N2@Z 00c83754 f   kernel.obj
 0001:00072878       ?g_GetDynamicIoIrqRangeImpl$_@Struct_Microsoft_Singularity_V1_Services_DeviceService@@SI_NIPAE0@Z 00c83878 f   kernel.obj
 0001:000728a0       ?g_GetDynamicIoIrqRangeImpl@Struct_Microsoft_Singularity_V1_Services_DeviceService@@SI_NIPAE0@Z 00c838a0 f   kernel.obj
 0001:00072d54       ?g_GetDynamicIoIrqRange@Struct_Microsoft_Singularity_V1_Services_DeviceService@@SI_NIPAE0@Z 00c83d54 f   kernel.obj
 0001:00072e2c       ?g_GetDynamicIoDmaRangeImpl$_@Struct_Microsoft_Singularity_V1_Services_DeviceService@@SI_NIPAE0@Z 00c83e2c f   kernel.obj
 0001:00072e54       ?g_GetDynamicIoDmaRangeImpl@Struct_Microsoft_Singularity_V1_Services_DeviceService@@SI_NIPAE0@Z 00c83e54 f   kernel.obj
 0001:00073308       ?g_GetDynamicIoDmaRange@Struct_Microsoft_Singularity_V1_Services_DeviceService@@SI_NIPAE0@Z 00c84308 f   kernel.obj
 0001:000733e0       ?g_GetDmaPhysicalAddressImpl$_@Struct_Microsoft_Singularity_V1_Services_DeviceService@@SI_NPAUuintPtr@@PAPAU2@1@Z 00c843e0 f   kernel.obj
 0001:00073408       ?g_GetDmaPhysicalAddressImpl@Struct_Microsoft_Singularity_V1_Services_DeviceService@@SI_NPAUuintPtr@@PAPAU2@1@Z 00c84408 f   kernel.obj
 0001:000738bc       ?g_GetDmaPhysicalAddress@Struct_Microsoft_Singularity_V1_Services_DeviceService@@SI_NPAUuintPtr@@PAPAU2@1@Z 00c848bc f   kernel.obj
 0001:00073934       ?m_Equals@Struct_Microsoft_Singularity_V1_Services_DeviceService@@SI_NPAU1@PAUClass_System_Object@@@Z 00c84934 f   kernel.obj
 0001:00073954       ?m_Equals@Struct_Microsoft_Singularity_V1_Services_DeviceService@@SI_NPAUClass_Microsoft_Singularity_V1_Services_DeviceService@@PAUClass_System_Object@@@Z 00c84954 f   kernel.obj
 0001:0007397c       ?m_RecvEmpty@Class_Microsoft_Singularity_Channels_ESet$_2$LMicrosoft_Singularity_Diagnostics_Contracts_ProcessContract_Exp_Microsoft_Singularity_Diagnostics_Contracts_ProcessContract_ReadyState$G@@SIXPAU1@@Z 00c8497c f   kernel.obj
 0001:00073994       ?m_HeadMatches@Class_Microsoft_Singularity_Channels_ESet$_2$LMicrosoft_Singularity_Diagnostics_Contracts_ProcessContract_Exp_Microsoft_Singularity_Diagnostics_Contracts_ProcessContract_ReadyState$G@@SI_NPAU1@HPA_NPAPAUClass_System_Object@@@Z 00c84994 f   kernel.obj
 0001:00073ad0       ?m_GetWaitHandle@Class_Microsoft_Singularity_Channels_ESet$_2$LMicrosoft_Singularity_Diagnostics_Contracts_ProcessContract_Exp_Microsoft_Singularity_Diagnostics_Contracts_ProcessContract_ReadyState$G@@SI?AUStruct_Microsoft_Singularity_V1_Threads_SyncHandle@@PAU1@@Z 00c84ad0 f   kernel.obj
 0001:00073b40       ?m_GetFreshNode@Class_Microsoft_Singularity_Channels_ESet$_2$LMicrosoft_Singularity_Diagnostics_Contracts_ProcessContract_Exp_Microsoft_Singularity_Diagnostics_Contracts_ProcessContract_ReadyState$G@@SIPAUClass_Microsoft_Singularity_Channels_ESet$_2$LMicrosoft_Singularity_Diagnostics_Contracts_ProcessContract_Exp_Microsoft_Singularity_Diagnostics_Contracts_ProcessContract_ReadyState$G_Node@@PAU1@PAUStruct_Microsoft_Singularity_Diagnostics_Contracts_ProcessContract_Exp@@0@Z 00c84b40 f   kernel.obj
 0001:00073bcc       ?m_get$_NextScanStart@Class_Microsoft_Singularity_Channels_ESet$_2$LMicrosoft_Singularity_Diagnostics_Contracts_ProcessContract_Exp_Microsoft_Singularity_Diagnostics_Contracts_ProcessContract_ReadyState$G@@SIPAUClass_Microsoft_Singularity_Channels_ESet$_2$LMicrosoft_Singularity_Diagnostics_Contracts_ProcessContract_Exp_Microsoft_Singularity_Diagnostics_Contracts_ProcessContract_ReadyState$G_Node@@PAU1@@Z 00c84bcc f   kernel.obj
 0001:00073c18       ?m_Extract@Class_Microsoft_Singularity_Channels_ESet$_2$LMicrosoft_Singularity_Diagnostics_Contracts_ProcessContract_Exp_Microsoft_Singularity_Diagnostics_Contracts_ProcessContract_ReadyState$G@@SIPAUStruct_Microsoft_Singularity_Diagnostics_Contracts_ProcessContract_Exp@@PAU1@PAUClass_System_Object@@@Z 00c84c18 f   kernel.obj
 0001:00073cb8       ?m_Dispose@Class_Microsoft_Singularity_Channels_ESet$_2$LMicrosoft_Singularity_Diagnostics_Contracts_ProcessContract_Exp_Microsoft_Singularity_Diagnostics_Contracts_ProcessContract_ReadyState$G@@SIXPAU1@@Z 00c84cb8 f   kernel.obj
 0001:00073da4       ?m_Add@Class_Microsoft_Singularity_Channels_ESet$_2$LMicrosoft_Singularity_Diagnostics_Contracts_ProcessContract_Exp_Microsoft_Singularity_Diagnostics_Contracts_ProcessContract_ReadyState$G@@SIXPAU1@PAUStruct_Microsoft_Singularity_Diagnostics_Contracts_ProcessContract_Exp@@@Z 00c84da4 f   kernel.obj
 0001:00073dcc       ?m__ctor@Class_Microsoft_Singularity_Channels_ESet$_2$LMicrosoft_Singularity_Diagnostics_Contracts_ProcessContract_Exp_Microsoft_Singularity_Diagnostics_Contracts_ProcessContract_ReadyState$G@@SIXPAU1@@Z 00c84dcc f   kernel.obj
 0001:00073e70       ?g_WalkEventDescriptor$_@Struct_Microsoft_Singularity_V1_Services_DiagnosisService@@SIPAUuintPtr@@PAU2@0PAG1PA_WG@Z 00c84e70 f   kernel.obj
 0001:00073ebc       ?g_WalkEventDescriptor@Struct_Microsoft_Singularity_V1_Services_DiagnosisService@@SIPAUuintPtr@@PAU2@0PAG1PA_WG@Z 00c84ebc f   kernel.obj
 0001:0007437c       ?g_TestKernelStorage$_@Struct_Microsoft_Singularity_V1_Services_DiagnosisService@@SI_NXZ 00c8537c f   kernel.obj
 0001:000743a8       ?g_TestKernelStorage@Struct_Microsoft_Singularity_V1_Services_DiagnosisService@@SI_NXZ 00c853a8 f   kernel.obj
 0001:00074840       ?m_StructCopy@Struct_Microsoft_Singularity_V1_Services_DiagnosisService@@SIXPAU1@0@Z 00c85840 f   kernel.obj
 0001:0007485c       ?m_StructCopy@Struct_Microsoft_Singularity_V1_Services_DiagnosisService@@SIXPAU1@PAU1@@Z 00c8585c f   kernel.obj
 0001:000748b0       ?g_RegisterEventingController$_@Struct_Microsoft_Singularity_V1_Services_DiagnosisService@@SI_NPAUuintPtr@@0@Z 00c858b0 f   kernel.obj
 0001:000748f4       ?g_RegisterEventingController@Struct_Microsoft_Singularity_V1_Services_DiagnosisService@@SI_NPAUuintPtr@@0@Z 00c858f4 f   kernel.obj
 0001:00074da4       ?g_RegisterEventGenericField$_@Struct_Microsoft_Singularity_V1_Services_DiagnosisService@@SI_NPAUuintPtr@@PA_WGG0@Z 00c85da4 f   kernel.obj
 0001:00074df0       ?g_RegisterEventGenericField@Struct_Microsoft_Singularity_V1_Services_DiagnosisService@@SI_NPAUuintPtr@@PA_WGG0@Z 00c85df0 f   kernel.obj
 0001:000752b0       ?g_RegisterEventField$_@Struct_Microsoft_Singularity_V1_Services_DiagnosisService@@SI_NPAUuintPtr@@PA_WGG@Z 00c862b0 f   kernel.obj
 0001:000752f8       ?g_RegisterEventField@Struct_Microsoft_Singularity_V1_Services_DiagnosisService@@SI_NPAUuintPtr@@PA_WGG@Z 00c862f8 f   kernel.obj
 0001:000757b4       ?g_RegisterEvent$_@Struct_Microsoft_Singularity_V1_Services_DiagnosisService@@SI_NPA_W0PAPAUuintPtr@@@Z 00c867b4 f   kernel.obj
 0001:000757f4       ?g_RegisterEvent@Struct_Microsoft_Singularity_V1_Services_DiagnosisService@@SI_NPA_W0PAPAUuintPtr@@@Z 00c867f4 f   kernel.obj
 0001:00075ca8       ?g_RegisterEnumValue$_@Struct_Microsoft_Singularity_V1_Services_DiagnosisService@@SI_NPAUuintPtr@@PA_W_KE@Z 00c86ca8 f   kernel.obj
 0001:00075cf0       ?g_RegisterEnumValue@Struct_Microsoft_Singularity_V1_Services_DiagnosisService@@SI_NPAUuintPtr@@PA_W_KE@Z 00c86cf0 f   kernel.obj
 0001:000761ac       ?g_RegisterEnum$_@Struct_Microsoft_Singularity_V1_Services_DiagnosisService@@SI_NPA_WGPAPAUuintPtr@@@Z 00c871ac f   kernel.obj
 0001:000761f0       ?g_RegisterEnum@Struct_Microsoft_Singularity_V1_Services_DiagnosisService@@SI_NPA_WGPAPAUuintPtr@@@Z 00c871f0 f   kernel.obj
 0001:000766a8       ?g_ReadActiveSourceItem$_@Struct_Microsoft_Singularity_V1_Services_DiagnosisService@@SI_NPAUuintPtr@@HPAPAU2@PAEG@Z 00c876a8 f   kernel.obj
 0001:000766fc       ?g_ReadActiveSourceItem@Struct_Microsoft_Singularity_V1_Services_DiagnosisService@@SI_NPAUuintPtr@@HPAPAU2@PAEG@Z 00c876fc f   kernel.obj
 0001:00076bb8       ?g_QuerySourcesList$_@Struct_Microsoft_Singularity_V1_Services_DiagnosisService@@SIHPAPAUuintPtr@@H@Z 00c87bb8 f   kernel.obj
 0001:00076bf4       ?g_QuerySourcesList@Struct_Microsoft_Singularity_V1_Services_DiagnosisService@@SIHPAPAUuintPtr@@H@Z 00c87bf4 f   kernel.obj
 0001:000770a4       ?g_QueryEventTypeList$_@Struct_Microsoft_Singularity_V1_Services_DiagnosisService@@SIHPAPAUuintPtr@@H@Z 00c880a4 f   kernel.obj
 0001:000770e0       ?g_QueryEventTypeList@Struct_Microsoft_Singularity_V1_Services_DiagnosisService@@SIHPAPAUuintPtr@@H@Z 00c880e0 f   kernel.obj
 0001:00077590       ?g_OpenGlobalStorage$_@Struct_Microsoft_Singularity_V1_Services_DiagnosisService@@SIPAUuintPtr@@PAU2@@Z 00c88590 f   kernel.obj
 0001:000775c8       ?g_OpenGlobalStorage@Struct_Microsoft_Singularity_V1_Services_DiagnosisService@@SIPAUuintPtr@@PAU2@@Z 00c885c8 f   kernel.obj
 0001:00077a6c       ?g_LogSourceEntry$_@Struct_Microsoft_Singularity_V1_Services_DiagnosisService@@SIPAUuintPtr@@PAU2@I0PAEH@Z 00c88a6c f   kernel.obj
 0001:00077ab4       ?g_LogSourceEntry$_@Struct_Microsoft_Singularity_V1_Services_DiagnosisService@@SIPAUuintPtr@@PAU2@I0PAEHHPAPAUvoid@@@Z 00c88ab4 f   kernel.obj
 0001:00077b00       ?g_LogSourceEntry@Struct_Microsoft_Singularity_V1_Services_DiagnosisService@@SIPAUuintPtr@@PAU2@I0PAEH@Z 00c88b00 f   kernel.obj
 0001:00077fbc       ?g_LogSourceEntry@Struct_Microsoft_Singularity_V1_Services_DiagnosisService@@SIPAUuintPtr@@PAU2@I0PAEHHPAPAUvoid@@@Z 00c88fbc f   kernel.obj
 0001:0007847c       ?g_GetSourceInformation$_@Struct_Microsoft_Singularity_V1_Services_DiagnosisService@@SI_NPAUuintPtr@@PAPAU2@1PAGPA_WG@Z 00c8947c f   kernel.obj
 0001:000784c8       ?g_GetSourceInformation@Struct_Microsoft_Singularity_V1_Services_DiagnosisService@@SI_NPAUuintPtr@@PAPAU2@1PAGPA_WG@Z 00c894c8 f   kernel.obj
 0001:00078988       ?g_GetNextEntry$_@Struct_Microsoft_Singularity_V1_Services_DiagnosisService@@SIPAUuintPtr@@PAU2@PAPAU2@PAIPAEG@Z 00c89988 f   kernel.obj
 0001:000789d0       ?g_GetNextEntry@Struct_Microsoft_Singularity_V1_Services_DiagnosisService@@SIPAUuintPtr@@PAU2@PAPAU2@PAIPAEG@Z 00c899d0 f   kernel.obj
 0001:00078e8c       ?g_GCProfileSettingsImpl@Struct_Microsoft_Singularity_V1_Services_DiagnosisService@@SIHPA_K0@Z 00c89e8c f   kernel.obj
 0001:00078ed0       ?g_GCProfileSettings$_@Struct_Microsoft_Singularity_V1_Services_DiagnosisService@@SIHPA_K0@Z 00c89ed0 f   kernel.obj
 0001:00078f14       ?g_GCProfileSettings@Struct_Microsoft_Singularity_V1_Services_DiagnosisService@@SIHPA_K0@Z 00c89f14 f   kernel.obj
 0001:000793c4       ?m_Equals@Struct_Microsoft_Singularity_V1_Services_DiagnosisService@@SI_NPAU1@PAUClass_System_Object@@@Z 00c8a3c4 f   kernel.obj
 0001:000793e4       ?m_Equals@Struct_Microsoft_Singularity_V1_Services_DiagnosisService@@SI_NPAUClass_Microsoft_Singularity_V1_Services_DiagnosisService@@PAUClass_System_Object@@@Z 00c8a3e4 f   kernel.obj
 0001:0007942c       ?g_DeleteQueryView$_@Struct_Microsoft_Singularity_V1_Services_DiagnosisService@@SIXPAUuintPtr@@@Z 00c8a42c f   kernel.obj
 0001:00079464       ?g_DeleteQueryView@Struct_Microsoft_Singularity_V1_Services_DiagnosisService@@SIXPAUuintPtr@@@Z 00c8a464 f   kernel.obj
 0001:000798f8       ?g_DeferedUpdateNotification@Struct_Microsoft_Singularity_V1_Services_DiagnosisService@@SIXXZ 00c8a8f8 f   kernel.obj
 0001:00079954       ?g_DebugPrintLogEntry$_@Struct_Microsoft_Singularity_V1_Services_DiagnosisService@@SI_NPAUuintPtr@@0@Z 00c8a954 f   kernel.obj
 0001:00079990       ?g_DebugPrintLogEntry@Struct_Microsoft_Singularity_V1_Services_DiagnosisService@@SI_NPAUuintPtr@@0@Z 00c8a990 f   kernel.obj
 0001:00079e40       ?g_CreateQueryView$_@Struct_Microsoft_Singularity_V1_Services_DiagnosisService@@SIPAUuintPtr@@PAU2@_N@Z 00c8ae40 f   kernel.obj
 0001:00079e7c       ?g_CreateQueryView@Struct_Microsoft_Singularity_V1_Services_DiagnosisService@@SIPAUuintPtr@@PAU2@_N@Z 00c8ae7c f   kernel.obj
 0001:0007a32c       ?g_CloseGlobalStorage$_@Struct_Microsoft_Singularity_V1_Services_DiagnosisService@@SIXPAUuintPtr@@@Z 00c8b32c f   kernel.obj
 0001:0007a36c       ?g_CloseGlobalStorage@Struct_Microsoft_Singularity_V1_Services_DiagnosisService@@SIXPAUuintPtr@@@Z 00c8b36c f   kernel.obj
 0001:0007a800       ?g__cctor@Struct_Microsoft_Singularity_V1_Services_DiagnosisService@@SIXXZ 00c8b800 f   kernel.obj
 0001:0007a814       ?m_StructCopy@Struct_Microsoft_Singularity_Diagnostics_Contracts_MemoryContract_Memory@@SIXPAU1@0@Z 00c8b814 f   kernel.obj
 0001:0007a840       ?m_StructCopy@Struct_Microsoft_Singularity_Diagnostics_Contracts_MemoryContract_Memory@@SIXPAU1@PAU1@@Z 00c8b840 f   kernel.obj
 0001:0007a8c4       ?m_MarshallContent@Struct_Microsoft_Singularity_Diagnostics_Contracts_MemoryContract_Memory@@SIXPAU1@PAEPAUStruct_Microsoft_Singularity_Channels_Endpoint@@1PAH@Z 00c8b8c4 f   kernel.obj
 0001:0007a8e4       ?m_MarshallAll@Struct_Microsoft_Singularity_Diagnostics_Contracts_MemoryContract_Memory@@SIXPAU1@PAEPAUStruct_Microsoft_Singularity_Channels_Endpoint@@PAH@Z 00c8b8e4 f   kernel.obj
 0001:0007a934       ?m_Equals@Struct_Microsoft_Singularity_Diagnostics_Contracts_MemoryContract_Memory@@SI_NPAU1@PAUClass_System_Object@@@Z 00c8b934 f   kernel.obj
 0001:0007a98c       ?m_Equals@Struct_Microsoft_Singularity_Diagnostics_Contracts_MemoryContract_Memory@@SI_NPAUClass_Microsoft_Singularity_Diagnostics_Contracts_MemoryContract_Memory@@PAUClass_System_Object@@@Z 00c8b98c f   kernel.obj
 0001:0007a9b0       ?m_Visit@Class_System_GCs_ConcurrentMSCollector_UpdateReferenceVisitor@@SIXPAU1@PAPAUuintPtr@@@Z 00c8b9b0 f   kernel.obj
 0001:0007ac9c       ?m_ForwardIfNecessary@Class_System_GCs_ConcurrentMSCollector_UpdateReferenceVisitor@@SIPAUuintPtr@@PAU1@PAU2@@Z 00c8bc9c f   kernel.obj
 0001:0007acbc       ?m__ctor@Class_System_GCs_ConcurrentMSCollector_UpdateReferenceVisitor@@SIXPAU1@@Z 00c8bcbc f   kernel.obj
 0001:0007acdc       ?m_ToString@Class_System_Text_RegularExpressions_RegexBoyerMoore@@SIPAUClass_System_String@@PAU1@@Z 00c8bcdc f   kernel.obj
 0001:0007acf8       ?m_Scan@Class_System_Text_RegularExpressions_RegexBoyerMoore@@SIHPAU1@PAUClass_System_String@@HHH@Z 00c8bcf8 f   kernel.obj
 0001:0007b064       ?m_IsMatch@Class_System_Text_RegularExpressions_RegexBoyerMoore@@SI_NPAU1@PAUClass_System_String@@HHH@Z 00c8c064 f   kernel.obj
 0001:0007b158       ?m__ctor@Class_System_Text_RegularExpressions_RegexBoyerMoore@@SIXPAU1@PAUClass_System_String@@_N2PAUClass_System_Globalization_CultureInfo@@@Z 00c8c158 f   kernel.obj
 0001:0007b5fc       ?m_ToSetCi@Class_System_Text_RegularExpressions_RegexCharClass@@SIPAUClass_System_String@@PAU1@_NPAUClass_System_Globalization_CultureInfo@@@Z 00c8c5fc f   kernel.obj
 0001:0007b630       ?m_ToSet@Class_System_Text_RegularExpressions_RegexCharClass@@SIPAUClass_System_String@@PAU1@@Z 00c8c630 f   kernel.obj
 0001:0007b7c0       ?g_SingletonChar@Class_System_Text_RegularExpressions_RegexCharClass@@SI_WPAUClass_System_String@@@Z 00c8c7c0 f   kernel.obj
 0001:0007b7e4       ?g_SetUnion@Class_System_Text_RegularExpressions_RegexCharClass@@SIPAUClass_System_String@@PAU2@0@Z 00c8c7e4 f   kernel.obj
 0001:0007ba90       ?g_SetSize@Class_System_Text_RegularExpressions_RegexCharClass@@SIHPAUClass_System_String@@@Z 00c8ca90 f   kernel.obj
 0001:0007bb74       ?g_SetInverse@Class_System_Text_RegularExpressions_RegexCharClass@@SIPAUClass_System_String@@PAU2@@Z 00c8cb74 f   kernel.obj
 0001:0007bbf0       ?g_SetFromProperty@Class_System_Text_RegularExpressions_RegexCharClass@@SIPAUClass_System_String@@PAU2@_N0@Z 00c8cbf0 f   kernel.obj
 0001:0007bd1c       ?g_SetFromChar@Class_System_Text_RegularExpressions_RegexCharClass@@SIPAUClass_System_String@@_W@Z 00c8cd1c f   kernel.obj
 0001:0007bd98       ?m_set$_Negate@Class_System_Text_RegularExpressions_RegexCharClass@@SIXPAU1@_N@Z 00c8cd98 f   kernel.obj
 0001:0007bdb8       ?m_RangeCount@Class_System_Text_RegularExpressions_RegexCharClass@@SIHPAU1@@Z 00c8cdb8 f   kernel.obj
 0001:0007bddc       ?m_Range@Class_System_Text_RegularExpressions_RegexCharClass@@SIPAUClass_System_Text_RegularExpressions_RegexCharClass_SingleRange@@PAU1@H@Z 00c8cddc f   kernel.obj
 0001:0007be1c       ?g_NegateCategory@Class_System_Text_RegularExpressions_RegexCharClass@@SIPAUClass_System_String@@PAU2@@Z 00c8ce1c f   kernel.obj
 0001:0007bef0       ?g_IsWordChar@Class_System_Text_RegularExpressions_RegexCharClass@@SI_N_W@Z 00c8cef0 f   kernel.obj
 0001:0007bf14       ?g_IsSingleton@Class_System_Text_RegularExpressions_RegexCharClass@@SI_NPAUClass_System_String@@@Z 00c8cf14 f   kernel.obj
 0001:0007bf6c       ?g_IsECMAWordChar@Class_System_Text_RegularExpressions_RegexCharClass@@SI_N_W@Z 00c8cf6c f   kernel.obj
 0001:0007bf98       ?m_get$_Category@Class_System_Text_RegularExpressions_RegexCharClass@@SIPAUClass_System_String@@PAU1@@Z 00c8cf98 f   kernel.obj
 0001:0007bfbc       ?g_CreateFromCategory@Class_System_Text_RegularExpressions_RegexCharClass@@SIPAU1@PAUClass_System_String@@_N10@Z 00c8cfbc f   kernel.obj
 0001:0007c01c       ?g_CharInSetInternal@Class_System_Text_RegularExpressions_RegexCharClass@@SI_N_WPAUClass_System_String@@1@Z 00c8d01c f   kernel.obj
 0001:0007c0d4       ?g_CharInSet@Class_System_Text_RegularExpressions_RegexCharClass@@SI_N_WPAUClass_System_String@@1@Z 00c8d0d4 f   kernel.obj
 0001:0007c154       ?g_CharInCategoryGroup@Class_System_Text_RegularExpressions_RegexCharClass@@SI_N_WUStruct_System_Globalization_UnicodeCategory@@PAUClass_System_String@@PAH@Z 00c8d154 f   kernel.obj
 0001:0007c224       ?g_CharInCategory@Class_System_Text_RegularExpressions_RegexCharClass@@SI_N_WPAUClass_System_String@@@Z 00c8d224 f   kernel.obj
 0001:0007c358       ?g_CategoryUnion@Class_System_Text_RegularExpressions_RegexCharClass@@SIPAUClass_System_String@@PAU2@0@Z 00c8d358 f   kernel.obj
 0001:0007c378       ?m_Canonicalize@Class_System_Text_RegularExpressions_RegexCharClass@@SIXPAU1@@Z 00c8d378 f   kernel.obj
 0001:0007c518       ?m_AddSet@Class_System_Text_RegularExpressions_RegexCharClass@@SIXPAU1@PAUClass_System_String@@@Z 00c8d518 f   kernel.obj
 0001:0007c704       ?m_AddRange@Class_System_Text_RegularExpressions_RegexCharClass@@SIXPAU1@_W1@Z 00c8d704 f   kernel.obj
 0001:0007c7c0       ?m_AddLowercaseImpl@Class_System_Text_RegularExpressions_RegexCharClass@@SIXPAU1@_W1PAUClass_System_Globalization_CultureInfo@@@Z 00c8d7c0 f   kernel.obj
 0001:0007c9fc       ?m_AddLowercase@Class_System_Text_RegularExpressions_RegexCharClass@@SIXPAU1@PAUClass_System_Globalization_CultureInfo@@@Z 00c8d9fc f   kernel.obj
 0001:0007cab8       ?m_AddCharClass@Class_System_Text_RegularExpressions_RegexCharClass@@SIXPAU1@0@Z 00c8dab8 f   kernel.obj
 0001:0007cbec       ?m_AddCategoryFromName@Class_System_Text_RegularExpressions_RegexCharClass@@SIXPAU1@PAUClass_System_String@@_N21@Z 00c8dbec f   kernel.obj
 0001:0007ccec       ?m_AddCategory@Class_System_Text_RegularExpressions_RegexCharClass@@SIXPAU1@PAUClass_System_String@@@Z 00c8dcec f   kernel.obj
 0001:0007cd14       ?m__ctor@Class_System_Text_RegularExpressions_RegexCharClass@@SIXPAU1@@Z 00c8dd14 f   kernel.obj
 0001:0007cd98       ?m__ctor@Class_System_Text_RegularExpressions_RegexCharClass@@SIXPAU1@PAUClass_System_String@@@Z 00c8dd98 f   kernel.obj
 0001:0007ce48       ?g__cctor@Class_System_Text_RegularExpressions_RegexCharClass@@SIXXZ 00c8de48 f   kernel.obj
 0001:00080be4       ?m_StructCopy@Struct_Microsoft_Singularity_Kd_X86Context@@SIXPAU1@0@Z 00c91be4 f   kernel.obj
 0001:00080d10       ?m_StructCopy@Struct_Microsoft_Singularity_Kd_X86Context@@SIXPAU1@PAU1@@Z 00c91d10 f   kernel.obj
 0001:00081094       ?m_Equals@Struct_Microsoft_Singularity_Kd_X86Context@@SI_NPAU1@PAUClass_System_Object@@@Z 00c92094 f   kernel.obj
 0001:00081330       ?m_Equals@Struct_Microsoft_Singularity_Kd_X86Context@@SI_NPAUClass_Microsoft_Singularity_Kd_X86Context@@PAUClass_System_Object@@@Z 00c92330 f   kernel.obj
 0001:00081354       ?m_set$_ThenTarget@Class_Microsoft_Singularity_Hal_Acpi_StackIR_JumpIfNodePathExists@@SIXPAU1@H@Z 00c92354 f   kernel.obj
 0001:00081374       ?m_get$_ThenTarget@Class_Microsoft_Singularity_Hal_Acpi_StackIR_JumpIfNodePathExists@@SIHPAU1@@Z 00c92374 f   kernel.obj
 0001:00081390       ?m_get$_NodePath@Class_Microsoft_Singularity_Hal_Acpi_StackIR_JumpIfNodePathExists@@SIPAUClass_Microsoft_Singularity_Hal_Acpi_AcpiNamespace_NodePath@@PAU1@@Z 00c92390 f   kernel.obj
 0001:000813ac       ?m_Accept@Class_Microsoft_Singularity_Hal_Acpi_StackIR_JumpIfNodePathExists@@SIXPAU1@PAUClass_Microsoft_Singularity_Hal_Acpi_InterpretStepVisitor@@@Z 00c923ac f   kernel.obj
 0001:000813d8       ?m__ctor@Class_Microsoft_Singularity_Hal_Acpi_StackIR_JumpIfNodePathExists@@SIXPAU1@PAUClass_Microsoft_Singularity_Hal_Acpi_AcpiNamespace_NodePath@@@Z 00c923d8 f   kernel.obj
 0001:0008140c       ?m_Accept@Class_Microsoft_Singularity_Hal_Acpi_AmlParser_NumBits@@SIXPAU1@PAUClass_Microsoft_Singularity_Hal_Acpi_AmlParserNodeVisitor@@@Z 00c9240c f   kernel.obj
 0001:0008143c       ?m__ctor@Class_Microsoft_Singularity_Hal_Acpi_AmlParser_NumBits@@SIXPAU1@@Z 00c9243c f   kernel.obj
 0001:0008145c       ?m_Release@Class_System_Text_RegularExpressions_CachedCodeEntry@@SIXPAU1@@Z 00c9245c f   kernel.obj
 0001:00081474       ?m_NoReferences@Class_System_Text_RegularExpressions_CachedCodeEntry@@SI_NPAU1@@Z 00c92474 f   kernel.obj
 0001:0008148c       ?m_StructCopy@Struct_Microsoft_Singularity_Directory_FileContract_AckClose@@SIXPAU1@0@Z 00c9248c f   kernel.obj
 0001:000814a8       ?m_StructCopy@Struct_Microsoft_Singularity_Directory_FileContract_AckClose@@SIXPAU1@PAU1@@Z 00c924a8 f   kernel.obj
 0001:000814fc       ?m_MarshallContent@Struct_Microsoft_Singularity_Directory_FileContract_AckClose@@SIXPAU1@PAEPAUStruct_Microsoft_Singularity_Channels_Endpoint@@1PAH@Z 00c924fc f   kernel.obj
 0001:0008151c       ?m_MarshallAll@Struct_Microsoft_Singularity_Directory_FileContract_AckClose@@SIXPAU1@PAEPAUStruct_Microsoft_Singularity_Channels_Endpoint@@PAH@Z 00c9251c f   kernel.obj
 0001:0008156c       ?m_Equals@Struct_Microsoft_Singularity_Directory_FileContract_AckClose@@SI_NPAU1@PAUClass_System_Object@@@Z 00c9256c f   kernel.obj
 0001:000815a0       ?m_Equals@Struct_Microsoft_Singularity_Directory_FileContract_AckClose@@SI_NPAUClass_Microsoft_Singularity_Directory_FileContract_AckClose@@PAUClass_System_Object@@@Z 00c925a0 f   kernel.obj
 0001:000815c4       ?g_Create@Class_Microsoft_Singularity_GCProfilerLogger_GCTypeSource@@SIPAU1@PAUClass_System_String@@I_K@Z 00c925c4 f   kernel.obj
 0001:00081670       ?m__ctor@Class_Microsoft_Singularity_GCProfilerLogger_GCTypeSource@@SIXPAU1@PAUClass_System_String@@PAUClass_Microsoft_Singularity_Eventing_EventingStorage@@I@Z 00c92670 f   kernel.obj
 0001:00081698       ?m_StructCopy@Struct_Microsoft_Singularity_Isal_IX_InterruptTable@@SIXPAU1@0@Z 00c92698 f   kernel.obj
 0001:000816bc       ?m_StructCopy@Struct_Microsoft_Singularity_Isal_IX_InterruptTable@@SIXPAU1@PAU1@@Z 00c926bc f   kernel.obj
 0001:00081728       ?g_InitializeEntry@Struct_Microsoft_Singularity_Isal_IX_InterruptTable@@SIXPAUStruct_Microsoft_Singularity_Isal_IX_Idte@@PAUuintPtr@@@Z 00c92728 f   kernel.obj
 0001:00081764       ?m_Initialize@Struct_Microsoft_Singularity_Isal_IX_InterruptTable@@SIXPAU1@@Z 00c92764 f   kernel.obj
 0001:00081818       ?m_Equals@Struct_Microsoft_Singularity_Isal_IX_InterruptTable@@SI_NPAU1@PAUClass_System_Object@@@Z 00c92818 f   kernel.obj
 0001:000818b8       ?m_Equals@Struct_Microsoft_Singularity_Isal_IX_InterruptTable@@SI_NPAUClass_Microsoft_Singularity_Isal_IX_InterruptTable@@PAUClass_System_Object@@@Z 00c928b8 f   kernel.obj
 0001:000818dc       ?m__ctor@Class_Microsoft_Singularity_Hal_Acpi_EndOfAmlStreamException@@SIXPAU1@@Z 00c928dc f   kernel.obj
 0001:000818fc       ?m_ToString@Struct_System_Decimal@@SIPAUClass_System_String@@PAU1@@Z 00c928fc f   kernel.obj
 0001:0008191c       ?m_ToString@Struct_System_Decimal@@SIPAUClass_System_String@@PAU1@PAU2@@Z 00c9291c f   kernel.obj
 0001:00081988       ?m_ToString@Struct_System_Decimal@@SIPAUClass_System_String@@PAUClass_System_Decimal@@@Z 00c92988 f   kernel.obj
 0001:000819c8       ?m_ToString@Struct_System_Decimal@@SIPAUClass_System_String@@PAUClass_System_Decimal@@PAU2@@Z 00c929c8 f   kernel.obj
 0001:00081a0c       ?m_StructCopy@Struct_System_Decimal@@SIXPAU1@0@Z 00c92a0c f   kernel.obj
 0001:00081a40       ?m_StructCopy@Struct_System_Decimal@@SIXPAU1@PAU1@@Z 00c92a40 f   kernel.obj
 0001:00081adc       ?m_set$_mid32@Struct_System_Decimal@@SIXPAU1@I@Z 00c92adc f   kernel.obj
 0001:00081afc       ?m_set$_lo32@Struct_System_Decimal@@SIXPAU1@I@Z 00c92afc f   kernel.obj
 0001:00081b1c       ?m_set$_hi32@Struct_System_Decimal@@SIXPAU1@I@Z 00c92b1c f   kernel.obj
 0001:00081b3c       ?m_GetHashCode@Struct_System_Decimal@@SIHPAU1@@Z 00c92b3c f   kernel.obj
 0001:00081b98       ?m_GetHashCode@Struct_System_Decimal@@SIHPAUClass_System_Decimal@@@Z 00c92b98 f   kernel.obj
 0001:00081bd8       ?m_get$_scale@Struct_System_Decimal@@SIEPAU1@@Z 00c92bd8 f   kernel.obj
 0001:00081bf8       ?m_get$_negative@Struct_System_Decimal@@SI_NPAU1@@Z 00c92bf8 f   kernel.obj
 0001:00081c18       ?m_get$_mid32@Struct_System_Decimal@@SIIPAU1@@Z 00c92c18 f   kernel.obj
 0001:00081c34       ?m_get$_lo32@Struct_System_Decimal@@SIIPAU1@@Z 00c92c34 f   kernel.obj
 0001:00081c50       ?m_get$_hi32@Struct_System_Decimal@@SIIPAU1@@Z 00c92c50 f   kernel.obj
 0001:00081c6c       ?m_Equals@Struct_System_Decimal@@SI_NPAU1@PAUClass_System_Object@@@Z 00c92c6c f   kernel.obj
 0001:00081d14       ?m_Equals@Struct_System_Decimal@@SI_NPAUClass_System_Decimal@@PAUClass_System_Object@@@Z 00c92d14 f   kernel.obj
 0001:00081d58       ?m_CompareTo@Struct_System_Decimal@@SIHPAU1@PAUClass_System_Object@@@Z 00c92d58 f   kernel.obj
 0001:00081e28       ?m_CompareTo@Struct_System_Decimal@@SIHPAUClass_System_Decimal@@PAUClass_System_Object@@@Z 00c92e28 f   kernel.obj
 0001:00081e6c       ?g_Compare@Struct_System_Decimal@@SIHU1@0@Z 00c92e6c f   kernel.obj
 0001:00081e90       ?m__ctor@Struct_System_Decimal@@SIXPAU1@H@Z 00c92e90 f   kernel.obj
 0001:00081ed4       ?m__ctor@Struct_System_Decimal@@SIXPAU1@HHH_NE@Z 00c92ed4 f   kernel.obj
 0001:00081f44       ?g__cctor@Struct_System_Decimal@@SIXXZ 00c92f44 f   kernel.obj
 0001:00082080       ?m_StructCopy@Struct_Microsoft_Singularity_Isal_SpillContext@@SIXPAU1@0@Z 00c93080 f   kernel.obj
 0001:0008210c       ?m_StructCopy@Struct_Microsoft_Singularity_Isal_SpillContext@@SIXPAU1@PAU1@@Z 00c9310c f   kernel.obj
 0001:000822b0       ?m_Initialize@Struct_Microsoft_Singularity_Isal_SpillContext@@SIXPAU1@PAUuintPtr@@11H1@Z 00c932b0 f   kernel.obj
 0001:00082358       ?m_get$_IsSpilled@Struct_Microsoft_Singularity_Isal_SpillContext@@SI_NPAU1@@Z 00c93358 f   kernel.obj
 0001:0008237c       ?m_Equals@Struct_Microsoft_Singularity_Isal_SpillContext@@SI_NPAU1@PAUClass_System_Object@@@Z 00c9337c f   kernel.obj
 0001:000824e0       ?m_Equals@Struct_Microsoft_Singularity_Isal_SpillContext@@SI_NPAUClass_Microsoft_Singularity_Isal_SpillContext@@PAUClass_System_Object@@@Z 00c934e0 f   kernel.obj
 0001:00082504       ?m_StructCopy@Struct_Microsoft_Singularity_Isal_IX_Gdtp@@SIXPAU1@0@Z 00c93504 f   kernel.obj
 0001:00082534       ?m_StructCopy@Struct_Microsoft_Singularity_Isal_IX_Gdtp@@SIXPAU1@PAU1@@Z 00c93534 f   kernel.obj
 0001:000825c4       ?m_Equals@Struct_Microsoft_Singularity_Isal_IX_Gdtp@@SI_NPAU1@PAUClass_System_Object@@@Z 00c935c4 f   kernel.obj
 0001:0008261c       ?m_Equals@Struct_Microsoft_Singularity_Isal_IX_Gdtp@@SI_NPAUClass_Microsoft_Singularity_Isal_IX_Gdtp@@PAUClass_System_Object@@@Z 00c9361c f   kernel.obj
 0001:00082640       ?m_Accept@Class_Microsoft_Singularity_Hal_Acpi_AmlParser_DefAlias@@SIXPAU1@PAUClass_Microsoft_Singularity_Hal_Acpi_AmlParserNodeVisitor@@@Z 00c93640 f   kernel.obj
 0001:00082670       ?m__ctor@Class_Microsoft_Singularity_Hal_Acpi_AmlParser_DefAlias@@SIXPAU1@@Z 00c93670 f   kernel.obj
 0001:00082690       ?m_StructCopy@Struct_Microsoft_Singularity_V1_Services_PlatformService@@SIXPAU1@0@Z 00c93690 f   kernel.obj
 0001:000826ac       ?m_StructCopy@Struct_Microsoft_Singularity_V1_Services_PlatformService@@SIXPAU1@PAU1@@Z 00c936ac f   kernel.obj
 0001:00082700       ?g_SetCacheAttributes$_@Struct_Microsoft_Singularity_V1_Services_PlatformService@@SIXPAUuintPtr@@0_N1@Z 00c93700 f   kernel.obj
 0001:00082720       ?g_SetCacheAttributes@Struct_Microsoft_Singularity_V1_Services_PlatformService@@SIXPAUuintPtr@@0_N1@Z 00c93720 f   kernel.obj
 0001:00082bcc       ?g_RestoreInterrupts$_@Struct_Microsoft_Singularity_V1_Services_PlatformService@@SIX_N@Z 00c93bcc f   kernel.obj
 0001:00082bec       ?g_RestoreInterrupts@Struct_Microsoft_Singularity_V1_Services_PlatformService@@SIX_N@Z 00c93bec f   kernel.obj
 0001:00083080       ?g_InvalidateDCache$_@Struct_Microsoft_Singularity_V1_Services_PlatformService@@SIXPAUuintPtr@@0@Z 00c94080 f   kernel.obj
 0001:0008309c       ?g_InvalidateDCache@Struct_Microsoft_Singularity_V1_Services_PlatformService@@SIXPAUuintPtr@@0@Z 00c9409c f   kernel.obj
 0001:0008353c       ?g_InterruptsDisabled$_@Struct_Microsoft_Singularity_V1_Services_PlatformService@@SI_NXZ 00c9453c f   kernel.obj
 0001:00083554       ?g_InterruptsDisabled@Struct_Microsoft_Singularity_V1_Services_PlatformService@@SI_NXZ 00c94554 f   kernel.obj
 0001:000839ec       ?g_GetThreadContextOffset$_@Struct_Microsoft_Singularity_V1_Services_PlatformService@@SIHXZ 00c949ec f   kernel.obj
 0001:00083a14       ?g_GetThreadContextOffset@Struct_Microsoft_Singularity_V1_Services_PlatformService@@SIHXZ 00c94a14 f   kernel.obj
 0001:00083eac       ?g_GetProcessorContextOffset$_@Struct_Microsoft_Singularity_V1_Services_PlatformService@@SIHXZ 00c94eac f   kernel.obj
 0001:00083ed4       ?g_GetProcessorContextOffset@Struct_Microsoft_Singularity_V1_Services_PlatformService@@SIHXZ 00c94ed4 f   kernel.obj
 0001:0008436c       ?m_Equals@Struct_Microsoft_Singularity_V1_Services_PlatformService@@SI_NPAU1@PAUClass_System_Object@@@Z 00c9536c f   kernel.obj
 0001:000843a0       ?m_Equals@Struct_Microsoft_Singularity_V1_Services_PlatformService@@SI_NPAUClass_Microsoft_Singularity_V1_Services_PlatformService@@PAUClass_System_Object@@@Z 00c953a0 f   kernel.obj
 0001:000843c4       ?g_DisableInterrupts$_@Struct_Microsoft_Singularity_V1_Services_PlatformService@@SI_NXZ 00c953c4 f   kernel.obj
 0001:000843dc       ?g_DisableInterrupts@Struct_Microsoft_Singularity_V1_Services_PlatformService@@SI_NXZ 00c953dc f   kernel.obj
 0001:00084874       ?g_CleanAndInvalidateDCache$_@Struct_Microsoft_Singularity_V1_Services_PlatformService@@SIXPAUuintPtr@@0@Z 00c95874 f   kernel.obj
 0001:00084890       ?g_CleanAndInvalidateDCache@Struct_Microsoft_Singularity_V1_Services_PlatformService@@SIXPAUuintPtr@@0@Z 00c95890 f   kernel.obj
 0001:00084d30       ?m_Set@Class_Microsoft_Singularity_Security_SDS_SdsAclImpl@@SIXPAU1@PAUClass_System_String@@UStruct_Microsoft_Singularity_Security_SDS_Acl@@@Z 00c95d30 f   kernel.obj
 0001:00084ed4       ?m_Invalidate@Class_Microsoft_Singularity_Security_SDS_SdsAclImpl@@SIXPAU1@PAUClass_Microsoft_Singularity_Security_SDS_SdsAclImpl_HEntry@@@Z 00c95ed4 f   kernel.obj
 0001:00084f00       ?m_HtInsert@Class_Microsoft_Singularity_Security_SDS_SdsAclImpl@@SIPAUClass_Microsoft_Singularity_Security_SDS_SdsAclImpl_HEntry@@PAU1@PAU2@@Z 00c95f00 f   kernel.obj
 0001:0008505c       ?m_HtFind@Class_Microsoft_Singularity_Security_SDS_SdsAclImpl@@SIPAUClass_Microsoft_Singularity_Security_SDS_SdsAclImpl_HEntry@@PAU1@PAUClass_System_String@@H@Z 00c9605c f   kernel.obj
 0001:000850e8       ?m_HtDelete@Class_Microsoft_Singularity_Security_SDS_SdsAclImpl@@SIPAUClass_Microsoft_Singularity_Security_SDS_SdsAclImpl_HEntry@@PAU1@PAUClass_System_String@@H@Z 00c960e8 f   kernel.obj
 0001:000851f4       ?m_Hash@Class_Microsoft_Singularity_Security_SDS_SdsAclImpl@@SIIPAU1@PAUClass_System_String@@H@Z 00c961f4 f   kernel.obj
 0001:000852dc       ?m_GetEffective@Class_Microsoft_Singularity_Security_SDS_SdsAclImpl@@SIPAUClass_System_String@@PAU1@PAU2@PAPAUClass_Microsoft_Singularity_Security_SDS_IEffectiveAclRef@@@Z 00c962dc f   kernel.obj
 0001:00085520       ?m_Get@Class_Microsoft_Singularity_Security_SDS_SdsAclImpl@@SI?AUStruct_Microsoft_Singularity_Security_SDS_Acl@@PAU1@PAUClass_System_String@@@Z 00c96520 f   kernel.obj
 0001:000856f0       ?g_Comp@Class_Microsoft_Singularity_Security_SDS_SdsAclImpl@@SI_NPAUClass_Microsoft_Singularity_Security_SDS_SdsAclImpl_HEntry@@PAUClass_System_String@@H@Z 00c966f0 f   kernel.obj
 0001:0008579c       ?m_Clear@Class_Microsoft_Singularity_Security_SDS_SdsAclImpl@@SIXPAU1@PAUClass_System_String@@@Z 00c9679c f   kernel.obj
 0001:00085840       ?m__ctor@Class_Microsoft_Singularity_Security_SDS_SdsAclImpl@@SIXPAU1@@Z 00c96840 f   kernel.obj
 0001:00085910       ?m_Unlink@Class_Microsoft_Singularity_KernelDebugger_KdFilesNamespace_ServiceThread_Microsoft_Singularity_Channels_EMap$_3$LMicrosoft_Singularity_Directory_FileContract_Exp_Microsoft_Singularity_Directory_FileContract_Ready_optional_Microsoft_Contracts_NonNullType__Microsoft_Singularity_KernelDebugger_KdFilesNamespace_ServiceThread_FileState$G_Node@@SIPAUStruct_Microsoft_Singularity_Directory_FileContract_Exp@@PAU1@PAUClass_Microsoft_Singularity_KernelDebugger_KdFilesNamespace_ServiceThread_Microsoft_Singularity_Channels_EMap$_3$LMicrosoft_Singularity_Directory_FileContract_Exp_Microsoft_Singularity_Directory_FileContract_Ready_optional_Microsoft_Contracts_NonNullType__Microsoft_Singularity_KernelDebugger_KdFilesNamespace_ServiceThread_FileState$G@@PAPAUClass_Microsoft_Singularity_KernelDebugger_KdFilesNamespace_ServiceThread_FileState@@@Z 00c96910 f   kernel.obj
 0001:00085a18       ?m_LinkAsNext@Class_Microsoft_Singularity_KernelDebugger_KdFilesNamespace_ServiceThread_Microsoft_Singularity_Channels_EMap$_3$LMicrosoft_Singularity_Directory_FileContract_Exp_Microsoft_Singularity_Directory_FileContract_Ready_optional_Microsoft_Contracts_NonNullType__Microsoft_Singularity_KernelDebugger_KdFilesNamespace_ServiceThread_FileState$G_Node@@SIXPAU1@PAUStruct_Microsoft_Singularity_Directory_FileContract_Exp@@PAUClass_Microsoft_Singularity_KernelDebugger_KdFilesNamespace_ServiceThread_FileState@@PAUClass_Microsoft_Singularity_KernelDebugger_KdFilesNamespace_ServiceThread_Microsoft_Singularity_Channels_EMap$_3$LMicrosoft_Singularity_Directory_FileContract_Exp_Microsoft_Singularity_Directory_FileContract_Ready_optional_Microsoft_Contracts_NonNullType__Microsoft_Singularity_KernelDebugger_KdFilesNamespace_ServiceThread_FileState$G@@@Z 00c96a18 f   kernel.obj
 0001:00085aac       ?m_Init@Class_Microsoft_Singularity_KernelDebugger_KdFilesNamespace_ServiceThread_Microsoft_Singularity_Channels_EMap$_3$LMicrosoft_Singularity_Directory_FileContract_Exp_Microsoft_Singularity_Directory_FileContract_Ready_optional_Microsoft_Contracts_NonNullType__Microsoft_Singularity_KernelDebugger_KdFilesNamespace_ServiceThread_FileState$G_Node@@SIXPAU1@PAUStruct_Microsoft_Singularity_Directory_FileContract_Exp@@PAUClass_Microsoft_Singularity_KernelDebugger_KdFilesNamespace_ServiceThread_FileState@@PAUClass_Microsoft_Singularity_KernelDebugger_KdFilesNamespace_ServiceThread_Microsoft_Singularity_Channels_EMap$_3$LMicrosoft_Singularity_Directory_FileContract_Exp_Microsoft_Singularity_Directory_FileContract_Ready_optional_Microsoft_Contracts_NonNullType__Microsoft_Singularity_KernelDebugger_KdFilesNamespace_ServiceThread_FileState$G@@@Z 00c96aac f   kernel.obj
 0001:00085af0       ?m__ctor@Class_Microsoft_Singularity_KernelDebugger_KdFilesNamespace_ServiceThread_Microsoft_Singularity_Channels_EMap$_3$LMicrosoft_Singularity_Directory_FileContract_Exp_Microsoft_Singularity_Directory_FileContract_Ready_optional_Microsoft_Contracts_NonNullType__Microsoft_Singularity_KernelDebugger_KdFilesNamespace_ServiceThread_FileState$G_Node@@SIXPAU1@PAUStruct_Microsoft_Singularity_Directory_FileContract_Exp@@PAUClass_Microsoft_Singularity_KernelDebugger_KdFilesNamespace_ServiceThread_FileState@@PAUClass_Microsoft_Singularity_KernelDebugger_KdFilesNamespace_ServiceThread_Microsoft_Singularity_Channels_EMap$_3$LMicrosoft_Singularity_Directory_FileContract_Exp_Microsoft_Singularity_Directory_FileContract_Ready_optional_Microsoft_Contracts_NonNullType__Microsoft_Singularity_KernelDebugger_KdFilesNamespace_ServiceThread_FileState$G@@@Z 00c96af0 f   kernel.obj
 0001:00085b50       ?m__ctor@Class_Microsoft_Singularity_KernelDebugger_KdFilesNamespace_ServiceThread_Microsoft_Singularity_Channels_EMap$_3$LMicrosoft_Singularity_Directory_FileContract_Exp_Microsoft_Singularity_Directory_FileContract_Ready_optional_Microsoft_Contracts_NonNullType__Microsoft_Singularity_KernelDebugger_KdFilesNamespace_ServiceThread_FileState$G_Node@@SIXPAU1@PAUClass_Microsoft_Singularity_KernelDebugger_KdFilesNamespace_ServiceThread_Microsoft_Singularity_Channels_EMap$_3$LMicrosoft_Singularity_Directory_FileContract_Exp_Microsoft_Singularity_Directory_FileContract_Ready_optional_Microsoft_Contracts_NonNullType__Microsoft_Singularity_KernelDebugger_KdFilesNamespace_ServiceThread_FileState$G@@@Z 00c96b50 f   kernel.obj
 0001:00085b9c       ?m_StructCopy@Struct_Microsoft_Singularity_Directory_DirectoryServiceContract_NakCreateFile@@SIXPAU1@0@Z 00c96b9c f   kernel.obj
 0001:00085bbc       ?m_StructCopy@Struct_Microsoft_Singularity_Directory_DirectoryServiceContract_NakCreateFile@@SIXPAU1@PAU1@@Z 00c96bbc f   kernel.obj
 0001:00085c1c       ?m_MarshallContent@Struct_Microsoft_Singularity_Directory_DirectoryServiceContract_NakCreateFile@@SIXPAU1@PAEPAUStruct_Microsoft_Singularity_Channels_Endpoint@@1PAH@Z 00c96c1c f   kernel.obj
 0001:00085c3c       ?m_MarshallAll@Struct_Microsoft_Singularity_Directory_DirectoryServiceContract_NakCreateFile@@SIXPAU1@PAEPAUStruct_Microsoft_Singularity_Channels_Endpoint@@PAH@Z 00c96c3c f   kernel.obj
 0001:00085c8c       ?m_Equals@Struct_Microsoft_Singularity_Directory_DirectoryServiceContract_NakCreateFile@@SI_NPAU1@PAUClass_System_Object@@@Z 00c96c8c f   kernel.obj
 0001:00085d14       ?m_Equals@Struct_Microsoft_Singularity_Directory_DirectoryServiceContract_NakCreateFile@@SI_NPAUClass_Microsoft_Singularity_Directory_DirectoryServiceContract_NakCreateFile@@PAUClass_System_Object@@@Z 00c96d14 f   kernel.obj
 0001:00085d38       ?m_VisitValueNonNull@Class_System_GCs_ConcurrentMSCollector_MarkReferenceVisitor@@SIXPAU1@PAUuintPtr@@PAUClass_System_Threading_Thread@@@Z 00c96d38 f   kernel.obj
 0001:00085f6c       ?m_VisitValueMaybeNull@Class_System_GCs_ConcurrentMSCollector_MarkReferenceVisitor@@SIXPAU1@PAUuintPtr@@@Z 00c96f6c f   kernel.obj
 0001:000861c8       ?m_VisitValueMaybeNull@Class_System_GCs_ConcurrentMSCollector_MarkReferenceVisitor@@SIXPAU1@PAUuintPtr@@PAUClass_System_Threading_Thread@@@Z 00c971c8 f   kernel.obj
 0001:00086414       ?m_VisitValueAnyThreadMaybeNull@Class_System_GCs_ConcurrentMSCollector_MarkReferenceVisitor@@SIXPAU1@PAUuintPtr@@@Z 00c97414 f   kernel.obj
 0001:00086674       ?m_VisitReferenceFields@Class_System_GCs_ConcurrentMSCollector_MarkReferenceVisitor@@SIPAUuintPtr@@PAU1@PAU2@PAUClass_System_VTable@@@Z 00c97674 f   kernel.obj
 0001:00086d88       ?m_VisitReferenceFields@Class_System_GCs_ConcurrentMSCollector_MarkReferenceVisitor@@SIPAUuintPtr@@PAU1@PAUClass_System_Object@@@Z 00c97d88 f   kernel.obj
 0001:00087504       ?m_Visit@Class_System_GCs_ConcurrentMSCollector_MarkReferenceVisitor@@SIXPAU1@PAPAUuintPtr@@@Z 00c98504 f   kernel.obj
 0001:0008776c       ?m_ProcessMyGrayObjects@Class_System_GCs_ConcurrentMSCollector_MarkReferenceVisitor@@SIXPAU1@PAUStruct_System_GCs_ThreadHeaderQueue_LocalList@@@Z 00c9876c f   kernel.obj
 0001:0008823c       ?m_ProcessGrayObjects@Class_System_GCs_ConcurrentMSCollector_MarkReferenceVisitor@@SIXPAU1@@Z 00c9923c f   kernel.obj
 0001:0008829c       ?m_Init@Class_System_GCs_ConcurrentMSCollector_MarkReferenceVisitor@@SIXPAU1@@Z 00c9929c f   kernel.obj
 0001:000882b4       ?m_Filter@Class_System_GCs_ConcurrentMSCollector_MarkReferenceVisitor@@SIXPAU1@PAPAUuintPtr@@PAUStruct_System_GCs_ReferenceVisitor_ObjectDescriptor@@@Z 00c992b4 f   kernel.obj
 0001:0008851c       ?m_Cleanup@Class_System_GCs_ConcurrentMSCollector_MarkReferenceVisitor@@SIXPAU1@@Z 00c9951c f   kernel.obj
 0001:000885d8       ?m_AcquireWork@Class_System_GCs_ConcurrentMSCollector_MarkReferenceVisitor@@SI_NPAU1@PAUStruct_System_GCs_ThreadHeaderQueue_LocalList@@@Z 00c995d8 f   kernel.obj
 0001:000886a4       ?m__ctor@Class_System_GCs_ConcurrentMSCollector_MarkReferenceVisitor@@SIXPAU1@@Z 00c996a4 f   kernel.obj
 0001:000886c4       ?m_VisitReferenceFields@Class_System_GCs_MutableReferenceVisitor@@SIPAUuintPtr@@PAU1@PAU2@PAUClass_System_VTable@@@Z 00c996c4 f   kernel.obj
 0001:00088de4       ?m_VisitReferenceFields@Class_System_GCs_MutableReferenceVisitor@@SIPAUuintPtr@@PAU1@PAUClass_System_Object@@@Z 00c99de4 f   kernel.obj
 0001:00088e1c       ?m_Filter@Class_System_GCs_MutableReferenceVisitor@@SIXPAU1@PAPAUuintPtr@@PAUStruct_System_GCs_ReferenceVisitor_ObjectDescriptor@@@Z 00c99e1c f   kernel.obj
 0001:00088e40       ?m__ctor@Class_System_GCs_MutableReferenceVisitor@@SIXPAU1@@Z 00c99e40 f   kernel.obj
 0001:00088e60       ?m_Accept@Class_Microsoft_Singularity_Hal_Acpi_AmlParser_UsecTime@@SIXPAU1@PAUClass_Microsoft_Singularity_Hal_Acpi_AmlParserNodeVisitor@@@Z 00c99e60 f   kernel.obj
 0001:00088e90       ?m__ctor@Class_Microsoft_Singularity_Hal_Acpi_AmlParser_UsecTime@@SIXPAU1@@Z 00c99e90 f   kernel.obj
 0001:00088eb0       ?m__ctor@Class_System_UpdateEnlistmentLog_LogChunk@@SIXPAU1@PAUClassVector_Struct_System_UpdateEnlistmentLog_Entry@@0@Z 00c99eb0 f   kernel.obj
 0001:00088ef4       ?m_InvokeStaticStub@Class_Microsoft_Singularity_Memory_SharedHeap_AllocationMatches@@SI_NPAU1@PAUStruct_Microsoft_Singularity_Memory_SharedHeap_Allocation@@@Z 00c99ef4 f   kernel.obj
 0001:00088f1c       ?m_Invoke@Class_Microsoft_Singularity_Memory_SharedHeap_AllocationMatches@@SI_NPAU1@PAUStruct_Microsoft_Singularity_Memory_SharedHeap_Allocation@@@Z 00c99f1c f   kernel.obj
 0001:00088f60       ?m_EndInvoke@Class_Microsoft_Singularity_Memory_SharedHeap_AllocationMatches@@SI_NPAU1@PAUClass_System_IAsyncResult@@@Z 00c99f60 f   kernel.obj
 0001:00088f7c       ?m_BeginInvoke@Class_Microsoft_Singularity_Memory_SharedHeap_AllocationMatches@@SIPAUClass_System_IAsyncResult@@PAU1@PAUStruct_Microsoft_Singularity_Memory_SharedHeap_Allocation@@PAUClass_System_AsyncCallback@@PAUClass_System_Object@@@Z 00c99f7c f   kernel.obj
 0001:00088f9c       ?m__ctor@Class_Microsoft_Singularity_Memory_SharedHeap_AllocationMatches@@SIXPAU1@PAUClass_System_Object@@PAUintPtr@@@Z 00c99f9c f   kernel.obj
 0001:00089000       ?m_StructCopy@Struct_Microsoft_Singularity_Directory_DirectoryServiceContract_NakCreateLink@@SIXPAU1@0@Z 00c9a000 f   kernel.obj
 0001:00089020       ?m_StructCopy@Struct_Microsoft_Singularity_Directory_DirectoryServiceContract_NakCreateLink@@SIXPAU1@PAU1@@Z 00c9a020 f   kernel.obj
 0001:00089080       ?m_MarshallContent@Struct_Microsoft_Singularity_Directory_DirectoryServiceContract_NakCreateLink@@SIXPAU1@PAEPAUStruct_Microsoft_Singularity_Channels_Endpoint@@1PAH@Z 00c9a080 f   kernel.obj
 0001:000890a0       ?m_MarshallAll@Struct_Microsoft_Singularity_Directory_DirectoryServiceContract_NakCreateLink@@SIXPAU1@PAEPAUStruct_Microsoft_Singularity_Channels_Endpoint@@PAH@Z 00c9a0a0 f   kernel.obj
 0001:000890f0       ?m_Equals@Struct_Microsoft_Singularity_Directory_DirectoryServiceContract_NakCreateLink@@SI_NPAU1@PAUClass_System_Object@@@Z 00c9a0f0 f   kernel.obj
 0001:00089178       ?m_Equals@Struct_Microsoft_Singularity_Directory_DirectoryServiceContract_NakCreateLink@@SI_NPAUClass_Microsoft_Singularity_Directory_DirectoryServiceContract_NakCreateLink@@PAUClass_System_Object@@@Z 00c9a178 f   kernel.obj
 0001:0008919c       ?g_TruncateTo@Struct_Microsoft_Singularity_Memory_SharedHeap_Allocation@@SIXPAU1@PAUuintPtr@@@Z 00c9a19c f   kernel.obj
 0001:000891bc       ?m_StructCopy@Struct_Microsoft_Singularity_Memory_SharedHeap_Allocation@@SIXPAU1@0@Z 00c9a1bc f   kernel.obj
 0001:000891fc       ?m_StructCopy@Struct_Microsoft_Singularity_Memory_SharedHeap_Allocation@@SIXPAU1@PAU1@@Z 00c9a1fc f   kernel.obj
 0001:000892bc       ?g_SetOwnerProcessId@Struct_Microsoft_Singularity_Memory_SharedHeap_Allocation@@SIXPAU1@H@Z 00c9a2bc f   kernel.obj
 0001:0008937c       ?g_ReuseOrCreateAllocation@Struct_Microsoft_Singularity_Memory_SharedHeap_Allocation@@SIPAU1@PAUClass_Microsoft_Singularity_Memory_SharedHeap@@@Z 00c9a37c f   kernel.obj
 0001:00089448       ?g_RemoveOwnership@Struct_Microsoft_Singularity_Memory_SharedHeap_Allocation@@SIXPAU1@UStruct_Microsoft_Singularity_Memory_SharedHeap_AllocationOwnerId@@@Z 00c9a448 f   kernel.obj
 0001:000894c4       ?g_MoveForward@Struct_Microsoft_Singularity_Memory_SharedHeap_Allocation@@SIXPAU1@@Z 00c9a4c4 f   kernel.obj
 0001:0008951c       ?g_Initialize@Struct_Microsoft_Singularity_Memory_SharedHeap_Allocation@@SIPAU1@PAU1@PAUuintPtr@@11@Z 00c9a51c f   kernel.obj
 0001:00089564       ?g_GetType@Struct_Microsoft_Singularity_Memory_SharedHeap_Allocation@@SIPAUuintPtr@@PAU1@@Z 00c9a564 f   kernel.obj
 0001:00089580       ?g_GetSize@Struct_Microsoft_Singularity_Memory_SharedHeap_Allocation@@SIPAUuintPtr@@PAU1@@Z 00c9a580 f   kernel.obj
 0001:0008959c       ?g_GetOwnerProcessId@Struct_Microsoft_Singularity_Memory_SharedHeap_Allocation@@SIHPAU1@@Z 00c9a59c f   kernel.obj
 0001:000895b8       ?g_GetDataUnchecked@Struct_Microsoft_Singularity_Memory_SharedHeap_Allocation@@SIPAUuintPtr@@PAU1@@Z 00c9a5b8 f   kernel.obj
 0001:000895d4       ?g_GetData@Struct_Microsoft_Singularity_Memory_SharedHeap_Allocation@@SIPAUuintPtr@@PAU1@@Z 00c9a5d4 f   kernel.obj
 0001:000895f8       ?m_Equals@Struct_Microsoft_Singularity_Memory_SharedHeap_Allocation@@SI_NPAU1@PAUClass_System_Object@@@Z 00c9a5f8 f   kernel.obj
 0001:00089664       ?m_Equals@Struct_Microsoft_Singularity_Memory_SharedHeap_Allocation@@SI_NPAUClass_Microsoft_Singularity_Memory_SharedHeap_Allocation@@PAUClass_System_Object@@@Z 00c9a664 f   kernel.obj
 0001:00089688       ?g_CreateSentinel@Struct_Microsoft_Singularity_Memory_SharedHeap_Allocation@@SIPAU1@PAUClass_Microsoft_Singularity_Memory_SharedHeap@@@Z 00c9a688 f   kernel.obj
 0001:000896d0       ?g_Create@Struct_Microsoft_Singularity_Memory_SharedHeap_Allocation@@SIPAU1@PAUClass_Microsoft_Singularity_Memory_SharedHeap@@PAUuintPtr@@11@Z 00c9a6d0 f   kernel.obj
 0001:00089724       ?g_Create@Struct_Microsoft_Singularity_Memory_SharedHeap_Allocation@@SIPAU1@PAUClass_Microsoft_Singularity_Memory_SharedHeap@@PAUuintPtr@@11H@Z 00c9a724 f   kernel.obj
 0001:0008975c       ?g_AssignOwnership@Struct_Microsoft_Singularity_Memory_SharedHeap_Allocation@@SIXPAU1@UStruct_Microsoft_Singularity_Memory_SharedHeap_AllocationOwnerId@@@Z 00c9a75c f   kernel.obj
 0001:000897cc       ?g_AssertCorrectOwner@Struct_Microsoft_Singularity_Memory_SharedHeap_Allocation@@SIXPAU1@@Z 00c9a7cc f   kernel.obj
 0001:000897e4       ?m_StructCopy@Struct_Microsoft_Singularity_Directory_DirectoryServiceContract_EnumerationTerminated@@SIXPAU1@0@Z 00c9a7e4 f   kernel.obj
 0001:00089804       ?m_StructCopy@Struct_Microsoft_Singularity_Directory_DirectoryServiceContract_EnumerationTerminated@@SIXPAU1@PAU1@@Z 00c9a804 f   kernel.obj
 0001:00089864       ?m_MarshallContent@Struct_Microsoft_Singularity_Directory_DirectoryServiceContract_EnumerationTerminated@@SIXPAU1@PAEPAUStruct_Microsoft_Singularity_Channels_Endpoint@@1PAH@Z 00c9a864 f   kernel.obj
 0001:00089884       ?m_MarshallAll@Struct_Microsoft_Singularity_Directory_DirectoryServiceContract_EnumerationTerminated@@SIXPAU1@PAEPAUStruct_Microsoft_Singularity_Channels_Endpoint@@PAH@Z 00c9a884 f   kernel.obj
 0001:000898d4       ?m_Equals@Struct_Microsoft_Singularity_Directory_DirectoryServiceContract_EnumerationTerminated@@SI_NPAU1@PAUClass_System_Object@@@Z 00c9a8d4 f   kernel.obj
 0001:0008995c       ?m_Equals@Struct_Microsoft_Singularity_Directory_DirectoryServiceContract_EnumerationTerminated@@SI_NPAUClass_Microsoft_Singularity_Directory_DirectoryServiceContract_EnumerationTerminated@@PAUClass_System_Object@@@Z 00c9a95c f   kernel.obj
 0001:00089980       ?g_Assert@Class_System_Diagnostics_Debug@@SIX_N@Z 00c9a980 f   kernel.obj
 0001:000899a0       ?g_Assert@Class_System_Diagnostics_Debug@@SIX_NPAUClass_System_String@@@Z 00c9a9a0 f   kernel.obj
 0001:000899c0       ?m__ctor@Class_System_Diagnostics_Debug@@SIXPAU1@@Z 00c9a9c0 f   kernel.obj
 0001:000899d8       ?m_StructCopy@Struct_Microsoft_Singularity_Directory_DirectoryServiceContract_NakDeregisterReparse@@SIXPAU1@0@Z 00c9a9d8 f   kernel.obj
 0001:00089a04       ?m_StructCopy@Struct_Microsoft_Singularity_Directory_DirectoryServiceContract_NakDeregisterReparse@@SIXPAU1@PAU1@@Z 00c9aa04 f   kernel.obj
 0001:00089a88       ?m_MarshallContent@Struct_Microsoft_Singularity_Directory_DirectoryServiceContract_NakDeregisterReparse@@SIXPAU1@PAEPAUStruct_Microsoft_Singularity_Channels_Endpoint@@1PAH@Z 00c9aa88 f   kernel.obj
 0001:00089bd4       ?m_MarshallAll@Struct_Microsoft_Singularity_Directory_DirectoryServiceContract_NakDeregisterReparse@@SIXPAU1@PAEPAUStruct_Microsoft_Singularity_Channels_Endpoint@@PAH@Z 00c9abd4 f   kernel.obj
 0001:00089c24       ?m_Equals@Struct_Microsoft_Singularity_Directory_DirectoryServiceContract_NakDeregisterReparse@@SI_NPAU1@PAUClass_System_Object@@@Z 00c9ac24 f   kernel.obj
 0001:00089c78       ?m_Equals@Struct_Microsoft_Singularity_Directory_DirectoryServiceContract_NakDeregisterReparse@@SI_NPAUClass_Microsoft_Singularity_Directory_DirectoryServiceContract_NakDeregisterReparse@@PAUClass_System_Object@@@Z 00c9ac78 f   kernel.obj
 0001:00089c9c       ?m_StructCopy@Struct_Microsoft_Singularity_Extending_ExtensionContract_Shutdown@@SIXPAU1@0@Z 00c9ac9c f   kernel.obj
 0001:00089cb8       ?m_StructCopy@Struct_Microsoft_Singularity_Extending_ExtensionContract_Shutdown@@SIXPAU1@PAU1@@Z 00c9acb8 f   kernel.obj
 0001:00089d0c       ?m_MarshallContent@Struct_Microsoft_Singularity_Extending_ExtensionContract_Shutdown@@SIXPAU1@PAEPAUStruct_Microsoft_Singularity_Channels_Endpoint@@1PAH@Z 00c9ad0c f   kernel.obj
 0001:00089d2c       ?m_MarshallAll@Struct_Microsoft_Singularity_Extending_ExtensionContract_Shutdown@@SIXPAU1@PAEPAUStruct_Microsoft_Singularity_Channels_Endpoint@@PAH@Z 00c9ad2c f   kernel.obj
 0001:00089d7c       ?m_Equals@Struct_Microsoft_Singularity_Extending_ExtensionContract_Shutdown@@SI_NPAU1@PAUClass_System_Object@@@Z 00c9ad7c f   kernel.obj
 0001:00089db0       ?m_Equals@Struct_Microsoft_Singularity_Extending_ExtensionContract_Shutdown@@SI_NPAUClass_Microsoft_Singularity_Extending_ExtensionContract_Shutdown@@PAUClass_System_Object@@@Z 00c9adb0 f   kernel.obj
 0001:00089dd4       ?m__ctor@Class_Microsoft_Singularity_Hal_Acpi_VendorDefinedDescriptor@@SIXPAU1@PAUClassVector_uint8@@@Z 00c9add4 f   kernel.obj
 0001:00089e80       ?m__ctor@Class_Microsoft_Singularity_Hal_Acpi_VendorDefinedDescriptor@@SIXPAU1@UStruct_System_Guid@@EPAUClassVector_uint8@@@Z 00c9ae80 f   kernel.obj
 0001:00089ec8       ?g_Create@Class_Microsoft_Singularity_GCProfilerLogger_GCEventSource@@SIPAU1@PAUClass_System_String@@I_K@Z 00c9aec8 f   kernel.obj
 0001:00089f74       ?m__ctor@Class_Microsoft_Singularity_GCProfilerLogger_GCEventSource@@SIXPAU1@PAUClass_System_String@@PAUClass_Microsoft_Singularity_Eventing_EventingStorage@@I@Z 00c9af74 f   kernel.obj
 0001:00089f9c       ?m_StructCopy@Struct_Microsoft_Singularity_Diagnostics_Contracts_ProcessContract_ParentID@@SIXPAU1@0@Z 00c9af9c f   kernel.obj
 0001:00089fbc       ?m_StructCopy@Struct_Microsoft_Singularity_Diagnostics_Contracts_ProcessContract_ParentID@@SIXPAU1@PAU1@@Z 00c9afbc f   kernel.obj
 0001:0008a01c       ?m_MarshallContent@Struct_Microsoft_Singularity_Diagnostics_Contracts_ProcessContract_ParentID@@SIXPAU1@PAEPAUStruct_Microsoft_Singularity_Channels_Endpoint@@1PAH@Z 00c9b01c f   kernel.obj
 0001:0008a03c       ?m_MarshallAll@Struct_Microsoft_Singularity_Diagnostics_Contracts_ProcessContract_ParentID@@SIXPAU1@PAEPAUStruct_Microsoft_Singularity_Channels_Endpoint@@PAH@Z 00c9b03c f   kernel.obj
 0001:0008a08c       ?m_Equals@Struct_Microsoft_Singularity_Diagnostics_Contracts_ProcessContract_ParentID@@SI_NPAU1@PAUClass_System_Object@@@Z 00c9b08c f   kernel.obj
 0001:0008a0c8       ?m_Equals@Struct_Microsoft_Singularity_Diagnostics_Contracts_ProcessContract_ParentID@@SI_NPAUClass_Microsoft_Singularity_Diagnostics_Contracts_ProcessContract_ParentID@@PAUClass_System_Object@@@Z 00c9b0c8 f   kernel.obj
 0001:0008a0ec       ?m_Accept@Class_Microsoft_Singularity_Hal_Acpi_AmlParser_Remainder@@SIXPAU1@PAUClass_Microsoft_Singularity_Hal_Acpi_AmlParserNodeVisitor@@@Z 00c9b0ec f   kernel.obj
 0001:0008a11c       ?m__ctor@Class_Microsoft_Singularity_Hal_Acpi_AmlParser_Remainder@@SIXPAU1@@Z 00c9b11c f   kernel.obj
 0001:0008a13c       ?m_StructCopy@Struct_System_Threading_SpinLock@@SIXPAU1@0@Z 00c9b13c f   kernel.obj
 0001:0008a160       ?m_StructCopy@Struct_System_Threading_SpinLock@@SIXPAU1@PAU1@@Z 00c9b160 f   kernel.obj
 0001:0008a1cc       ?g_StaticInitialize@Struct_System_Threading_SpinLock@@SIXXZ 00c9b1cc f   kernel.obj
 0001:0008a1e0       ?m_ReleaseInternal@Struct_System_Threading_SpinLock@@SIXPAU1@PAUClass_System_Threading_Thread@@H@Z 00c9b1e0 f   kernel.obj
 0001:0008a26c       ?m_Release@Struct_System_Threading_SpinLock@@SIXPAU1@@Z 00c9b26c f   kernel.obj
 0001:0008a334       ?m_Release@Struct_System_Threading_SpinLock@@SIXPAU1@PAUClass_System_Threading_Thread@@@Z 00c9b334 f   kernel.obj
 0001:0008a3f0       ?m_IsHeldBy@Struct_System_Threading_SpinLock@@SI_NPAU1@PAUClass_System_Threading_Thread@@@Z 00c9b3f0 f   kernel.obj
 0001:0008a43c       ?m_get$_Rank@Struct_System_Threading_SpinLock@@SIHPAU1@@Z 00c9b43c f   kernel.obj
 0001:0008a464       ?m_Equals@Struct_System_Threading_SpinLock@@SI_NPAU1@PAUClass_System_Object@@@Z 00c9b464 f   kernel.obj
 0001:0008a504       ?m_Equals@Struct_System_Threading_SpinLock@@SI_NPAUClass_System_Threading_SpinLock@@PAUClass_System_Object@@@Z 00c9b504 f   kernel.obj
 0001:0008a528       ?g_DeriveRank@Struct_System_Threading_SpinLock@@SIHH@Z 00c9b528 f   kernel.obj
 0001:0008a560       ?m_AcquireInternal@Struct_System_Threading_SpinLock@@SIXPAU1@PAUClass_System_Threading_Thread@@H@Z 00c9b560 f   kernel.obj
 0001:0008a63c       ?m_Acquire@Struct_System_Threading_SpinLock@@SIXPAU1@@Z 00c9b63c f   kernel.obj
 0001:0008a75c       ?m_Acquire@Struct_System_Threading_SpinLock@@SIXPAU1@PAUClass_System_Threading_Thread@@@Z 00c9b75c f   kernel.obj
 0001:0008a870       ?m__ctor@Struct_System_Threading_SpinLock@@SIXPAU1@UStruct_System_Threading_SpinLock_Types@@@Z 00c9b870 f   kernel.obj
 0001:0008a8b0       ?m_Initialize@Class_Microsoft_Singularity_Drivers_IDE_IdeBus@@SIXPAU1@@Z 00c9b8b0 f   kernel.obj
 0001:0008ae2c       ?m_Finalize@Class_Microsoft_Singularity_Drivers_IDE_IdeBus@@SIXPAU1@@Z 00c9be2c f   kernel.obj
 0001:0008ae50       ?m_Enumerate@Class_Microsoft_Singularity_Drivers_IDE_IdeBus@@SIPAUClass_System_Collections_SortedList@@PAU1@@Z 00c9be50 f   kernel.obj
 0001:0008aecc       ?m__ctor@Class_Microsoft_Singularity_Drivers_IDE_IdeBus@@SIXPAU1@PAUClass_Microsoft_Singularity_Io_PciDeviceConfig@@@Z 00c9becc f   kernel.obj
 0001:0008aef4       ?m_Accept@Class_Microsoft_Singularity_Hal_Acpi_AmlParser_DefNot@@SIXPAU1@PAUClass_Microsoft_Singularity_Hal_Acpi_AmlParserNodeVisitor@@@Z 00c9bef4 f   kernel.obj
 0001:0008af24       ?m__ctor@Class_Microsoft_Singularity_Hal_Acpi_AmlParser_DefNot@@SIXPAU1@@Z 00c9bf24 f   kernel.obj
 0001:0008af44       ?m_StructCopy@Struct_Microsoft_Singularity_Directory_DirectoryServiceContract_NakDeleteDirectoryReparse@@SIXPAU1@0@Z 00c9bf44 f   kernel.obj
 0001:0008af70       ?m_StructCopy@Struct_Microsoft_Singularity_Directory_DirectoryServiceContract_NakDeleteDirectoryReparse@@SIXPAU1@PAU1@@Z 00c9bf70 f   kernel.obj
 0001:0008aff4       ?m_MarshallContent@Struct_Microsoft_Singularity_Directory_DirectoryServiceContract_NakDeleteDirectoryReparse@@SIXPAU1@PAEPAUStruct_Microsoft_Singularity_Channels_Endpoint@@1PAH@Z 00c9bff4 f   kernel.obj
 0001:0008b140       ?m_MarshallAll@Struct_Microsoft_Singularity_Directory_DirectoryServiceContract_NakDeleteDirectoryReparse@@SIXPAU1@PAEPAUStruct_Microsoft_Singularity_Channels_Endpoint@@PAH@Z 00c9c140 f   kernel.obj
 0001:0008b190       ?m_Equals@Struct_Microsoft_Singularity_Directory_DirectoryServiceContract_NakDeleteDirectoryReparse@@SI_NPAU1@PAUClass_System_Object@@@Z 00c9c190 f   kernel.obj
 0001:0008b1e4       ?m_Equals@Struct_Microsoft_Singularity_Directory_DirectoryServiceContract_NakDeleteDirectoryReparse@@SI_NPAUClass_Microsoft_Singularity_Directory_DirectoryServiceContract_NakDeleteDirectoryReparse@@PAUClass_System_Object@@@Z 00c9c1e4 f   kernel.obj
 0001:0008b208       ?m_Accept@Class_Microsoft_Singularity_Hal_Acpi_AmlParser_DefIndex@@SIXPAU1@PAUClass_Microsoft_Singularity_Hal_Acpi_AmlParserNodeVisitor@@@Z 00c9c208 f   kernel.obj
 0001:0008b238       ?m__ctor@Class_Microsoft_Singularity_Hal_Acpi_AmlParser_DefIndex@@SIXPAU1@@Z 00c9c238 f   kernel.obj
 0001:0008b258       ?m_StructCopy@Struct_Microsoft_Singularity_Directory_DirectoryServiceContract_NakBind@@SIXPAU1@0@Z 00c9c258 f   kernel.obj
 0001:0008b280       ?m_StructCopy@Struct_Microsoft_Singularity_Directory_DirectoryServiceContract_NakBind@@SIXPAU1@PAU1@@Z 00c9c280 f   kernel.obj
 0001:0008b2f8       ?m_MarshallContent@Struct_Microsoft_Singularity_Directory_DirectoryServiceContract_NakBind@@SIXPAU1@PAEPAUStruct_Microsoft_Singularity_Channels_Endpoint@@1PAH@Z 00c9c2f8 f   kernel.obj
 0001:0008b368       ?m_MarshallAll@Struct_Microsoft_Singularity_Directory_DirectoryServiceContract_NakBind@@SIXPAU1@PAEPAUStruct_Microsoft_Singularity_Channels_Endpoint@@PAH@Z 00c9c368 f   kernel.obj
 0001:0008b3b8       ?m_Equals@Struct_Microsoft_Singularity_Directory_DirectoryServiceContract_NakBind@@SI_NPAU1@PAUClass_System_Object@@@Z 00c9c3b8 f   kernel.obj
 0001:0008b450       ?m_Equals@Struct_Microsoft_Singularity_Directory_DirectoryServiceContract_NakBind@@SI_NPAUClass_Microsoft_Singularity_Directory_DirectoryServiceContract_NakBind@@PAUClass_System_Object@@@Z 00c9c450 f   kernel.obj
 0001:0008b474       ?m_Accept@Class_Microsoft_Singularity_Hal_Acpi_AmlParser_DefLoad@@SIXPAU1@PAUClass_Microsoft_Singularity_Hal_Acpi_AmlParserNodeVisitor@@@Z 00c9c474 f   kernel.obj
 0001:0008b4a4       ?m__ctor@Class_Microsoft_Singularity_Hal_Acpi_AmlParser_DefLoad@@SIXPAU1@@Z 00c9c4a4 f   kernel.obj
 0001:0008b4c4       ?m_Write8@Class_Microsoft_Singularity_Io_PciPort@@SIXPAU1@HE@Z 00c9c4c4 f   kernel.obj
 0001:0008b598       ?m_Write32@Class_Microsoft_Singularity_Io_PciPort@@SIXPAU1@HI@Z 00c9c598 f   kernel.obj
 0001:0008b684       ?m_Write16@Class_Microsoft_Singularity_Io_PciPort@@SIXPAU1@HG@Z 00c9c684 f   kernel.obj
 0001:0008b784       ?m_Read8@Class_Microsoft_Singularity_Io_PciPort@@SIEPAU1@H@Z 00c9c784 f   kernel.obj
 0001:0008b858       ?m_Read32@Class_Microsoft_Singularity_Io_PciPort@@SIIPAU1@H@Z 00c9c858 f   kernel.obj
 0001:0008b954       ?m_Read16@Class_Microsoft_Singularity_Io_PciPort@@SIGPAU1@H@Z 00c9c954 f   kernel.obj
 0001:0008ba58       ?m_get$_Identifier@Class_Microsoft_Singularity_Io_PciPort@@SIGPAU1@@Z 00c9ca58 f   kernel.obj
 0001:0008ba74       ?m_get$_Device@Class_Microsoft_Singularity_Io_PciPort@@SIGPAU1@@Z 00c9ca74 f   kernel.obj
 0001:0008ba9c       ?m_get$_Bus@Class_Microsoft_Singularity_Io_PciPort@@SIGPAU1@@Z 00c9ca9c f   kernel.obj
 0001:0008bac0       ?m__ctor@Class_Microsoft_Singularity_Io_PciPort@@SIXPAU1@PAUClass_Microsoft_Singularity_Io_IoPort@@1G@Z 00c9cac0 f   kernel.obj
 0001:0008bb08       ?m_ThreadMain@Class_Microsoft_Singularity_KernelDebugger_KdFilesNamespace_ServiceThread@@SIXPAU1@@Z 00c9cb08 f   kernel.obj
 0001:0008d4cc       ?g_ReadHostFile@Class_Microsoft_Singularity_KernelDebugger_KdFilesNamespace_ServiceThread@@SIXPAUClass_Microsoft_Singularity_KernelDebugger_KdFilesNamespace_ServiceThread_FileState@@PAE_J22PA_JPAH@Z 00c9e4cc f   kernel.obj
 0001:0008daf4       ?m__ctor@Class_Microsoft_Singularity_KernelDebugger_KdFilesNamespace_ServiceThread@@SIXPAU1@PAUStruct_Microsoft_Singularity_Directory_ServiceProviderContract_Exp@@@Z 00c9eaf4 f   kernel.obj
 0001:0008db4c       ?g__cctor@Class_Microsoft_Singularity_KernelDebugger_KdFilesNamespace_ServiceThread@@SIXXZ 00c9eb4c f   kernel.obj
 0001:0008e074       ?m_get$_Region@Class_Microsoft_Singularity_Hal_Acpi_Dsdt@@SIPAUClass_Microsoft_Singularity_Io_IoMemory@@PAU1@@Z 00c9f074 f   kernel.obj
 0001:0008e090       ?g_Create@Class_Microsoft_Singularity_Hal_Acpi_Dsdt@@SIPAU1@PAUClass_Microsoft_Singularity_Hal_Acpi_SystemTableHeader@@@Z 00c9f090 f   kernel.obj
 0001:0008e12c       ?m__ctor@Class_Microsoft_Singularity_Hal_Acpi_Dsdt@@SIXPAU1@PAUClass_Microsoft_Singularity_Io_IoMemory@@PAUClass_Microsoft_Singularity_Hal_Acpi_SystemTableHeader@@@Z 00c9f12c f   kernel.obj
 0001:0008e168       ?m_ToPrint@Class_Microsoft_Singularity_Io_PciCardbusConfig@@SIPAUClass_System_String@@PAU1@@Z 00c9f168 f   kernel.obj
 0001:0008e188       ?m_Read@Class_Microsoft_Singularity_Io_PciCardbusConfig@@SIXPAU1@@Z 00c9f188 f   kernel.obj
 0001:0008e1a8       ?m__ctor@Class_Microsoft_Singularity_Io_PciCardbusConfig@@SIXPAU1@PAUClass_Microsoft_Singularity_Io_PciPort@@@Z 00c9f1a8 f   kernel.obj
 0001:0008e1ec       ?m_TryAcquire@Struct_System_Threading_SpinLockBase@@SI_NPAU1@H@Z 00c9f1ec f   kernel.obj
 0001:0008e22c       ?m_StructCopy@Struct_System_Threading_SpinLockBase@@SIXPAU1@0@Z 00c9f22c f   kernel.obj
 0001:0008e254       ?m_StructCopy@Struct_System_Threading_SpinLockBase@@SIXPAU1@PAU1@@Z 00c9f254 f   kernel.obj
 0001:0008e2cc       ?m_SpinToAcquire@Struct_System_Threading_SpinLockBase@@SIXPAU1@H@Z 00c9f2cc f   kernel.obj
 0001:0008e38c       ?m_Release@Struct_System_Threading_SpinLockBase@@SIXPAU1@H@Z 00c9f38c f   kernel.obj
 0001:0008e3bc       ?m_IsHeldBy@Struct_System_Threading_SpinLockBase@@SI_NPAU1@H@Z 00c9f3bc f   kernel.obj
 0001:0008e3dc       ?m_get$_Type@Struct_System_Threading_SpinLockBase@@SIHPAU1@@Z 00c9f3dc f   kernel.obj
 0001:0008e3f8       ?m_Equals@Struct_System_Threading_SpinLockBase@@SI_NPAU1@PAUClass_System_Object@@@Z 00c9f3f8 f   kernel.obj
 0001:0008e444       ?m_Equals@Struct_System_Threading_SpinLockBase@@SI_NPAUClass_System_Threading_SpinLockBase@@PAUClass_System_Object@@@Z 00c9f444 f   kernel.obj
 0001:0008e468       ?m_Acquire@Struct_System_Threading_SpinLockBase@@SIXPAU1@H@Z 00c9f468 f   kernel.obj
 0001:0008e4d0       ?m__ctor@Struct_System_Threading_SpinLockBase@@SIXPAU1@H@Z 00c9f4d0 f   kernel.obj
 0001:0008e4f4       ?m_Release@Class__Directory_Microsoft_Singularity_Channels_TRef$_2$LMicrosoft_Singularity_Directory_NotificationManager_NotificationQueueContract_Imp_Microsoft_Singularity_Directory_NotificationManager_NotificationQueueContract_RUNNING$G@@SIXPAU1@PAUStruct_Microsoft_Singularity_Directory_NotificationManager_NotificationQueueContract_Imp@@@Z 00c9f4f4 f   kernel.obj
 0001:0008e624       ?m_Finalize@Class__Directory_Microsoft_Singularity_Channels_TRef$_2$LMicrosoft_Singularity_Directory_NotificationManager_NotificationQueueContract_Imp_Microsoft_Singularity_Directory_NotificationManager_NotificationQueueContract_RUNNING$G@@SIXPAU1@@Z 00c9f624 f   kernel.obj
 0001:0008e6ac       ?m_Acquire@Class__Directory_Microsoft_Singularity_Channels_TRef$_2$LMicrosoft_Singularity_Directory_NotificationManager_NotificationQueueContract_Imp_Microsoft_Singularity_Directory_NotificationManager_NotificationQueueContract_RUNNING$G@@SIPAUStruct_Microsoft_Singularity_Directory_NotificationManager_NotificationQueueContract_Imp@@PAU1@@Z 00c9f6ac f   kernel.obj
 0001:0008e7d0       ?m__ctor@Class__Directory_Microsoft_Singularity_Channels_TRef$_2$LMicrosoft_Singularity_Directory_NotificationManager_NotificationQueueContract_Imp_Microsoft_Singularity_Directory_NotificationManager_NotificationQueueContract_RUNNING$G@@SIXPAU1@PAUStruct_Microsoft_Singularity_Directory_NotificationManager_NotificationQueueContract_Imp@@@Z 00c9f7d0 f   kernel.obj
 0001:0008e91c       ?m_StructCopy@Struct_Microsoft_Singularity_Memory_SharedHeap_RoverType@@SIXPAU1@0@Z 00c9f91c f   kernel.obj
 0001:0008e938       ?m_StructCopy@Struct_Microsoft_Singularity_Memory_SharedHeap_RoverType@@SIXPAU1@PAU1@@Z 00c9f938 f   kernel.obj
 0001:0008e98c       ?m_Equals@Struct_Microsoft_Singularity_Memory_SharedHeap_RoverType@@SI_NPAU1@PAUClass_System_Object@@@Z 00c9f98c f   kernel.obj
 0001:0008e9c0       ?m_Equals@Struct_Microsoft_Singularity_Memory_SharedHeap_RoverType@@SI_NPAUClass_Microsoft_Singularity_Memory_SharedHeap_RoverType@@PAUClass_System_Object@@@Z 00c9f9c0 f   kernel.obj
 0001:0008e9e4       ?m__ctor@Class_System_GCs_Verifier_GenericStackVerifier@@SIXPAU1@@Z 00c9f9e4 f   kernel.obj
 0001:0008ea04       ?g_StableState@Class_Microsoft_Singularity_Io_ChannelDeliveryContract@@SIHPAUStruct_Microsoft_Singularity_Channels_StateStack@@@Z 00c9fa04 f   kernel.obj
 0001:0008ea88       ?m__ctor@Class_Microsoft_Singularity_Io_ChannelDeliveryContract@@SIXPAU1@@Z 00c9fa88 f   kernel.obj
 0001:0008eaa0       ?m_Callback@Class_Microsoft_Singularity_Memory_Stacks_ReturnSipStackCallback@@SIPAUuintPtr@@PAU1@PAU2@@Z 00c9faa0 f   kernel.obj
 0001:0008eadc       ?m__ctor@Class_Microsoft_Singularity_Memory_Stacks_ReturnSipStackCallback@@SIXPAU1@@Z 00c9fadc f   kernel.obj
 0001:0008eafc       ?m_StructCopy@Struct_Microsoft_Singularity_Isal_IX_Idte@@SIXPAU1@0@Z 00c9fafc f   kernel.obj
 0001:0008eb3c       ?m_StructCopy@Struct_Microsoft_Singularity_Isal_IX_Idte@@SIXPAU1@PAU1@@Z 00c9fb3c f   kernel.obj
 0001:0008ebfc       ?m_Equals@Struct_Microsoft_Singularity_Isal_IX_Idte@@SI_NPAU1@PAUClass_System_Object@@@Z 00c9fbfc f   kernel.obj
 0001:0008ec68       ?m_Equals@Struct_Microsoft_Singularity_Isal_IX_Idte@@SI_NPAUClass_Microsoft_Singularity_Isal_IX_Idte@@PAUClass_System_Object@@@Z 00c9fc68 f   kernel.obj
 0001:0008ec8c       ?g_CreateDefScope@Class_Microsoft_Singularity_Hal_Acpi_AmlParserUnions_NameSpaceModifierObj@@SIPAU1@PAUClass_Microsoft_Singularity_Hal_Acpi_AmlParser_DefScope@@@Z 00c9fc8c f   kernel.obj
 0001:0008ecd0       ?g_CreateDefName@Class_Microsoft_Singularity_Hal_Acpi_AmlParserUnions_NameSpaceModifierObj@@SIPAU1@PAUClass_Microsoft_Singularity_Hal_Acpi_AmlParser_DefName@@@Z 00c9fcd0 f   kernel.obj
 0001:0008ed14       ?g_CreateDefAlias@Class_Microsoft_Singularity_Hal_Acpi_AmlParserUnions_NameSpaceModifierObj@@SIPAU1@PAUClass_Microsoft_Singularity_Hal_Acpi_AmlParser_DefAlias@@@Z 00c9fd14 f   kernel.obj
 0001:0008ed54       ?m_AcceptAlternative@Class_Microsoft_Singularity_Hal_Acpi_AmlParserUnions_NameSpaceModifierObj@@SIXPAU1@PAUClass_Microsoft_Singularity_Hal_Acpi_AmlParserNodeVisitor@@@Z 00c9fd54 f   kernel.obj
 0001:0008ed90       ?m_Accept@Class_Microsoft_Singularity_Hal_Acpi_AmlParserUnions_NameSpaceModifierObj@@SIXPAU1@PAUClass_Microsoft_Singularity_Hal_Acpi_AmlParserNodeVisitor@@@Z 00c9fd90 f   kernel.obj
 0001:0008edbc       ?m__ctor@Class_Microsoft_Singularity_Hal_Acpi_AmlParserUnions_NameSpaceModifierObj@@SIXPAU1@UStruct_Microsoft_Singularity_Hal_Acpi_AmlParserUnions_NameSpaceModifierObj_TagValue@@PAUClass_System_Object@@@Z 00c9fdbc f   kernel.obj
 0001:0008edf8       ?m_AccumulateBlockInfo@Class_Microsoft_Singularity_Diagnostics_MemoryModule_HeapDumper@@SIXPAU1@PAUStruct_Microsoft_Singularity_Memory_SharedHeap_Allocation@@@Z 00c9fdf8 f   kernel.obj
 0001:0008eec0       ?m__ctor@Class_Microsoft_Singularity_Diagnostics_MemoryModule_HeapDumper@@SIXPAU1@@Z 00c9fec0 f   kernel.obj
 0001:0008ef08       ?m_MoveNext@Class_System_Collections_Stack_StackEnumerator@@SI_NPAU1@@Z 00c9ff08 f   kernel.obj
 0001:0008efd8       ?m_get$_Current@Class_System_Collections_Stack_StackEnumerator@@SIPAUClass_System_Object@@PAU1@@Z 00c9ffd8 f   kernel.obj
 0001:0008f048       ?m__ctor@Class_System_Collections_Stack_StackEnumerator@@SIXPAU1@PAUClass_System_Collections_Stack@@@Z 00ca0048 f   kernel.obj
 0001:0008f094       ?m_Finalize@Class__Directory_Contracts_Microsoft_Singularity_Channels_TRef$_2$LMicrosoft_Singularity_Directory_DirectoryServiceContract_Exp_Microsoft_Singularity_Directory_DirectoryServiceContract_Start$G@@SIXPAU1@@Z 00ca0094 f   kernel.obj
 0001:0008f11c       ?m_Acquire@Class__Directory_Contracts_Microsoft_Singularity_Channels_TRef$_2$LMicrosoft_Singularity_Directory_DirectoryServiceContract_Exp_Microsoft_Singularity_Directory_DirectoryServiceContract_Start$G@@SIPAUStruct_Microsoft_Singularity_Directory_DirectoryServiceContract_Exp@@PAU1@@Z 00ca011c f   kernel.obj
 0001:0008f240       ?m__ctor@Class__Directory_Contracts_Microsoft_Singularity_Channels_TRef$_2$LMicrosoft_Singularity_Directory_DirectoryServiceContract_Exp_Microsoft_Singularity_Directory_DirectoryServiceContract_Start$G@@SIXPAU1@PAUStruct_Microsoft_Singularity_Directory_DirectoryServiceContract_Exp@@@Z 00ca0240 f   kernel.obj
 0001:0008f38c       ?m_StructCopy@Struct_Microsoft_Singularity_Directory_DirectoryServiceContract_CreateLink@@SIXPAU1@0@Z 00ca038c f   kernel.obj
 0001:0008f3b4       ?m_StructCopy@Struct_Microsoft_Singularity_Directory_DirectoryServiceContract_CreateLink@@SIXPAU1@PAU1@@Z 00ca03b4 f   kernel.obj
 0001:0008f42c       ?m_MarshallContent@Struct_Microsoft_Singularity_Directory_DirectoryServiceContract_CreateLink@@SIXPAU1@PAEPAUStruct_Microsoft_Singularity_Channels_Endpoint@@1PAH@Z 00ca042c f   kernel.obj
 0001:0008f578       ?m_MarshallAll@Struct_Microsoft_Singularity_Directory_DirectoryServiceContract_CreateLink@@SIXPAU1@PAEPAUStruct_Microsoft_Singularity_Channels_Endpoint@@PAH@Z 00ca0578 f   kernel.obj
 0001:0008f5c8       ?m_Equals@Struct_Microsoft_Singularity_Directory_DirectoryServiceContract_CreateLink@@SI_NPAU1@PAUClass_System_Object@@@Z 00ca05c8 f   kernel.obj
 0001:0008f614       ?m_Equals@Struct_Microsoft_Singularity_Directory_DirectoryServiceContract_CreateLink@@SI_NPAUClass_Microsoft_Singularity_Directory_DirectoryServiceContract_CreateLink@@PAUClass_System_Object@@@Z 00ca0614 f   kernel.obj
 0001:0008f638       ?m_StructCopy@Struct_Microsoft_Singularity_V1_Threads_ManualResetEventHandle@@SIXPAU1@0@Z 00ca0638 f   kernel.obj
 0001:0008f658       ?m_StructCopy@Struct_Microsoft_Singularity_V1_Threads_ManualResetEventHandle@@SIXPAU1@PAU1@@Z 00ca0658 f   kernel.obj
 0001:0008f6b8       ?g_Set$_@Struct_Microsoft_Singularity_V1_Threads_ManualResetEventHandle@@SI_NU1@@Z 00ca06b8 f   kernel.obj
 0001:0008f738       ?g_Set@Struct_Microsoft_Singularity_V1_Threads_ManualResetEventHandle@@SI_NU1@@Z 00ca0738 f   kernel.obj
 0001:0008fbdc       ?g_Reset$_@Struct_Microsoft_Singularity_V1_Threads_ManualResetEventHandle@@SI_NU1@@Z 00ca0bdc f   kernel.obj
 0001:0008fc5c       ?g_Reset@Struct_Microsoft_Singularity_V1_Threads_ManualResetEventHandle@@SI_NU1@@Z 00ca0c5c f   kernel.obj
 0001:00090100       ?m_Equals@Struct_Microsoft_Singularity_V1_Threads_ManualResetEventHandle@@SI_NPAU1@PAUClass_System_Object@@@Z 00ca1100 f   kernel.obj
 0001:0009013c       ?m_Equals@Struct_Microsoft_Singularity_V1_Threads_ManualResetEventHandle@@SI_NPAUClass_Microsoft_Singularity_V1_Threads_ManualResetEventHandle@@PAUClass_System_Object@@@Z 00ca113c f   kernel.obj
 0001:00090180       ?g_Dispose$_@Struct_Microsoft_Singularity_V1_Threads_ManualResetEventHandle@@SIXU1@@Z 00ca1180 f   kernel.obj
 0001:000901b8       ?g_Dispose@Struct_Microsoft_Singularity_V1_Threads_ManualResetEventHandle@@SIXU1@@Z 00ca11b8 f   kernel.obj
 0001:0009064c       ?g_CreateImpl$_@Struct_Microsoft_Singularity_V1_Threads_ManualResetEventHandle@@SI_N_NPAU1@@Z 00ca164c f   kernel.obj
 0001:00090670       ?g_CreateImpl@Struct_Microsoft_Singularity_V1_Threads_ManualResetEventHandle@@SI_N_NPAU1@@Z 00ca1670 f   kernel.obj
 0001:00090b20       ?g_Create@Struct_Microsoft_Singularity_V1_Threads_ManualResetEventHandle@@SI_N_NPAU1@@Z 00ca1b20 f   kernel.obj
 0001:00090bac       ?m__ctor@Struct_Microsoft_Singularity_V1_Threads_ManualResetEventHandle@@SIXPAU1@PAUuintPtr@@@Z 00ca1bac f   kernel.obj
 0001:00090bcc       ?g__cctor@Struct_Microsoft_Singularity_V1_Threads_ManualResetEventHandle@@SIXXZ 00ca1bcc f   kernel.obj
 0001:00090be8       ?m__ctor@Class_System_Runtime_CompilerServices_ExternalEntryPointAttribute@@SIXPAU1@@Z 00ca1be8 f   kernel.obj
 0001:00090c08       ?m_Accept@Class_Microsoft_Singularity_Hal_Acpi_AmlParser_Target@@SIXPAU1@PAUClass_Microsoft_Singularity_Hal_Acpi_AmlParserNodeVisitor@@@Z 00ca1c08 f   kernel.obj
 0001:00090c38       ?m__ctor@Class_Microsoft_Singularity_Hal_Acpi_AmlParser_Target@@SIXPAU1@@Z 00ca1c38 f   kernel.obj
 0001:00090c58       ?m_StructCopy@Struct_Microsoft_Singularity_Directory_DirectoryServiceContract_Imp@@SIXPAU1@0@Z 00ca1c58 f   kernel.obj
 0001:00091100       ?m_StructCopy@Struct_Microsoft_Singularity_Directory_DirectoryServiceContract_Imp@@SIXPAU1@PAU1@@Z 00ca2100 f   kernel.obj
 0001:00091ef8       ?m_SendRegister@Struct_Microsoft_Singularity_Directory_DirectoryServiceContract_Imp@@SIXPAU1@PA_WPAUStruct_Microsoft_Singularity_Directory_ServiceProviderContract_Imp@@@Z 00ca2ef8 f   kernel.obj
 0001:00092078       ?m_SendGetAttributes@Struct_Microsoft_Singularity_Directory_DirectoryServiceContract_Imp@@SIXPAU1@PA_W@Z 00ca3078 f   kernel.obj
 0001:00092170       ?m_SendCreateLink@Struct_Microsoft_Singularity_Directory_DirectoryServiceContract_Imp@@SIXPAU1@PA_W1@Z 00ca3170 f   kernel.obj
 0001:00092284       ?m_SendCreateDirectory@Struct_Microsoft_Singularity_Directory_DirectoryServiceContract_Imp@@SIXPAU1@PA_W@Z 00ca3284 f   kernel.obj
 0001:0009237c       ?m_SendBind@Struct_Microsoft_Singularity_Directory_DirectoryServiceContract_Imp@@SIXPAU1@PA_WPAUStruct_Microsoft_Singularity_Directory_ServiceContract_Exp@@@Z 00ca337c f   kernel.obj
 0001:000924fc       ?m_Release@Struct_Microsoft_Singularity_Directory_DirectoryServiceContract_Imp@@SIXPAU1@@Z 00ca34fc f   kernel.obj
 0001:00092514       ?m_RecvSuccess@Struct_Microsoft_Singularity_Directory_DirectoryServiceContract_Imp@@SIXPAU1@@Z 00ca3514 f   kernel.obj
 0001:00092660       ?m_RecvNakRegisterReparse@Struct_Microsoft_Singularity_Directory_DirectoryServiceContract_Imp@@SIXPAU1@PAPA_W1PA_NPAPAUStruct_Microsoft_Singularity_Directory_ServiceProviderContract_Imp@@@Z 00ca3660 f   kernel.obj
 0001:000927fc       ?m_RecvNakRegister@Struct_Microsoft_Singularity_Directory_DirectoryServiceContract_Imp@@SIXPAU1@PAPAUStruct_Microsoft_Singularity_Directory_ServiceProviderContract_Imp@@PAUStruct_Microsoft_Singularity_Directory_ErrorCode@@@Z 00ca37fc f   kernel.obj
 0001:00092970       ?m_RecvNakGetAttributesReparse@Struct_Microsoft_Singularity_Directory_DirectoryServiceContract_Imp@@SIXPAU1@PAPA_W1PA_N@Z 00ca3970 f   kernel.obj
 0001:00092af8       ?m_RecvNakGetAttributes@Struct_Microsoft_Singularity_Directory_DirectoryServiceContract_Imp@@SIXPAU1@PAUStruct_Microsoft_Singularity_Directory_ErrorCode@@@Z 00ca3af8 f   kernel.obj
 0001:00092c58       ?m_RecvNakCreateLinkReparse@Struct_Microsoft_Singularity_Directory_DirectoryServiceContract_Imp@@SIXPAU1@PAPA_W1PA_N@Z 00ca3c58 f   kernel.obj
 0001:00092de0       ?m_RecvNakCreateLink@Struct_Microsoft_Singularity_Directory_DirectoryServiceContract_Imp@@SIXPAU1@PAUStruct_Microsoft_Singularity_Directory_ErrorCode@@@Z 00ca3de0 f   kernel.obj
 0001:00092f40       ?m_RecvNakCreateDirectory@Struct_Microsoft_Singularity_Directory_DirectoryServiceContract_Imp@@SIXPAU1@PAUStruct_Microsoft_Singularity_Directory_ErrorCode@@@Z 00ca3f40 f   kernel.obj
 0001:000930a0       ?m_RecvNakBindReparse@Struct_Microsoft_Singularity_Directory_DirectoryServiceContract_Imp@@SIXPAU1@PAPA_W1PA_NPAPAUStruct_Microsoft_Singularity_Directory_ServiceContract_Exp@@@Z 00ca40a0 f   kernel.obj
 0001:00093224       ?m_RecvNakBind@Struct_Microsoft_Singularity_Directory_DirectoryServiceContract_Imp@@SIXPAU1@PAPAUStruct_Microsoft_Singularity_Directory_ServiceContract_Exp@@PAUStruct_Microsoft_Singularity_Directory_ErrorCode@@@Z 00ca4224 f   kernel.obj
 0001:0009338c       ?m_RecvAckRegister@Struct_Microsoft_Singularity_Directory_DirectoryServiceContract_Imp@@SIXPAU1@@Z 00ca438c f   kernel.obj
 0001:000934d8       ?m_RecvAckGetAttributes@Struct_Microsoft_Singularity_Directory_DirectoryServiceContract_Imp@@SIXPAU1@PAUStruct_Microsoft_Singularity_Directory_FileAttributesRecord@@@Z 00ca44d8 f   kernel.obj
 0001:00093694       ?m_RecvAckCreateLink@Struct_Microsoft_Singularity_Directory_DirectoryServiceContract_Imp@@SIXPAU1@@Z 00ca4694 f   kernel.obj
 0001:000937e0       ?m_RecvAckCreateDirectory@Struct_Microsoft_Singularity_Directory_DirectoryServiceContract_Imp@@SIXPAU1@@Z 00ca47e0 f   kernel.obj
 0001:0009392c       ?m_RecvAckBind@Struct_Microsoft_Singularity_Directory_DirectoryServiceContract_Imp@@SIXPAU1@@Z 00ca492c f   kernel.obj
 0001:00093a78       ?m_Peek@Struct_Microsoft_Singularity_Directory_DirectoryServiceContract_Imp@@SIHPAU1@@Z 00ca4a78 f   kernel.obj
 0001:000941a8       ?m_MarshallDeliverSuccess0@Struct_Microsoft_Singularity_Directory_DirectoryServiceContract_Imp@@SIXPAU1@PAUStruct_Microsoft_Singularity_Channels_Endpoint@@@Z 00ca51a8 f   kernel.obj
 0001:000941e0       ?m_MarshallDeliverNakStoreACLReparse0@Struct_Microsoft_Singularity_Directory_DirectoryServiceContract_Imp@@SIXPAU1@PA_W1_NPAUStruct_Microsoft_Singularity_Channels_Endpoint@@@Z 00ca51e0 f   kernel.obj
 0001:00094224       ?m_MarshallDeliverNakStoreACL0@Struct_Microsoft_Singularity_Directory_DirectoryServiceContract_Imp@@SIXPAU1@UStruct_Microsoft_Singularity_Directory_ErrorCode@@PAUStruct_Microsoft_Singularity_Channels_Endpoint@@@Z 00ca5224 f   kernel.obj
 0001:00094260       ?m_MarshallDeliverNakRegisterReparse0@Struct_Microsoft_Singularity_Directory_DirectoryServiceContract_Imp@@SIXPAU1@PA_W1_NPAUStruct_Microsoft_Singularity_Directory_ServiceProviderContract_Imp@@PAUStruct_Microsoft_Singularity_Channels_Endpoint@@@Z 00ca5260 f   kernel.obj
 0001:000942a8       ?m_MarshallDeliverNakRegister0@Struct_Microsoft_Singularity_Directory_DirectoryServiceContract_Imp@@SIXPAU1@PAUStruct_Microsoft_Singularity_Directory_ServiceProviderContract_Imp@@UStruct_Microsoft_Singularity_Directory_ErrorCode@@PAUStruct_Microsoft_Singularity_Channels_Endpoint@@@Z 00ca52a8 f   kernel.obj
 0001:000942e8       ?m_MarshallDeliverNakQueryACLReparse0@Struct_Microsoft_Singularity_Directory_DirectoryServiceContract_Imp@@SIXPAU1@PA_W1_NPAUStruct_Microsoft_Singularity_Channels_Endpoint@@@Z 00ca52e8 f   kernel.obj
 0001:0009432c       ?m_MarshallDeliverNakQueryACL0@Struct_Microsoft_Singularity_Directory_DirectoryServiceContract_Imp@@SIXPAU1@UStruct_Microsoft_Singularity_Directory_ErrorCode@@PAUStruct_Microsoft_Singularity_Channels_Endpoint@@@Z 00ca532c f   kernel.obj
 0001:00094368       ?m_MarshallDeliverNakNotifyReparse0@Struct_Microsoft_Singularity_Directory_DirectoryServiceContract_Imp@@SIXPAU1@PA_W1_NPAUStruct_Microsoft_Singularity_Directory_NotifyContract_Imp@@PAUStruct_Microsoft_Singularity_Channels_Endpoint@@@Z 00ca5368 f   kernel.obj
 0001:000943ac       ?m_MarshallDeliverNakNotify0@Struct_Microsoft_Singularity_Directory_DirectoryServiceContract_Imp@@SIXPAU1@PAUStruct_Microsoft_Singularity_Directory_NotifyContract_Imp@@UStruct_Microsoft_Singularity_Directory_ErrorCode@@PAUStruct_Microsoft_Singularity_Channels_Endpoint@@@Z 00ca53ac f   kernel.obj
 0001:000943e8       ?m_MarshallDeliverNakGetLinkValueReparse0@Struct_Microsoft_Singularity_Directory_DirectoryServiceContract_Imp@@SIXPAU1@PA_W1_NPAUStruct_Microsoft_Singularity_Channels_Endpoint@@@Z 00ca53e8 f   kernel.obj
 0001:0009442c       ?m_MarshallDeliverNakGetLinkValue0@Struct_Microsoft_Singularity_Directory_DirectoryServiceContract_Imp@@SIXPAU1@UStruct_Microsoft_Singularity_Directory_ErrorCode@@PAUStruct_Microsoft_Singularity_Channels_Endpoint@@@Z 00ca542c f   kernel.obj
 0001:00094468       ?m_MarshallDeliverNakGetAttributesReparse0@Struct_Microsoft_Singularity_Directory_DirectoryServiceContract_Imp@@SIXPAU1@PA_W1_NPAUStruct_Microsoft_Singularity_Channels_Endpoint@@@Z 00ca5468 f   kernel.obj
 0001:000944ac       ?m_MarshallDeliverNakGetAttributes0@Struct_Microsoft_Singularity_Directory_DirectoryServiceContract_Imp@@SIXPAU1@UStruct_Microsoft_Singularity_Directory_ErrorCode@@PAUStruct_Microsoft_Singularity_Channels_Endpoint@@@Z 00ca54ac f   kernel.obj
 0001:000944e8       ?m_MarshallDeliverNakDeregisterReparse0@Struct_Microsoft_Singularity_Directory_DirectoryServiceContract_Imp@@SIXPAU1@PA_W1_NPAUStruct_Microsoft_Singularity_Channels_Endpoint@@@Z 00ca54e8 f   kernel.obj
 0001:0009452c       ?m_MarshallDeliverNakDeregister0@Struct_Microsoft_Singularity_Directory_DirectoryServiceContract_Imp@@SIXPAU1@UStruct_Microsoft_Singularity_Directory_ErrorCode@@PAUStruct_Microsoft_Singularity_Channels_Endpoint@@@Z 00ca552c f   kernel.obj
 0001:00094568       ?m_MarshallDeliverNakDeleteLinkReparse0@Struct_Microsoft_Singularity_Directory_DirectoryServiceContract_Imp@@SIXPAU1@PA_W1_NPAUStruct_Microsoft_Singularity_Channels_Endpoint@@@Z 00ca5568 f   kernel.obj
 0001:000945ac       ?m_MarshallDeliverNakDeleteLink0@Struct_Microsoft_Singularity_Directory_DirectoryServiceContract_Imp@@SIXPAU1@UStruct_Microsoft_Singularity_Directory_ErrorCode@@PAUStruct_Microsoft_Singularity_Channels_Endpoint@@@Z 00ca55ac f   kernel.obj
 0001:000945e8       ?m_MarshallDeliverNakDeleteFileReparse0@Struct_Microsoft_Singularity_Directory_DirectoryServiceContract_Imp@@SIXPAU1@PA_W1_NPAUStruct_Microsoft_Singularity_Channels_Endpoint@@@Z 00ca55e8 f   kernel.obj
 0001:0009462c       ?m_MarshallDeliverNakDeleteFile0@Struct_Microsoft_Singularity_Directory_DirectoryServiceContract_Imp@@SIXPAU1@UStruct_Microsoft_Singularity_Directory_ErrorCode@@PAUStruct_Microsoft_Singularity_Channels_Endpoint@@@Z 00ca562c f   kernel.obj
 0001:00094668       ?m_MarshallDeliverNakDeleteDirectoryReparse0@Struct_Microsoft_Singularity_Directory_DirectoryServiceContract_Imp@@SIXPAU1@PA_W1_NPAUStruct_Microsoft_Singularity_Channels_Endpoint@@@Z 00ca5668 f   kernel.obj
 0001:000946ac       ?m_MarshallDeliverNakDeleteDirectory0@Struct_Microsoft_Singularity_Directory_DirectoryServiceContract_Imp@@SIXPAU1@UStruct_Microsoft_Singularity_Directory_ErrorCode@@PAUStruct_Microsoft_Singularity_Channels_Endpoint@@@Z 00ca56ac f   kernel.obj
 0001:000946e8       ?m_MarshallDeliverNakCreateLinkReparse0@Struct_Microsoft_Singularity_Directory_DirectoryServiceContract_Imp@@SIXPAU1@PA_W1_NPAUStruct_Microsoft_Singularity_Channels_Endpoint@@@Z 00ca56e8 f   kernel.obj
 0001:0009472c       ?m_MarshallDeliverNakCreateLink0@Struct_Microsoft_Singularity_Directory_DirectoryServiceContract_Imp@@SIXPAU1@UStruct_Microsoft_Singularity_Directory_ErrorCode@@PAUStruct_Microsoft_Singularity_Channels_Endpoint@@@Z 00ca572c f   kernel.obj
 0001:00094768       ?m_MarshallDeliverNakCreateFileReparse0@Struct_Microsoft_Singularity_Directory_DirectoryServiceContract_Imp@@SIXPAU1@PA_W1_NPAUStruct_Microsoft_Singularity_Channels_Endpoint@@@Z 00ca5768 f   kernel.obj
 0001:000947ac       ?m_MarshallDeliverNakCreateFile0@Struct_Microsoft_Singularity_Directory_DirectoryServiceContract_Imp@@SIXPAU1@UStruct_Microsoft_Singularity_Directory_ErrorCode@@PAUStruct_Microsoft_Singularity_Channels_Endpoint@@@Z 00ca57ac f   kernel.obj
 0001:000947e8       ?m_MarshallDeliverNakCreateDirectoryReparse0@Struct_Microsoft_Singularity_Directory_DirectoryServiceContract_Imp@@SIXPAU1@PA_W1_NPAUStruct_Microsoft_Singularity_Channels_Endpoint@@@Z 00ca57e8 f   kernel.obj
 0001:0009482c       ?m_MarshallDeliverNakCreateDirectory0@Struct_Microsoft_Singularity_Directory_DirectoryServiceContract_Imp@@SIXPAU1@UStruct_Microsoft_Singularity_Directory_ErrorCode@@PAUStruct_Microsoft_Singularity_Channels_Endpoint@@@Z 00ca582c f   kernel.obj
 0001:00094868       ?m_MarshallDeliverNakCreateAndBindFile0@Struct_Microsoft_Singularity_Directory_DirectoryServiceContract_Imp@@SIXPAU1@PAUStruct_Microsoft_Singularity_Directory_FileContract_Exp@@UStruct_Microsoft_Singularity_Directory_ErrorCode@@PAUStruct_Microsoft_Singularity_Channels_Endpoint@@@Z 00ca5868 f   kernel.obj
 0001:000948a8       ?m_MarshallDeliverNakBindReparse0@Struct_Microsoft_Singularity_Directory_DirectoryServiceContract_Imp@@SIXPAU1@PA_W1_NPAUStruct_Microsoft_Singularity_Directory_ServiceContract_Exp@@PAUStruct_Microsoft_Singularity_Channels_Endpoint@@@Z 00ca58a8 f   kernel.obj
 0001:000948ec       ?m_MarshallDeliverNakBind0@Struct_Microsoft_Singularity_Directory_DirectoryServiceContract_Imp@@SIXPAU1@PAUStruct_Microsoft_Singularity_Directory_ServiceContract_Exp@@UStruct_Microsoft_Singularity_Directory_ErrorCode@@PAUStruct_Microsoft_Singularity_Channels_Endpoint@@@Z 00ca58ec f   kernel.obj
 0001:00094928       ?m_MarshallDeliverEnumerationTerminated0@Struct_Microsoft_Singularity_Directory_DirectoryServiceContract_Imp@@SIXPAU1@UStruct_Microsoft_Singularity_Directory_ErrorCode@@PAUStruct_Microsoft_Singularity_Channels_Endpoint@@@Z 00ca5928 f   kernel.obj
 0001:00094960       ?m_MarshallDeliverEnumerationEntries0@Struct_Microsoft_Singularity_Directory_DirectoryServiceContract_Imp@@SIXPAU1@PAUStruct_Microsoft_Singularity_Directory_EnumerationRecords@@_NPAUStruct_Microsoft_Singularity_Channels_Endpoint@@@Z 00ca5960 f   kernel.obj
 0001:0009499c       ?m_MarshallDeliverAckStoreACL0@Struct_Microsoft_Singularity_Directory_DirectoryServiceContract_Imp@@SIXPAU1@PAUStruct_Microsoft_Singularity_Channels_Endpoint@@@Z 00ca599c f   kernel.obj
 0001:000949d4       ?m_MarshallDeliverAckRegister0@Struct_Microsoft_Singularity_Directory_DirectoryServiceContract_Imp@@SIXPAU1@PAUStruct_Microsoft_Singularity_Channels_Endpoint@@@Z 00ca59d4 f   kernel.obj
 0001:00094a0c       ?m_MarshallDeliverAckQueryACL0@Struct_Microsoft_Singularity_Directory_DirectoryServiceContract_Imp@@SIXPAU1@PA_W1PAUStruct_Microsoft_Singularity_Channels_Endpoint@@@Z 00ca5a0c f   kernel.obj
 0001:00094a4c       ?m_MarshallDeliverAckNotify0@Struct_Microsoft_Singularity_Directory_DirectoryServiceContract_Imp@@SIXPAU1@PAUStruct_Microsoft_Singularity_Channels_Endpoint@@@Z 00ca5a4c f   kernel.obj
 0001:00094a84       ?m_MarshallDeliverAckGetLinkValue0@Struct_Microsoft_Singularity_Directory_DirectoryServiceContract_Imp@@SIXPAU1@PA_WPAUStruct_Microsoft_Singularity_Channels_Endpoint@@@Z 00ca5a84 f   kernel.obj
 0001:00094ac0       ?m_MarshallDeliverAckGetAttributes0@Struct_Microsoft_Singularity_Directory_DirectoryServiceContract_Imp@@SIXPAU1@UStruct_Microsoft_Singularity_Directory_FileAttributesRecord@@PAUStruct_Microsoft_Singularity_Channels_Endpoint@@@Z 00ca5ac0 f   kernel.obj
 0001:00094b18       ?m_MarshallDeliverAckDeregister0@Struct_Microsoft_Singularity_Directory_DirectoryServiceContract_Imp@@SIXPAU1@PAUStruct_Microsoft_Singularity_Directory_ServiceProviderContract_Imp@@PAUStruct_Microsoft_Singularity_Channels_Endpoint@@@Z 00ca5b18 f   kernel.obj
 0001:00094b54       ?m_MarshallDeliverAckDeleteLink0@Struct_Microsoft_Singularity_Directory_DirectoryServiceContract_Imp@@SIXPAU1@PAUStruct_Microsoft_Singularity_Channels_Endpoint@@@Z 00ca5b54 f   kernel.obj
 0001:00094b8c       ?m_MarshallDeliverAckDeleteFile0@Struct_Microsoft_Singularity_Directory_DirectoryServiceContract_Imp@@SIXPAU1@PAUStruct_Microsoft_Singularity_Channels_Endpoint@@@Z 00ca5b8c f   kernel.obj
 0001:00094bc4       ?m_MarshallDeliverAckDeleteDirectory0@Struct_Microsoft_Singularity_Directory_DirectoryServiceContract_Imp@@SIXPAU1@PAUStruct_Microsoft_Singularity_Channels_Endpoint@@@Z 00ca5bc4 f   kernel.obj
 0001:00094bfc       ?m_MarshallDeliverAckCreateLink0@Struct_Microsoft_Singularity_Directory_DirectoryServiceContract_Imp@@SIXPAU1@PAUStruct_Microsoft_Singularity_Channels_Endpoint@@@Z 00ca5bfc f   kernel.obj
 0001:00094c34       ?m_MarshallDeliverAckCreateFile0@Struct_Microsoft_Singularity_Directory_DirectoryServiceContract_Imp@@SIXPAU1@PAUStruct_Microsoft_Singularity_Channels_Endpoint@@@Z 00ca5c34 f   kernel.obj
 0001:00094c6c       ?m_MarshallDeliverAckCreateDirectory0@Struct_Microsoft_Singularity_Directory_DirectoryServiceContract_Imp@@SIXPAU1@PAUStruct_Microsoft_Singularity_Channels_Endpoint@@@Z 00ca5c6c f   kernel.obj
 0001:00094ca4       ?m_MarshallDeliverAckBind0@Struct_Microsoft_Singularity_Directory_DirectoryServiceContract_Imp@@SIXPAU1@PAUStruct_Microsoft_Singularity_Channels_Endpoint@@@Z 00ca5ca4 f   kernel.obj
 0001:00094cdc       ?m_InState@Struct_Microsoft_Singularity_Directory_DirectoryServiceContract_Imp@@SI_NPAU1@H@Z 00ca5cdc f   kernel.obj
 0001:00094d5c       ?m_HeadMatches@Struct_Microsoft_Singularity_Directory_DirectoryServiceContract_Imp@@SI_NPAU1@HPA_NPAPAUClass_System_Object@@@Z 00ca5d5c f   kernel.obj
 0001:00094dfc       ?m_HeadMatches@Struct_Microsoft_Singularity_Directory_DirectoryServiceContract_Imp@@SI_NPAUClass_Microsoft_Singularity_Directory_DirectoryServiceContract_Imp@@HPA_NPAPAUClass_System_Object@@@Z 00ca5dfc f   kernel.obj
 0001:00094e28       ?m_Equals@Struct_Microsoft_Singularity_Directory_DirectoryServiceContract_Imp@@SI_NPAU1@PAUClass_System_Object@@@Z 00ca5e28 f   kernel.obj
 0001:0009664c       ?m_Equals@Struct_Microsoft_Singularity_Directory_DirectoryServiceContract_Imp@@SI_NPAUClass_Microsoft_Singularity_Directory_DirectoryServiceContract_Imp@@PAUClass_System_Object@@@Z 00ca764c f   kernel.obj
 0001:00096670       ?m_Dispose@Struct_Microsoft_Singularity_Directory_DirectoryServiceContract_Imp@@SIXPAU1@@Z 00ca7670 f   kernel.obj
 0001:00096690       ?m_DeliverSuccess0@Struct_Microsoft_Singularity_Directory_DirectoryServiceContract_Imp@@SIXPAU1@@Z 00ca7690 f   kernel.obj
 0001:000966bc       ?m_DeliverNakStoreACLReparse0@Struct_Microsoft_Singularity_Directory_DirectoryServiceContract_Imp@@SIXPAU1@PA_W1_N@Z 00ca76bc f   kernel.obj
 0001:00096708       ?m_DeliverNakStoreACL0@Struct_Microsoft_Singularity_Directory_DirectoryServiceContract_Imp@@SIXPAU1@UStruct_Microsoft_Singularity_Directory_ErrorCode@@@Z 00ca7708 f   kernel.obj
 0001:00096740       ?m_DeliverNakRegisterReparse0@Struct_Microsoft_Singularity_Directory_DirectoryServiceContract_Imp@@SIXPAU1@PA_W1_NPAUStruct_Microsoft_Singularity_Directory_ServiceProviderContract_Imp@@@Z 00ca7740 f   kernel.obj
 0001:00096794       ?m_DeliverNakRegister0@Struct_Microsoft_Singularity_Directory_DirectoryServiceContract_Imp@@SIXPAU1@PAUStruct_Microsoft_Singularity_Directory_ServiceProviderContract_Imp@@UStruct_Microsoft_Singularity_Directory_ErrorCode@@@Z 00ca7794 f   kernel.obj
 0001:000967d4       ?m_DeliverNakQueryACLReparse0@Struct_Microsoft_Singularity_Directory_DirectoryServiceContract_Imp@@SIXPAU1@PA_W1_N@Z 00ca77d4 f   kernel.obj
 0001:00096820       ?m_DeliverNakQueryACL0@Struct_Microsoft_Singularity_Directory_DirectoryServiceContract_Imp@@SIXPAU1@UStruct_Microsoft_Singularity_Directory_ErrorCode@@@Z 00ca7820 f   kernel.obj
 0001:00096858       ?m_DeliverNakNotifyReparse0@Struct_Microsoft_Singularity_Directory_DirectoryServiceContract_Imp@@SIXPAU1@PA_W1_NPAUStruct_Microsoft_Singularity_Directory_NotifyContract_Imp@@@Z 00ca7858 f   kernel.obj
 0001:000968a0       ?m_DeliverNakNotify0@Struct_Microsoft_Singularity_Directory_DirectoryServiceContract_Imp@@SIXPAU1@PAUStruct_Microsoft_Singularity_Directory_NotifyContract_Imp@@UStruct_Microsoft_Singularity_Directory_ErrorCode@@@Z 00ca78a0 f   kernel.obj
 0001:000968dc       ?m_DeliverNakGetLinkValueReparse0@Struct_Microsoft_Singularity_Directory_DirectoryServiceContract_Imp@@SIXPAU1@PA_W1_N@Z 00ca78dc f   kernel.obj
 0001:00096928       ?m_DeliverNakGetLinkValue0@Struct_Microsoft_Singularity_Directory_DirectoryServiceContract_Imp@@SIXPAU1@UStruct_Microsoft_Singularity_Directory_ErrorCode@@@Z 00ca7928 f   kernel.obj
 0001:00096960       ?m_DeliverNakGetAttributesReparse0@Struct_Microsoft_Singularity_Directory_DirectoryServiceContract_Imp@@SIXPAU1@PA_W1_N@Z 00ca7960 f   kernel.obj
 0001:000969ac       ?m_DeliverNakGetAttributes0@Struct_Microsoft_Singularity_Directory_DirectoryServiceContract_Imp@@SIXPAU1@UStruct_Microsoft_Singularity_Directory_ErrorCode@@@Z 00ca79ac f   kernel.obj
 0001:000969e4       ?m_DeliverNakDeregisterReparse0@Struct_Microsoft_Singularity_Directory_DirectoryServiceContract_Imp@@SIXPAU1@PA_W1_N@Z 00ca79e4 f   kernel.obj
 0001:00096a30       ?m_DeliverNakDeregister0@Struct_Microsoft_Singularity_Directory_DirectoryServiceContract_Imp@@SIXPAU1@UStruct_Microsoft_Singularity_Directory_ErrorCode@@@Z 00ca7a30 f   kernel.obj
 0001:00096a68       ?m_DeliverNakDeleteLinkReparse0@Struct_Microsoft_Singularity_Directory_DirectoryServiceContract_Imp@@SIXPAU1@PA_W1_N@Z 00ca7a68 f   kernel.obj
 0001:00096ab4       ?m_DeliverNakDeleteLink0@Struct_Microsoft_Singularity_Directory_DirectoryServiceContract_Imp@@SIXPAU1@UStruct_Microsoft_Singularity_Directory_ErrorCode@@@Z 00ca7ab4 f   kernel.obj
 0001:00096aec       ?m_DeliverNakDeleteFileReparse0@Struct_Microsoft_Singularity_Directory_DirectoryServiceContract_Imp@@SIXPAU1@PA_W1_N@Z 00ca7aec f   kernel.obj
 0001:00096b38       ?m_DeliverNakDeleteFile0@Struct_Microsoft_Singularity_Directory_DirectoryServiceContract_Imp@@SIXPAU1@UStruct_Microsoft_Singularity_Directory_ErrorCode@@@Z 00ca7b38 f   kernel.obj
 0001:00096b70       ?m_DeliverNakDeleteDirectoryReparse0@Struct_Microsoft_Singularity_Directory_DirectoryServiceContract_Imp@@SIXPAU1@PA_W1_N@Z 00ca7b70 f   kernel.obj
 0001:00096bbc       ?m_DeliverNakDeleteDirectory0@Struct_Microsoft_Singularity_Directory_DirectoryServiceContract_Imp@@SIXPAU1@UStruct_Microsoft_Singularity_Directory_ErrorCode@@@Z 00ca7bbc f   kernel.obj
 0001:00096bf4       ?m_DeliverNakCreateLinkReparse0@Struct_Microsoft_Singularity_Directory_DirectoryServiceContract_Imp@@SIXPAU1@PA_W1_N@Z 00ca7bf4 f   kernel.obj
 0001:00096c40       ?m_DeliverNakCreateLink0@Struct_Microsoft_Singularity_Directory_DirectoryServiceContract_Imp@@SIXPAU1@UStruct_Microsoft_Singularity_Directory_ErrorCode@@@Z 00ca7c40 f   kernel.obj
 0001:00096c78       ?m_DeliverNakCreateFileReparse0@Struct_Microsoft_Singularity_Directory_DirectoryServiceContract_Imp@@SIXPAU1@PA_W1_N@Z 00ca7c78 f   kernel.obj
 0001:00096cc4       ?m_DeliverNakCreateFile0@Struct_Microsoft_Singularity_Directory_DirectoryServiceContract_Imp@@SIXPAU1@UStruct_Microsoft_Singularity_Directory_ErrorCode@@@Z 00ca7cc4 f   kernel.obj
 0001:00096cfc       ?m_DeliverNakCreateDirectoryReparse0@Struct_Microsoft_Singularity_Directory_DirectoryServiceContract_Imp@@SIXPAU1@PA_W1_N@Z 00ca7cfc f   kernel.obj
 0001:00096d48       ?m_DeliverNakCreateDirectory0@Struct_Microsoft_Singularity_Directory_DirectoryServiceContract_Imp@@SIXPAU1@UStruct_Microsoft_Singularity_Directory_ErrorCode@@@Z 00ca7d48 f   kernel.obj
 0001:00096d80       ?m_DeliverNakCreateAndBindFile0@Struct_Microsoft_Singularity_Directory_DirectoryServiceContract_Imp@@SIXPAU1@PAUStruct_Microsoft_Singularity_Directory_FileContract_Exp@@UStruct_Microsoft_Singularity_Directory_ErrorCode@@@Z 00ca7d80 f   kernel.obj
 0001:00096dc0       ?m_DeliverNakBindReparse0@Struct_Microsoft_Singularity_Directory_DirectoryServiceContract_Imp@@SIXPAU1@PA_W1_NPAUStruct_Microsoft_Singularity_Directory_ServiceContract_Exp@@@Z 00ca7dc0 f   kernel.obj
 0001:00096e08       ?m_DeliverNakBind0@Struct_Microsoft_Singularity_Directory_DirectoryServiceContract_Imp@@SIXPAU1@PAUStruct_Microsoft_Singularity_Directory_ServiceContract_Exp@@UStruct_Microsoft_Singularity_Directory_ErrorCode@@@Z 00ca7e08 f   kernel.obj
 0001:00096e44       ?m_DeliverEnumerationTerminated0@Struct_Microsoft_Singularity_Directory_DirectoryServiceContract_Imp@@SIXPAU1@UStruct_Microsoft_Singularity_Directory_ErrorCode@@@Z 00ca7e44 f   kernel.obj
 0001:00096e78       ?m_DeliverEnumerationEntries0@Struct_Microsoft_Singularity_Directory_DirectoryServiceContract_Imp@@SIXPAU1@PAUStruct_Microsoft_Singularity_Directory_EnumerationRecords@@_N@Z 00ca7e78 f   kernel.obj
 0001:00096eb4       ?m_DeliverAckStoreACL0@Struct_Microsoft_Singularity_Directory_DirectoryServiceContract_Imp@@SIXPAU1@@Z 00ca7eb4 f   kernel.obj
 0001:00096ee0       ?m_DeliverAckRegister0@Struct_Microsoft_Singularity_Directory_DirectoryServiceContract_Imp@@SIXPAU1@@Z 00ca7ee0 f   kernel.obj
 0001:00096f0c       ?m_DeliverAckQueryACL0@Struct_Microsoft_Singularity_Directory_DirectoryServiceContract_Imp@@SIXPAU1@PA_W1@Z 00ca7f0c f   kernel.obj
 0001:00096f4c       ?m_DeliverAckNotify0@Struct_Microsoft_Singularity_Directory_DirectoryServiceContract_Imp@@SIXPAU1@@Z 00ca7f4c f   kernel.obj
 0001:00096f78       ?m_DeliverAckGetLinkValue0@Struct_Microsoft_Singularity_Directory_DirectoryServiceContract_Imp@@SIXPAU1@PA_W@Z 00ca7f78 f   kernel.obj
 0001:00096fb0       ?m_DeliverAckGetAttributes0@Struct_Microsoft_Singularity_Directory_DirectoryServiceContract_Imp@@SIXPAU1@UStruct_Microsoft_Singularity_Directory_FileAttributesRecord@@@Z 00ca7fb0 f   kernel.obj
 0001:00096fec       ?m_DeliverAckDeregister0@Struct_Microsoft_Singularity_Directory_DirectoryServiceContract_Imp@@SIXPAU1@PAUStruct_Microsoft_Singularity_Directory_ServiceProviderContract_Imp@@@Z 00ca7fec f   kernel.obj
 0001:00097024       ?m_DeliverAckDeleteLink0@Struct_Microsoft_Singularity_Directory_DirectoryServiceContract_Imp@@SIXPAU1@@Z 00ca8024 f   kernel.obj
 0001:00097050       ?m_DeliverAckDeleteFile0@Struct_Microsoft_Singularity_Directory_DirectoryServiceContract_Imp@@SIXPAU1@@Z 00ca8050 f   kernel.obj
 0001:0009707c       ?m_DeliverAckDeleteDirectory0@Struct_Microsoft_Singularity_Directory_DirectoryServiceContract_Imp@@SIXPAU1@@Z 00ca807c f   kernel.obj
 0001:000970a8       ?m_DeliverAckCreateLink0@Struct_Microsoft_Singularity_Directory_DirectoryServiceContract_Imp@@SIXPAU1@@Z 00ca80a8 f   kernel.obj
 0001:000970d4       ?m_DeliverAckCreateFile0@Struct_Microsoft_Singularity_Directory_DirectoryServiceContract_Imp@@SIXPAU1@@Z 00ca80d4 f   kernel.obj
 0001:00097100       ?m_DeliverAckCreateDirectory0@Struct_Microsoft_Singularity_Directory_DirectoryServiceContract_Imp@@SIXPAU1@@Z 00ca8100 f   kernel.obj
 0001:0009712c       ?m_DeliverAckBind0@Struct_Microsoft_Singularity_Directory_DirectoryServiceContract_Imp@@SIXPAU1@@Z 00ca812c f   kernel.obj
 0001:00097158       ?m_CurrentState@Struct_Microsoft_Singularity_Directory_DirectoryServiceContract_Imp@@SIPAUClass_System_String@@PAU1@@Z 00ca8158 f   kernel.obj
 0001:00097400       ?m_Acquire@Struct_Microsoft_Singularity_Directory_DirectoryServiceContract_Imp@@SIXPAU1@@Z 00ca8400 f   kernel.obj
 0001:00097418       ?m__ctor@Struct_Microsoft_Singularity_Directory_DirectoryServiceContract_Imp@@SIXPAU1@H@Z 00ca8418 f   kernel.obj
 0001:00097438       ?m_set$_Value@Class_System_MutableInt32@@SIXPAU1@H@Z 00ca8438 f   kernel.obj
 0001:00097458       ?m_get$_Value@Class_System_MutableInt32@@SIHPAU1@@Z 00ca8458 f   kernel.obj
 0001:00097474       ?m__ctor@Class_System_MutableInt32@@SIXPAU1@H@Z 00ca8474 f   kernel.obj
 0001:00097494       ?m_GetTypeName@Class_Microsoft_Singularity_Eventing_FieldDescriptor@@SIPAUClass_System_String@@PAU1@@Z 00ca8494 f   kernel.obj
 0001:0009751c       ?m_GetObject@Class_Microsoft_Singularity_Eventing_FieldDescriptor@@SIPAUClass_System_Object@@PAU1@PAUClass_Microsoft_Singularity_Eventing_QueryBuffer@@@Z 00ca851c f   kernel.obj
 0001:000976e8       ?m__ctor@Class_Microsoft_Singularity_Eventing_FieldDescriptor@@SIXPAU1@GGPAUClass_System_String@@@Z 00ca86e8 f   kernel.obj
 0001:00097724       ?m_Accept@Class_Microsoft_Singularity_Hal_Acpi_AmlParser_DefLLessEqual@@SIXPAU1@PAUClass_Microsoft_Singularity_Hal_Acpi_AmlParserNodeVisitor@@@Z 00ca8724 f   kernel.obj
 0001:00097754       ?m__ctor@Class_Microsoft_Singularity_Hal_Acpi_AmlParser_DefLLessEqual@@SIXPAU1@@Z 00ca8754 f   kernel.obj
 0001:00097774       ?m_Accept@Class_Microsoft_Singularity_Hal_Acpi_AmlParser_DefShiftRight@@SIXPAU1@PAUClass_Microsoft_Singularity_Hal_Acpi_AmlParserNodeVisitor@@@Z 00ca8774 f   kernel.obj
 0001:000977a4       ?m__ctor@Class_Microsoft_Singularity_Hal_Acpi_AmlParser_DefShiftRight@@SIXPAU1@@Z 00ca87a4 f   kernel.obj
 0001:000977c4       ?m__ctor@Class_System_GCs_Verifier_StackVerifier@@SIXPAUClass_System_GCs_Verifier_GenericStackVerifier@@@Z 00ca87c4 f   kernel.obj
 0001:000977dc       ?m_ToString@Class_Microsoft_Singularity_Io_IoPortRange@@SIPAUClass_System_String@@PAU1@@Z 00ca87dc f   kernel.obj
 0001:000978d0       ?m_RangeAtOffset@Class_Microsoft_Singularity_Io_IoPortRange@@SIPAU1@PAU1@GG_N1@Z 00ca88d0 f   kernel.obj
 0001:000979bc       ?m_PortAtOffset@Class_Microsoft_Singularity_Io_IoPortRange@@SIPAUClass_Microsoft_Singularity_Io_IoPort@@PAU1@GGUStruct_Microsoft_Singularity_Io_Access@@@Z 00ca89bc f   kernel.obj
 0001:00097a10       ?m_PortAtOffset@Class_Microsoft_Singularity_Io_IoPortRange@@SIPAUClass_Microsoft_Singularity_Io_IoPort@@PAU1@GG_N1@Z 00ca8a10 f   kernel.obj
 0001:00097afc       ?m_get$_Writable@Class_Microsoft_Singularity_Io_IoPortRange@@SI_NPAU1@@Z 00ca8afc f   kernel.obj
 0001:00097b18       ?m_get$_Size@Class_Microsoft_Singularity_Io_IoPortRange@@SIGPAU1@@Z 00ca8b18 f   kernel.obj
 0001:00097b34       ?m_get$_Readable@Class_Microsoft_Singularity_Io_IoPortRange@@SI_NPAU1@@Z 00ca8b34 f   kernel.obj
 0001:00097b50       ?m_get$_RangeLength@Class_Microsoft_Singularity_Io_IoPortRange@@SIIPAU1@@Z 00ca8b50 f   kernel.obj
 0001:00097b6c       ?m_get$_RangeBase@Class_Microsoft_Singularity_Io_IoPortRange@@SIIPAU1@@Z 00ca8b6c f   kernel.obj
 0001:00097b88       ?m_get$_Port@Class_Microsoft_Singularity_Io_IoPortRange@@SIGPAU1@@Z 00ca8b88 f   kernel.obj
 0001:00097ba4       ?m__ctor@Class_Microsoft_Singularity_Io_IoPortRange@@SIXPAU1@GGUStruct_Microsoft_Singularity_Io_Access@@@Z 00ca8ba4 f   kernel.obj
 0001:00097bf0       ?m__ctor@Class_Microsoft_Singularity_Io_IoPortRange@@SIXPAU1@GG_N1@Z 00ca8bf0 f   kernel.obj
 0001:00097c34       ?m__ctor@Class_Microsoft_Contracts_RequiresException@@SIXPAU1@@Z 00ca8c34 f   kernel.obj
 0001:00097c54       ?m__ctor@Class_Microsoft_Contracts_RequiresException@@SIXPAU1@PAUClass_System_String@@@Z 00ca8c54 f   kernel.obj
 0001:00097c74       ?m_LookupChildHandle@Class_Microsoft_Singularity_Channels_RuntimeSystemType@@SIPAUuintPtr@@PAU1@PAUClass_System_String@@_J2@Z 00ca8c74 f   kernel.obj
 0001:00097e18       ?m_IsSubtype@Class_Microsoft_Singularity_Channels_RuntimeSystemType@@SI_NPAU1@PAUuintPtr@@@Z 00ca8e18 f   kernel.obj
 0001:00097ea4       ?g_GetRootHandle@Class_Microsoft_Singularity_Channels_RuntimeSystemType@@SIPAUuintPtr@@XZ 00ca8ea4 f   kernel.obj
 0001:00097ebc       ?g_For@Class_Microsoft_Singularity_Channels_RuntimeSystemType@@SIPAUuintPtr@@PAU1@UStruct_Microsoft_Singularity_Channels_RuntimeSystemType_MD5TypeEntry@@@Z 00ca8ebc f   kernel.obj
 0001:00097f38       ?m__ctor@Class_Microsoft_Singularity_Channels_RuntimeSystemType@@SIXPAU1@0UStruct_Microsoft_Singularity_Channels_RuntimeSystemType_MD5TypeEntry@@@Z 00ca8f38 f   kernel.obj
 0001:00097fa8       ?g__cctor@Class_Microsoft_Singularity_Channels_RuntimeSystemType@@SIXXZ 00ca8fa8 f   kernel.obj
 0001:00098014       ?m_StructCopy@Struct_Microsoft_Singularity_Diagnostics_Contracts_MemoryContract_Pages@@SIXPAU1@0@Z 00ca9014 f   kernel.obj
 0001:00098040       ?m_StructCopy@Struct_Microsoft_Singularity_Diagnostics_Contracts_MemoryContract_Pages@@SIXPAU1@PAU1@@Z 00ca9040 f   kernel.obj
 0001:000980c4       ?m_MarshallContent@Struct_Microsoft_Singularity_Diagnostics_Contracts_MemoryContract_Pages@@SIXPAU1@PAEPAUStruct_Microsoft_Singularity_Channels_Endpoint@@1PAH@Z 00ca90c4 f   kernel.obj
 0001:000980e4       ?m_MarshallAll@Struct_Microsoft_Singularity_Diagnostics_Contracts_MemoryContract_Pages@@SIXPAU1@PAEPAUStruct_Microsoft_Singularity_Channels_Endpoint@@PAH@Z 00ca90e4 f   kernel.obj
 0001:00098134       ?m_Equals@Struct_Microsoft_Singularity_Diagnostics_Contracts_MemoryContract_Pages@@SI_NPAU1@PAUClass_System_Object@@@Z 00ca9134 f   kernel.obj
 0001:0009818c       ?m_Equals@Struct_Microsoft_Singularity_Diagnostics_Contracts_MemoryContract_Pages@@SI_NPAUClass_Microsoft_Singularity_Diagnostics_Contracts_MemoryContract_Pages@@PAUClass_System_Object@@@Z 00ca918c f   kernel.obj
 0001:000981b0       ?m_ReleaseMutex@Class_System_Threading_Mutex@@SIXPAU1@@Z 00ca91b0 f   kernel.obj
 0001:00098248       ?m_IsOwnedByCurrentThread@Class_System_Threading_Mutex@@SI_NPAU1@@Z 00ca9248 f   kernel.obj
 0001:00098270       ?m_CompleteWait@Class_System_Threading_Mutex@@SIXPAU1@PAUClass_System_Threading_Thread@@@Z 00ca9270 f   kernel.obj
 0001:000982d4       ?m_AcquireOrEnqueue@Class_System_Threading_Mutex@@SI_NPAU1@PAUClass_Microsoft_Singularity_Scheduling_ThreadEntry@@H@Z 00ca92d4 f   kernel.obj
 0001:00098344       ?m_AcquireMutex@Class_System_Threading_Mutex@@SIXPAU1@@Z 00ca9344 f   kernel.obj
 0001:00098394       ?m_AcquireMutex@Class_System_Threading_Mutex@@SI_NPAU1@UStruct_System_SchedulerTime@@@Z 00ca9394 f   kernel.obj
 0001:000983f0       ?m__ctor@Class_System_Threading_Mutex@@SIXPAU1@@Z 00ca93f0 f   kernel.obj
 0001:00098414       ?m__ctor@Class_System_Threading_Mutex@@SIXPAU1@_N1@Z 00ca9414 f   kernel.obj
 0001:000984a8       ?g_LoopInvariant@Class_Microsoft_Contracts_AssertHelpers@@SIXPAUClass_System_String@@0@Z 00ca94a8 f   kernel.obj
 0001:000984c4       ?g_AssumeStatement@Class_Microsoft_Contracts_AssertHelpers@@SIXPAUClass_System_String@@@Z 00ca94c4 f   kernel.obj
 0001:000984dc       ?g_Assume@Class_Microsoft_Contracts_AssertHelpers@@SIX_N@Z 00ca94dc f   kernel.obj
 0001:00098518       ?g_AssertStatement@Class_Microsoft_Contracts_AssertHelpers@@SIXPAUClass_System_String@@0@Z 00ca9518 f   kernel.obj
 0001:00098534       ?g_Assert@Class_Microsoft_Contracts_AssertHelpers@@SIX_N@Z 00ca9534 f   kernel.obj
 0001:00098570       ?m__ctor@Class_Microsoft_Contracts_AssertHelpers@@SIXPAU1@@Z 00ca9570 f   kernel.obj
 0001:00098588       ?m_StructCopy@Struct_Microsoft_Singularity_Directory_DirectoryServiceContract_StoreACL@@SIXPAU1@0@Z 00ca9588 f   kernel.obj
 0001:000985b4       ?m_StructCopy@Struct_Microsoft_Singularity_Directory_DirectoryServiceContract_StoreACL@@SIXPAU1@PAU1@@Z 00ca95b4 f   kernel.obj
 0001:00098638       ?m_Equals@Struct_Microsoft_Singularity_Directory_DirectoryServiceContract_StoreACL@@SI_NPAU1@PAUClass_System_Object@@@Z 00ca9638 f   kernel.obj
 0001:0009868c       ?m_Equals@Struct_Microsoft_Singularity_Directory_DirectoryServiceContract_StoreACL@@SI_NPAUClass_Microsoft_Singularity_Directory_DirectoryServiceContract_StoreACL@@PAUClass_System_Object@@@Z 00ca968c f   kernel.obj
 0001:000986b0       ?m_AccumulateCommunicationHeap@Class_Microsoft_Singularity_Diagnostics_MemoryModule_ProcessBlocksAccumulator@@SIXPAU1@PAUStruct_Microsoft_Singularity_Memory_SharedHeap_Allocation@@@Z 00ca96b0 f   kernel.obj
 0001:00098738       ?m__ctor@Class_Microsoft_Singularity_Diagnostics_MemoryModule_ProcessBlocksAccumulator@@SIXPAU1@H@Z 00ca9738 f   kernel.obj
 0001:00098774       ?g_Create@Class_Microsoft_Singularity_Hal_Acpi_InterruptSourceOverride@@SIPAUClass_System_Object@@PAUClass_Microsoft_Singularity_Io_IoMemory@@H@Z 00ca9774 f   kernel.obj
 0001:000987b8       ?m__ctor@Class_Microsoft_Singularity_Hal_Acpi_InterruptSourceOverride@@SIXPAU1@PAUClass_Microsoft_Singularity_Io_IoMemory@@H@Z 00ca97b8 f   kernel.obj
 0001:00098a54       ?m_StructCopy@Struct_Microsoft_Singularity_Isal_IX_MmxContext@@SIXPAU1@0@Z 00ca9a54 f   kernel.obj
 0001:00098d50       ?m_StructCopy@Struct_Microsoft_Singularity_Isal_IX_MmxContext@@SIXPAU1@PAU1@@Z 00ca9d50 f   kernel.obj
 0001:00099644       ?m_Equals@Struct_Microsoft_Singularity_Isal_IX_MmxContext@@SI_NPAU1@PAUClass_System_Object@@@Z 00caa644 f   kernel.obj
 0001:0009ab14       ?m_Equals@Struct_Microsoft_Singularity_Isal_IX_MmxContext@@SI_NPAUClass_Microsoft_Singularity_Isal_IX_MmxContext@@PAUClass_System_Object@@@Z 00cabb14 f   kernel.obj
 0001:0009ab38       ?m_ToString@uintPtr@@SIPAUClass_System_String@@PAPAU1@@Z 00cabb38 f   kernel.obj
 0001:0009ab64       ?m_ToString@uintPtr@@SIPAUClass_System_String@@PAPAU1@PAU2@@Z 00cabb64 f   kernel.obj
 0001:0009ab94       ?m_ToString@uintPtr@@SIPAUClass_System_String@@PAUClass_System_UIntPtr@@@Z 00cabb94 f   kernel.obj
 0001:0009abdc       ?m_ToString@uintPtr@@SIPAUClass_System_String@@PAUClass_System_UIntPtr@@PAU2@@Z 00cabbdc f   kernel.obj
 0001:0009ac24       ?g_Parse@uintPtr@@SIPAU1@PAUClass_System_String@@@Z 00cabc24 f   kernel.obj
 0001:0009ac48       ?g_Parse@uintPtr@@SIPAU1@PAUClass_System_String@@UStruct_System_Globalization_NumberStyles@@@Z 00cabc48 f   kernel.obj
 0001:0009aca0       ?m_GetHashCode@uintPtr@@SIHPAPAU1@@Z 00cabca0 f   kernel.obj
 0001:0009acc0       ?m_GetHashCode@uintPtr@@SIHPAUClass_System_UIntPtr@@@Z 00cabcc0 f   kernel.obj
 0001:0009acf0       ?m_Equals@uintPtr@@SI_NPAPAU1@PAUClass_System_Object@@@Z 00cabcf0 f   kernel.obj
 0001:0009ad40       ?m_Equals@uintPtr@@SI_NPAUClass_System_UIntPtr@@PAUClass_System_Object@@@Z 00cabd40 f   kernel.obj
 0001:0009adb4       ?m_Accept@Class_Microsoft_Singularity_Hal_Acpi_AmlParser_IndexValue@@SIXPAU1@PAUClass_Microsoft_Singularity_Hal_Acpi_AmlParserNodeVisitor@@@Z 00cabdb4 f   kernel.obj
 0001:0009ade4       ?m__ctor@Class_Microsoft_Singularity_Hal_Acpi_AmlParser_IndexValue@@SIXPAU1@@Z 00cabde4 f   kernel.obj
 0001:0009ae04       ?g_Initialize@Class_Microsoft_Singularity_PerfCounters@@SIXXZ 00cabe04 f   kernel.obj
 0001:0009ae68       ?g_IncrementThreadsCreated@Class_Microsoft_Singularity_PerfCounters@@SIXXZ 00cabe68 f   kernel.obj
 0001:0009ae84       ?g_IncrementMsgsSent@Class_Microsoft_Singularity_PerfCounters@@SIXXZ 00cabe84 f   kernel.obj
 0001:0009aea0       ?g_IncrementChannelsCreated@Class_Microsoft_Singularity_PerfCounters@@SIXXZ 00cabea0 f   kernel.obj
 0001:0009aebc       ?g_get$_ThreadsCreated@Class_Microsoft_Singularity_PerfCounters@@SI_JXZ 00cabebc f   kernel.obj
 0001:0009aedc       ?g_get$_MsgsSent@Class_Microsoft_Singularity_PerfCounters@@SI_JXZ 00cabedc f   kernel.obj
 0001:0009aefc       ?g_get$_ChannelsCreated@Class_Microsoft_Singularity_PerfCounters@@SI_JXZ 00cabefc f   kernel.obj
 0001:0009af1c       ?g_get$_BytesSent@Class_Microsoft_Singularity_PerfCounters@@SI_JXZ 00cabf1c f   kernel.obj
 0001:0009af3c       ?g_AddBytesSent@Class_Microsoft_Singularity_PerfCounters@@SIX_J@Z 00cabf3c f   kernel.obj
 0001:0009af84       ?m__ctor@Class_Microsoft_Singularity_PerfCounters@@SIXPAU1@@Z 00cabf84 f   kernel.obj
 0001:0009af9c       ?m_Accept@Class_Microsoft_Singularity_Hal_Acpi_AmlParser_DebugObj@@SIXPAU1@PAUClass_Microsoft_Singularity_Hal_Acpi_AmlParserNodeVisitor@@@Z 00cabf9c f   kernel.obj
 0001:0009afcc       ?m__ctor@Class_Microsoft_Singularity_Hal_Acpi_AmlParser_DebugObj@@SIXPAU1@@Z 00cabfcc f   kernel.obj
 0001:0009afec       ?m_StructCopy@Struct_Microsoft_Singularity_Directory_DirectoryServiceContract_NakGetLinkValue@@SIXPAU1@0@Z 00cabfec f   kernel.obj
 0001:0009b00c       ?m_StructCopy@Struct_Microsoft_Singularity_Directory_DirectoryServiceContract_NakGetLinkValue@@SIXPAU1@PAU1@@Z 00cac00c f   kernel.obj
 0001:0009b06c       ?m_MarshallContent@Struct_Microsoft_Singularity_Directory_DirectoryServiceContract_NakGetLinkValue@@SIXPAU1@PAEPAUStruct_Microsoft_Singularity_Channels_Endpoint@@1PAH@Z 00cac06c f   kernel.obj
 0001:0009b08c       ?m_MarshallAll@Struct_Microsoft_Singularity_Directory_DirectoryServiceContract_NakGetLinkValue@@SIXPAU1@PAEPAUStruct_Microsoft_Singularity_Channels_Endpoint@@PAH@Z 00cac08c f   kernel.obj
 0001:0009b0dc       ?m_Equals@Struct_Microsoft_Singularity_Directory_DirectoryServiceContract_NakGetLinkValue@@SI_NPAU1@PAUClass_System_Object@@@Z 00cac0dc f   kernel.obj
 0001:0009b164       ?m_Equals@Struct_Microsoft_Singularity_Directory_DirectoryServiceContract_NakGetLinkValue@@SI_NPAUClass_Microsoft_Singularity_Directory_DirectoryServiceContract_NakGetLinkValue@@PAUClass_System_Object@@@Z 00cac164 f   kernel.obj
 0001:0009b188       ?m_Accept@Class_Microsoft_Singularity_Hal_Acpi_AmlParser_DefPackage@@SIXPAU1@PAUClass_Microsoft_Singularity_Hal_Acpi_AmlParserNodeVisitor@@@Z 00cac188 f   kernel.obj
 0001:0009b1b8       ?m__ctor@Class_Microsoft_Singularity_Hal_Acpi_AmlParser_DefPackage@@SIXPAU1@@Z 00cac1b8 f   kernel.obj
 0001:0009b1d8       ?g_StableState@Class_Microsoft_Singularity_Directory_ServiceProviderContract@@SIHPAUStruct_Microsoft_Singularity_Channels_StateStack@@@Z 00cac1d8 f   kernel.obj
 0001:0009b220       ?g_NewChannel@Class_Microsoft_Singularity_Directory_ServiceProviderContract@@SIXPAPAUStruct_Microsoft_Singularity_Directory_ServiceProviderContract_Imp@@PAPAUStruct_Microsoft_Singularity_Directory_ServiceProviderContract_Exp@@@Z 00cac220 f   kernel.obj
 0001:0009b2b4       ?g_CanonicalState@Class_Microsoft_Singularity_Directory_ServiceProviderContract@@SIHH@Z 00cac2b4 f   kernel.obj
 0001:0009b2ec       ?m__ctor@Class_Microsoft_Singularity_Directory_ServiceProviderContract@@SIXPAU1@@Z 00cac2ec f   kernel.obj
 0001:0009b304       ?m_StructCopy@Struct_Microsoft_Singularity_Directory_DirectoryServiceContract_AckRegister@@SIXPAU1@0@Z 00cac304 f   kernel.obj
 0001:0009b320       ?m_StructCopy@Struct_Microsoft_Singularity_Directory_DirectoryServiceContract_AckRegister@@SIXPAU1@PAU1@@Z 00cac320 f   kernel.obj
 0001:0009b374       ?m_MarshallContent@Struct_Microsoft_Singularity_Directory_DirectoryServiceContract_AckRegister@@SIXPAU1@PAEPAUStruct_Microsoft_Singularity_Channels_Endpoint@@1PAH@Z 00cac374 f   kernel.obj
 0001:0009b394       ?m_MarshallAll@Struct_Microsoft_Singularity_Directory_DirectoryServiceContract_AckRegister@@SIXPAU1@PAEPAUStruct_Microsoft_Singularity_Channels_Endpoint@@PAH@Z 00cac394 f   kernel.obj
 0001:0009b3e4       ?m_Equals@Struct_Microsoft_Singularity_Directory_DirectoryServiceContract_AckRegister@@SI_NPAU1@PAUClass_System_Object@@@Z 00cac3e4 f   kernel.obj
 0001:0009b418       ?m_Equals@Struct_Microsoft_Singularity_Directory_DirectoryServiceContract_AckRegister@@SI_NPAUClass_Microsoft_Singularity_Directory_DirectoryServiceContract_AckRegister@@PAUClass_System_Object@@@Z 00cac418 f   kernel.obj
 0001:0009b43c       ?m_HeadMatches@Class_SurrogateMicrosoft_Singularity_Directory_DirectoryServiceFeederContract_Imp@@SI_NPAU1@HPA_NPAPAUClass_System_Object@@@Z 00cac43c f   kernel.obj
 0001:0009b468       ?m_GetWaitHandle@Class_SurrogateMicrosoft_Singularity_Directory_DirectoryServiceFeederContract_Imp@@SI?AUStruct_Microsoft_Singularity_V1_Threads_SyncHandle@@PAU1@@Z 00cac468 f   kernel.obj
 0001:0009b488       ?g__ctor@Class_SurrogateMicrosoft_Singularity_Directory_DirectoryServiceFeederContract_Imp@@SIXPAU1@PAUStruct_Microsoft_Singularity_Directory_DirectoryServiceFeederContract_Imp@@@Z 00cac488 f   kernel.obj
 0001:0009b4a8       ?m_StructCopy@Struct_Microsoft_Singularity_Io_ConsoleDeviceContract_AckCursorHide@@SIXPAU1@0@Z 00cac4a8 f   kernel.obj
 0001:0009b4c4       ?m_StructCopy@Struct_Microsoft_Singularity_Io_ConsoleDeviceContract_AckCursorHide@@SIXPAU1@PAU1@@Z 00cac4c4 f   kernel.obj
 0001:0009b518       ?m_MarshallContent@Struct_Microsoft_Singularity_Io_ConsoleDeviceContract_AckCursorHide@@SIXPAU1@PAEPAUStruct_Microsoft_Singularity_Channels_Endpoint@@1PAH@Z 00cac518 f   kernel.obj
 0001:0009b538       ?m_MarshallAll@Struct_Microsoft_Singularity_Io_ConsoleDeviceContract_AckCursorHide@@SIXPAU1@PAEPAUStruct_Microsoft_Singularity_Channels_Endpoint@@PAH@Z 00cac538 f   kernel.obj
 0001:0009b588       ?m_Equals@Struct_Microsoft_Singularity_Io_ConsoleDeviceContract_AckCursorHide@@SI_NPAU1@PAUClass_System_Object@@@Z 00cac588 f   kernel.obj
 0001:0009b5bc       ?m_Equals@Struct_Microsoft_Singularity_Io_ConsoleDeviceContract_AckCursorHide@@SI_NPAUClass_Microsoft_Singularity_Io_ConsoleDeviceContract_AckCursorHide@@PAUClass_System_Object@@@Z 00cac5bc f   kernel.obj
 0001:0009b5e0       ?m_StructCopy@Struct_System_TryAll@@SIXPAU1@0@Z 00cac5e0 f   kernel.obj
 0001:0009b660       ?m_StructCopy@Struct_System_TryAll@@SIXPAU1@PAU1@@Z 00cac660 f   kernel.obj
 0001:0009b7e0       ?m_Equals@Struct_System_TryAll@@SI_NPAU1@PAUClass_System_Object@@@Z 00cac7e0 f   kernel.obj
 0001:0009bac4       ?m_Equals@Struct_System_TryAll@@SI_NPAUClass_System_TryAll@@PAUClass_System_Object@@@Z 00cacac4 f   kernel.obj
 0001:0009bae8       ?m_UnExpose@Struct_Microsoft_Singularity_Stress_Contracts_ArgList@@SIXPAU1@@Z 00cacae8 f   kernel.obj
 0001:0009bb00       ?m_StructCopy@Struct_Microsoft_Singularity_Stress_Contracts_ArgList@@SIXPAU1@0@Z 00cacb00 f   kernel.obj
 0001:0009bb2c       ?m_StructCopy@Struct_Microsoft_Singularity_Stress_Contracts_ArgList@@SIXPAU1@PAU1@@Z 00cacb2c f   kernel.obj
 0001:0009bbb0       ?m_Expose@Struct_Microsoft_Singularity_Stress_Contracts_ArgList@@SIXPAU1@@Z 00cacbb0 f   kernel.obj
 0001:0009bbc8       ?m_Equals@Struct_Microsoft_Singularity_Stress_Contracts_ArgList@@SI_NPAU1@PAUClass_System_Object@@@Z 00cacbc8 f   kernel.obj
 0001:0009bc04       ?m_Equals@Struct_Microsoft_Singularity_Stress_Contracts_ArgList@@SI_NPAUClass_Microsoft_Singularity_Stress_Contracts_ArgList@@PAUClass_System_Object@@@Z 00cacc04 f   kernel.obj
 0001:0009bc28       ?m_Dispose@Struct_Microsoft_Singularity_Stress_Contracts_ArgList@@SIXPAU1@@Z 00cacc28 f   kernel.obj
 0001:0009bc60       ?m_StructCopy@Struct_Microsoft_Singularity_Directory_DirectoryServiceContract_Exp@@SIXPAU1@0@Z 00cacc60 f   kernel.obj
 0001:0009be44       ?m_StructCopy@Struct_Microsoft_Singularity_Directory_DirectoryServiceContract_Exp@@SIXPAU1@PAU1@@Z 00cace44 f   kernel.obj
 0001:0009c3f0       ?m_SendSuccess@Struct_Microsoft_Singularity_Directory_DirectoryServiceContract_Exp@@SIXPAU1@@Z 00cad3f0 f   kernel.obj
 0001:0009c4c8       ?m_SendNakStoreACLReparse@Struct_Microsoft_Singularity_Directory_DirectoryServiceContract_Exp@@SIXPAU1@PA_W1_N@Z 00cad4c8 f   kernel.obj
 0001:0009c5ec       ?m_SendNakStoreACL@Struct_Microsoft_Singularity_Directory_DirectoryServiceContract_Exp@@SIXPAU1@UStruct_Microsoft_Singularity_Directory_ErrorCode@@@Z 00cad5ec f   kernel.obj
 0001:0009c6d0       ?m_SendNakRegisterReparse@Struct_Microsoft_Singularity_Directory_DirectoryServiceContract_Exp@@SIXPAU1@PA_W1_NPAUStruct_Microsoft_Singularity_Directory_ServiceProviderContract_Imp@@@Z 00cad6d0 f   kernel.obj
 0001:0009c878       ?m_SendNakRegister@Struct_Microsoft_Singularity_Directory_DirectoryServiceContract_Exp@@SIXPAU1@PAUStruct_Microsoft_Singularity_Directory_ServiceProviderContract_Imp@@UStruct_Microsoft_Singularity_Directory_ErrorCode@@@Z 00cad878 f   kernel.obj
 0001:0009c9e4       ?m_SendNakQueryACLReparse@Struct_Microsoft_Singularity_Directory_DirectoryServiceContract_Exp@@SIXPAU1@PA_W1_N@Z 00cad9e4 f   kernel.obj
 0001:0009cb08       ?m_SendNakQueryACL@Struct_Microsoft_Singularity_Directory_DirectoryServiceContract_Exp@@SIXPAU1@UStruct_Microsoft_Singularity_Directory_ErrorCode@@@Z 00cadb08 f   kernel.obj
 0001:0009cbec       ?m_SendNakNotifyReparse@Struct_Microsoft_Singularity_Directory_DirectoryServiceContract_Exp@@SIXPAU1@PA_W1_NPAUStruct_Microsoft_Singularity_Directory_NotifyContract_Imp@@@Z 00cadbec f   kernel.obj
 0001:0009cd94       ?m_SendNakNotify@Struct_Microsoft_Singularity_Directory_DirectoryServiceContract_Exp@@SIXPAU1@PAUStruct_Microsoft_Singularity_Directory_NotifyContract_Imp@@UStruct_Microsoft_Singularity_Directory_ErrorCode@@@Z 00cadd94 f   kernel.obj
 0001:0009cf00       ?m_SendNakGetLinkValueReparse@Struct_Microsoft_Singularity_Directory_DirectoryServiceContract_Exp@@SIXPAU1@PA_W1_N@Z 00cadf00 f   kernel.obj
 0001:0009d024       ?m_SendNakGetLinkValue@Struct_Microsoft_Singularity_Directory_DirectoryServiceContract_Exp@@SIXPAU1@UStruct_Microsoft_Singularity_Directory_ErrorCode@@@Z 00cae024 f   kernel.obj
 0001:0009d108       ?m_SendNakGetAttributesReparse@Struct_Microsoft_Singularity_Directory_DirectoryServiceContract_Exp@@SIXPAU1@PA_W1_N@Z 00cae108 f   kernel.obj
 0001:0009d22c       ?m_SendNakGetAttributes@Struct_Microsoft_Singularity_Directory_DirectoryServiceContract_Exp@@SIXPAU1@UStruct_Microsoft_Singularity_Directory_ErrorCode@@@Z 00cae22c f   kernel.obj
 0001:0009d310       ?m_SendNakDeregisterReparse@Struct_Microsoft_Singularity_Directory_DirectoryServiceContract_Exp@@SIXPAU1@PA_W1_N@Z 00cae310 f   kernel.obj
 0001:0009d434       ?m_SendNakDeregister@Struct_Microsoft_Singularity_Directory_DirectoryServiceContract_Exp@@SIXPAU1@UStruct_Microsoft_Singularity_Directory_ErrorCode@@@Z 00cae434 f   kernel.obj
 0001:0009d518       ?m_SendNakDeleteLinkReparse@Struct_Microsoft_Singularity_Directory_DirectoryServiceContract_Exp@@SIXPAU1@PA_W1_N@Z 00cae518 f   kernel.obj
 0001:0009d63c       ?m_SendNakDeleteLink@Struct_Microsoft_Singularity_Directory_DirectoryServiceContract_Exp@@SIXPAU1@UStruct_Microsoft_Singularity_Directory_ErrorCode@@@Z 00cae63c f   kernel.obj
 0001:0009d720       ?m_SendNakDeleteFileReparse@Struct_Microsoft_Singularity_Directory_DirectoryServiceContract_Exp@@SIXPAU1@PA_W1_N@Z 00cae720 f   kernel.obj
 0001:0009d844       ?m_SendNakDeleteFile@Struct_Microsoft_Singularity_Directory_DirectoryServiceContract_Exp@@SIXPAU1@UStruct_Microsoft_Singularity_Directory_ErrorCode@@@Z 00cae844 f   kernel.obj
 0001:0009d928       ?m_SendNakDeleteDirectoryReparse@Struct_Microsoft_Singularity_Directory_DirectoryServiceContract_Exp@@SIXPAU1@PA_W1_N@Z 00cae928 f   kernel.obj
 0001:0009da4c       ?m_SendNakDeleteDirectory@Struct_Microsoft_Singularity_Directory_DirectoryServiceContract_Exp@@SIXPAU1@UStruct_Microsoft_Singularity_Directory_ErrorCode@@@Z 00caea4c f   kernel.obj
 0001:0009db30       ?m_SendNakCreateLinkReparse@Struct_Microsoft_Singularity_Directory_DirectoryServiceContract_Exp@@SIXPAU1@PA_W1_N@Z 00caeb30 f   kernel.obj
 0001:0009dc54       ?m_SendNakCreateLink@Struct_Microsoft_Singularity_Directory_DirectoryServiceContract_Exp@@SIXPAU1@UStruct_Microsoft_Singularity_Directory_ErrorCode@@@Z 00caec54 f   kernel.obj
 0001:0009dd38       ?m_SendNakCreateFileReparse@Struct_Microsoft_Singularity_Directory_DirectoryServiceContract_Exp@@SIXPAU1@PA_W1_N@Z 00caed38 f   kernel.obj
 0001:0009de5c       ?m_SendNakCreateFile@Struct_Microsoft_Singularity_Directory_DirectoryServiceContract_Exp@@SIXPAU1@UStruct_Microsoft_Singularity_Directory_ErrorCode@@@Z 00caee5c f   kernel.obj
 0001:0009df40       ?m_SendNakCreateDirectoryReparse@Struct_Microsoft_Singularity_Directory_DirectoryServiceContract_Exp@@SIXPAU1@PA_W1_N@Z 00caef40 f   kernel.obj
 0001:0009e064       ?m_SendNakCreateDirectory@Struct_Microsoft_Singularity_Directory_DirectoryServiceContract_Exp@@SIXPAU1@UStruct_Microsoft_Singularity_Directory_ErrorCode@@@Z 00caf064 f   kernel.obj
 0001:0009e148       ?m_SendNakCreateAndBindFile@Struct_Microsoft_Singularity_Directory_DirectoryServiceContract_Exp@@SIXPAU1@PAUStruct_Microsoft_Singularity_Directory_FileContract_Exp@@UStruct_Microsoft_Singularity_Directory_ErrorCode@@@Z 00caf148 f   kernel.obj
 0001:0009e2b4       ?m_SendNakBindReparse@Struct_Microsoft_Singularity_Directory_DirectoryServiceContract_Exp@@SIXPAU1@PA_W1_NPAUStruct_Microsoft_Singularity_Directory_ServiceContract_Exp@@@Z 00caf2b4 f   kernel.obj
 0001:0009e464       ?m_SendNakBind@Struct_Microsoft_Singularity_Directory_DirectoryServiceContract_Exp@@SIXPAU1@PAUStruct_Microsoft_Singularity_Directory_ServiceContract_Exp@@UStruct_Microsoft_Singularity_Directory_ErrorCode@@@Z 00caf464 f   kernel.obj
 0001:0009e5d0       ?m_SendEnumerationTerminated@Struct_Microsoft_Singularity_Directory_DirectoryServiceContract_Exp@@SIXPAU1@UStruct_Microsoft_Singularity_Directory_ErrorCode@@@Z 00caf5d0 f   kernel.obj
 0001:0009e6b4       ?m_SendEnumerationEntries@Struct_Microsoft_Singularity_Directory_DirectoryServiceContract_Exp@@SIXPAU1@PAUStruct_Microsoft_Singularity_Directory_EnumerationRecords@@_N@Z 00caf6b4 f   kernel.obj
 0001:0009e7b0       ?m_SendAckStoreACL@Struct_Microsoft_Singularity_Directory_DirectoryServiceContract_Exp@@SIXPAU1@@Z 00caf7b0 f   kernel.obj
 0001:0009e888       ?m_SendAckRegister@Struct_Microsoft_Singularity_Directory_DirectoryServiceContract_Exp@@SIXPAU1@@Z 00caf888 f   kernel.obj
 0001:0009e960       ?m_SendAckQueryACL@Struct_Microsoft_Singularity_Directory_DirectoryServiceContract_Exp@@SIXPAU1@PA_W1@Z 00caf960 f   kernel.obj
 0001:0009ea84       ?m_SendAckNotify@Struct_Microsoft_Singularity_Directory_DirectoryServiceContract_Exp@@SIXPAU1@@Z 00cafa84 f   kernel.obj
 0001:0009eb5c       ?m_SendAckGetLinkValue@Struct_Microsoft_Singularity_Directory_DirectoryServiceContract_Exp@@SIXPAU1@PA_W@Z 00cafb5c f   kernel.obj
 0001:0009ec54       ?m_SendAckGetAttributes@Struct_Microsoft_Singularity_Directory_DirectoryServiceContract_Exp@@SIXPAU1@UStruct_Microsoft_Singularity_Directory_FileAttributesRecord@@@Z 00cafc54 f   kernel.obj
 0001:0009ed60       ?m_SendAckDeregister@Struct_Microsoft_Singularity_Directory_DirectoryServiceContract_Exp@@SIXPAU1@PAUStruct_Microsoft_Singularity_Directory_ServiceProviderContract_Imp@@@Z 00cafd60 f   kernel.obj
 0001:0009eec4       ?m_SendAckDeleteLink@Struct_Microsoft_Singularity_Directory_DirectoryServiceContract_Exp@@SIXPAU1@@Z 00cafec4 f   kernel.obj
 0001:0009ef9c       ?m_SendAckDeleteFile@Struct_Microsoft_Singularity_Directory_DirectoryServiceContract_Exp@@SIXPAU1@@Z 00caff9c f   kernel.obj
 0001:0009f074       ?m_SendAckDeleteDirectory@Struct_Microsoft_Singularity_Directory_DirectoryServiceContract_Exp@@SIXPAU1@@Z 00cb0074 f   kernel.obj
 0001:0009f14c       ?m_SendAckCreateLink@Struct_Microsoft_Singularity_Directory_DirectoryServiceContract_Exp@@SIXPAU1@@Z 00cb014c f   kernel.obj
 0001:0009f224       ?m_SendAckCreateFile@Struct_Microsoft_Singularity_Directory_DirectoryServiceContract_Exp@@SIXPAU1@@Z 00cb0224 f   kernel.obj
 0001:0009f2fc       ?m_SendAckCreateDirectory@Struct_Microsoft_Singularity_Directory_DirectoryServiceContract_Exp@@SIXPAU1@@Z 00cb02fc f   kernel.obj
 0001:0009f3d4       ?m_SendAckBind@Struct_Microsoft_Singularity_Directory_DirectoryServiceContract_Exp@@SIXPAU1@@Z 00cb03d4 f   kernel.obj
 0001:0009f4ac       ?m_Release@Struct_Microsoft_Singularity_Directory_DirectoryServiceContract_Exp@@SIXPAU1@@Z 00cb04ac f   kernel.obj
 0001:0009f4c4       ?m_RecvStoreACL@Struct_Microsoft_Singularity_Directory_DirectoryServiceContract_Exp@@SIXPAU1@PAPA_W11@Z 00cb04c4 f   kernel.obj
 0001:0009f650       ?m_RecvRegister@Struct_Microsoft_Singularity_Directory_DirectoryServiceContract_Exp@@SIXPAU1@PAPA_WPAPAUStruct_Microsoft_Singularity_Directory_ServiceProviderContract_Imp@@@Z 00cb0650 f   kernel.obj
 0001:0009f7b8       ?m_RecvReadEnumeration@Struct_Microsoft_Singularity_Directory_DirectoryServiceContract_Exp@@SIXPAU1@@Z 00cb07b8 f   kernel.obj
 0001:0009f904       ?m_RecvQueryACL@Struct_Microsoft_Singularity_Directory_DirectoryServiceContract_Exp@@SIXPAU1@PAPA_WPA_N@Z 00cb0904 f   kernel.obj
 0001:0009fa6c       ?m_RecvNotify@Struct_Microsoft_Singularity_Directory_DirectoryServiceContract_Exp@@SIXPAU1@PAPA_W1PA_NPAPAUStruct_Microsoft_Singularity_Directory_NotifyContract_Imp@@@Z 00cb0a6c f   kernel.obj
 0001:0009fbf0       ?m_RecvGetLinkValue@Struct_Microsoft_Singularity_Directory_DirectoryServiceContract_Exp@@SIXPAU1@PAPA_W@Z 00cb0bf0 f   kernel.obj
 0001:0009fd50       ?m_RecvGetAttributes@Struct_Microsoft_Singularity_Directory_DirectoryServiceContract_Exp@@SIXPAU1@PAPA_W@Z 00cb0d50 f   kernel.obj
 0001:0009fea8       ?m_RecvEndEnumeration@Struct_Microsoft_Singularity_Directory_DirectoryServiceContract_Exp@@SIXPAU1@@Z 00cb0ea8 f   kernel.obj
 0001:0009fff4       ?m_RecvDeregister@Struct_Microsoft_Singularity_Directory_DirectoryServiceContract_Exp@@SIXPAU1@PAPA_W@Z 00cb0ff4 f   kernel.obj
 0001:000a014c       ?m_RecvDeleteLink@Struct_Microsoft_Singularity_Directory_DirectoryServiceContract_Exp@@SIXPAU1@PAPA_W@Z 00cb114c f   kernel.obj
 0001:000a02ac       ?m_RecvDeleteFile@Struct_Microsoft_Singularity_Directory_DirectoryServiceContract_Exp@@SIXPAU1@PAPA_W@Z 00cb12ac f   kernel.obj
 0001:000a040c       ?m_RecvDeleteDirectory@Struct_Microsoft_Singularity_Directory_DirectoryServiceContract_Exp@@SIXPAU1@PAPA_W@Z 00cb140c f   kernel.obj
 0001:000a0564       ?m_RecvCreateLink@Struct_Microsoft_Singularity_Directory_DirectoryServiceContract_Exp@@SIXPAU1@PAPA_W1@Z 00cb1564 f   kernel.obj
 0001:000a06d8       ?m_RecvCreateFile@Struct_Microsoft_Singularity_Directory_DirectoryServiceContract_Exp@@SIXPAU1@PAPA_W@Z 00cb16d8 f   kernel.obj
 0001:000a0830       ?m_RecvCreateDirectory@Struct_Microsoft_Singularity_Directory_DirectoryServiceContract_Exp@@SIXPAU1@PAPA_W@Z 00cb1830 f   kernel.obj
 0001:000a0988       ?m_RecvCreateAndBindFile@Struct_Microsoft_Singularity_Directory_DirectoryServiceContract_Exp@@SIXPAU1@PAPA_WPAPAUStruct_Microsoft_Singularity_Directory_FileContract_Exp@@@Z 00cb1988 f   kernel.obj
 0001:000a0af0       ?m_RecvBind@Struct_Microsoft_Singularity_Directory_DirectoryServiceContract_Exp@@SIXPAU1@PAPA_WPAPAUStruct_Microsoft_Singularity_Directory_ServiceContract_Exp@@@Z 00cb1af0 f   kernel.obj
 0001:000a0c58       ?m_RecvBeginEnumeration@Struct_Microsoft_Singularity_Directory_DirectoryServiceContract_Exp@@SIXPAU1@@Z 00cb1c58 f   kernel.obj
 0001:000a0da4       ?m_Peek@Struct_Microsoft_Singularity_Directory_DirectoryServiceContract_Exp@@SIHPAU1@@Z 00cb1da4 f   kernel.obj
 0001:000a14d4       ?m_MarshallDeliverRegister0@Struct_Microsoft_Singularity_Directory_DirectoryServiceContract_Exp@@SIXPAU1@PA_WPAUStruct_Microsoft_Singularity_Directory_ServiceProviderContract_Imp@@PAUStruct_Microsoft_Singularity_Channels_Endpoint@@@Z 00cb24d4 f   kernel.obj
 0001:000a1514       ?m_MarshallDeliverGetAttributes0@Struct_Microsoft_Singularity_Directory_DirectoryServiceContract_Exp@@SIXPAU1@PA_WPAUStruct_Microsoft_Singularity_Channels_Endpoint@@@Z 00cb2514 f   kernel.obj
 0001:000a1550       ?m_MarshallDeliverCreateLink0@Struct_Microsoft_Singularity_Directory_DirectoryServiceContract_Exp@@SIXPAU1@PA_W1PAUStruct_Microsoft_Singularity_Channels_Endpoint@@@Z 00cb2550 f   kernel.obj
 0001:000a1590       ?m_MarshallDeliverCreateDirectory0@Struct_Microsoft_Singularity_Directory_DirectoryServiceContract_Exp@@SIXPAU1@PA_WPAUStruct_Microsoft_Singularity_Channels_Endpoint@@@Z 00cb2590 f   kernel.obj
 0001:000a15cc       ?m_MarshallDeliverBind0@Struct_Microsoft_Singularity_Directory_DirectoryServiceContract_Exp@@SIXPAU1@PA_WPAUStruct_Microsoft_Singularity_Directory_ServiceContract_Exp@@PAUStruct_Microsoft_Singularity_Channels_Endpoint@@@Z 00cb25cc f   kernel.obj
 0001:000a160c       ?m_InState@Struct_Microsoft_Singularity_Directory_DirectoryServiceContract_Exp@@SI_NPAU1@H@Z 00cb260c f   kernel.obj
 0001:000a168c       ?m_HeadMatches@Struct_Microsoft_Singularity_Directory_DirectoryServiceContract_Exp@@SI_NPAU1@HPA_NPAPAUClass_System_Object@@@Z 00cb268c f   kernel.obj
 0001:000a172c       ?m_HeadMatches@Struct_Microsoft_Singularity_Directory_DirectoryServiceContract_Exp@@SI_NPAUClass_Microsoft_Singularity_Directory_DirectoryServiceContract_Exp@@HPA_NPAPAUClass_System_Object@@@Z 00cb272c f   kernel.obj
 0001:000a1758       ?m_Equals@Struct_Microsoft_Singularity_Directory_DirectoryServiceContract_Exp@@SI_NPAU1@PAUClass_System_Object@@@Z 00cb2758 f   kernel.obj
 0001:000a2104       ?m_Equals@Struct_Microsoft_Singularity_Directory_DirectoryServiceContract_Exp@@SI_NPAUClass_Microsoft_Singularity_Directory_DirectoryServiceContract_Exp@@PAUClass_System_Object@@@Z 00cb3104 f   kernel.obj
 0001:000a2128       ?m_Dispose@Struct_Microsoft_Singularity_Directory_DirectoryServiceContract_Exp@@SIXPAU1@@Z 00cb3128 f   kernel.obj
 0001:000a2148       ?m_DeliverRegister0@Struct_Microsoft_Singularity_Directory_DirectoryServiceContract_Exp@@SIXPAU1@PA_WPAUStruct_Microsoft_Singularity_Directory_ServiceProviderContract_Imp@@@Z 00cb3148 f   kernel.obj
 0001:000a2184       ?m_DeliverGetAttributes0@Struct_Microsoft_Singularity_Directory_DirectoryServiceContract_Exp@@SIXPAU1@PA_W@Z 00cb3184 f   kernel.obj
 0001:000a21b8       ?m_DeliverCreateLink0@Struct_Microsoft_Singularity_Directory_DirectoryServiceContract_Exp@@SIXPAU1@PA_W1@Z 00cb31b8 f   kernel.obj
 0001:000a21f8       ?m_DeliverCreateDirectory0@Struct_Microsoft_Singularity_Directory_DirectoryServiceContract_Exp@@SIXPAU1@PA_W@Z 00cb31f8 f   kernel.obj
 0001:000a222c       ?m_DeliverBind0@Struct_Microsoft_Singularity_Directory_DirectoryServiceContract_Exp@@SIXPAU1@PA_WPAUStruct_Microsoft_Singularity_Directory_ServiceContract_Exp@@@Z 00cb322c f   kernel.obj
 0001:000a2268       ?m_CurrentState@Struct_Microsoft_Singularity_Directory_DirectoryServiceContract_Exp@@SIPAUClass_System_String@@PAU1@@Z 00cb3268 f   kernel.obj
 0001:000a2510       ?m_Acquire@Struct_Microsoft_Singularity_Directory_DirectoryServiceContract_Exp@@SIXPAU1@@Z 00cb3510 f   kernel.obj
 0001:000a2528       ?m__ctor@Struct_Microsoft_Singularity_Directory_DirectoryServiceContract_Exp@@SIXPAU1@H@Z 00cb3528 f   kernel.obj
 0001:000a2548       ?g_CreateNameSpaceModifierObj@Class_Microsoft_Singularity_Hal_Acpi_AmlParserUnions_AmlObject@@SIPAU1@PAUClass_Microsoft_Singularity_Hal_Acpi_AmlParserUnions_NameSpaceModifierObj@@@Z 00cb3548 f   kernel.obj
 0001:000a2588       ?g_CreateNamedObj@Class_Microsoft_Singularity_Hal_Acpi_AmlParserUnions_AmlObject@@SIPAU1@PAUClass_Microsoft_Singularity_Hal_Acpi_AmlParserUnions_NamedObj@@@Z 00cb3588 f   kernel.obj
 0001:000a25cc       ?m_AcceptAlternative@Class_Microsoft_Singularity_Hal_Acpi_AmlParserUnions_AmlObject@@SIXPAU1@PAUClass_Microsoft_Singularity_Hal_Acpi_AmlParserNodeVisitor@@@Z 00cb35cc f   kernel.obj
 0001:000a2608       ?m_Accept@Class_Microsoft_Singularity_Hal_Acpi_AmlParserUnions_AmlObject@@SIXPAU1@PAUClass_Microsoft_Singularity_Hal_Acpi_AmlParserNodeVisitor@@@Z 00cb3608 f   kernel.obj
 0001:000a2634       ?m__ctor@Class_Microsoft_Singularity_Hal_Acpi_AmlParserUnions_AmlObject@@SIXPAU1@UStruct_Microsoft_Singularity_Hal_Acpi_AmlParserUnions_AmlObject_TagValue@@PAUClass_System_Object@@@Z 00cb3634 f   kernel.obj
 0001:000a2670       ?m_ToString@intPtr@@SIPAUClass_System_String@@PAPAU1@@Z 00cb3670 f   kernel.obj
 0001:000a269c       ?m_ToString@intPtr@@SIPAUClass_System_String@@PAUClass_System_IntPtr@@@Z 00cb369c f   kernel.obj
 0001:000a26e4       ?m_GetHashCode@intPtr@@SIHPAPAU1@@Z 00cb36e4 f   kernel.obj
 0001:000a2700       ?m_GetHashCode@intPtr@@SIHPAUClass_System_IntPtr@@@Z 00cb3700 f   kernel.obj
 0001:000a2720       ?m_Equals@intPtr@@SI_NPAPAU1@PAUClass_System_Object@@@Z 00cb3720 f   kernel.obj
 0001:000a2770       ?m_Equals@intPtr@@SI_NPAUClass_System_IntPtr@@PAUClass_System_Object@@@Z 00cb3770 f   kernel.obj
 0001:000a2794       ?m_StructCopy@Struct_Microsoft_Singularity_Isal_IX_DescriptorTable@@SIXPAU1@0@Z 00cb3794 f   kernel.obj
 0001:000a27cc       ?m_StructCopy@Struct_Microsoft_Singularity_Isal_IX_DescriptorTable@@SIXPAU1@PAU1@@Z 00cb37cc f   kernel.obj
 0001:000a2874       ?m_Equals@Struct_Microsoft_Singularity_Isal_IX_DescriptorTable@@SI_NPAU1@PAUClass_System_Object@@@Z 00cb3874 f   kernel.obj
 0001:000a29b4       ?m_Equals@Struct_Microsoft_Singularity_Isal_IX_DescriptorTable@@SI_NPAUClass_Microsoft_Singularity_Isal_IX_DescriptorTable@@PAUClass_System_Object@@@Z 00cb39b4 f   kernel.obj
 0001:000a29d8       ?m_Accept@Class_Microsoft_Singularity_Hal_Acpi_AmlParser_TimeOut@@SIXPAU1@PAUClass_Microsoft_Singularity_Hal_Acpi_AmlParserNodeVisitor@@@Z 00cb39d8 f   kernel.obj
 0001:000a2a04       ?m__ctor@Class_Microsoft_Singularity_Hal_Acpi_AmlParser_TimeOut@@SIXPAU1@@Z 00cb3a04 f   kernel.obj
 0001:000a2a24       ?m_ToString@Class_Microsoft_Singularity_Io_DeviceNode@@SIPAUClass_System_String@@PAU1@@Z 00cb3a24 f   kernel.obj
 0001:000a2abc       ?m_System_Object_Object_ToString@Class_Microsoft_Singularity_Io_DeviceNode@@SIPAUClass_System_String@@PAU1@@Z 00cb3abc f   kernel.obj
 0001:000a2af0       ?m__ctor@Class_Microsoft_Singularity_Io_DeviceNode@@SIXPAU1@PAUClass_System_String@@1PAUClass_Microsoft_Singularity_Io_IoConfig@@@Z 00cb3af0 f   kernel.obj
 0001:000a2b48       ?m_VisitReferenceFields@Class_System_GCs_Barrier_CopyFieldsVisitor@@SIXPAU1@PAUClass_System_VTable@@PAUuintPtr@@2@Z 00cb3b48 f   kernel.obj
 0001:000a338c       ?m_VisitReferenceFields@Class_System_GCs_Barrier_CopyFieldsVisitor@@SIXPAU1@PAUClass_System_VTable@@PAUuintPtr@@2H@Z 00cb438c f   kernel.obj
 0001:000a34e0       ?m_VisitReferenceFields@Class_System_GCs_Barrier_CopyFieldsVisitor@@SIXPAU1@PAUClass_System_Object@@1@Z 00cb44e0 f   kernel.obj
 0001:000a3d24       ?m_FieldOffset@Class_System_GCs_Barrier_CopyFieldsVisitor@@SIXPAU1@PAUuintPtr@@PAUStruct_System_GCs_ReferenceVisitor_ObjectDescriptor@@@Z 00cb4d24 f   kernel.obj
 0001:000a3de0       ?m__ctor@Class_System_GCs_Barrier_CopyFieldsVisitor@@SIXPAU1@@Z 00cb4de0 f   kernel.obj
 0001:000a3e00       ?g_WriteNotSupported@Class_Microsoft_Singularity_Io_Error@@SIXXZ 00cb4e00 f   kernel.obj
 0001:000a3e3c       ?g_ReadNotSupported@Class_Microsoft_Singularity_Io_Error@@SIXXZ 00cb4e3c f   kernel.obj
 0001:000a3e78       ?g_AccessOutOfRange@Class_Microsoft_Singularity_Io_Error@@SIXXZ 00cb4e78 f   kernel.obj
 0001:000a3eb4       ?m__ctor@Class_Microsoft_Singularity_Io_Error@@SIXPAU1@@Z 00cb4eb4 f   kernel.obj
 0001:000a3ecc       ?g_Create@Class_Microsoft_Singularity_Eventing_ControllerLogger@@SIPAU1@PAUClass_System_String@@PAUClass_Microsoft_Singularity_Eventing_EventingStorage@@@Z 00cb4ecc f   kernel.obj
 0001:000a3f34       ?m__ctor@Class_Microsoft_Singularity_Eventing_ControllerLogger@@SIXPAU1@PAUClass_System_String@@PAUClass_Microsoft_Singularity_Eventing_EventingStorage@@I@Z 00cb4f34 f   kernel.obj
 0001:000a3f5c       ?m__ctor@Class_System_RankException@@SIXPAU1@@Z 00cb4f5c f   kernel.obj
 0001:000a3f80       ?m__ctor@Class_System_RankException@@SIXPAU1@PAUClass_System_String@@@Z 00cb4f80 f   kernel.obj
 0001:000a3fa0       ?m_StructCopy@Struct_Microsoft_Singularity_Diagnostics_Contracts_ProcessContract_Ready@@SIXPAU1@0@Z 00cb4fa0 f   kernel.obj
 0001:000a3fbc       ?m_StructCopy@Struct_Microsoft_Singularity_Diagnostics_Contracts_ProcessContract_Ready@@SIXPAU1@PAU1@@Z 00cb4fbc f   kernel.obj
 0001:000a4010       ?m_MarshallContent@Struct_Microsoft_Singularity_Diagnostics_Contracts_ProcessContract_Ready@@SIXPAU1@PAEPAUStruct_Microsoft_Singularity_Channels_Endpoint@@1PAH@Z 00cb5010 f   kernel.obj
 0001:000a4030       ?m_MarshallAll@Struct_Microsoft_Singularity_Diagnostics_Contracts_ProcessContract_Ready@@SIXPAU1@PAEPAUStruct_Microsoft_Singularity_Channels_Endpoint@@PAH@Z 00cb5030 f   kernel.obj
 0001:000a4080       ?m_Equals@Struct_Microsoft_Singularity_Diagnostics_Contracts_ProcessContract_Ready@@SI_NPAU1@PAUClass_System_Object@@@Z 00cb5080 f   kernel.obj
 0001:000a40b4       ?m_Equals@Struct_Microsoft_Singularity_Diagnostics_Contracts_ProcessContract_Ready@@SI_NPAUClass_Microsoft_Singularity_Diagnostics_Contracts_ProcessContract_Ready@@PAUClass_System_Object@@@Z 00cb50b4 f   kernel.obj
 0001:000a40d8       ?m_Accept@Class_Microsoft_Singularity_Hal_Acpi_AmlParser_DefElse@@SIXPAU1@PAUClass_Microsoft_Singularity_Hal_Acpi_AmlParserNodeVisitor@@@Z 00cb50d8 f   kernel.obj
 0001:000a4108       ?m__ctor@Class_Microsoft_Singularity_Hal_Acpi_AmlParser_DefElse@@SIXPAU1@@Z 00cb5108 f   kernel.obj
 0001:000a4128       ?m_StructCopy@Struct_Microsoft_Singularity_Directory_DirectoryServiceContract_CreateFile@@SIXPAU1@0@Z 00cb5128 f   kernel.obj
 0001:000a4148       ?m_StructCopy@Struct_Microsoft_Singularity_Directory_DirectoryServiceContract_CreateFile@@SIXPAU1@PAU1@@Z 00cb5148 f   kernel.obj
 0001:000a41a8       ?m_Equals@Struct_Microsoft_Singularity_Directory_DirectoryServiceContract_CreateFile@@SI_NPAU1@PAUClass_System_Object@@@Z 00cb51a8 f   kernel.obj
 0001:000a41e4       ?m_Equals@Struct_Microsoft_Singularity_Directory_DirectoryServiceContract_CreateFile@@SI_NPAUClass_Microsoft_Singularity_Directory_DirectoryServiceContract_CreateFile@@PAUClass_System_Object@@@Z 00cb51e4 f   kernel.obj
 0001:000a4208       ?m_StructCopy@Struct_Microsoft_Singularity_Isal_IX_PE@@SIXPAU1@0@Z 00cb5208 f   kernel.obj
 0001:000a4224       ?m_StructCopy@Struct_Microsoft_Singularity_Isal_IX_PE@@SIXPAU1@PAU1@@Z 00cb5224 f   kernel.obj
 0001:000a4278       ?m_Equals@Struct_Microsoft_Singularity_Isal_IX_PE@@SI_NPAU1@PAUClass_System_Object@@@Z 00cb5278 f   kernel.obj
 0001:000a42ac       ?m_Equals@Struct_Microsoft_Singularity_Isal_IX_PE@@SI_NPAUClass_Microsoft_Singularity_Isal_IX_PE@@PAUClass_System_Object@@@Z 00cb52ac f   kernel.obj
 0001:000a42d0       ?g_WriterIsValid@Class_System_UpdateLog@@SI_NUStruct_System_UpdateLogWriter@@@Z 00cb52d0 f   kernel.obj
 0001:000a42ec       ?m_VisitWeakRefs@Class_System_UpdateLog@@SIXPAU1@PAUClass_System_TryAllManager@@PAUClass_System_GCs_DirectReferenceVisitor@@@Z 00cb52ec f   kernel.obj
 0001:000a46f4       ?m_VisitStrongRefs@Class_System_UpdateLog@@SIXPAU1@PAUClass_System_TryAllManager@@PAUClass_System_GCs_DirectReferenceVisitor@@@Z 00cb56f4 f   kernel.obj
 0001:000a48cc       ?g_SyncFromWriter@Class_System_UpdateLog@@SIXPAUClass_System_TryAllManager@@@Z 00cb58cc f   kernel.obj
 0001:000a4930       ?g_InitWriter@Class_System_UpdateLog@@SIXPAUClass_System_TryAllManager@@@Z 00cb5930 f   kernel.obj
 0001:000a4990       ?m_get$_CurrentLocation@Class_System_UpdateLog@@SI?AUStruct_System_UpdateLog_Location@@PAU1@@Z 00cb5990 f   kernel.obj
 0001:000a4a18       ?m_AddrToIndex@Class_System_UpdateLog@@SIIPAU1@PAUStruct_System_UpdateLog_Entry@@@Z 00cb5a18 f   kernel.obj
 0001:000a4a90       ?m_AddrOfEntry@Class_System_UpdateLog@@SIPAUStruct_System_UpdateLog_Entry@@PAU1@H@Z 00cb5a90 f   kernel.obj
 0001:000a4b08       ?m__ctor@Class_System_UpdateLog@@SIXPAU1@@Z 00cb5b08 f   kernel.obj
 0001:000a4b70       ?g_Verify@Struct_System_GCs_PageManager_UnusedBlockHeader@@SIXPAU1@@Z 00cb5b70 f   kernel.obj
 0001:000a4dac       ?m_StructCopy@Struct_System_GCs_PageManager_UnusedBlockHeader@@SIXPAU1@0@Z 00cb5dac f   kernel.obj
 0001:000a4de4       ?m_StructCopy@Struct_System_GCs_PageManager_UnusedBlockHeader@@SIXPAU1@PAU1@@Z 00cb5de4 f   kernel.obj
 0001:000a4e8c       ?g_Remove@Struct_System_GCs_PageManager_UnusedBlockHeader@@SIPAUuintPtr@@PAU1@@Z 00cb5e8c f   kernel.obj
 0001:000a4f20       ?g_InsertNext@Struct_System_GCs_PageManager_UnusedBlockHeader@@SIXPAU1@0@Z 00cb5f20 f   kernel.obj
 0001:000a4f60       ?g_Initialize@Struct_System_GCs_PageManager_UnusedBlockHeader@@SIXPAU1@PAUuintPtr@@@Z 00cb5f60 f   kernel.obj
 0001:000a4fc0       ?m_Equals@Struct_System_GCs_PageManager_UnusedBlockHeader@@SI_NPAU1@PAUClass_System_Object@@@Z 00cb5fc0 f   kernel.obj
 0001:000a5024       ?m_Equals@Struct_System_GCs_PageManager_UnusedBlockHeader@@SI_NPAUClass_System_GCs_PageManager_UnusedBlockHeader@@PAUClass_System_Object@@@Z 00cb6024 f   kernel.obj
 0001:000a5048       ?m_StructCopy@Struct_Microsoft_Singularity_Diagnostics_Contracts_ChannelContract_Exp@@SIXPAU1@0@Z 00cb6048 f   kernel.obj
 0001:000a50f8       ?m_StructCopy@Struct_Microsoft_Singularity_Diagnostics_Contracts_ChannelContract_Exp@@SIXPAU1@PAU1@@Z 00cb60f8 f   kernel.obj
 0001:000a5308       ?m_SendReady@Struct_Microsoft_Singularity_Diagnostics_Contracts_ChannelContract_Exp@@SIXPAU1@@Z 00cb6308 f   kernel.obj
 0001:000a53e0       ?m_SendChannelStats@Struct_Microsoft_Singularity_Diagnostics_Contracts_ChannelContract_Exp@@SIXPAU1@_J11@Z 00cb63e0 f   kernel.obj
 0001:000a54e0       ?m_SendChannels@Struct_Microsoft_Singularity_Diagnostics_Contracts_ChannelContract_Exp@@SIXPAU1@PAUStruct_Microsoft_Singularity_Diagnostics_Contracts_ChannelInfo@@@Z 00cb64e0 f   kernel.obj
 0001:000a55cc       ?m_RecvGetChannelStats@Struct_Microsoft_Singularity_Diagnostics_Contracts_ChannelContract_Exp@@SIXPAU1@@Z 00cb65cc f   kernel.obj
 0001:000a5718       ?m_RecvGetChannels@Struct_Microsoft_Singularity_Diagnostics_Contracts_ChannelContract_Exp@@SIXPAU1@@Z 00cb6718 f   kernel.obj
 0001:000a5864       ?m_Peek@Struct_Microsoft_Singularity_Diagnostics_Contracts_ChannelContract_Exp@@SIHPAU1@@Z 00cb6864 f   kernel.obj
 0001:000a5a04       ?m_HeadMatches@Struct_Microsoft_Singularity_Diagnostics_Contracts_ChannelContract_Exp@@SI_NPAU1@HPA_NPAPAUClass_System_Object@@@Z 00cb6a04 f   kernel.obj
 0001:000a5aa4       ?m_HeadMatches@Struct_Microsoft_Singularity_Diagnostics_Contracts_ChannelContract_Exp@@SI_NPAUClass_Microsoft_Singularity_Diagnostics_Contracts_ChannelContract_Exp@@HPA_NPAPAUClass_System_Object@@@Z 00cb6aa4 f   kernel.obj
