; Listing generated by Microsoft (R) Optimizing Compiler Version 14.00.50727.762 

	TITLE	C:\Users\cc\source\repos\Singularity-OS\base\Kernel\testpe.cpp
	.686P
	.XMM
	include listing.inc
	.model	flat

INCLUDELIB LIBCMT
INCLUDELIB OLDNAMES

PUBLIC	?test8@@YIEXZ					; test8
; Function compile flags: /Ogtp
; File c:\users\cc\source\repos\singularity-os\base\kernel\testpe.cpp
;	COMDAT ?test8@@YIEXZ
_TEXT	SEGMENT
?test8@@YIEXZ PROC					; test8, COMDAT

; 52   :     return 0;

  00000	32 c0		 xor	 al, al

; 53   : }

  00002	c3		 ret	 0
?test8@@YIEXZ ENDP					; test8
_TEXT	ENDS
PUBLIC	?test16@@YIGXZ					; test16
; Function compile flags: /Ogtp
;	COMDAT ?test16@@YIGXZ
_TEXT	SEGMENT
?test16@@YIGXZ PROC					; test16, COMDAT

; 57   :     return 0;

  00000	66 33 c0	 xor	 ax, ax

; 58   : }

  00003	c3		 ret	 0
?test16@@YIGXZ ENDP					; test16
_TEXT	ENDS
PUBLIC	?test32@@YIIXZ					; test32
; Function compile flags: /Ogtp
;	COMDAT ?test32@@YIIXZ
_TEXT	SEGMENT
?test32@@YIIXZ PROC					; test32, COMDAT

; 62   :     return 0;

  00000	33 c0		 xor	 eax, eax

; 63   : }

  00002	c3		 ret	 0
?test32@@YIIXZ ENDP					; test32
_TEXT	ENDS
PUBLIC	?test64@@YI_KXZ					; test64
; Function compile flags: /Ogtp
;	COMDAT ?test64@@YI_KXZ
_TEXT	SEGMENT
?test64@@YI_KXZ PROC					; test64, COMDAT

; 67   :     return 0;

  00000	33 c0		 xor	 eax, eax
  00002	33 d2		 xor	 edx, edx

; 68   : }

  00004	c3		 ret	 0
?test64@@YI_KXZ ENDP					; test64
_TEXT	ENDS
PUBLIC	@entry@4
EXTRN	?g_Print@Struct_Microsoft_Singularity_V1_Services_DebugService@@SIXH@Z:PROC ; Struct_Microsoft_Singularity_V1_Services_DebugService::g_Print
EXTRN	?g_Waypoint@Struct_Microsoft_Singularity_V1_Services_ProcessService@@SIXH@Z:PROC ; Struct_Microsoft_Singularity_V1_Services_ProcessService::g_Waypoint
; Function compile flags: /Ogtp
;	COMDAT @entry@4
_TEXT	SEGMENT
@entry@4 PROC						; COMDAT
; _threadIndex$ = ecx

; 77   : {

  00000	56		 push	 esi
  00001	8b f1		 mov	 esi, ecx

; 78   :     if (threadIndex == -1) {

  00003	83 fe ff	 cmp	 esi, -1
  00006	75 0e		 jne	 SHORT $LN2@

; 79   : #if MAXIMUM
; 80   :         Struct_Microsoft_Singularity_V1_Services_DebugService::g_Print('-');
; 81   :         Struct_Microsoft_Singularity_V1_Services_DebugService::g_Print('H');
; 82   : 
; 83   :         uint64 unlinkBegin = 0;
; 84   :         uint64 unlinkLimit = 0;
; 85   : 
; 86   :         Struct_Microsoft_Singularity_V1_Services_StackService::g_GetUnlinkStackRange
; 87   :             (&unlinkBegin, &unlinkLimit);
; 88   :         Struct_Microsoft_Singularity_V1_Services_DebugService::g_Print(unlinkBegin);
; 89   :         Struct_Microsoft_Singularity_V1_Services_DebugService::g_Print(' ');
; 90   :         Struct_Microsoft_Singularity_V1_Services_DebugService::g_Print(unlinkLimit);
; 91   :         Struct_Microsoft_Singularity_V1_Services_DebugService::g_Print('\n');
; 92   : 
; 93   :         Struct_Microsoft_Singularity_V1_Services_DebugService::g_Print('-');
; 94   :         Struct_Microsoft_Singularity_V1_Services_StackService::g_WalkStack();
; 95   :         Struct_Microsoft_Singularity_V1_Services_DebugService::g_Print('-');
; 96   : #else
; 97   :         Struct_Microsoft_Singularity_V1_Services_ProcessService::g_Waypoint(999);

  00008	b9 e7 03 00 00	 mov	 ecx, 999		; 000003e7H
  0000d	e8 00 00 00 00	 call	 ?g_Waypoint@Struct_Microsoft_Singularity_V1_Services_ProcessService@@SIXH@Z ; Struct_Microsoft_Singularity_V1_Services_ProcessService::g_Waypoint

; 109  : #endif
; 110  :     }
; 111  :     return 0;

  00012	33 c0		 xor	 eax, eax
  00014	5e		 pop	 esi

; 112  : }

  00015	c3		 ret	 0
$LN2@:

; 98   : #endif
; 99   :     }
; 100  :     else {
; 101  : #if MAXIMUM
; 102  :         Struct_Microsoft_Singularity_V1_Services_DebugService::g_Print('T');
; 103  :         Struct_Microsoft_Singularity_V1_Services_DebugService::g_Print(threadIndex);
; 104  :         Struct_Microsoft_Singularity_V1_Services_DebugService::g_Print('\n');
; 105  : #else
; 106  :         Struct_Microsoft_Singularity_V1_Services_DebugService::g_Print('T');

  00016	b9 54 00 00 00	 mov	 ecx, 84			; 00000054H
  0001b	e8 00 00 00 00	 call	 ?g_Print@Struct_Microsoft_Singularity_V1_Services_DebugService@@SIXH@Z ; Struct_Microsoft_Singularity_V1_Services_DebugService::g_Print

; 107  :         Struct_Microsoft_Singularity_V1_Services_DebugService::g_Print(threadIndex);

  00020	8b ce		 mov	 ecx, esi
  00022	e8 00 00 00 00	 call	 ?g_Print@Struct_Microsoft_Singularity_V1_Services_DebugService@@SIXH@Z ; Struct_Microsoft_Singularity_V1_Services_DebugService::g_Print

; 108  :         Struct_Microsoft_Singularity_V1_Services_DebugService::g_Print('\n');

  00027	b9 0a 00 00 00	 mov	 ecx, 10			; 0000000aH
  0002c	e8 00 00 00 00	 call	 ?g_Print@Struct_Microsoft_Singularity_V1_Services_DebugService@@SIXH@Z ; Struct_Microsoft_Singularity_V1_Services_DebugService::g_Print

; 109  : #endif
; 110  :     }
; 111  :     return 0;

  00031	33 c0		 xor	 eax, eax
  00033	5e		 pop	 esi

; 112  : }

  00034	c3		 ret	 0
@entry@4 ENDP
_TEXT	ENDS
END
